TMS320C2000 Assembler PC v20.2.1 Wed Feb 17 17:05:46 2021

Copyright (c) 1996-2018 Texas Instruments Incorporated
app.asm                                                              PAGE    1

       1              ;***************************************************************
       2              ;* TMS320C2000 G3 C/C++ Codegen                               PC v20.2.1.LTS *
       3              ;* Date/Time created: Wed Feb 17 17:05:46 2021                 *
       4              ;***************************************************************
       5                      .compiler_opts --abi=coffabi --diag_wrap=off --float_support=softlib --hll_source=on --mem_model:code
       6                      .asg    XAR2, FP
       7              
       8              $C$DW$CU        .dwtag  DW_TAG_compile_unit
       9                      .dwattr $C$DW$CU, DW_AT_name("C:/ti/Workspace/PLC_certificate/Examples/TI/TMDSDOCK28335/OS2/app.c")
      10                      .dwattr $C$DW$CU, DW_AT_producer("TI TMS320C2000 G3 C/C++ Codegen PC v20.2.1.LTS Copyright (c) 1996-2
      11                      .dwattr $C$DW$CU, DW_AT_TI_version(0x01)
      12                      .dwattr $C$DW$CU, DW_AT_comp_dir("C:\ti\Workspace\PLC_certificate\Examples\TI\TMDSDOCK28335\OS2\CCS\D
      13              ;**************************************************************
      14              ;* CINIT RECORDS                                              *
      15              ;**************************************************************
      16 00000000               .sect   ".cinit"
      17                      .align  1
      18 00000000 FFFF          .field          -1,16
      19 00000001 0000-         .field          _Status_Sync_ExTime+0,32
         00000002 0000 
      20 00000003 0001          .bits           0x1,16
      21                                      ; _Status_Sync_ExTime @ 0
      22              
      23 00000004               .sect   ".cinit"
      24                      .align  1
      25 00000004 FFFF          .field          -1,16
      26 00000005 0001-         .field          _Init_Update_EXTime+0,32
         00000006 0000 
      27 00000007 0001          .bits           0x1,16
      28                                      ; _Init_Update_EXTime @ 0
      29              
      30 00000008               .sect   ".cinit"
      31                      .align  1
      32 00000008 FFFF          .field          -1,16
      33 00000009 000A-         .field          _User_certification_ExTime+0,32
         0000000a 0000 
      34 0000000b 0001          .bits           0x1,16
      35                                      ; _User_certification_ExTime @ 0
      36              
      37 0000000c               .sect   ".cinit"
      38                      .align  1
      39 0000000c FFFF          .field          -1,16
      40 0000000d 000B-         .field          _UART_Reception_ExTime+0,32
         0000000e 0000 
      41 0000000f 0001          .bits           0x1,16
      42                                      ; _UART_Reception_ExTime @ 0
      43              
      44 00000010               .sect   ".cinit"
      45                      .align  1
      46 00000010 FFFF          .field          -1,16
      47 00000011 000C-         .field          _UART_Transmission_ExTime+0,32
         00000012 0000 
      48 00000013 0001          .bits           0x1,16
      49                                      ; _UART_Transmission_ExTime @ 0
      50              
TMS320C2000 Assembler PC v20.2.1 Wed Feb 17 17:05:46 2021

Copyright (c) 1996-2018 Texas Instruments Incorporated
app.asm                                                              PAGE    2

      51 00000014               .sect   ".cinit"
      52                      .align  1
      53 00000014 FFFF          .field          -1,16
      54 00000015 000D-         .field          _Diagnosis_ExTime+0,32
         00000016 0000 
      55 00000017 0001          .bits           0x1,16
      56                                      ; _Diagnosis_ExTime @ 0
      57              
      58 00000018               .sect   ".cinit"
      59                      .align  1
      60 00000018 FFFF          .field          -1,16
      61 00000019 000E-         .field          _Data_Sync_ExTime+0,32
         0000001a 0000 
      62 0000001b 0001          .bits           0x1,16
      63                                      ; _Data_Sync_ExTime @ 0
      64              
      65 0000001c               .sect   ".cinit"
      66                      .align  1
      67 0000001c FFFF          .field          -1,16
      68 0000001d 000F-         .field          _User_Task_Cnt+0,32
         0000001e 0000 
      69 0000001f 0000          .bits           0,16
      70                                      ; _User_Task_Cnt @ 0
      71              
      72 00000020               .sect   ".cinit"
      73                      .align  1
      74 00000020 FFFF          .field          -1,16
      75 00000021 0010-         .field          _TaskID+0,32
         00000022 0000 
      76 00000023 0000          .bits           0,16
      77                                      ; _TaskID @ 0
      78              
      79 00000024               .sect   ".cinit"
      80                      .align  1
      81 00000024 FFFF          .field          -1,16
      82 00000025 0013-         .field          _UserCert_flag+0,32
         00000026 0000 
      83 00000027 0000          .bits           0,16
      84                                      ; _UserCert_flag @ 0
      85              
      86 00000028               .sect   ".cinit"
      87                      .align  1
      88 00000028 FFFF          .field          -1,16
      89 00000029 0014-         .field          _certification_flag1+0,32
         0000002a 0000 
      90 0000002b 0000          .bits           0,16
      91                                      ; _certification_flag1 @ 0
      92              
      93 0000002c               .sect   ".cinit"
      94                      .align  1
      95 0000002c FFFF          .field          -1,16
      96 0000002d 0015-         .field          _certification_flag1_1+0,32
         0000002e 0000 
      97 0000002f 0000          .bits           0,16
      98                                      ; _certification_flag1_1 @ 0
TMS320C2000 Assembler PC v20.2.1 Wed Feb 17 17:05:46 2021

Copyright (c) 1996-2018 Texas Instruments Incorporated
app.asm                                                              PAGE    3

      99              
     100 00000030               .sect   ".cinit"
     101                      .align  1
     102 00000030 FFFF          .field          -1,16
     103 00000031 0016-         .field          _certification_flag2+0,32
         00000032 0000 
     104 00000033 0000          .bits           0,16
     105                                      ; _certification_flag2 @ 0
     106              
     107 00000034               .sect   ".cinit"
     108                      .align  1
     109 00000034 FFFF          .field          -1,16
     110 00000035 0017-         .field          _aes_flag+0,32
         00000036 0000 
     111 00000037 0000          .bits           0,16
     112                                      ; _aes_flag @ 0
     113              
     114 00000038               .sect   ".cinit"
     115                      .align  1
     116 00000038 FFFF          .field          -1,16
     117 00000039 0018-         .field          _seq1_flag+0,32
         0000003a 0000 
     118 0000003b 0000          .bits           0,16
     119                                      ; _seq1_flag @ 0
     120              
     121 0000003c               .sect   ".cinit"
     122                      .align  1
     123 0000003c FFFF          .field          -1,16
     124 0000003d 0019-         .field          _psh_flag+0,32
         0000003e 0000 
     125 0000003f 0000          .bits           0,16
     126                                      ; _psh_flag @ 0
     127              
     128 00000000               .sect   ".cinit:_R_PLC_NoneCrypt"
     129                      .clink
     130                      .align  1
     131 00000000 FFFF          .field          -$C$IR_1,16
     132 00000001 0000-         .field          _R_PLC_NoneCrypt+0,32
         00000002 0000 
     133 00000003 0000          .bits           0,16
     134                                      ; _R_PLC_NoneCrypt[0] @ 0
     135        0001  $C$IR_1:        .set    1
     136              
     137 00000000               .sect   ".cinit:_User_ID"
     138                      .clink
     139                      .align  1
     140 00000000 FFFB          .field          -$C$IR_2,16
     141 00000001 0000-         .field          _User_ID+0,32
         00000002 0000 
     142 00000003 0063          .bits           0x63,16
     143                                      ; _User_ID[0] @ 0
     144 00000004 0073          .bits           0x73,16
     145                                      ; _User_ID[1] @ 16
     146 00000005 006F          .bits           0x6f,16
     147                                      ; _User_ID[2] @ 32
TMS320C2000 Assembler PC v20.2.1 Wed Feb 17 17:05:46 2021

Copyright (c) 1996-2018 Texas Instruments Incorporated
app.asm                                                              PAGE    4

     148 00000006 0073          .bits           0x73,16
     149                                      ; _User_ID[3] @ 48
     150 00000007 0000          .bits           0,16
     151                                      ; _User_ID[4] @ 64
     152        0005  $C$IR_2:        .set    5
     153              
     154 00000000               .sect   ".cinit:_User_password"
     155                      .clink
     156                      .align  1
     157 00000000 FFFB          .field          -$C$IR_3,16
     158 00000001 0000-         .field          _User_password+0,32
         00000002 0000 
     159 00000003 0031          .bits           0x31,16
     160                                      ; _User_password[0] @ 0
     161 00000004 0032          .bits           0x32,16
     162                                      ; _User_password[1] @ 16
     163 00000005 0033          .bits           0x33,16
     164                                      ; _User_password[2] @ 32
     165 00000006 0034          .bits           0x34,16
     166                                      ; _User_password[3] @ 48
     167 00000007 0000          .bits           0,16
     168                                      ; _User_password[4] @ 64
     169        0005  $C$IR_3:        .set    5
     170              
     171 00000000               .sect   ".cinit:_User_MAC_Address"
     172                      .clink
     173                      .align  1
     174 00000000 FFFA          .field          -$C$IR_4,16
     175 00000001 0000-         .field          _User_MAC_Address+0,32
         00000002 0000 
     176 00000003 00D4          .bits           0xd4,16
     177                                      ; _User_MAC_Address[0] @ 0
     178 00000004 005D          .bits           0x5d,16
     179                                      ; _User_MAC_Address[1] @ 16
     180 00000005 0064          .bits           0x64,16
     181                                      ; _User_MAC_Address[2] @ 32
     182 00000006 004A          .bits           0x4a,16
     183                                      ; _User_MAC_Address[3] @ 48
     184 00000007 001E          .bits           0x1e,16
     185                                      ; _User_MAC_Address[4] @ 64
     186 00000008 003A          .bits           0x3a,16
     187                                      ; _User_MAC_Address[5] @ 80
     188        0006  $C$IR_4:        .set    6
     189              
     190 00000000               .sect   ".cinit:_R_PLC"
     191                      .clink
     192                      .align  1
     193 00000000 FFFF          .field          -$C$IR_5,16
     194 00000001 0000-         .field          _R_PLC+0,32
         00000002 0000 
     195 00000003 0000          .bits           0,16
     196                                      ; _R_PLC[0] @ 0
     197        0001  $C$IR_5:        .set    1
     198              
     199 00000000               .sect   ".cinit:_Reply_flag"
TMS320C2000 Assembler PC v20.2.1 Wed Feb 17 17:05:46 2021

Copyright (c) 1996-2018 Texas Instruments Incorporated
app.asm                                                              PAGE    5

     200                      .clink
     201                      .align  1
     202 00000000 FFFF          .field          -$C$IR_6,16
     203 00000001 0000-         .field          _Reply_flag+0,32
         00000002 0000 
     204 00000003 0000          .bits           0,16
     205                                      ; _Reply_flag[0] @ 0
     206        0001  $C$IR_6:        .set    1
     207              
     208 00000000               .sect   ".cinit:_Hash_Data_Before"
     209                      .clink
     210                      .align  1
     211 00000000 FFFF          .field          -$C$IR_7,16
     212 00000001 0000-         .field          _Hash_Data_Before+0,32
         00000002 0000 
     213 00000003 0000          .bits           0,16
     214                                      ; _Hash_Data_Before[0] @ 0
     215        0001  $C$IR_7:        .set    1
     216              
     217 00000000               .sect   ".cinit:_hash"
     218                      .clink
     219                      .align  1
     220 00000000 FFFF          .field          -$C$IR_8,16
     221 00000001 0000-         .field          _hash+0,32
         00000002 0000 
     222 00000003 0000          .bits           0,16
     223                                      ; _hash[0] @ 0
     224        0001  $C$IR_8:        .set    1
     225              
     226              
     227              $C$DW$1 .dwtag  DW_TAG_subprogram
     228                      .dwattr $C$DW$1, DW_AT_name("CPU_Init")
     229                      .dwattr $C$DW$1, DW_AT_TI_symbol_name("_CPU_Init")
     230                      .dwattr $C$DW$1, DW_AT_declaration
     231                      .dwattr $C$DW$1, DW_AT_external
     232                      .dwendtag $C$DW$1
     233              
     234              
     235              $C$DW$2 .dwtag  DW_TAG_subprogram
     236                      .dwattr $C$DW$2, DW_AT_name("BSP_Init")
     237                      .dwattr $C$DW$2, DW_AT_TI_symbol_name("_BSP_Init")
     238                      .dwattr $C$DW$2, DW_AT_declaration
     239                      .dwattr $C$DW$2, DW_AT_external
     240                      .dwendtag $C$DW$2
     241              
     242              
     243              $C$DW$3 .dwtag  DW_TAG_subprogram
     244                      .dwattr $C$DW$3, DW_AT_name("OSInit")
     245                      .dwattr $C$DW$3, DW_AT_TI_symbol_name("_OSInit")
     246                      .dwattr $C$DW$3, DW_AT_declaration
     247                      .dwattr $C$DW$3, DW_AT_external
     248                      .dwendtag $C$DW$3
     249              
     250              
     251              $C$DW$4 .dwtag  DW_TAG_subprogram
TMS320C2000 Assembler PC v20.2.1 Wed Feb 17 17:05:46 2021

Copyright (c) 1996-2018 Texas Instruments Incorporated
app.asm                                                              PAGE    6

     252                      .dwattr $C$DW$4, DW_AT_name("OSStart")
     253                      .dwattr $C$DW$4, DW_AT_TI_symbol_name("_OSStart")
     254                      .dwattr $C$DW$4, DW_AT_declaration
     255                      .dwattr $C$DW$4, DW_AT_external
     256                      .dwendtag $C$DW$4
     257              
     258              
     259              $C$DW$5 .dwtag  DW_TAG_subprogram
     260                      .dwattr $C$DW$5, DW_AT_name("BSP_LED_Off")
     261                      .dwattr $C$DW$5, DW_AT_TI_symbol_name("_BSP_LED_Off")
     262                      .dwattr $C$DW$5, DW_AT_declaration
     263                      .dwattr $C$DW$5, DW_AT_external
     264              $C$DW$6 .dwtag  DW_TAG_formal_parameter
     265                      .dwattr $C$DW$6, DW_AT_type(*$C$DW$T$41)
     266              
     267                      .dwendtag $C$DW$5
     268              
     269              
     270              $C$DW$7 .dwtag  DW_TAG_subprogram
     271                      .dwattr $C$DW$7, DW_AT_name("BSP_Tick_Init")
     272                      .dwattr $C$DW$7, DW_AT_TI_symbol_name("_BSP_Tick_Init")
     273                      .dwattr $C$DW$7, DW_AT_declaration
     274                      .dwattr $C$DW$7, DW_AT_external
     275                      .dwendtag $C$DW$7
     276              
     277              
     278              $C$DW$8 .dwtag  DW_TAG_subprogram
     279                      .dwattr $C$DW$8, DW_AT_name("OSStatInit")
     280                      .dwattr $C$DW$8, DW_AT_TI_symbol_name("_OSStatInit")
     281                      .dwattr $C$DW$8, DW_AT_declaration
     282                      .dwattr $C$DW$8, DW_AT_external
     283                      .dwendtag $C$DW$8
     284              
     285              
     286              $C$DW$9 .dwtag  DW_TAG_subprogram
     287                      .dwattr $C$DW$9, DW_AT_name("SHA1_Init")
     288                      .dwattr $C$DW$9, DW_AT_TI_symbol_name("_SHA1_Init")
     289                      .dwattr $C$DW$9, DW_AT_declaration
     290                      .dwattr $C$DW$9, DW_AT_external
     291              $C$DW$10        .dwtag  DW_TAG_formal_parameter
     292                      .dwattr $C$DW$10, DW_AT_type(*$C$DW$T$32)
     293              
     294                      .dwendtag $C$DW$9
     295              
     296              
     297              $C$DW$11        .dwtag  DW_TAG_subprogram
     298                      .dwattr $C$DW$11, DW_AT_name("SHA1_Update")
     299                      .dwattr $C$DW$11, DW_AT_TI_symbol_name("_SHA1_Update")
     300                      .dwattr $C$DW$11, DW_AT_declaration
     301                      .dwattr $C$DW$11, DW_AT_external
     302              $C$DW$12        .dwtag  DW_TAG_formal_parameter
     303                      .dwattr $C$DW$12, DW_AT_type(*$C$DW$T$32)
     304              
     305              $C$DW$13        .dwtag  DW_TAG_formal_parameter
     306                      .dwattr $C$DW$13, DW_AT_type(*$C$DW$T$47)
TMS320C2000 Assembler PC v20.2.1 Wed Feb 17 17:05:46 2021

Copyright (c) 1996-2018 Texas Instruments Incorporated
app.asm                                                              PAGE    7

     307              
     308              $C$DW$14        .dwtag  DW_TAG_formal_parameter
     309                      .dwattr $C$DW$14, DW_AT_type(*$C$DW$T$10)
     310              
     311                      .dwendtag $C$DW$11
     312              
     313              
     314              $C$DW$15        .dwtag  DW_TAG_subprogram
     315                      .dwattr $C$DW$15, DW_AT_name("SHA1_Final")
     316                      .dwattr $C$DW$15, DW_AT_TI_symbol_name("_SHA1_Final")
     317                      .dwattr $C$DW$15, DW_AT_declaration
     318                      .dwattr $C$DW$15, DW_AT_external
     319              $C$DW$16        .dwtag  DW_TAG_formal_parameter
     320                      .dwattr $C$DW$16, DW_AT_type(*$C$DW$T$50)
     321              
     322              $C$DW$17        .dwtag  DW_TAG_formal_parameter
     323                      .dwattr $C$DW$17, DW_AT_type(*$C$DW$T$32)
     324              
     325                      .dwendtag $C$DW$15
     326              
     327              
     328              $C$DW$18        .dwtag  DW_TAG_subprogram
     329                      .dwattr $C$DW$18, DW_AT_name("aes_enc_dec")
     330                      .dwattr $C$DW$18, DW_AT_TI_symbol_name("_aes_enc_dec")
     331                      .dwattr $C$DW$18, DW_AT_declaration
     332                      .dwattr $C$DW$18, DW_AT_external
     333              $C$DW$19        .dwtag  DW_TAG_formal_parameter
     334                      .dwattr $C$DW$19, DW_AT_type(*$C$DW$T$53)
     335              
     336              $C$DW$20        .dwtag  DW_TAG_formal_parameter
     337                      .dwattr $C$DW$20, DW_AT_type(*$C$DW$T$53)
     338              
     339              $C$DW$21        .dwtag  DW_TAG_formal_parameter
     340                      .dwattr $C$DW$21, DW_AT_type(*$C$DW$T$6)
     341              
     342                      .dwendtag $C$DW$18
     343              
     344              
     345              $C$DW$22        .dwtag  DW_TAG_subprogram
     346                      .dwattr $C$DW$22, DW_AT_name("prng_seed_bytes")
     347                      .dwattr $C$DW$22, DW_AT_TI_symbol_name("_prng_seed_bytes")
     348                      .dwattr $C$DW$22, DW_AT_declaration
     349                      .dwattr $C$DW$22, DW_AT_external
     350              $C$DW$23        .dwtag  DW_TAG_formal_parameter
     351                      .dwattr $C$DW$23, DW_AT_type(*$C$DW$T$57)
     352              
     353              $C$DW$24        .dwtag  DW_TAG_formal_parameter
     354                      .dwattr $C$DW$24, DW_AT_type(*$C$DW$T$58)
     355              
     356                      .dwendtag $C$DW$22
     357              
     358                      .global _Status_Sync_ExTime
     359 00000000       _Status_Sync_ExTime:    .usect  ".ebss",1,1,0
     360              $C$DW$25        .dwtag  DW_TAG_variable
     361                      .dwattr $C$DW$25, DW_AT_name("Status_Sync_ExTime")
TMS320C2000 Assembler PC v20.2.1 Wed Feb 17 17:05:46 2021

Copyright (c) 1996-2018 Texas Instruments Incorporated
app.asm                                                              PAGE    8

     362                      .dwattr $C$DW$25, DW_AT_TI_symbol_name("_Status_Sync_ExTime")
     363                      .dwattr $C$DW$25, DW_AT_location[DW_OP_addr _Status_Sync_ExTime]
     364                      .dwattr $C$DW$25, DW_AT_type(*$C$DW$T$26)
     365                      .dwattr $C$DW$25, DW_AT_external
     366              
     367                      .global _Init_Update_EXTime
     368 00000001       _Init_Update_EXTime:    .usect  ".ebss",1,1,0
     369              $C$DW$26        .dwtag  DW_TAG_variable
     370                      .dwattr $C$DW$26, DW_AT_name("Init_Update_EXTime")
     371                      .dwattr $C$DW$26, DW_AT_TI_symbol_name("_Init_Update_EXTime")
     372                      .dwattr $C$DW$26, DW_AT_location[DW_OP_addr _Init_Update_EXTime]
     373                      .dwattr $C$DW$26, DW_AT_type(*$C$DW$T$26)
     374                      .dwattr $C$DW$26, DW_AT_external
     375              
     376                      .global _User_00_ExTime
     377 00000002       _User_00_ExTime:        .usect  ".ebss",1,1,0
     378              $C$DW$27        .dwtag  DW_TAG_variable
     379                      .dwattr $C$DW$27, DW_AT_name("User_00_ExTime")
     380                      .dwattr $C$DW$27, DW_AT_TI_symbol_name("_User_00_ExTime")
     381                      .dwattr $C$DW$27, DW_AT_location[DW_OP_addr _User_00_ExTime]
     382                      .dwattr $C$DW$27, DW_AT_type(*$C$DW$T$26)
     383                      .dwattr $C$DW$27, DW_AT_external
     384              
     385                      .global _User_01_ExTime
     386 00000003       _User_01_ExTime:        .usect  ".ebss",1,1,0
     387              $C$DW$28        .dwtag  DW_TAG_variable
     388                      .dwattr $C$DW$28, DW_AT_name("User_01_ExTime")
     389                      .dwattr $C$DW$28, DW_AT_TI_symbol_name("_User_01_ExTime")
     390                      .dwattr $C$DW$28, DW_AT_location[DW_OP_addr _User_01_ExTime]
     391                      .dwattr $C$DW$28, DW_AT_type(*$C$DW$T$26)
     392                      .dwattr $C$DW$28, DW_AT_external
     393              
     394                      .global _User_02_ExTime
     395 00000004       _User_02_ExTime:        .usect  ".ebss",1,1,0
     396              $C$DW$29        .dwtag  DW_TAG_variable
     397                      .dwattr $C$DW$29, DW_AT_name("User_02_ExTime")
     398                      .dwattr $C$DW$29, DW_AT_TI_symbol_name("_User_02_ExTime")
     399                      .dwattr $C$DW$29, DW_AT_location[DW_OP_addr _User_02_ExTime]
     400                      .dwattr $C$DW$29, DW_AT_type(*$C$DW$T$26)
     401                      .dwattr $C$DW$29, DW_AT_external
     402              
     403                      .global _User_03_ExTime
     404 00000005       _User_03_ExTime:        .usect  ".ebss",1,1,0
     405              $C$DW$30        .dwtag  DW_TAG_variable
     406                      .dwattr $C$DW$30, DW_AT_name("User_03_ExTime")
     407                      .dwattr $C$DW$30, DW_AT_TI_symbol_name("_User_03_ExTime")
     408                      .dwattr $C$DW$30, DW_AT_location[DW_OP_addr _User_03_ExTime]
     409                      .dwattr $C$DW$30, DW_AT_type(*$C$DW$T$26)
     410                      .dwattr $C$DW$30, DW_AT_external
     411              
     412                      .global _User_04_ExTime
     413 00000006       _User_04_ExTime:        .usect  ".ebss",1,1,0
     414              $C$DW$31        .dwtag  DW_TAG_variable
     415                      .dwattr $C$DW$31, DW_AT_name("User_04_ExTime")
     416                      .dwattr $C$DW$31, DW_AT_TI_symbol_name("_User_04_ExTime")
TMS320C2000 Assembler PC v20.2.1 Wed Feb 17 17:05:46 2021

Copyright (c) 1996-2018 Texas Instruments Incorporated
app.asm                                                              PAGE    9

     417                      .dwattr $C$DW$31, DW_AT_location[DW_OP_addr _User_04_ExTime]
     418                      .dwattr $C$DW$31, DW_AT_type(*$C$DW$T$26)
     419                      .dwattr $C$DW$31, DW_AT_external
     420              
     421                      .global _User_05_ExTime
     422 00000007       _User_05_ExTime:        .usect  ".ebss",1,1,0
     423              $C$DW$32        .dwtag  DW_TAG_variable
     424                      .dwattr $C$DW$32, DW_AT_name("User_05_ExTime")
     425                      .dwattr $C$DW$32, DW_AT_TI_symbol_name("_User_05_ExTime")
     426                      .dwattr $C$DW$32, DW_AT_location[DW_OP_addr _User_05_ExTime]
     427                      .dwattr $C$DW$32, DW_AT_type(*$C$DW$T$26)
     428                      .dwattr $C$DW$32, DW_AT_external
     429              
     430                      .global _User_06_ExTime
     431 00000008       _User_06_ExTime:        .usect  ".ebss",1,1,0
     432              $C$DW$33        .dwtag  DW_TAG_variable
     433                      .dwattr $C$DW$33, DW_AT_name("User_06_ExTime")
     434                      .dwattr $C$DW$33, DW_AT_TI_symbol_name("_User_06_ExTime")
     435                      .dwattr $C$DW$33, DW_AT_location[DW_OP_addr _User_06_ExTime]
     436                      .dwattr $C$DW$33, DW_AT_type(*$C$DW$T$26)
     437                      .dwattr $C$DW$33, DW_AT_external
     438              
     439                      .global _User_07_ExTime
     440 00000009       _User_07_ExTime:        .usect  ".ebss",1,1,0
     441              $C$DW$34        .dwtag  DW_TAG_variable
     442                      .dwattr $C$DW$34, DW_AT_name("User_07_ExTime")
     443                      .dwattr $C$DW$34, DW_AT_TI_symbol_name("_User_07_ExTime")
     444                      .dwattr $C$DW$34, DW_AT_location[DW_OP_addr _User_07_ExTime]
     445                      .dwattr $C$DW$34, DW_AT_type(*$C$DW$T$26)
     446                      .dwattr $C$DW$34, DW_AT_external
     447              
     448                      .global _User_certification_ExTime
     449 0000000a       _User_certification_ExTime:     .usect  ".ebss",1,1,0
     450              $C$DW$35        .dwtag  DW_TAG_variable
     451                      .dwattr $C$DW$35, DW_AT_name("User_certification_ExTime")
     452                      .dwattr $C$DW$35, DW_AT_TI_symbol_name("_User_certification_ExTime")
     453                      .dwattr $C$DW$35, DW_AT_location[DW_OP_addr _User_certification_ExTime]
     454                      .dwattr $C$DW$35, DW_AT_type(*$C$DW$T$26)
     455                      .dwattr $C$DW$35, DW_AT_external
     456              
     457                      .global _UART_Reception_ExTime
     458 0000000b       _UART_Reception_ExTime: .usect  ".ebss",1,1,0
     459              $C$DW$36        .dwtag  DW_TAG_variable
     460                      .dwattr $C$DW$36, DW_AT_name("UART_Reception_ExTime")
     461                      .dwattr $C$DW$36, DW_AT_TI_symbol_name("_UART_Reception_ExTime")
     462                      .dwattr $C$DW$36, DW_AT_location[DW_OP_addr _UART_Reception_ExTime]
     463                      .dwattr $C$DW$36, DW_AT_type(*$C$DW$T$26)
     464                      .dwattr $C$DW$36, DW_AT_external
     465              
     466                      .global _UART_Transmission_ExTime
     467 0000000c       _UART_Transmission_ExTime:      .usect  ".ebss",1,1,0
     468              $C$DW$37        .dwtag  DW_TAG_variable
     469                      .dwattr $C$DW$37, DW_AT_name("UART_Transmission_ExTime")
     470                      .dwattr $C$DW$37, DW_AT_TI_symbol_name("_UART_Transmission_ExTime")
     471                      .dwattr $C$DW$37, DW_AT_location[DW_OP_addr _UART_Transmission_ExTime]
TMS320C2000 Assembler PC v20.2.1 Wed Feb 17 17:05:46 2021

Copyright (c) 1996-2018 Texas Instruments Incorporated
app.asm                                                              PAGE   10

     472                      .dwattr $C$DW$37, DW_AT_type(*$C$DW$T$26)
     473                      .dwattr $C$DW$37, DW_AT_external
     474              
     475                      .global _Diagnosis_ExTime
     476 0000000d       _Diagnosis_ExTime:      .usect  ".ebss",1,1,0
     477              $C$DW$38        .dwtag  DW_TAG_variable
     478                      .dwattr $C$DW$38, DW_AT_name("Diagnosis_ExTime")
     479                      .dwattr $C$DW$38, DW_AT_TI_symbol_name("_Diagnosis_ExTime")
     480                      .dwattr $C$DW$38, DW_AT_location[DW_OP_addr _Diagnosis_ExTime]
     481                      .dwattr $C$DW$38, DW_AT_type(*$C$DW$T$26)
     482                      .dwattr $C$DW$38, DW_AT_external
     483              
     484                      .global _Data_Sync_ExTime
     485 0000000e       _Data_Sync_ExTime:      .usect  ".ebss",1,1,0
     486              $C$DW$39        .dwtag  DW_TAG_variable
     487                      .dwattr $C$DW$39, DW_AT_name("Data_Sync_ExTime")
     488                      .dwattr $C$DW$39, DW_AT_TI_symbol_name("_Data_Sync_ExTime")
     489                      .dwattr $C$DW$39, DW_AT_location[DW_OP_addr _Data_Sync_ExTime]
     490                      .dwattr $C$DW$39, DW_AT_type(*$C$DW$T$26)
     491                      .dwattr $C$DW$39, DW_AT_external
     492              
     493                      .global _User_Task_Cnt
     494 0000000f       _User_Task_Cnt: .usect  ".ebss",1,1,0
     495              $C$DW$40        .dwtag  DW_TAG_variable
     496                      .dwattr $C$DW$40, DW_AT_name("User_Task_Cnt")
     497                      .dwattr $C$DW$40, DW_AT_TI_symbol_name("_User_Task_Cnt")
     498                      .dwattr $C$DW$40, DW_AT_location[DW_OP_addr _User_Task_Cnt]
     499                      .dwattr $C$DW$40, DW_AT_type(*$C$DW$T$25)
     500                      .dwattr $C$DW$40, DW_AT_external
     501              
     502                      .global _TaskID
     503 00000010       _TaskID:        .usect  ".ebss",1,1,0
     504              $C$DW$41        .dwtag  DW_TAG_variable
     505                      .dwattr $C$DW$41, DW_AT_name("TaskID")
     506                      .dwattr $C$DW$41, DW_AT_TI_symbol_name("_TaskID")
     507                      .dwattr $C$DW$41, DW_AT_location[DW_OP_addr _TaskID]
     508                      .dwattr $C$DW$41, DW_AT_type(*$C$DW$T$25)
     509                      .dwattr $C$DW$41, DW_AT_external
     510              
     511                      .global _nonce
     512 00000011       _nonce: .usect  ".ebss",1,1,0
     513              $C$DW$42        .dwtag  DW_TAG_variable
     514                      .dwattr $C$DW$42, DW_AT_name("nonce")
     515                      .dwattr $C$DW$42, DW_AT_TI_symbol_name("_nonce")
     516                      .dwattr $C$DW$42, DW_AT_location[DW_OP_addr _nonce]
     517                      .dwattr $C$DW$42, DW_AT_type(*$C$DW$T$6)
     518                      .dwattr $C$DW$42, DW_AT_external
     519              
     520                      .global _start
     521 00000012       _start: .usect  ".ebss",1,1,0
     522              $C$DW$43        .dwtag  DW_TAG_variable
     523                      .dwattr $C$DW$43, DW_AT_name("start")
     524                      .dwattr $C$DW$43, DW_AT_TI_symbol_name("_start")
     525                      .dwattr $C$DW$43, DW_AT_location[DW_OP_addr _start]
     526                      .dwattr $C$DW$43, DW_AT_type(*$C$DW$T$6)
TMS320C2000 Assembler PC v20.2.1 Wed Feb 17 17:05:46 2021

Copyright (c) 1996-2018 Texas Instruments Incorporated
app.asm                                                              PAGE   11

     527                      .dwattr $C$DW$43, DW_AT_external
     528              
     529                      .global _UserCert_flag
     530 00000013       _UserCert_flag: .usect  ".ebss",1,1,0
     531              $C$DW$44        .dwtag  DW_TAG_variable
     532                      .dwattr $C$DW$44, DW_AT_name("UserCert_flag")
     533                      .dwattr $C$DW$44, DW_AT_TI_symbol_name("_UserCert_flag")
     534                      .dwattr $C$DW$44, DW_AT_location[DW_OP_addr _UserCert_flag]
     535                      .dwattr $C$DW$44, DW_AT_type(*$C$DW$T$25)
     536                      .dwattr $C$DW$44, DW_AT_external
     537              
     538                      .global _certification_flag1
     539 00000014       _certification_flag1:   .usect  ".ebss",1,1,0
     540              $C$DW$45        .dwtag  DW_TAG_variable
     541                      .dwattr $C$DW$45, DW_AT_name("certification_flag1")
     542                      .dwattr $C$DW$45, DW_AT_TI_symbol_name("_certification_flag1")
     543                      .dwattr $C$DW$45, DW_AT_location[DW_OP_addr _certification_flag1]
     544                      .dwattr $C$DW$45, DW_AT_type(*$C$DW$T$25)
     545                      .dwattr $C$DW$45, DW_AT_external
     546              
     547                      .global _certification_flag1_1
     548 00000015       _certification_flag1_1: .usect  ".ebss",1,1,0
     549              $C$DW$46        .dwtag  DW_TAG_variable
     550                      .dwattr $C$DW$46, DW_AT_name("certification_flag1_1")
     551                      .dwattr $C$DW$46, DW_AT_TI_symbol_name("_certification_flag1_1")
     552                      .dwattr $C$DW$46, DW_AT_location[DW_OP_addr _certification_flag1_1]
     553                      .dwattr $C$DW$46, DW_AT_type(*$C$DW$T$25)
     554                      .dwattr $C$DW$46, DW_AT_external
     555              
     556                      .global _certification_flag2
     557 00000016       _certification_flag2:   .usect  ".ebss",1,1,0
     558              $C$DW$47        .dwtag  DW_TAG_variable
     559                      .dwattr $C$DW$47, DW_AT_name("certification_flag2")
     560                      .dwattr $C$DW$47, DW_AT_TI_symbol_name("_certification_flag2")
     561                      .dwattr $C$DW$47, DW_AT_location[DW_OP_addr _certification_flag2]
     562                      .dwattr $C$DW$47, DW_AT_type(*$C$DW$T$25)
     563                      .dwattr $C$DW$47, DW_AT_external
     564              
     565                      .global _aes_flag
     566 00000017       _aes_flag:      .usect  ".ebss",1,1,0
     567              $C$DW$48        .dwtag  DW_TAG_variable
     568                      .dwattr $C$DW$48, DW_AT_name("aes_flag")
     569                      .dwattr $C$DW$48, DW_AT_TI_symbol_name("_aes_flag")
     570                      .dwattr $C$DW$48, DW_AT_location[DW_OP_addr _aes_flag]
     571                      .dwattr $C$DW$48, DW_AT_type(*$C$DW$T$25)
     572                      .dwattr $C$DW$48, DW_AT_external
     573              
     574                      .global _seq1_flag
     575 00000018       _seq1_flag:     .usect  ".ebss",1,1,0
     576              $C$DW$49        .dwtag  DW_TAG_variable
     577                      .dwattr $C$DW$49, DW_AT_name("seq1_flag")
     578                      .dwattr $C$DW$49, DW_AT_TI_symbol_name("_seq1_flag")
     579                      .dwattr $C$DW$49, DW_AT_location[DW_OP_addr _seq1_flag]
     580                      .dwattr $C$DW$49, DW_AT_type(*$C$DW$T$25)
     581                      .dwattr $C$DW$49, DW_AT_external
TMS320C2000 Assembler PC v20.2.1 Wed Feb 17 17:05:46 2021

Copyright (c) 1996-2018 Texas Instruments Incorporated
app.asm                                                              PAGE   12

     582              
     583                      .global _psh_flag
     584 00000019       _psh_flag:      .usect  ".ebss",1,1,0
     585              $C$DW$50        .dwtag  DW_TAG_variable
     586                      .dwattr $C$DW$50, DW_AT_name("psh_flag")
     587                      .dwattr $C$DW$50, DW_AT_TI_symbol_name("_psh_flag")
     588                      .dwattr $C$DW$50, DW_AT_location[DW_OP_addr _psh_flag]
     589                      .dwattr $C$DW$50, DW_AT_type(*$C$DW$T$25)
     590                      .dwattr $C$DW$50, DW_AT_external
     591              
     592              
     593              $C$DW$51        .dwtag  DW_TAG_subprogram
     594                      .dwattr $C$DW$51, DW_AT_name("OSTaskCreateExt")
     595                      .dwattr $C$DW$51, DW_AT_TI_symbol_name("_OSTaskCreateExt")
     596                      .dwattr $C$DW$51, DW_AT_type(*$C$DW$T$25)
     597                      .dwattr $C$DW$51, DW_AT_declaration
     598                      .dwattr $C$DW$51, DW_AT_external
     599              $C$DW$52        .dwtag  DW_TAG_formal_parameter
     600                      .dwattr $C$DW$52, DW_AT_type(*$C$DW$T$37)
     601              
     602              $C$DW$53        .dwtag  DW_TAG_formal_parameter
     603                      .dwattr $C$DW$53, DW_AT_type(*$C$DW$T$3)
     604              
     605              $C$DW$54        .dwtag  DW_TAG_formal_parameter
     606                      .dwattr $C$DW$54, DW_AT_type(*$C$DW$T$64)
     607              
     608              $C$DW$55        .dwtag  DW_TAG_formal_parameter
     609                      .dwattr $C$DW$55, DW_AT_type(*$C$DW$T$25)
     610              
     611              $C$DW$56        .dwtag  DW_TAG_formal_parameter
     612                      .dwattr $C$DW$56, DW_AT_type(*$C$DW$T$26)
     613              
     614              $C$DW$57        .dwtag  DW_TAG_formal_parameter
     615                      .dwattr $C$DW$57, DW_AT_type(*$C$DW$T$64)
     616              
     617              $C$DW$58        .dwtag  DW_TAG_formal_parameter
     618                      .dwattr $C$DW$58, DW_AT_type(*$C$DW$T$65)
     619              
     620              $C$DW$59        .dwtag  DW_TAG_formal_parameter
     621                      .dwattr $C$DW$59, DW_AT_type(*$C$DW$T$3)
     622              
     623              $C$DW$60        .dwtag  DW_TAG_formal_parameter
     624                      .dwattr $C$DW$60, DW_AT_type(*$C$DW$T$26)
     625              
     626                      .dwendtag $C$DW$51
     627              
     628              
     629              $C$DW$61        .dwtag  DW_TAG_subprogram
     630                      .dwattr $C$DW$61, DW_AT_name("OSTimeDlyHMSM")
     631                      .dwattr $C$DW$61, DW_AT_TI_symbol_name("_OSTimeDlyHMSM")
     632                      .dwattr $C$DW$61, DW_AT_type(*$C$DW$T$25)
     633                      .dwattr $C$DW$61, DW_AT_declaration
     634                      .dwattr $C$DW$61, DW_AT_external
     635              $C$DW$62        .dwtag  DW_TAG_formal_parameter
     636                      .dwattr $C$DW$62, DW_AT_type(*$C$DW$T$25)
TMS320C2000 Assembler PC v20.2.1 Wed Feb 17 17:05:46 2021

Copyright (c) 1996-2018 Texas Instruments Incorporated
app.asm                                                              PAGE   13

     637              
     638              $C$DW$63        .dwtag  DW_TAG_formal_parameter
     639                      .dwattr $C$DW$63, DW_AT_type(*$C$DW$T$25)
     640              
     641              $C$DW$64        .dwtag  DW_TAG_formal_parameter
     642                      .dwattr $C$DW$64, DW_AT_type(*$C$DW$T$25)
     643              
     644              $C$DW$65        .dwtag  DW_TAG_formal_parameter
     645                      .dwattr $C$DW$65, DW_AT_type(*$C$DW$T$26)
     646              
     647                      .dwendtag $C$DW$61
     648              
     649              
     650              $C$DW$66        .dwtag  DW_TAG_subprogram
     651                      .dwattr $C$DW$66, DW_AT_name("OSTaskDel")
     652                      .dwattr $C$DW$66, DW_AT_TI_symbol_name("_OSTaskDel")
     653                      .dwattr $C$DW$66, DW_AT_type(*$C$DW$T$25)
     654                      .dwattr $C$DW$66, DW_AT_declaration
     655                      .dwattr $C$DW$66, DW_AT_external
     656              $C$DW$67        .dwtag  DW_TAG_formal_parameter
     657                      .dwattr $C$DW$67, DW_AT_type(*$C$DW$T$25)
     658              
     659                      .dwendtag $C$DW$66
     660              
     661              
     662              $C$DW$68        .dwtag  DW_TAG_subprogram
     663                      .dwattr $C$DW$68, DW_AT_name("prng_get_octet")
     664                      .dwattr $C$DW$68, DW_AT_TI_symbol_name("_prng_get_octet")
     665                      .dwattr $C$DW$68, DW_AT_type(*$C$DW$T$6)
     666                      .dwattr $C$DW$68, DW_AT_declaration
     667                      .dwattr $C$DW$68, DW_AT_external
     668                      .dwendtag $C$DW$68
     669              
     670              $C$DW$69        .dwtag  DW_TAG_variable
     671                      .dwattr $C$DW$69, DW_AT_name("OSTime")
     672                      .dwattr $C$DW$69, DW_AT_TI_symbol_name("_OSTime")
     673                      .dwattr $C$DW$69, DW_AT_type(*$C$DW$T$92)
     674                      .dwattr $C$DW$69, DW_AT_declaration
     675                      .dwattr $C$DW$69, DW_AT_external
     676              
     677 0000001a       _AppTaskObjSem: .usect  ".ebss",2,1,1
     678              $C$DW$70        .dwtag  DW_TAG_variable
     679                      .dwattr $C$DW$70, DW_AT_name("AppTaskObjSem")
     680                      .dwattr $C$DW$70, DW_AT_TI_symbol_name("_AppTaskObjSem")
     681                      .dwattr $C$DW$70, DW_AT_type(*$C$DW$T$95)
     682                      .dwattr $C$DW$70, DW_AT_location[DW_OP_addr _AppTaskObjSem]
     683              
     684                      .global _R_PLC_NoneCrypt
     685 00000000       _R_PLC_NoneCrypt:       .usect  ".ebss:_R_PLC_NoneCrypt",2,1,0
     686                      .clink ".ebss:_R_PLC_NoneCrypt"
     687              $C$DW$71        .dwtag  DW_TAG_variable
     688                      .dwattr $C$DW$71, DW_AT_name("R_PLC_NoneCrypt")
     689                      .dwattr $C$DW$71, DW_AT_TI_symbol_name("_R_PLC_NoneCrypt")
     690                      .dwattr $C$DW$71, DW_AT_location[DW_OP_addr _R_PLC_NoneCrypt]
     691                      .dwattr $C$DW$71, DW_AT_type(*$C$DW$T$75)
TMS320C2000 Assembler PC v20.2.1 Wed Feb 17 17:05:46 2021

Copyright (c) 1996-2018 Texas Instruments Incorporated
app.asm                                                              PAGE   14

     692                      .dwattr $C$DW$71, DW_AT_external
     693              
     694              
     695              $C$DW$72        .dwtag  DW_TAG_subprogram
     696                      .dwattr $C$DW$72, DW_AT_name("OSSemCreate")
     697                      .dwattr $C$DW$72, DW_AT_TI_symbol_name("_OSSemCreate")
     698                      .dwattr $C$DW$72, DW_AT_type(*$C$DW$T$95)
     699                      .dwattr $C$DW$72, DW_AT_declaration
     700                      .dwattr $C$DW$72, DW_AT_external
     701              $C$DW$73        .dwtag  DW_TAG_formal_parameter
     702                      .dwattr $C$DW$73, DW_AT_type(*$C$DW$T$26)
     703              
     704                      .dwendtag $C$DW$72
     705              
     706              
     707              $C$DW$74        .dwtag  DW_TAG_subprogram
     708                      .dwattr $C$DW$74, DW_AT_name("memset")
     709                      .dwattr $C$DW$74, DW_AT_TI_symbol_name("_memset")
     710                      .dwattr $C$DW$74, DW_AT_type(*$C$DW$T$3)
     711                      .dwattr $C$DW$74, DW_AT_declaration
     712                      .dwattr $C$DW$74, DW_AT_external
     713                      .dwendtag $C$DW$74
     714              
     715                      .global _DEVICE_OUT
     716 00000000       _DEVICE_OUT:    .usect  ".ebss:_DEVICE_OUT",4,1,0
     717                      .clink ".ebss:_DEVICE_OUT"
     718              $C$DW$75        .dwtag  DW_TAG_variable
     719                      .dwattr $C$DW$75, DW_AT_name("DEVICE_OUT")
     720                      .dwattr $C$DW$75, DW_AT_TI_symbol_name("_DEVICE_OUT")
     721                      .dwattr $C$DW$75, DW_AT_location[DW_OP_addr _DEVICE_OUT]
     722                      .dwattr $C$DW$75, DW_AT_type(*$C$DW$T$72)
     723                      .dwattr $C$DW$75, DW_AT_external
     724              
     725                      .global _User_ID
     726 00000000       _User_ID:       .usect  ".ebss:_User_ID",5,1,0
     727                      .clink ".ebss:_User_ID"
     728              $C$DW$76        .dwtag  DW_TAG_variable
     729                      .dwattr $C$DW$76, DW_AT_name("User_ID")
     730                      .dwattr $C$DW$76, DW_AT_TI_symbol_name("_User_ID")
     731                      .dwattr $C$DW$76, DW_AT_location[DW_OP_addr _User_ID]
     732                      .dwattr $C$DW$76, DW_AT_type(*$C$DW$T$77)
     733                      .dwattr $C$DW$76, DW_AT_external
     734              
     735                      .global _User_password
     736 00000000       _User_password: .usect  ".ebss:_User_password",5,1,0
     737                      .clink ".ebss:_User_password"
     738              $C$DW$77        .dwtag  DW_TAG_variable
     739                      .dwattr $C$DW$77, DW_AT_name("User_password")
     740                      .dwattr $C$DW$77, DW_AT_TI_symbol_name("_User_password")
     741                      .dwattr $C$DW$77, DW_AT_location[DW_OP_addr _User_password]
     742                      .dwattr $C$DW$77, DW_AT_type(*$C$DW$T$77)
     743                      .dwattr $C$DW$77, DW_AT_external
     744              
     745                      .global _User_MAC_Address
     746 00000000       _User_MAC_Address:      .usect  ".ebss:_User_MAC_Address",6,1,0
TMS320C2000 Assembler PC v20.2.1 Wed Feb 17 17:05:46 2021

Copyright (c) 1996-2018 Texas Instruments Incorporated
app.asm                                                              PAGE   15

     747                      .clink ".ebss:_User_MAC_Address"
     748              $C$DW$78        .dwtag  DW_TAG_variable
     749                      .dwattr $C$DW$78, DW_AT_name("User_MAC_Address")
     750                      .dwattr $C$DW$78, DW_AT_TI_symbol_name("_User_MAC_Address")
     751                      .dwattr $C$DW$78, DW_AT_location[DW_OP_addr _User_MAC_Address]
     752                      .dwattr $C$DW$78, DW_AT_type(*$C$DW$T$76)
     753                      .dwattr $C$DW$78, DW_AT_external
     754              
     755                      .global _Task_Seq
     756 00000000       _Task_Seq:      .usect  ".ebss:_Task_Seq",10,1,0
     757                      .clink ".ebss:_Task_Seq"
     758              $C$DW$79        .dwtag  DW_TAG_variable
     759                      .dwattr $C$DW$79, DW_AT_name("Task_Seq")
     760                      .dwattr $C$DW$79, DW_AT_TI_symbol_name("_Task_Seq")
     761                      .dwattr $C$DW$79, DW_AT_location[DW_OP_addr _Task_Seq]
     762                      .dwattr $C$DW$79, DW_AT_type(*$C$DW$T$84)
     763                      .dwattr $C$DW$79, DW_AT_external
     764              
     765              $C$DW$80        .dwtag  DW_TAG_variable
     766                      .dwattr $C$DW$80, DW_AT_name("scirxBuf")
     767                      .dwattr $C$DW$80, DW_AT_TI_symbol_name("_scirxBuf")
     768                      .dwattr $C$DW$80, DW_AT_type(*$C$DW$T$73)
     769                      .dwattr $C$DW$80, DW_AT_declaration
     770                      .dwattr $C$DW$80, DW_AT_external
     771              
     772                      .global _R_PLC
     773 00000000       _R_PLC: .usect  ".ebss:_R_PLC",16,1,0
     774                      .clink ".ebss:_R_PLC"
     775              $C$DW$81        .dwtag  DW_TAG_variable
     776                      .dwattr $C$DW$81, DW_AT_name("R_PLC")
     777                      .dwattr $C$DW$81, DW_AT_TI_symbol_name("_R_PLC")
     778                      .dwattr $C$DW$81, DW_AT_location[DW_OP_addr _R_PLC]
     779                      .dwattr $C$DW$81, DW_AT_type(*$C$DW$T$73)
     780                      .dwattr $C$DW$81, DW_AT_external
     781              
     782                      .global _Reply_flag
     783 00000000       _Reply_flag:    .usect  ".ebss:_Reply_flag",16,1,0
     784                      .clink ".ebss:_Reply_flag"
     785              $C$DW$82        .dwtag  DW_TAG_variable
     786                      .dwattr $C$DW$82, DW_AT_name("Reply_flag")
     787                      .dwattr $C$DW$82, DW_AT_TI_symbol_name("_Reply_flag")
     788                      .dwattr $C$DW$82, DW_AT_location[DW_OP_addr _Reply_flag]
     789                      .dwattr $C$DW$82, DW_AT_type(*$C$DW$T$73)
     790                      .dwattr $C$DW$82, DW_AT_external
     791              
     792                      .global _Hash_Data_Before
     793 00000000       _Hash_Data_Before:      .usect  ".ebss:_Hash_Data_Before",16,1,0
     794                      .clink ".ebss:_Hash_Data_Before"
     795              $C$DW$83        .dwtag  DW_TAG_variable
     796                      .dwattr $C$DW$83, DW_AT_name("Hash_Data_Before")
     797                      .dwattr $C$DW$83, DW_AT_TI_symbol_name("_Hash_Data_Before")
     798                      .dwattr $C$DW$83, DW_AT_location[DW_OP_addr _Hash_Data_Before]
     799                      .dwattr $C$DW$83, DW_AT_type(*$C$DW$T$73)
     800                      .dwattr $C$DW$83, DW_AT_external
     801              
TMS320C2000 Assembler PC v20.2.1 Wed Feb 17 17:05:46 2021

Copyright (c) 1996-2018 Texas Instruments Incorporated
app.asm                                                              PAGE   16

     802 00000000               .sect   ".econst:.string:_$P$T0$1"
     803                      .clink
     804                      .align  1
     805                      .elfsym _$P$T0$1,SYM_SIZE(16)
     806 00000000       _$P$T0$1:
     807 00000000 0000          .bits           0,16
     808                                      ; _$P$T0$1[0] @ 0
     809 00000001 0001          .bits           0x1,16
     810                                      ; _$P$T0$1[1] @ 16
     811 00000002 0002          .bits           0x2,16
     812                                      ; _$P$T0$1[2] @ 32
     813 00000003 0003          .bits           0x3,16
     814                                      ; _$P$T0$1[3] @ 48
     815 00000004 0004          .bits           0x4,16
     816                                      ; _$P$T0$1[4] @ 64
     817 00000005 0005          .bits           0x5,16
     818                                      ; _$P$T0$1[5] @ 80
     819 00000006 0006          .bits           0x6,16
     820                                      ; _$P$T0$1[6] @ 96
     821 00000007 0007          .bits           0x7,16
     822                                      ; _$P$T0$1[7] @ 112
     823 00000008 0008          .bits           0x8,16
     824                                      ; _$P$T0$1[8] @ 128
     825 00000009 0009          .bits           0x9,16
     826                                      ; _$P$T0$1[9] @ 144
     827 0000000a 000A          .bits           0xa,16
     828                                      ; _$P$T0$1[10] @ 160
     829 0000000b 000B          .bits           0xb,16
     830                                      ; _$P$T0$1[11] @ 176
     831 0000000c 000C          .bits           0xc,16
     832                                      ; _$P$T0$1[12] @ 192
     833 0000000d 000D          .bits           0xd,16
     834                                      ; _$P$T0$1[13] @ 208
     835 0000000e 000E          .bits           0xe,16
     836                                      ; _$P$T0$1[14] @ 224
     837 0000000f 000F          .bits           0xf,16
     838                                      ; _$P$T0$1[15] @ 240
     839              
     840              $C$DW$84        .dwtag  DW_TAG_variable
     841                      .dwattr $C$DW$84, DW_AT_name("$P$T0$1")
     842                      .dwattr $C$DW$84, DW_AT_TI_symbol_name("_$P$T0$1")
     843                      .dwattr $C$DW$84, DW_AT_type(*$C$DW$T$62)
     844                      .dwattr $C$DW$84, DW_AT_location[DW_OP_addr _$P$T0$1]
     845              
     846 00000000               .sect   ".econst:.string:_$P$T1$2"
     847                      .clink
     848                      .align  1
     849                      .elfsym _$P$T1$2,SYM_SIZE(16)
     850 00000000       _$P$T1$2:
     851 00000000 0000          .bits           0,16
     852                                      ; _$P$T1$2[0] @ 0
     853 00000001 0001          .bits           0x1,16
     854                                      ; _$P$T1$2[1] @ 16
     855 00000002 0002          .bits           0x2,16
     856                                      ; _$P$T1$2[2] @ 32
TMS320C2000 Assembler PC v20.2.1 Wed Feb 17 17:05:46 2021

Copyright (c) 1996-2018 Texas Instruments Incorporated
app.asm                                                              PAGE   17

     857 00000003 0003          .bits           0x3,16
     858                                      ; _$P$T1$2[3] @ 48
     859 00000004 0004          .bits           0x4,16
     860                                      ; _$P$T1$2[4] @ 64
     861 00000005 0005          .bits           0x5,16
     862                                      ; _$P$T1$2[5] @ 80
     863 00000006 0006          .bits           0x6,16
     864                                      ; _$P$T1$2[6] @ 96
     865 00000007 0007          .bits           0x7,16
     866                                      ; _$P$T1$2[7] @ 112
     867 00000008 0008          .bits           0x8,16
     868                                      ; _$P$T1$2[8] @ 128
     869 00000009 0009          .bits           0x9,16
     870                                      ; _$P$T1$2[9] @ 144
     871 0000000a 000A          .bits           0xa,16
     872                                      ; _$P$T1$2[10] @ 160
     873 0000000b 000B          .bits           0xb,16
     874                                      ; _$P$T1$2[11] @ 176
     875 0000000c 000C          .bits           0xc,16
     876                                      ; _$P$T1$2[12] @ 192
     877 0000000d 000D          .bits           0xd,16
     878                                      ; _$P$T1$2[13] @ 208
     879 0000000e 000E          .bits           0xe,16
     880                                      ; _$P$T1$2[14] @ 224
     881 0000000f 000F          .bits           0xf,16
     882                                      ; _$P$T1$2[15] @ 240
     883              
     884              $C$DW$85        .dwtag  DW_TAG_variable
     885                      .dwattr $C$DW$85, DW_AT_name("$P$T1$2")
     886                      .dwattr $C$DW$85, DW_AT_TI_symbol_name("_$P$T1$2")
     887                      .dwattr $C$DW$85, DW_AT_type(*$C$DW$T$62)
     888                      .dwattr $C$DW$85, DW_AT_location[DW_OP_addr _$P$T1$2]
     889              
     890 00000000               .sect   ".econst:.string:_$P$T2$3"
     891                      .clink
     892                      .align  1
     893                      .elfsym _$P$T2$3,SYM_SIZE(16)
     894 00000000       _$P$T2$3:
     895 00000000 0000          .bits           0,16
     896                                      ; _$P$T2$3[0] @ 0
     897 00000001 0001          .bits           0x1,16
     898                                      ; _$P$T2$3[1] @ 16
     899 00000002 0002          .bits           0x2,16
     900                                      ; _$P$T2$3[2] @ 32
     901 00000003 0003          .bits           0x3,16
     902                                      ; _$P$T2$3[3] @ 48
     903 00000004 0004          .bits           0x4,16
     904                                      ; _$P$T2$3[4] @ 64
     905 00000005 0005          .bits           0x5,16
     906                                      ; _$P$T2$3[5] @ 80
     907 00000006 0006          .bits           0x6,16
     908                                      ; _$P$T2$3[6] @ 96
     909 00000007 0007          .bits           0x7,16
     910                                      ; _$P$T2$3[7] @ 112
     911 00000008 0008          .bits           0x8,16
TMS320C2000 Assembler PC v20.2.1 Wed Feb 17 17:05:46 2021

Copyright (c) 1996-2018 Texas Instruments Incorporated
app.asm                                                              PAGE   18

     912                                      ; _$P$T2$3[8] @ 128
     913 00000009 0009          .bits           0x9,16
     914                                      ; _$P$T2$3[9] @ 144
     915 0000000a 000A          .bits           0xa,16
     916                                      ; _$P$T2$3[10] @ 160
     917 0000000b 000B          .bits           0xb,16
     918                                      ; _$P$T2$3[11] @ 176
     919 0000000c 000C          .bits           0xc,16
     920                                      ; _$P$T2$3[12] @ 192
     921 0000000d 000D          .bits           0xd,16
     922                                      ; _$P$T2$3[13] @ 208
     923 0000000e 000E          .bits           0xe,16
     924                                      ; _$P$T2$3[14] @ 224
     925 0000000f 000F          .bits           0xf,16
     926                                      ; _$P$T2$3[15] @ 240
     927              
     928              $C$DW$86        .dwtag  DW_TAG_variable
     929                      .dwattr $C$DW$86, DW_AT_name("$P$T2$3")
     930                      .dwattr $C$DW$86, DW_AT_TI_symbol_name("_$P$T2$3")
     931                      .dwattr $C$DW$86, DW_AT_type(*$C$DW$T$62)
     932                      .dwattr $C$DW$86, DW_AT_location[DW_OP_addr _$P$T2$3]
     933              
     934                      .global _Time_Seq
     935 00000000       _Time_Seq:      .usect  ".ebss:_Time_Seq",20,1,0
     936                      .clink ".ebss:_Time_Seq"
     937              $C$DW$87        .dwtag  DW_TAG_variable
     938                      .dwattr $C$DW$87, DW_AT_name("Time_Seq")
     939                      .dwattr $C$DW$87, DW_AT_TI_symbol_name("_Time_Seq")
     940                      .dwattr $C$DW$87, DW_AT_location[DW_OP_addr _Time_Seq]
     941                      .dwattr $C$DW$87, DW_AT_type(*$C$DW$T$85)
     942                      .dwattr $C$DW$87, DW_AT_external
     943              
     944                      .global _hash
     945 00000000       _hash:  .usect  ".ebss:_hash",20,1,0
     946                      .clink ".ebss:_hash"
     947              $C$DW$88        .dwtag  DW_TAG_variable
     948                      .dwattr $C$DW$88, DW_AT_name("hash")
     949                      .dwattr $C$DW$88, DW_AT_TI_symbol_name("_hash")
     950                      .dwattr $C$DW$88, DW_AT_location[DW_OP_addr _hash]
     951                      .dwattr $C$DW$88, DW_AT_type(*$C$DW$T$78)
     952                      .dwattr $C$DW$88, DW_AT_external
     953              
     954                      .global _Status_SyncStk
     955 00000000       _Status_SyncStk:        .usect  ".ebss:_Status_SyncStk",80,1,1
     956                      .clink ".ebss:_Status_SyncStk"
     957              $C$DW$89        .dwtag  DW_TAG_variable
     958                      .dwattr $C$DW$89, DW_AT_name("Status_SyncStk")
     959                      .dwattr $C$DW$89, DW_AT_TI_symbol_name("_Status_SyncStk")
     960                      .dwattr $C$DW$89, DW_AT_location[DW_OP_addr _Status_SyncStk]
     961                      .dwattr $C$DW$89, DW_AT_type(*$C$DW$T$90)
     962                      .dwattr $C$DW$89, DW_AT_external
     963              
     964                      .global _Init_UpdateStk
     965 00000000       _Init_UpdateStk:        .usect  ".ebss:_Init_UpdateStk",80,1,1
     966                      .clink ".ebss:_Init_UpdateStk"
TMS320C2000 Assembler PC v20.2.1 Wed Feb 17 17:05:46 2021

Copyright (c) 1996-2018 Texas Instruments Incorporated
app.asm                                                              PAGE   19

     967              $C$DW$90        .dwtag  DW_TAG_variable
     968                      .dwattr $C$DW$90, DW_AT_name("Init_UpdateStk")
     969                      .dwattr $C$DW$90, DW_AT_TI_symbol_name("_Init_UpdateStk")
     970                      .dwattr $C$DW$90, DW_AT_location[DW_OP_addr _Init_UpdateStk]
     971                      .dwattr $C$DW$90, DW_AT_type(*$C$DW$T$90)
     972                      .dwattr $C$DW$90, DW_AT_external
     973              
     974                      .global _User_00Stk
     975 00000000       _User_00Stk:    .usect  ".ebss:_User_00Stk",80,1,1
     976                      .clink ".ebss:_User_00Stk"
     977              $C$DW$91        .dwtag  DW_TAG_variable
     978                      .dwattr $C$DW$91, DW_AT_name("User_00Stk")
     979                      .dwattr $C$DW$91, DW_AT_TI_symbol_name("_User_00Stk")
     980                      .dwattr $C$DW$91, DW_AT_location[DW_OP_addr _User_00Stk]
     981                      .dwattr $C$DW$91, DW_AT_type(*$C$DW$T$90)
     982                      .dwattr $C$DW$91, DW_AT_external
     983              
     984                      .global _User_01Stk
     985 00000000       _User_01Stk:    .usect  ".ebss:_User_01Stk",80,1,1
     986                      .clink ".ebss:_User_01Stk"
     987              $C$DW$92        .dwtag  DW_TAG_variable
     988                      .dwattr $C$DW$92, DW_AT_name("User_01Stk")
     989                      .dwattr $C$DW$92, DW_AT_TI_symbol_name("_User_01Stk")
     990                      .dwattr $C$DW$92, DW_AT_location[DW_OP_addr _User_01Stk]
     991                      .dwattr $C$DW$92, DW_AT_type(*$C$DW$T$90)
     992                      .dwattr $C$DW$92, DW_AT_external
     993              
     994                      .global _User_02Stk
     995 00000000       _User_02Stk:    .usect  ".ebss:_User_02Stk",80,1,1
     996                      .clink ".ebss:_User_02Stk"
     997              $C$DW$93        .dwtag  DW_TAG_variable
     998                      .dwattr $C$DW$93, DW_AT_name("User_02Stk")
     999                      .dwattr $C$DW$93, DW_AT_TI_symbol_name("_User_02Stk")
    1000                      .dwattr $C$DW$93, DW_AT_location[DW_OP_addr _User_02Stk]
    1001                      .dwattr $C$DW$93, DW_AT_type(*$C$DW$T$90)
    1002                      .dwattr $C$DW$93, DW_AT_external
    1003              
    1004                      .global _User_03Stk
    1005 00000000       _User_03Stk:    .usect  ".ebss:_User_03Stk",80,1,1
    1006                      .clink ".ebss:_User_03Stk"
    1007              $C$DW$94        .dwtag  DW_TAG_variable
    1008                      .dwattr $C$DW$94, DW_AT_name("User_03Stk")
    1009                      .dwattr $C$DW$94, DW_AT_TI_symbol_name("_User_03Stk")
    1010                      .dwattr $C$DW$94, DW_AT_location[DW_OP_addr _User_03Stk]
    1011                      .dwattr $C$DW$94, DW_AT_type(*$C$DW$T$90)
    1012                      .dwattr $C$DW$94, DW_AT_external
    1013              
    1014                      .global _User_04Stk
    1015 00000000       _User_04Stk:    .usect  ".ebss:_User_04Stk",80,1,1
    1016                      .clink ".ebss:_User_04Stk"
    1017              $C$DW$95        .dwtag  DW_TAG_variable
    1018                      .dwattr $C$DW$95, DW_AT_name("User_04Stk")
    1019                      .dwattr $C$DW$95, DW_AT_TI_symbol_name("_User_04Stk")
    1020                      .dwattr $C$DW$95, DW_AT_location[DW_OP_addr _User_04Stk]
    1021                      .dwattr $C$DW$95, DW_AT_type(*$C$DW$T$90)
TMS320C2000 Assembler PC v20.2.1 Wed Feb 17 17:05:46 2021

Copyright (c) 1996-2018 Texas Instruments Incorporated
app.asm                                                              PAGE   20

    1022                      .dwattr $C$DW$95, DW_AT_external
    1023              
    1024                      .global _User_05Stk
    1025 00000000       _User_05Stk:    .usect  ".ebss:_User_05Stk",80,1,1
    1026                      .clink ".ebss:_User_05Stk"
    1027              $C$DW$96        .dwtag  DW_TAG_variable
    1028                      .dwattr $C$DW$96, DW_AT_name("User_05Stk")
    1029                      .dwattr $C$DW$96, DW_AT_TI_symbol_name("_User_05Stk")
    1030                      .dwattr $C$DW$96, DW_AT_location[DW_OP_addr _User_05Stk]
    1031                      .dwattr $C$DW$96, DW_AT_type(*$C$DW$T$90)
    1032                      .dwattr $C$DW$96, DW_AT_external
    1033              
    1034                      .global _User_06Stk
    1035 00000000       _User_06Stk:    .usect  ".ebss:_User_06Stk",80,1,1
    1036                      .clink ".ebss:_User_06Stk"
    1037              $C$DW$97        .dwtag  DW_TAG_variable
    1038                      .dwattr $C$DW$97, DW_AT_name("User_06Stk")
    1039                      .dwattr $C$DW$97, DW_AT_TI_symbol_name("_User_06Stk")
    1040                      .dwattr $C$DW$97, DW_AT_location[DW_OP_addr _User_06Stk]
    1041                      .dwattr $C$DW$97, DW_AT_type(*$C$DW$T$90)
    1042                      .dwattr $C$DW$97, DW_AT_external
    1043              
    1044                      .global _User_07Stk
    1045 00000000       _User_07Stk:    .usect  ".ebss:_User_07Stk",80,1,1
    1046                      .clink ".ebss:_User_07Stk"
    1047              $C$DW$98        .dwtag  DW_TAG_variable
    1048                      .dwattr $C$DW$98, DW_AT_name("User_07Stk")
    1049                      .dwattr $C$DW$98, DW_AT_TI_symbol_name("_User_07Stk")
    1050                      .dwattr $C$DW$98, DW_AT_location[DW_OP_addr _User_07Stk]
    1051                      .dwattr $C$DW$98, DW_AT_type(*$C$DW$T$90)
    1052                      .dwattr $C$DW$98, DW_AT_external
    1053              
    1054                      .global _User_certificationStk
    1055 00000000       _User_certificationStk: .usect  ".ebss:_User_certificationStk",80,1,1
    1056                      .clink ".ebss:_User_certificationStk"
    1057              $C$DW$99        .dwtag  DW_TAG_variable
    1058                      .dwattr $C$DW$99, DW_AT_name("User_certificationStk")
    1059                      .dwattr $C$DW$99, DW_AT_TI_symbol_name("_User_certificationStk")
    1060                      .dwattr $C$DW$99, DW_AT_location[DW_OP_addr _User_certificationStk]
    1061                      .dwattr $C$DW$99, DW_AT_type(*$C$DW$T$90)
    1062                      .dwattr $C$DW$99, DW_AT_external
    1063              
    1064                      .global _UART_ReceptionStk
    1065 00000000       _UART_ReceptionStk:     .usect  ".ebss:_UART_ReceptionStk",80,1,1
    1066                      .clink ".ebss:_UART_ReceptionStk"
    1067              $C$DW$100       .dwtag  DW_TAG_variable
    1068                      .dwattr $C$DW$100, DW_AT_name("UART_ReceptionStk")
    1069                      .dwattr $C$DW$100, DW_AT_TI_symbol_name("_UART_ReceptionStk")
    1070                      .dwattr $C$DW$100, DW_AT_location[DW_OP_addr _UART_ReceptionStk]
    1071                      .dwattr $C$DW$100, DW_AT_type(*$C$DW$T$90)
    1072                      .dwattr $C$DW$100, DW_AT_external
    1073              
    1074                      .global _UART_TransmissionStk
    1075 00000000       _UART_TransmissionStk:  .usect  ".ebss:_UART_TransmissionStk",80,1,1
    1076                      .clink ".ebss:_UART_TransmissionStk"
TMS320C2000 Assembler PC v20.2.1 Wed Feb 17 17:05:46 2021

Copyright (c) 1996-2018 Texas Instruments Incorporated
app.asm                                                              PAGE   21

    1077              $C$DW$101       .dwtag  DW_TAG_variable
    1078                      .dwattr $C$DW$101, DW_AT_name("UART_TransmissionStk")
    1079                      .dwattr $C$DW$101, DW_AT_TI_symbol_name("_UART_TransmissionStk")
    1080                      .dwattr $C$DW$101, DW_AT_location[DW_OP_addr _UART_TransmissionStk]
    1081                      .dwattr $C$DW$101, DW_AT_type(*$C$DW$T$90)
    1082                      .dwattr $C$DW$101, DW_AT_external
    1083              
    1084                      .global _DiagnosisStk
    1085 00000000       _DiagnosisStk:  .usect  ".ebss:_DiagnosisStk",80,1,1
    1086                      .clink ".ebss:_DiagnosisStk"
    1087              $C$DW$102       .dwtag  DW_TAG_variable
    1088                      .dwattr $C$DW$102, DW_AT_name("DiagnosisStk")
    1089                      .dwattr $C$DW$102, DW_AT_TI_symbol_name("_DiagnosisStk")
    1090                      .dwattr $C$DW$102, DW_AT_location[DW_OP_addr _DiagnosisStk]
    1091                      .dwattr $C$DW$102, DW_AT_type(*$C$DW$T$90)
    1092                      .dwattr $C$DW$102, DW_AT_external
    1093              
    1094                      .global _Data_SyncStk
    1095 00000000       _Data_SyncStk:  .usect  ".ebss:_Data_SyncStk",80,1,1
    1096                      .clink ".ebss:_Data_SyncStk"
    1097              $C$DW$103       .dwtag  DW_TAG_variable
    1098                      .dwattr $C$DW$103, DW_AT_name("Data_SyncStk")
    1099                      .dwattr $C$DW$103, DW_AT_TI_symbol_name("_Data_SyncStk")
    1100                      .dwattr $C$DW$103, DW_AT_location[DW_OP_addr _Data_SyncStk]
    1101                      .dwattr $C$DW$103, DW_AT_type(*$C$DW$T$90)
    1102                      .dwattr $C$DW$103, DW_AT_external
    1103              
    1104                      .global _context
    1105 00000040       _context:       .usect  ".ebss",80,1,1
    1106              $C$DW$104       .dwtag  DW_TAG_variable
    1107                      .dwattr $C$DW$104, DW_AT_name("context")
    1108                      .dwattr $C$DW$104, DW_AT_TI_symbol_name("_context")
    1109                      .dwattr $C$DW$104, DW_AT_location[DW_OP_addr _context]
    1110                      .dwattr $C$DW$104, DW_AT_type(*$C$DW$T$31)
    1111                      .dwattr $C$DW$104, DW_AT_external
    1112              
    1113                      .sblock ".ebss"
    1114                      .sblock ".ebss:_DEVICE_OUT"
    1115                      .sblock ".ebss:_Data_SyncStk"
    1116                      .sblock ".ebss:_DiagnosisStk"
    1117                      .sblock ".ebss:_Hash_Data_Before"
    1118                      .sblock ".ebss:_Init_UpdateStk"
    1119                      .sblock ".ebss:_R_PLC"
    1120                      .sblock ".ebss:_R_PLC_NoneCrypt"
    1121                      .sblock ".ebss:_Reply_flag"
    1122                      .sblock ".ebss:_Status_SyncStk"
    1123                      .sblock ".ebss:_Task_Seq"
    1124                      .sblock ".ebss:_Time_Seq"
    1125                      .sblock ".ebss:_UART_ReceptionStk"
    1126                      .sblock ".ebss:_UART_TransmissionStk"
    1127                      .sblock ".ebss:_User_00Stk"
    1128                      .sblock ".ebss:_User_01Stk"
    1129                      .sblock ".ebss:_User_02Stk"
    1130                      .sblock ".ebss:_User_03Stk"
    1131                      .sblock ".ebss:_User_04Stk"
TMS320C2000 Assembler PC v20.2.1 Wed Feb 17 17:05:46 2021

Copyright (c) 1996-2018 Texas Instruments Incorporated
app.asm                                                              PAGE   22

    1132                      .sblock ".ebss:_User_05Stk"
    1133                      .sblock ".ebss:_User_06Stk"
    1134                      .sblock ".ebss:_User_07Stk"
    1135                      .sblock ".ebss:_User_ID"
    1136                      .sblock ".ebss:_User_MAC_Address"
    1137                      .sblock ".ebss:_User_certificationStk"
    1138                      .sblock ".ebss:_User_password"
    1139                      .sblock ".ebss:_hash"
    1140              ;       C:\ti\ccs1011\ccs\tools\compiler\ti-cgt-c2000_20.2.1.LTS\bin\ac2000.exe -@C:\\Users\\LEEKEO~1\\AppDat
    1141 00000000               .sect   ".text"
    1142                      .clink
    1143                      .global _main
    1144              
    1145              $C$DW$105       .dwtag  DW_TAG_subprogram
    1146                      .dwattr $C$DW$105, DW_AT_name("main")
    1147                      .dwattr $C$DW$105, DW_AT_low_pc(_main)
    1148                      .dwattr $C$DW$105, DW_AT_high_pc(0x00)
    1149                      .dwattr $C$DW$105, DW_AT_TI_symbol_name("_main")
    1150                      .dwattr $C$DW$105, DW_AT_external
    1151                      .dwattr $C$DW$105, DW_AT_type(*$C$DW$T$10)
    1152                      .dwattr $C$DW$105, DW_AT_TI_begin_file("C:/ti/Workspace/PLC_certificate/Examples/TI/TMDSDOCK28335/OS2
    1153                      .dwattr $C$DW$105, DW_AT_TI_begin_line(0xc6)
    1154                      .dwattr $C$DW$105, DW_AT_TI_begin_column(0x05)
    1155                      .dwattr $C$DW$105, DW_AT_TI_max_frame_size(-12)
    1156                      .dwpsn  file "C:/ti/Workspace/PLC_certificate/Examples/TI/TMDSDOCK28335/OS2/app.c",line 199,column 1,
    1157              
    1158                      .dwfde $C$DW$CIE, _main
    1159              
    1160              ;***************************************************************
    1161              ;* FNAME: _main                         FR SIZE:  10           *
    1162              ;*                                                             *
    1163              ;* FUNCTION ENVIRONMENT                                        *
    1164              ;*                                                             *
    1165              ;* FUNCTION PROPERTIES                                         *
    1166              ;*                            9 Parameter,  1 Auto,  0 SOE     *
    1167              ;***************************************************************
    1168              
    1169 00000000       _main:
    1170                      .dwcfi  cfa_offset, -2
    1171                      .dwcfi  save_reg_to_mem, 26, 0
    1172 00000000 FE0A          ADDB      SP,#10                ; [CPU_ARAU] 
    1173                      .dwcfi  cfa_offset, -12
    1174              $C$DW$106       .dwtag  DW_TAG_variable
    1175                      .dwattr $C$DW$106, DW_AT_name("i")
    1176                      .dwattr $C$DW$106, DW_AT_TI_symbol_name("_i")
    1177                      .dwattr $C$DW$106, DW_AT_type(*$C$DW$T$25)
    1178                      .dwattr $C$DW$106, DW_AT_location[DW_OP_breg20 -10]
    1179              
    1180                      .dwpsn  file "C:/ti/Workspace/PLC_certificate/Examples/TI/TMDSDOCK28335/OS2/app.c",line 202,column 5,
    1181              $C$DW$107       .dwtag  DW_TAG_TI_branch
    1182                      .dwattr $C$DW$107, DW_AT_low_pc(0x00)
    1183                      .dwattr $C$DW$107, DW_AT_name("_CPU_Init")
    1184                      .dwattr $C$DW$107, DW_AT_TI_call
    1185              
    1186 00000001 7640!         LCR       #_CPU_Init            ; [CPU_ALU] |202| 
TMS320C2000 Assembler PC v20.2.1 Wed Feb 17 17:05:46 2021

Copyright (c) 1996-2018 Texas Instruments Incorporated
app.asm                                                              PAGE   23

         00000002 0000 
    1187                      ; call occurs [#_CPU_Init] ; [] |202| 
    1188                      .dwpsn  file "C:/ti/Workspace/PLC_certificate/Examples/TI/TMDSDOCK28335/OS2/app.c",line 203,column 5,
    1189              $C$DW$108       .dwtag  DW_TAG_TI_branch
    1190                      .dwattr $C$DW$108, DW_AT_low_pc(0x00)
    1191                      .dwattr $C$DW$108, DW_AT_name("_BSP_Init")
    1192                      .dwattr $C$DW$108, DW_AT_TI_call
    1193              
    1194 00000003 7640!         LCR       #_BSP_Init            ; [CPU_ALU] |203| 
         00000004 0000 
    1195                      ; call occurs [#_BSP_Init] ; [] |203| 
    1196                      .dwpsn  file "C:/ti/Workspace/PLC_certificate/Examples/TI/TMDSDOCK28335/OS2/app.c",line 205,column 5,
    1197              $C$DW$109       .dwtag  DW_TAG_TI_branch
    1198                      .dwattr $C$DW$109, DW_AT_low_pc(0x00)
    1199                      .dwattr $C$DW$109, DW_AT_name("_OSInit")
    1200                      .dwattr $C$DW$109, DW_AT_TI_call
    1201              
    1202 00000005 7640!         LCR       #_OSInit              ; [CPU_ALU] |205| 
         00000006 0000 
    1203                      ; call occurs [#_OSInit] ; [] |205| 
    1204                      .dwpsn  file "C:/ti/Workspace/PLC_certificate/Examples/TI/TMDSDOCK28335/OS2/app.c",line 208,column 5,
    1205 00000007 8F00-         MOVL      XAR4,#_Status_SyncStk ; [CPU_ARAU] |208| 
         00000008 0000 
    1206 00000009 0200          MOVB      ACC,#0                ; [CPU_ALU] |208| 
    1207 0000000a A842          MOVL      *-SP[2],XAR4          ; [CPU_ALU] |208| 
    1208 0000000b D500          MOVB      XAR5,#0               ; [CPU_ALU] |208| 
    1209 0000000c 56BF          MOVB      *-SP[3],#1,UNC        ; [CPU_ALU] |208| 
         0000000d 0143 
    1210 0000000e 8F00-         MOVL      XAR4,#_Status_SyncStk+78 ; [CPU_ARAU] |208| 
         0000000f 004E 
    1211 00000010 56BF          MOVB      *-SP[4],#1,UNC        ; [CPU_ALU] |208| 
         00000011 0144 
    1212 00000012 A846          MOVL      *-SP[6],XAR4          ; [CPU_ALU] |208| 
    1213 00000013 8F00'         MOVL      XAR4,#_Status_Sync    ; [CPU_ARAU] |208| 
         00000014 002A 
    1214 00000015 1E48          MOVL      *-SP[8],ACC           ; [CPU_ALU] |208| 
    1215 00000016 0228          MOVB      ACC,#40               ; [CPU_ALU] |208| 
    1216 00000017 56BF          MOVB      *-SP[9],#3,UNC        ; [CPU_ALU] |208| 
         00000018 0349 
    1217              $C$DW$110       .dwtag  DW_TAG_TI_branch
    1218                      .dwattr $C$DW$110, DW_AT_low_pc(0x00)
    1219                      .dwattr $C$DW$110, DW_AT_name("_OSTaskCreateExt")
    1220                      .dwattr $C$DW$110, DW_AT_TI_call
    1221              
    1222 00000019 7640!         LCR       #_OSTaskCreateExt     ; [CPU_ALU] |208| 
         0000001a 0000 
    1223                      ; call occurs [#_OSTaskCreateExt] ; [] |208| 
    1224                      .dwpsn  file "C:/ti/Workspace/PLC_certificate/Examples/TI/TMDSDOCK28335/OS2/app.c",line 217,column 10
    1225 0000001b 2B4A          MOV       *-SP[10],#0           ; [CPU_ALU] |217| 
    1226                      .dwpsn  file "C:/ti/Workspace/PLC_certificate/Examples/TI/TMDSDOCK28335/OS2/app.c",line 217,column 17
    1227 0000001c 924A          MOV       AL,*-SP[10]           ; [CPU_ALU] |217| 
    1228 0000001d 5210          CMPB      AL,#16                ; [CPU_ALU] |217| 
    1229 0000001e 6609          B         $C$L2,HI              ; [CPU_ALU] |217| 
    1230                      ; branchcc occurs ; [] |217| 
    1231 0000001f 8F00!         MOVL      XAR4,#_scirxBuf       ; [CPU_ARAU] |219| 
TMS320C2000 Assembler PC v20.2.1 Wed Feb 17 17:05:46 2021

Copyright (c) 1996-2018 Texas Instruments Incorporated
app.asm                                                              PAGE   24

         00000020 0000 
    1232 00000021       $C$L1:    
    1233                      .dwpsn  file "C:/ti/Workspace/PLC_certificate/Examples/TI/TMDSDOCK28335/OS2/app.c",line 219,column 9,
    1234 00000021 584A          MOVZ      AR0,*-SP[10]          ; [CPU_ALU] |219| 
    1235 00000022 2B94          MOV       *+XAR4[AR0],#0        ; [CPU_ALU] |219| 
    1236                      .dwpsn  file "C:/ti/Workspace/PLC_certificate/Examples/TI/TMDSDOCK28335/OS2/app.c",line 217,column 40
    1237 00000023 0A4A          INC       *-SP[10]              ; [CPU_ALU] |217| 
    1238                      .dwpsn  file "C:/ti/Workspace/PLC_certificate/Examples/TI/TMDSDOCK28335/OS2/app.c",line 217,column 17
    1239 00000024 924A          MOV       AL,*-SP[10]           ; [CPU_ALU] |217| 
    1240 00000025 5210          CMPB      AL,#16                ; [CPU_ALU] |217| 
    1241 00000026 69FB          B         $C$L1,LOS             ; [CPU_ALU] |217| 
    1242                      ; branchcc occurs ; [] |217| 
    1243 00000027       $C$L2:    
    1244                      .dwpsn  file "C:/ti/Workspace/PLC_certificate/Examples/TI/TMDSDOCK28335/OS2/app.c",line 221,column 5,
    1245              $C$DW$111       .dwtag  DW_TAG_TI_branch
    1246                      .dwattr $C$DW$111, DW_AT_low_pc(0x00)
    1247                      .dwattr $C$DW$111, DW_AT_name("_OSStart")
    1248                      .dwattr $C$DW$111, DW_AT_TI_call
    1249              
    1250 00000027 7640!         LCR       #_OSStart             ; [CPU_ALU] |221| 
         00000028 0000 
    1251                      ; call occurs [#_OSStart] ; [] |221| 
    1252                      .dwpsn  file "C:/ti/Workspace/PLC_certificate/Examples/TI/TMDSDOCK28335/OS2/app.c",line 223,column 12
    1253 00000029       $C$L3:    
    1254 00000029 6F00          B         $C$L3,UNC             ; [CPU_ALU] |223| 
    1255                      ; branch occurs ; [] |223| 
    1256                      .dwattr $C$DW$105, DW_AT_TI_end_file("C:/ti/Workspace/PLC_certificate/Examples/TI/TMDSDOCK28335/OS2/a
    1257                      .dwattr $C$DW$105, DW_AT_TI_end_line(0xe3)
    1258                      .dwattr $C$DW$105, DW_AT_TI_end_column(0x01)
    1259                      .dwendentry
    1260                      .dwendtag $C$DW$105
    1261              
    1262 0000002a               .sect   ".text"
    1263                      .clink
    1264              
    1265              $C$DW$112       .dwtag  DW_TAG_subprogram
    1266                      .dwattr $C$DW$112, DW_AT_name("Status_Sync")
    1267                      .dwattr $C$DW$112, DW_AT_low_pc(_Status_Sync)
    1268                      .dwattr $C$DW$112, DW_AT_high_pc(0x00)
    1269                      .dwattr $C$DW$112, DW_AT_TI_symbol_name("_Status_Sync")
    1270                      .dwattr $C$DW$112, DW_AT_TI_begin_file("C:/ti/Workspace/PLC_certificate/Examples/TI/TMDSDOCK28335/OS2
    1271                      .dwattr $C$DW$112, DW_AT_TI_begin_line(0xf6)
    1272                      .dwattr $C$DW$112, DW_AT_TI_begin_column(0x0d)
    1273                      .dwattr $C$DW$112, DW_AT_TI_max_frame_size(-20)
    1274                      .dwpsn  file "C:/ti/Workspace/PLC_certificate/Examples/TI/TMDSDOCK28335/OS2/app.c",line 247,column 1,
    1275              
    1276                      .dwfde $C$DW$CIE, _Status_Sync
    1277              $C$DW$113       .dwtag  DW_TAG_formal_parameter
    1278                      .dwattr $C$DW$113, DW_AT_name("p_arg")
    1279                      .dwattr $C$DW$113, DW_AT_TI_symbol_name("_p_arg")
    1280                      .dwattr $C$DW$113, DW_AT_type(*$C$DW$T$3)
    1281                      .dwattr $C$DW$113, DW_AT_location[DW_OP_reg12]
    1282              
    1283              
    1284              ;***************************************************************
TMS320C2000 Assembler PC v20.2.1 Wed Feb 17 17:05:46 2021

Copyright (c) 1996-2018 Texas Instruments Incorporated
app.asm                                                              PAGE   25

    1285              ;* FNAME: _Status_Sync                  FR SIZE:  18           *
    1286              ;*                                                             *
    1287              ;* FUNCTION ENVIRONMENT                                        *
    1288              ;*                                                             *
    1289              ;* FUNCTION PROPERTIES                                         *
    1290              ;*                            9 Parameter,  8 Auto,  0 SOE     *
    1291              ;***************************************************************
    1292              
    1293 0000002a       _Status_Sync:
    1294                      .dwcfi  cfa_offset, -2
    1295                      .dwcfi  save_reg_to_mem, 26, 0
    1296 0000002a FE12          ADDB      SP,#18                ; [CPU_ARAU] 
    1297                      .dwcfi  cfa_offset, -20
    1298              $C$DW$114       .dwtag  DW_TAG_variable
    1299                      .dwattr $C$DW$114, DW_AT_name("p_arg")
    1300                      .dwattr $C$DW$114, DW_AT_TI_symbol_name("_p_arg")
    1301                      .dwattr $C$DW$114, DW_AT_type(*$C$DW$T$3)
    1302                      .dwattr $C$DW$114, DW_AT_location[DW_OP_breg20 -12]
    1303              
    1304              $C$DW$115       .dwtag  DW_TAG_variable
    1305                      .dwattr $C$DW$115, DW_AT_name("Start_Time")
    1306                      .dwattr $C$DW$115, DW_AT_TI_symbol_name("_Start_Time")
    1307                      .dwattr $C$DW$115, DW_AT_type(*$C$DW$T$65)
    1308                      .dwattr $C$DW$115, DW_AT_location[DW_OP_breg20 -14]
    1309              
    1310              $C$DW$116       .dwtag  DW_TAG_variable
    1311                      .dwattr $C$DW$116, DW_AT_name("Execute_Time")
    1312                      .dwattr $C$DW$116, DW_AT_TI_symbol_name("_Execute_Time")
    1313                      .dwattr $C$DW$116, DW_AT_type(*$C$DW$T$65)
    1314                      .dwattr $C$DW$116, DW_AT_location[DW_OP_breg20 -16]
    1315              
    1316              $C$DW$117       .dwtag  DW_TAG_variable
    1317                      .dwattr $C$DW$117, DW_AT_name("i")
    1318                      .dwattr $C$DW$117, DW_AT_TI_symbol_name("_i")
    1319                      .dwattr $C$DW$117, DW_AT_type(*$C$DW$T$25)
    1320                      .dwattr $C$DW$117, DW_AT_location[DW_OP_breg20 -17]
    1321              
    1322 0000002b A84C          MOVL      *-SP[12],XAR4         ; [CPU_ALU] |247| 
    1323                      .dwpsn  file "C:/ti/Workspace/PLC_certificate/Examples/TI/TMDSDOCK28335/OS2/app.c",line 253,column 5,
    1324                      .dwpsn  file "C:/ti/Workspace/PLC_certificate/Examples/TI/TMDSDOCK28335/OS2/app.c",line 256,column 5,
    1325 0000002c 9A00          MOVB      AL,#0                 ; [CPU_ALU] |256| 
    1326              $C$DW$118       .dwtag  DW_TAG_TI_branch
    1327                      .dwattr $C$DW$118, DW_AT_low_pc(0x00)
    1328                      .dwattr $C$DW$118, DW_AT_name("_BSP_LED_Off")
    1329                      .dwattr $C$DW$118, DW_AT_TI_call
    1330              
    1331 0000002d 7640!         LCR       #_BSP_LED_Off         ; [CPU_ALU] |256| 
         0000002e 0000 
    1332                      ; call occurs [#_BSP_LED_Off] ; [] |256| 
    1333                      .dwpsn  file "C:/ti/Workspace/PLC_certificate/Examples/TI/TMDSDOCK28335/OS2/app.c",line 258,column 5,
    1334              $C$DW$119       .dwtag  DW_TAG_TI_branch
    1335                      .dwattr $C$DW$119, DW_AT_low_pc(0x00)
    1336                      .dwattr $C$DW$119, DW_AT_name("_BSP_Tick_Init")
    1337                      .dwattr $C$DW$119, DW_AT_TI_call
    1338              
TMS320C2000 Assembler PC v20.2.1 Wed Feb 17 17:05:46 2021

Copyright (c) 1996-2018 Texas Instruments Incorporated
app.asm                                                              PAGE   26

    1339 0000002f 7640!         LCR       #_BSP_Tick_Init       ; [CPU_ALU] |258| 
         00000030 0000 
    1340                      ; call occurs [#_BSP_Tick_Init] ; [] |258| 
    1341                      .dwpsn  file "C:/ti/Workspace/PLC_certificate/Examples/TI/TMDSDOCK28335/OS2/app.c",line 259,column 5,
    1342              $C$DW$120       .dwtag  DW_TAG_TI_branch
    1343                      .dwattr $C$DW$120, DW_AT_low_pc(0x00)
    1344                      .dwattr $C$DW$120, DW_AT_name("_OSStatInit")
    1345                      .dwattr $C$DW$120, DW_AT_TI_call
    1346              
    1347 00000031 7640!         LCR       #_OSStatInit          ; [CPU_ALU] |259| 
         00000032 0000 
    1348                      ; call occurs [#_OSStatInit] ; [] |259| 
    1349                      .dwpsn  file "C:/ti/Workspace/PLC_certificate/Examples/TI/TMDSDOCK28335/OS2/app.c",line 260,column 5,
    1350 00000033 761F!         MOVW      DP,#_OSTime           ; [CPU_ARAU] 
         00000034 0000 
    1351 00000035 0200          MOVB      ACC,#0                ; [CPU_ALU] |260| 
    1352 00000036 1E00!         MOVL      @_OSTime,ACC          ; [CPU_ALU] |260| 
    1353                      .dwpsn  file "C:/ti/Workspace/PLC_certificate/Examples/TI/TMDSDOCK28335/OS2/app.c",line 261,column 5,
    1354 00000037 9A00          MOVB      AL,#0                 ; [CPU_ALU] |261| 
    1355              $C$DW$121       .dwtag  DW_TAG_TI_branch
    1356                      .dwattr $C$DW$121, DW_AT_low_pc(0x00)
    1357                      .dwattr $C$DW$121, DW_AT_name("_OSSemCreate")
    1358                      .dwattr $C$DW$121, DW_AT_TI_call
    1359              
    1360 00000038 7640!         LCR       #_OSSemCreate         ; [CPU_ALU] |261| 
         00000039 0000 
    1361                      ; call occurs [#_OSSemCreate] ; [] |261| 
    1362 0000003a 761F-         MOVW      DP,#_AppTaskObjSem    ; [CPU_ARAU] 
         0000003b 0000 
    1363 0000003c A81A-         MOVL      @_AppTaskObjSem,XAR4  ; [CPU_ALU] |261| 
    1364                      .dwpsn  file "C:/ti/Workspace/PLC_certificate/Examples/TI/TMDSDOCK28335/OS2/app.c",line 262,column 5,
    1365 0000003d 8F00-         MOVL      XAR4,#_Init_UpdateStk ; [CPU_ARAU] |262| 
         0000003e 0000 
    1366 0000003f 0200          MOVB      ACC,#0                ; [CPU_ALU] |262| 
    1367 00000040 D500          MOVB      XAR5,#0               ; [CPU_ALU] |262| 
    1368 00000041 A842          MOVL      *-SP[2],XAR4          ; [CPU_ALU] |262| 
    1369 00000042 56BF          MOVB      *-SP[3],#6,UNC        ; [CPU_ALU] |262| 
         00000043 0643 
    1370 00000044 8F00-         MOVL      XAR4,#_Init_UpdateStk+78 ; [CPU_ARAU] |262| 
         00000045 004E 
    1371 00000046 56BF          MOVB      *-SP[4],#6,UNC        ; [CPU_ALU] |262| 
         00000047 0644 
    1372 00000048 A846          MOVL      *-SP[6],XAR4          ; [CPU_ALU] |262| 
    1373 00000049 8F00'         MOVL      XAR4,#_Init_Update    ; [CPU_ARAU] |262| 
         0000004a 006E 
    1374 0000004b 1E48          MOVL      *-SP[8],ACC           ; [CPU_ALU] |262| 
    1375 0000004c 0228          MOVB      ACC,#40               ; [CPU_ALU] |262| 
    1376 0000004d 56BF          MOVB      *-SP[9],#3,UNC        ; [CPU_ALU] |262| 
         0000004e 0349 
    1377              $C$DW$122       .dwtag  DW_TAG_TI_branch
    1378                      .dwattr $C$DW$122, DW_AT_low_pc(0x00)
    1379                      .dwattr $C$DW$122, DW_AT_name("_OSTaskCreateExt")
    1380                      .dwattr $C$DW$122, DW_AT_TI_call
    1381              
    1382 0000004f 7640!         LCR       #_OSTaskCreateExt     ; [CPU_ALU] |262| 
TMS320C2000 Assembler PC v20.2.1 Wed Feb 17 17:05:46 2021

Copyright (c) 1996-2018 Texas Instruments Incorporated
app.asm                                                              PAGE   27

         00000050 0000 
    1383                      ; call occurs [#_OSTaskCreateExt] ; [] |262| 
    1384                      .dwpsn  file "C:/ti/Workspace/PLC_certificate/Examples/TI/TMDSDOCK28335/OS2/app.c",line 268,column 5,
    1385 00000051 761F!         MOVW      DP,#_OSTime           ; [CPU_ARAU] 
         00000052 0000 
    1386 00000053 0600!         MOVL      ACC,@_OSTime          ; [CPU_ALU] |268| 
    1387 00000054 1E4E          MOVL      *-SP[14],ACC          ; [CPU_ALU] |268| 
    1388                      .dwpsn  file "C:/ti/Workspace/PLC_certificate/Examples/TI/TMDSDOCK28335/OS2/app.c",line 269,column 5,
    1389 00000055 761F-         MOVW      DP,#_TaskID           ; [CPU_ARAU] 
         00000056 0000 
    1390 00000057 56BF-         MOVB      @_TaskID,#1,UNC       ; [CPU_ALU] |269| 
         00000058 0110 
    1391                      .dwpsn  file "C:/ti/Workspace/PLC_certificate/Examples/TI/TMDSDOCK28335/OS2/app.c",line 270,column 12
    1392 00000059       $C$L4:    
    1393                      .dwpsn  file "C:/ti/Workspace/PLC_certificate/Examples/TI/TMDSDOCK28335/OS2/app.c",line 273,column 9,
    1394 00000059 761F!         MOVW      DP,#_OSTime           ; [CPU_ARAU] 
         0000005a 0000 
    1395 0000005b 0600!         MOVL      ACC,@_OSTime          ; [CPU_ALU] |273| 
    1396 0000005c 034E          SUBL      ACC,*-SP[14]          ; [CPU_ALU] |273| 
    1397 0000005d 1E50          MOVL      *-SP[16],ACC          ; [CPU_ALU] |273| 
    1398                      .dwpsn  file "C:/ti/Workspace/PLC_certificate/Examples/TI/TMDSDOCK28335/OS2/app.c",line 274,column 9,
    1399 0000005e 761F-         MOVW      DP,#_Status_Sync_ExTime ; [CPU_ARAU] 
         0000005f 0000 
    1400 00000060 0E00-         MOVU      ACC,@_Status_Sync_ExTime ; [CPU_ALU] |274| 
    1401 00000061 0F50          CMPL      ACC,*-SP[16]          ; [CPU_ALU] |274| 
    1402 00000062 690A          B         $C$L6,LOS             ; [CPU_ALU] |274| 
    1403                      ; branchcc occurs ; [] |274| 
    1404                      .dwpsn  file "C:/ti/Workspace/PLC_certificate/Examples/TI/TMDSDOCK28335/OS2/app.c",line 275,column 13
    1405                      .dwpsn  file "C:/ti/Workspace/PLC_certificate/Examples/TI/TMDSDOCK28335/OS2/app.c",line 277,column 18
    1406 00000063 2B51          MOV       *-SP[17],#0           ; [CPU_ALU] |277| 
    1407                      .dwpsn  file "C:/ti/Workspace/PLC_certificate/Examples/TI/TMDSDOCK28335/OS2/app.c",line 277,column 25
    1408 00000064 9251          MOV       AL,*-SP[17]           ; [CPU_ALU] |277| 
    1409 00000065 5201          CMPB      AL,#1                 ; [CPU_ALU] |277| 
    1410 00000066 66F3          B         $C$L4,HI              ; [CPU_ALU] |277| 
    1411                      ; branchcc occurs ; [] |277| 
    1412 00000067       $C$L5:    
    1413                      .dwpsn  file "C:/ti/Workspace/PLC_certificate/Examples/TI/TMDSDOCK28335/OS2/app.c",line 277,column 33
    1414 00000067 0A51          INC       *-SP[17]              ; [CPU_ALU] |277| 
    1415                      .dwpsn  file "C:/ti/Workspace/PLC_certificate/Examples/TI/TMDSDOCK28335/OS2/app.c",line 277,column 25
    1416 00000068 9251          MOV       AL,*-SP[17]           ; [CPU_ALU] |277| 
    1417 00000069 5201          CMPB      AL,#1                 ; [CPU_ALU] |277| 
    1418 0000006a 69FD          B         $C$L5,LOS             ; [CPU_ALU] |277| 
    1419                      ; branchcc occurs ; [] |277| 
    1420                      .dwpsn  file "C:/ti/Workspace/PLC_certificate/Examples/TI/TMDSDOCK28335/OS2/app.c",line 270,column 12
    1421 0000006b 6FEE          B         $C$L4,UNC             ; [CPU_ALU] |270| 
    1422                      ; branch occurs ; [] |270| 
    1423 0000006c       $C$L6:    
    1424 0000006c FE92          SUBB      SP,#18                ; [CPU_ARAU] 
    1425                      .dwcfi  cfa_offset, -2
    1426              $C$DW$123       .dwtag  DW_TAG_TI_branch
    1427                      .dwattr $C$DW$123, DW_AT_low_pc(0x00)
    1428                      .dwattr $C$DW$123, DW_AT_TI_return
    1429              
    1430 0000006d 0006          LRETR     ; [CPU_ALU] 
    1431                      ; return occurs ; [] 
TMS320C2000 Assembler PC v20.2.1 Wed Feb 17 17:05:46 2021

Copyright (c) 1996-2018 Texas Instruments Incorporated
app.asm                                                              PAGE   28

    1432                      .dwattr $C$DW$112, DW_AT_TI_end_file("C:/ti/Workspace/PLC_certificate/Examples/TI/TMDSDOCK28335/OS2/a
    1433                      .dwattr $C$DW$112, DW_AT_TI_end_line(0x11a)
    1434                      .dwattr $C$DW$112, DW_AT_TI_end_column(0x01)
    1435                      .dwendentry
    1436                      .dwendtag $C$DW$112
    1437              
    1438 0000006e               .sect   ".text"
    1439                      .clink
    1440              
    1441              $C$DW$124       .dwtag  DW_TAG_subprogram
    1442                      .dwattr $C$DW$124, DW_AT_name("Init_Update")
    1443                      .dwattr $C$DW$124, DW_AT_low_pc(_Init_Update)
    1444                      .dwattr $C$DW$124, DW_AT_high_pc(0x00)
    1445                      .dwattr $C$DW$124, DW_AT_TI_symbol_name("_Init_Update")
    1446                      .dwattr $C$DW$124, DW_AT_TI_begin_file("C:/ti/Workspace/PLC_certificate/Examples/TI/TMDSDOCK28335/OS2
    1447                      .dwattr $C$DW$124, DW_AT_TI_begin_line(0x11c)
    1448                      .dwattr $C$DW$124, DW_AT_TI_begin_column(0x0d)
    1449                      .dwattr $C$DW$124, DW_AT_TI_max_frame_size(-20)
    1450                      .dwpsn  file "C:/ti/Workspace/PLC_certificate/Examples/TI/TMDSDOCK28335/OS2/app.c",line 285,column 1,
    1451              
    1452                      .dwfde $C$DW$CIE, _Init_Update
    1453              $C$DW$125       .dwtag  DW_TAG_formal_parameter
    1454                      .dwattr $C$DW$125, DW_AT_name("p_arg")
    1455                      .dwattr $C$DW$125, DW_AT_TI_symbol_name("_p_arg")
    1456                      .dwattr $C$DW$125, DW_AT_type(*$C$DW$T$3)
    1457                      .dwattr $C$DW$125, DW_AT_location[DW_OP_reg12]
    1458              
    1459              
    1460              ;***************************************************************
    1461              ;* FNAME: _Init_Update                  FR SIZE:  18           *
    1462              ;*                                                             *
    1463              ;* FUNCTION ENVIRONMENT                                        *
    1464              ;*                                                             *
    1465              ;* FUNCTION PROPERTIES                                         *
    1466              ;*                            9 Parameter,  9 Auto,  0 SOE     *
    1467              ;***************************************************************
    1468              
    1469 0000006e       _Init_Update:
    1470                      .dwcfi  cfa_offset, -2
    1471                      .dwcfi  save_reg_to_mem, 26, 0
    1472 0000006e FE12          ADDB      SP,#18                ; [CPU_ARAU] 
    1473                      .dwcfi  cfa_offset, -20
    1474              $C$DW$126       .dwtag  DW_TAG_variable
    1475                      .dwattr $C$DW$126, DW_AT_name("p_arg")
    1476                      .dwattr $C$DW$126, DW_AT_TI_symbol_name("_p_arg")
    1477                      .dwattr $C$DW$126, DW_AT_type(*$C$DW$T$3)
    1478                      .dwattr $C$DW$126, DW_AT_location[DW_OP_breg20 -12]
    1479              
    1480              $C$DW$127       .dwtag  DW_TAG_variable
    1481                      .dwattr $C$DW$127, DW_AT_name("Start_Time")
    1482                      .dwattr $C$DW$127, DW_AT_TI_symbol_name("_Start_Time")
    1483                      .dwattr $C$DW$127, DW_AT_type(*$C$DW$T$65)
    1484                      .dwattr $C$DW$127, DW_AT_location[DW_OP_breg20 -14]
    1485              
    1486              $C$DW$128       .dwtag  DW_TAG_variable
TMS320C2000 Assembler PC v20.2.1 Wed Feb 17 17:05:46 2021

Copyright (c) 1996-2018 Texas Instruments Incorporated
app.asm                                                              PAGE   29

    1487                      .dwattr $C$DW$128, DW_AT_name("Execute_Time")
    1488                      .dwattr $C$DW$128, DW_AT_TI_symbol_name("_Execute_Time")
    1489                      .dwattr $C$DW$128, DW_AT_type(*$C$DW$T$65)
    1490                      .dwattr $C$DW$128, DW_AT_location[DW_OP_breg20 -16]
    1491              
    1492              $C$DW$129       .dwtag  DW_TAG_variable
    1493                      .dwattr $C$DW$129, DW_AT_name("i")
    1494                      .dwattr $C$DW$129, DW_AT_TI_symbol_name("_i")
    1495                      .dwattr $C$DW$129, DW_AT_type(*$C$DW$T$25)
    1496                      .dwattr $C$DW$129, DW_AT_location[DW_OP_breg20 -17]
    1497              
    1498              $C$DW$130       .dwtag  DW_TAG_variable
    1499                      .dwattr $C$DW$130, DW_AT_name("InitCnt")
    1500                      .dwattr $C$DW$130, DW_AT_TI_symbol_name("_InitCnt")
    1501                      .dwattr $C$DW$130, DW_AT_type(*$C$DW$T$25)
    1502                      .dwattr $C$DW$130, DW_AT_location[DW_OP_breg20 -18]
    1503              
    1504 0000006f A84C          MOVL      *-SP[12],XAR4         ; [CPU_ALU] |285| 
    1505                      .dwpsn  file "C:/ti/Workspace/PLC_certificate/Examples/TI/TMDSDOCK28335/OS2/app.c",line 286,column 5,
    1506                      .dwpsn  file "C:/ti/Workspace/PLC_certificate/Examples/TI/TMDSDOCK28335/OS2/app.c",line 288,column 19
    1507 00000070 2B52          MOV       *-SP[18],#0           ; [CPU_ALU] |288| 
    1508                      .dwpsn  file "C:/ti/Workspace/PLC_certificate/Examples/TI/TMDSDOCK28335/OS2/app.c",line 350,column 5,
    1509 00000071 8F00-         MOVL      XAR4,#_UART_ReceptionStk ; [CPU_ARAU] |350| 
         00000072 0000 
    1510 00000073 0200          MOVB      ACC,#0                ; [CPU_ALU] |350| 
    1511 00000074 D500          MOVB      XAR5,#0               ; [CPU_ALU] |350| 
    1512 00000075 A842          MOVL      *-SP[2],XAR4          ; [CPU_ALU] |350| 
    1513 00000076 8F00-         MOVL      XAR4,#_UART_ReceptionStk+78 ; [CPU_ARAU] |350| 
         00000077 004E 
    1514 00000078 56BF          MOVB      *-SP[3],#20,UNC       ; [CPU_ALU] |350| 
         00000079 1443 
    1515 0000007a 56BF          MOVB      *-SP[4],#20,UNC       ; [CPU_ALU] |350| 
         0000007b 1444 
    1516 0000007c A846          MOVL      *-SP[6],XAR4          ; [CPU_ALU] |350| 
    1517 0000007d 8F00'         MOVL      XAR4,#_UART_Reception ; [CPU_ARAU] |350| 
         0000007e 024E 
    1518 0000007f 1E48          MOVL      *-SP[8],ACC           ; [CPU_ALU] |350| 
    1519 00000080 0228          MOVB      ACC,#40               ; [CPU_ALU] |350| 
    1520 00000081 56BF          MOVB      *-SP[9],#3,UNC        ; [CPU_ALU] |350| 
         00000082 0349 
    1521              $C$DW$131       .dwtag  DW_TAG_TI_branch
    1522                      .dwattr $C$DW$131, DW_AT_low_pc(0x00)
    1523                      .dwattr $C$DW$131, DW_AT_name("_OSTaskCreateExt")
    1524                      .dwattr $C$DW$131, DW_AT_TI_call
    1525              
    1526 00000083 7640!         LCR       #_OSTaskCreateExt     ; [CPU_ALU] |350| 
         00000084 0000 
    1527                      ; call occurs [#_OSTaskCreateExt] ; [] |350| 
    1528                      .dwpsn  file "C:/ti/Workspace/PLC_certificate/Examples/TI/TMDSDOCK28335/OS2/app.c",line 356,column 5,
    1529 00000085 8F00-         MOVL      XAR4,#_UART_TransmissionStk ; [CPU_ARAU] |356| 
         00000086 0000 
    1530 00000087 0200          MOVB      ACC,#0                ; [CPU_ALU] |356| 
    1531 00000088 A842          MOVL      *-SP[2],XAR4          ; [CPU_ALU] |356| 
    1532 00000089 D500          MOVB      XAR5,#0               ; [CPU_ALU] |356| 
    1533 0000008a 56BF          MOVB      *-SP[3],#21,UNC       ; [CPU_ALU] |356| 
TMS320C2000 Assembler PC v20.2.1 Wed Feb 17 17:05:46 2021

Copyright (c) 1996-2018 Texas Instruments Incorporated
app.asm                                                              PAGE   30

         0000008b 1543 
    1534 0000008c 8F00-         MOVL      XAR4,#_UART_TransmissionStk+78 ; [CPU_ARAU] |356| 
         0000008d 004E 
    1535 0000008e 56BF          MOVB      *-SP[4],#21,UNC       ; [CPU_ALU] |356| 
         0000008f 1544 
    1536 00000090 A846          MOVL      *-SP[6],XAR4          ; [CPU_ALU] |356| 
    1537 00000091 8F00'         MOVL      XAR4,#_UART_Transmission ; [CPU_ARAU] |356| 
         00000092 02B8 
    1538 00000093 1E48          MOVL      *-SP[8],ACC           ; [CPU_ALU] |356| 
    1539 00000094 0228          MOVB      ACC,#40               ; [CPU_ALU] |356| 
    1540 00000095 56BF          MOVB      *-SP[9],#3,UNC        ; [CPU_ALU] |356| 
         00000096 0349 
    1541              $C$DW$132       .dwtag  DW_TAG_TI_branch
    1542                      .dwattr $C$DW$132, DW_AT_low_pc(0x00)
    1543                      .dwattr $C$DW$132, DW_AT_name("_OSTaskCreateExt")
    1544                      .dwattr $C$DW$132, DW_AT_TI_call
    1545              
    1546 00000097 7640!         LCR       #_OSTaskCreateExt     ; [CPU_ALU] |356| 
         00000098 0000 
    1547                      ; call occurs [#_OSTaskCreateExt] ; [] |356| 
    1548                      .dwpsn  file "C:/ti/Workspace/PLC_certificate/Examples/TI/TMDSDOCK28335/OS2/app.c",line 363,column 5,
    1549 00000099 8F00-         MOVL      XAR4,#_DiagnosisStk   ; [CPU_ARAU] |363| 
         0000009a 0000 
    1550 0000009b 0200          MOVB      ACC,#0                ; [CPU_ALU] |363| 
    1551 0000009c A842          MOVL      *-SP[2],XAR4          ; [CPU_ALU] |363| 
    1552 0000009d D500          MOVB      XAR5,#0               ; [CPU_ALU] |363| 
    1553 0000009e 56BF          MOVB      *-SP[3],#30,UNC       ; [CPU_ALU] |363| 
         0000009f 1E43 
    1554 000000a0 8F00-         MOVL      XAR4,#_DiagnosisStk+78 ; [CPU_ARAU] |363| 
         000000a1 004E 
    1555 000000a2 56BF          MOVB      *-SP[4],#30,UNC       ; [CPU_ALU] |363| 
         000000a3 1E44 
    1556 000000a4 A846          MOVL      *-SP[6],XAR4          ; [CPU_ALU] |363| 
    1557 000000a5 8F00'         MOVL      XAR4,#_Diagnosis      ; [CPU_ARAU] |363| 
         000000a6 0343 
    1558 000000a7 1E48          MOVL      *-SP[8],ACC           ; [CPU_ALU] |363| 
    1559 000000a8 0228          MOVB      ACC,#40               ; [CPU_ALU] |363| 
    1560 000000a9 56BF          MOVB      *-SP[9],#3,UNC        ; [CPU_ALU] |363| 
         000000aa 0349 
    1561              $C$DW$133       .dwtag  DW_TAG_TI_branch
    1562                      .dwattr $C$DW$133, DW_AT_low_pc(0x00)
    1563                      .dwattr $C$DW$133, DW_AT_name("_OSTaskCreateExt")
    1564                      .dwattr $C$DW$133, DW_AT_TI_call
    1565              
    1566 000000ab 7640!         LCR       #_OSTaskCreateExt     ; [CPU_ALU] |363| 
         000000ac 0000 
    1567                      ; call occurs [#_OSTaskCreateExt] ; [] |363| 
    1568                      .dwpsn  file "C:/ti/Workspace/PLC_certificate/Examples/TI/TMDSDOCK28335/OS2/app.c",line 369,column 5,
    1569 000000ad 8F00-         MOVL      XAR4,#_Data_SyncStk   ; [CPU_ARAU] |369| 
         000000ae 0000 
    1570 000000af 0200          MOVB      ACC,#0                ; [CPU_ALU] |369| 
    1571 000000b0 A842          MOVL      *-SP[2],XAR4          ; [CPU_ALU] |369| 
    1572 000000b1 D500          MOVB      XAR5,#0               ; [CPU_ALU] |369| 
    1573 000000b2 56BF          MOVB      *-SP[3],#61,UNC       ; [CPU_ALU] |369| 
         000000b3 3D43 
TMS320C2000 Assembler PC v20.2.1 Wed Feb 17 17:05:46 2021

Copyright (c) 1996-2018 Texas Instruments Incorporated
app.asm                                                              PAGE   31

    1574 000000b4 8F00-         MOVL      XAR4,#_Data_SyncStk+78 ; [CPU_ARAU] |369| 
         000000b5 004E 
    1575 000000b6 56BF          MOVB      *-SP[4],#61,UNC       ; [CPU_ALU] |369| 
         000000b7 3D44 
    1576 000000b8 A846          MOVL      *-SP[6],XAR4          ; [CPU_ALU] |369| 
    1577 000000b9 8F00'         MOVL      XAR4,#_Data_Sync      ; [CPU_ARAU] |369| 
         000000ba 0369 
    1578 000000bb 1E48          MOVL      *-SP[8],ACC           ; [CPU_ALU] |369| 
    1579 000000bc 0228          MOVB      ACC,#40               ; [CPU_ALU] |369| 
    1580 000000bd 56BF          MOVB      *-SP[9],#3,UNC        ; [CPU_ALU] |369| 
         000000be 0349 
    1581              $C$DW$134       .dwtag  DW_TAG_TI_branch
    1582                      .dwattr $C$DW$134, DW_AT_low_pc(0x00)
    1583                      .dwattr $C$DW$134, DW_AT_name("_OSTaskCreateExt")
    1584                      .dwattr $C$DW$134, DW_AT_TI_call
    1585              
    1586 000000bf 7640!         LCR       #_OSTaskCreateExt     ; [CPU_ALU] |369| 
         000000c0 0000 
    1587                      ; call occurs [#_OSTaskCreateExt] ; [] |369| 
    1588                      .dwpsn  file "C:/ti/Workspace/PLC_certificate/Examples/TI/TMDSDOCK28335/OS2/app.c",line 375,column 12
    1589 000000c1       $C$L7:    
    1590                      .dwpsn  file "C:/ti/Workspace/PLC_certificate/Examples/TI/TMDSDOCK28335/OS2/app.c",line 377,column 9,
    1591 000000c1 761F!         MOVW      DP,#_OSTime           ; [CPU_ARAU] 
         000000c2 0000 
    1592 000000c3 0600!         MOVL      ACC,@_OSTime          ; [CPU_ALU] |377| 
    1593 000000c4 1E4E          MOVL      *-SP[14],ACC          ; [CPU_ALU] |377| 
    1594                      .dwpsn  file "C:/ti/Workspace/PLC_certificate/Examples/TI/TMDSDOCK28335/OS2/app.c",line 378,column 9,
    1595 000000c5 761F-         MOVW      DP,#_TaskID           ; [CPU_ARAU] 
         000000c6 0000 
    1596 000000c7 56BF-         MOVB      @_TaskID,#6,UNC       ; [CPU_ALU] |378| 
         000000c8 0610 
    1597                      .dwpsn  file "C:/ti/Workspace/PLC_certificate/Examples/TI/TMDSDOCK28335/OS2/app.c",line 379,column 9,
    1598 000000c9 9213-         MOV       AL,@_UserCert_flag    ; [CPU_ALU] |379| 
    1599 000000ca 5201          CMPB      AL,#1                 ; [CPU_ALU] |379| 
    1600 000000cb 6016          B         $C$L8,NEQ             ; [CPU_ALU] |379| 
    1601                      ; branchcc occurs ; [] |379| 
    1602                      .dwpsn  file "C:/ti/Workspace/PLC_certificate/Examples/TI/TMDSDOCK28335/OS2/app.c",line 381,column 13
    1603 000000cc 8F00-         MOVL      XAR4,#_User_certificationStk ; [CPU_ARAU] |381| 
         000000cd 0000 
    1604 000000ce A842          MOVL      *-SP[2],XAR4          ; [CPU_ALU] |381| 
    1605 000000cf A8A9          MOVL      ACC,XAR4              ; [CPU_ALU] |381| 
    1606 000000d0 56BF          MOVB      *-SP[3],#19,UNC       ; [CPU_ALU] |381| 
         000000d1 1343 
    1607 000000d2 D500          MOVB      XAR5,#0               ; [CPU_ALU] |381| 
    1608 000000d3 56BF          MOVB      *-SP[4],#19,UNC       ; [CPU_ALU] |381| 
         000000d4 1344 
    1609 000000d5 FF11          ADD       ACC,#147 << 1         ; [CPU_ALU] |381| 
         000000d6 0093 
    1610 000000d7 8F00'         MOVL      XAR4,#_User_certification ; [CPU_ARAU] |381| 
         000000d8 00FD 
    1611 000000d9 1E46          MOVL      *-SP[6],ACC           ; [CPU_ALU] |381| 
    1612 000000da 0200          MOVB      ACC,#0                ; [CPU_ALU] |381| 
    1613 000000db 1E48          MOVL      *-SP[8],ACC           ; [CPU_ALU] |381| 
    1614 000000dc 0294          MOVB      ACC,#148              ; [CPU_ALU] |381| 
    1615 000000dd 56BF          MOVB      *-SP[9],#3,UNC        ; [CPU_ALU] |381| 
TMS320C2000 Assembler PC v20.2.1 Wed Feb 17 17:05:46 2021

Copyright (c) 1996-2018 Texas Instruments Incorporated
app.asm                                                              PAGE   32

         000000de 0349 
    1616              $C$DW$135       .dwtag  DW_TAG_TI_branch
    1617                      .dwattr $C$DW$135, DW_AT_low_pc(0x00)
    1618                      .dwattr $C$DW$135, DW_AT_name("_OSTaskCreateExt")
    1619                      .dwattr $C$DW$135, DW_AT_TI_call
    1620              
    1621 000000df 7640!         LCR       #_OSTaskCreateExt     ; [CPU_ALU] |381| 
         000000e0 0000 
    1622                      ; call occurs [#_OSTaskCreateExt] ; [] |381| 
    1623 000000e1       $C$L8:    
    1624                      .dwpsn  file "C:/ti/Workspace/PLC_certificate/Examples/TI/TMDSDOCK28335/OS2/app.c",line 394,column 16
    1625 000000e1       $C$L9:    
    1626                      .dwpsn  file "C:/ti/Workspace/PLC_certificate/Examples/TI/TMDSDOCK28335/OS2/app.c",line 397,column 13
    1627 000000e1 761F!         MOVW      DP,#_OSTime           ; [CPU_ARAU] 
         000000e2 0000 
    1628 000000e3 0600!         MOVL      ACC,@_OSTime          ; [CPU_ALU] |397| 
    1629 000000e4 034E          SUBL      ACC,*-SP[14]          ; [CPU_ALU] |397| 
    1630 000000e5 1E50          MOVL      *-SP[16],ACC          ; [CPU_ALU] |397| 
    1631                      .dwpsn  file "C:/ti/Workspace/PLC_certificate/Examples/TI/TMDSDOCK28335/OS2/app.c",line 399,column 13
    1632 000000e6 761F-         MOVW      DP,#_Init_Update_EXTime ; [CPU_ARAU] 
         000000e7 0000 
    1633 000000e8 0E01-         MOVU      ACC,@_Init_Update_EXTime ; [CPU_ALU] |399| 
    1634 000000e9 0F50          CMPL      ACC,*-SP[16]          ; [CPU_ALU] |399| 
    1635 000000ea 690A          B         $C$L11,LOS            ; [CPU_ALU] |399| 
    1636                      ; branchcc occurs ; [] |399| 
    1637                      .dwpsn  file "C:/ti/Workspace/PLC_certificate/Examples/TI/TMDSDOCK28335/OS2/app.c",line 400,column 17
    1638                      .dwpsn  file "C:/ti/Workspace/PLC_certificate/Examples/TI/TMDSDOCK28335/OS2/app.c",line 402,column 22
    1639 000000eb 2B51          MOV       *-SP[17],#0           ; [CPU_ALU] |402| 
    1640                      .dwpsn  file "C:/ti/Workspace/PLC_certificate/Examples/TI/TMDSDOCK28335/OS2/app.c",line 402,column 29
    1641 000000ec 9251          MOV       AL,*-SP[17]           ; [CPU_ALU] |402| 
    1642 000000ed 5201          CMPB      AL,#1                 ; [CPU_ALU] |402| 
    1643 000000ee 66F3          B         $C$L9,HI              ; [CPU_ALU] |402| 
    1644                      ; branchcc occurs ; [] |402| 
    1645 000000ef       $C$L10:    
    1646                      .dwpsn  file "C:/ti/Workspace/PLC_certificate/Examples/TI/TMDSDOCK28335/OS2/app.c",line 402,column 37
    1647 000000ef 0A51          INC       *-SP[17]              ; [CPU_ALU] |402| 
    1648                      .dwpsn  file "C:/ti/Workspace/PLC_certificate/Examples/TI/TMDSDOCK28335/OS2/app.c",line 402,column 29
    1649 000000f0 9251          MOV       AL,*-SP[17]           ; [CPU_ALU] |402| 
    1650 000000f1 5201          CMPB      AL,#1                 ; [CPU_ALU] |402| 
    1651 000000f2 69FD          B         $C$L10,LOS            ; [CPU_ALU] |402| 
    1652                      ; branchcc occurs ; [] |402| 
    1653                      .dwpsn  file "C:/ti/Workspace/PLC_certificate/Examples/TI/TMDSDOCK28335/OS2/app.c",line 394,column 16
    1654 000000f3 6FEE          B         $C$L9,UNC             ; [CPU_ALU] |394| 
    1655                      ; branch occurs ; [] |394| 
    1656 000000f4       $C$L11:    
    1657                      .dwpsn  file "C:/ti/Workspace/PLC_certificate/Examples/TI/TMDSDOCK28335/OS2/app.c",line 405,column 9,
    1658 000000f4 9A0A          MOVB      AL,#10                ; [CPU_ALU] |405| 
    1659 000000f5 D400          MOVB      XAR4,#0               ; [CPU_ALU] |405| 
    1660 000000f6 9E01-         SUB       AL,@_Init_Update_EXTime ; [CPU_ALU] |405| 
    1661 000000f7 5DA9          MOVZ      AR5,AL                ; [CPU_ALU] |405| 
    1662 000000f8 FF20          MOV       ACC,#0                ; [CPU_ALU] |405| 
         000000f9 0000 
    1663              $C$DW$136       .dwtag  DW_TAG_TI_branch
    1664                      .dwattr $C$DW$136, DW_AT_low_pc(0x00)
    1665                      .dwattr $C$DW$136, DW_AT_name("_OSTimeDlyHMSM")
TMS320C2000 Assembler PC v20.2.1 Wed Feb 17 17:05:46 2021

Copyright (c) 1996-2018 Texas Instruments Incorporated
app.asm                                                              PAGE   33

    1666                      .dwattr $C$DW$136, DW_AT_TI_call
    1667              
    1668 000000fa 7640!         LCR       #_OSTimeDlyHMSM       ; [CPU_ALU] |405| 
         000000fb 0000 
    1669                      ; call occurs [#_OSTimeDlyHMSM] ; [] |405| 
    1670                      .dwpsn  file "C:/ti/Workspace/PLC_certificate/Examples/TI/TMDSDOCK28335/OS2/app.c",line 375,column 12
    1671 000000fc 6FC5          B         $C$L7,UNC             ; [CPU_ALU] |375| 
    1672                      ; branch occurs ; [] |375| 
    1673                      .dwattr $C$DW$124, DW_AT_TI_end_file("C:/ti/Workspace/PLC_certificate/Examples/TI/TMDSDOCK28335/OS2/a
    1674                      .dwattr $C$DW$124, DW_AT_TI_end_line(0x197)
    1675                      .dwattr $C$DW$124, DW_AT_TI_end_column(0x01)
    1676                      .dwendentry
    1677                      .dwendtag $C$DW$124
    1678              
    1679 000000fd               .sect   ".text"
    1680                      .clink
    1681              
    1682              $C$DW$137       .dwtag  DW_TAG_subprogram
    1683                      .dwattr $C$DW$137, DW_AT_name("User_certification")
    1684                      .dwattr $C$DW$137, DW_AT_low_pc(_User_certification)
    1685                      .dwattr $C$DW$137, DW_AT_high_pc(0x00)
    1686                      .dwattr $C$DW$137, DW_AT_TI_symbol_name("_User_certification")
    1687                      .dwattr $C$DW$137, DW_AT_TI_begin_file("C:/ti/Workspace/PLC_certificate/Examples/TI/TMDSDOCK28335/OS2
    1688                      .dwattr $C$DW$137, DW_AT_TI_begin_line(0x213)
    1689                      .dwattr $C$DW$137, DW_AT_TI_begin_column(0x0d)
    1690                      .dwattr $C$DW$137, DW_AT_TI_max_frame_size(-44)
    1691                      .dwpsn  file "C:/ti/Workspace/PLC_certificate/Examples/TI/TMDSDOCK28335/OS2/app.c",line 532,column 1,
    1692              
    1693                      .dwfde $C$DW$CIE, _User_certification
    1694              $C$DW$138       .dwtag  DW_TAG_formal_parameter
    1695                      .dwattr $C$DW$138, DW_AT_name("p_arg")
    1696                      .dwattr $C$DW$138, DW_AT_TI_symbol_name("_p_arg")
    1697                      .dwattr $C$DW$138, DW_AT_type(*$C$DW$T$3)
    1698                      .dwattr $C$DW$138, DW_AT_location[DW_OP_reg12]
    1699              
    1700              
    1701              ;***************************************************************
    1702              ;* FNAME: _User_certification           FR SIZE:  42           *
    1703              ;*                                                             *
    1704              ;* FUNCTION ENVIRONMENT                                        *
    1705              ;*                                                             *
    1706              ;* FUNCTION PROPERTIES                                         *
    1707              ;*                            0 Parameter, 42 Auto,  0 SOE     *
    1708              ;***************************************************************
    1709              
    1710 000000fd       _User_certification:
    1711                      .dwcfi  cfa_offset, -2
    1712                      .dwcfi  save_reg_to_mem, 26, 0
    1713 000000fd FE2A          ADDB      SP,#42                ; [CPU_ARAU] 
    1714                      .dwcfi  cfa_offset, -44
    1715              $C$DW$139       .dwtag  DW_TAG_variable
    1716                      .dwattr $C$DW$139, DW_AT_name("p_arg")
    1717                      .dwattr $C$DW$139, DW_AT_TI_symbol_name("_p_arg")
    1718                      .dwattr $C$DW$139, DW_AT_type(*$C$DW$T$3)
    1719                      .dwattr $C$DW$139, DW_AT_location[DW_OP_breg20 -2]
TMS320C2000 Assembler PC v20.2.1 Wed Feb 17 17:05:46 2021

Copyright (c) 1996-2018 Texas Instruments Incorporated
app.asm                                                              PAGE   34

    1720              
    1721              $C$DW$140       .dwtag  DW_TAG_variable
    1722                      .dwattr $C$DW$140, DW_AT_name("Start_Time")
    1723                      .dwattr $C$DW$140, DW_AT_TI_symbol_name("_Start_Time")
    1724                      .dwattr $C$DW$140, DW_AT_type(*$C$DW$T$65)
    1725                      .dwattr $C$DW$140, DW_AT_location[DW_OP_breg20 -4]
    1726              
    1727              $C$DW$141       .dwtag  DW_TAG_variable
    1728                      .dwattr $C$DW$141, DW_AT_name("Execute_Time")
    1729                      .dwattr $C$DW$141, DW_AT_TI_symbol_name("_Execute_Time")
    1730                      .dwattr $C$DW$141, DW_AT_type(*$C$DW$T$65)
    1731                      .dwattr $C$DW$141, DW_AT_location[DW_OP_breg20 -6]
    1732              
    1733              $C$DW$142       .dwtag  DW_TAG_variable
    1734                      .dwattr $C$DW$142, DW_AT_name("i")
    1735                      .dwattr $C$DW$142, DW_AT_TI_symbol_name("_i")
    1736                      .dwattr $C$DW$142, DW_AT_type(*$C$DW$T$25)
    1737                      .dwattr $C$DW$142, DW_AT_location[DW_OP_breg20 -7]
    1738              
    1739 000000fe A842          MOVL      *-SP[2],XAR4          ; [CPU_ALU] |532| 
    1740                      .dwpsn  file "C:/ti/Workspace/PLC_certificate/Examples/TI/TMDSDOCK28335/OS2/app.c",line 533,column 5,
    1741                      .dwpsn  file "C:/ti/Workspace/PLC_certificate/Examples/TI/TMDSDOCK28335/OS2/app.c",line 538,column 12
    1742              $C$L12:    
    1743              
    1744              $C$DW$143       .dwtag  DW_TAG_lexical_block
    1745                      .dwattr $C$DW$143, DW_AT_low_pc(0x00)
    1746                      .dwattr $C$DW$143, DW_AT_high_pc(0x00)
    1747              $C$DW$144       .dwtag  DW_TAG_variable
    1748                      .dwattr $C$DW$144, DW_AT_name("Hash_Data_Before")
    1749                      .dwattr $C$DW$144, DW_AT_TI_symbol_name("_Hash_Data_Before")
    1750                      .dwattr $C$DW$144, DW_AT_type(*$C$DW$T$73)
    1751                      .dwattr $C$DW$144, DW_AT_location[DW_OP_breg20 -23]
    1752              
    1753              $C$DW$145       .dwtag  DW_TAG_variable
    1754                      .dwattr $C$DW$145, DW_AT_name("key")
    1755                      .dwattr $C$DW$145, DW_AT_TI_symbol_name("_key")
    1756                      .dwattr $C$DW$145, DW_AT_type(*$C$DW$T$73)
    1757                      .dwattr $C$DW$145, DW_AT_location[DW_OP_breg20 -39]
    1758              
    1759              $C$DW$146       .dwtag  DW_TAG_variable
    1760                      .dwattr $C$DW$146, DW_AT_name("Verify_cnt")
    1761                      .dwattr $C$DW$146, DW_AT_TI_symbol_name("_Verify_cnt")
    1762                      .dwattr $C$DW$146, DW_AT_type(*$C$DW$T$10)
    1763                      .dwattr $C$DW$146, DW_AT_location[DW_OP_breg20 -40]
    1764              
    1765                      .dwpsn  file "C:/ti/Workspace/PLC_certificate/Examples/TI/TMDSDOCK28335/OS2/app.c",line 540,column 9,
    1766 000000ff 761F!         MOVW      DP,#_OSTime           ; [CPU_ARAU] 
         00000100 0000 
    1767 00000101 0600!         MOVL      ACC,@_OSTime          ; [CPU_ALU] |540| 
    1768 00000102 1E44          MOVL      *-SP[4],ACC           ; [CPU_ALU] |540| 
    1769                      .dwpsn  file "C:/ti/Workspace/PLC_certificate/Examples/TI/TMDSDOCK28335/OS2/app.c",line 541,column 9,
    1770 00000103 761F-         MOVW      DP,#_TaskID           ; [CPU_ARAU] 
         00000104 0000 
    1771 00000105 56BF-         MOVB      @_TaskID,#19,UNC      ; [CPU_ALU] |541| 
         00000106 1310 
TMS320C2000 Assembler PC v20.2.1 Wed Feb 17 17:05:46 2021

Copyright (c) 1996-2018 Texas Instruments Incorporated
app.asm                                                              PAGE   35

    1772                      .dwpsn  file "C:/ti/Workspace/PLC_certificate/Examples/TI/TMDSDOCK28335/OS2/app.c",line 542,column 36
    1773 00000107 5CAD          MOVZ      AR4,SP                ; [CPU_ALU] |542| 
    1774 00000108 DC97          SUBB      XAR4,#23              ; [CPU_ARAU] |542| 
    1775 00000109 5CA4          MOVZ      AR4,AR4               ; [CPU_ALU] |542| 
    1776 0000010a F60F          RPT       #15
    1777 0000010b 2B84  ||     MOV       *XAR4++,#0            ; [CPU_ALU] |542| 
    1778                      .dwpsn  file "C:/ti/Workspace/PLC_certificate/Examples/TI/TMDSDOCK28335/OS2/app.c",line 543,column 24
    1779 0000010c 2B68          MOV       *-SP[40],#0           ; [CPU_ALU] |543| 
    1780                      .dwpsn  file "C:/ti/Workspace/PLC_certificate/Examples/TI/TMDSDOCK28335/OS2/app.c",line 545,column 15
    1781 0000010d 5CAD          MOVZ      AR4,SP                ; [CPU_ALU] |545| 
    1782 0000010e DCA7          SUBB      XAR4,#39              ; [CPU_ARAU] |545| 
    1783 0000010f 5CA4          MOVZ      AR4,AR4               ; [CPU_ALU] |545| 
    1784 00000110 76C0+         MOVL      XAR7,#_$P$T0$1        ; [CPU_ARAU] |545| 
         00000111 0000 
    1785 00000112 F60F          RPT       #15
    1786 00000113 2484  ||     PREAD     *XAR4++,*XAR7         ; [CPU_ALU] |545| 
    1787                      .dwpsn  file "C:/ti/Workspace/PLC_certificate/Examples/TI/TMDSDOCK28335/OS2/app.c",line 548,column 9,
    1788 00000114 9218-         MOV       AL,@_seq1_flag        ; [CPU_ALU] |548| 
    1789 00000115 5201          CMPB      AL,#1                 ; [CPU_ALU] |548| 
    1790 00000116 605F          B         $C$L19,NEQ            ; [CPU_ALU] |548| 
    1791                      ; branchcc occurs ; [] |548| 
    1792                      .dwpsn  file "C:/ti/Workspace/PLC_certificate/Examples/TI/TMDSDOCK28335/OS2/app.c",line 550,column 18
    1793 00000117 2B47          MOV       *-SP[7],#0            ; [CPU_ALU] |550| 
    1794                      .dwpsn  file "C:/ti/Workspace/PLC_certificate/Examples/TI/TMDSDOCK28335/OS2/app.c",line 550,column 25
    1795 00000118 9247          MOV       AL,*-SP[7]            ; [CPU_ALU] |550| 
    1796 00000119 5202          CMPB      AL,#2                 ; [CPU_ALU] |550| 
    1797 0000011a 670D          B         $C$L14,HIS            ; [CPU_ALU] |550| 
    1798                      ; branchcc occurs ; [] |550| 
    1799 0000011b       $C$L13:    
    1800                      .dwpsn  file "C:/ti/Workspace/PLC_certificate/Examples/TI/TMDSDOCK28335/OS2/app.c",line 551,column 17
    1801 0000011b 5847          MOVZ      AR0,*-SP[7]           ; [CPU_ALU] |551| 
    1802 0000011c 8F00-         MOVL      XAR4,#_R_PLC_NoneCrypt ; [CPU_ARAU] |551| 
         0000011d 0000 
    1803 0000011e 9294          MOV       AL,*+XAR4[AR0]        ; [CPU_ALU] |551| 
    1804 0000011f 5CAD          MOVZ      AR4,SP                ; [CPU_ALU] |551| 
    1805 00000120 DC97          SUBB      XAR4,#23              ; [CPU_ARAU] |551| 
    1806 00000121 5CA4          MOVZ      AR4,AR4               ; [CPU_ALU] |551| 
    1807 00000122 9694          MOV       *+XAR4[AR0],AL        ; [CPU_ALU] |551| 
    1808                      .dwpsn  file "C:/ti/Workspace/PLC_certificate/Examples/TI/TMDSDOCK28335/OS2/app.c",line 550,column 54
    1809 00000123 0A47          INC       *-SP[7]               ; [CPU_ALU] |550| 
    1810                      .dwpsn  file "C:/ti/Workspace/PLC_certificate/Examples/TI/TMDSDOCK28335/OS2/app.c",line 550,column 25
    1811 00000124 9247          MOV       AL,*-SP[7]            ; [CPU_ALU] |550| 
    1812 00000125 5202          CMPB      AL,#2                 ; [CPU_ALU] |550| 
    1813 00000126 68F5          B         $C$L13,LO             ; [CPU_ALU] |550| 
    1814                      ; branchcc occurs ; [] |550| 
    1815 00000127       $C$L14:    
    1816                      .dwpsn  file "C:/ti/Workspace/PLC_certificate/Examples/TI/TMDSDOCK28335/OS2/app.c",line 553,column 13
    1817 00000127 F5A9          MOV       AL,*(0:0x0900)        ; [CPU_ALU] |553| 
         00000128 0900 
    1818 00000129 FFC7          LSR       AL,8                  ; [CPU_ALU] |553| 
    1819 0000012a 90FF          ANDB      AL,#0xff              ; [CPU_ALU] |553| 
    1820 0000012b 9655          MOV       *-SP[21],AL           ; [CPU_ALU] |553| 
    1821                      .dwpsn  file "C:/ti/Workspace/PLC_certificate/Examples/TI/TMDSDOCK28335/OS2/app.c",line 554,column 13
    1822 0000012c F5A9          MOV       AL,*(0:0x0900)        ; [CPU_ALU] |554| 
         0000012d 0900 
TMS320C2000 Assembler PC v20.2.1 Wed Feb 17 17:05:46 2021

Copyright (c) 1996-2018 Texas Instruments Incorporated
app.asm                                                              PAGE   36

    1823 0000012e 90FF          ANDB      AL,#0xff              ; [CPU_ALU] |554| 
    1824 0000012f 9654          MOV       *-SP[20],AL           ; [CPU_ALU] |554| 
    1825                      .dwpsn  file "C:/ti/Workspace/PLC_certificate/Examples/TI/TMDSDOCK28335/OS2/app.c",line 555,column 13
    1826 00000130 F5A9          MOV       AL,*(0:0x0901)        ; [CPU_ALU] |555| 
         00000131 0901 
    1827 00000132 FFC7          LSR       AL,8                  ; [CPU_ALU] |555| 
    1828 00000133 90FF          ANDB      AL,#0xff              ; [CPU_ALU] |555| 
    1829 00000134 9653          MOV       *-SP[19],AL           ; [CPU_ALU] |555| 
    1830                      .dwpsn  file "C:/ti/Workspace/PLC_certificate/Examples/TI/TMDSDOCK28335/OS2/app.c",line 556,column 13
    1831 00000135 F5A9          MOV       AL,*(0:0x0901)        ; [CPU_ALU] |556| 
         00000136 0901 
    1832 00000137 90FF          ANDB      AL,#0xff              ; [CPU_ALU] |556| 
    1833 00000138 9652          MOV       *-SP[18],AL           ; [CPU_ALU] |556| 
    1834                      .dwpsn  file "C:/ti/Workspace/PLC_certificate/Examples/TI/TMDSDOCK28335/OS2/app.c",line 558,column 18
    1835 00000139 2B47          MOV       *-SP[7],#0            ; [CPU_ALU] |558| 
    1836                      .dwpsn  file "C:/ti/Workspace/PLC_certificate/Examples/TI/TMDSDOCK28335/OS2/app.c",line 558,column 25
    1837 0000013a 9247          MOV       AL,*-SP[7]            ; [CPU_ALU] |558| 
    1838 0000013b 5202          CMPB      AL,#2                 ; [CPU_ALU] |558| 
    1839 0000013c 6710          B         $C$L16,HIS            ; [CPU_ALU] |558| 
    1840                      ; branchcc occurs ; [] |558| 
    1841 0000013d       $C$L15:    
    1842                      .dwpsn  file "C:/ti/Workspace/PLC_certificate/Examples/TI/TMDSDOCK28335/OS2/app.c",line 559,column 17
    1843 0000013d 5847          MOVZ      AR0,*-SP[7]           ; [CPU_ALU] |559| 
    1844 0000013e 8F00!         MOVL      XAR4,#_scirxBuf       ; [CPU_ARAU] |559| 
         0000013f 0000 
    1845 00000140 D806          ADDB      XAR0,#6               ; [CPU_ALU] |559| 
    1846 00000141 9294          MOV       AL,*+XAR4[AR0]        ; [CPU_ALU] |559| 
    1847 00000142 5CAD          MOVZ      AR4,SP                ; [CPU_ALU] |559| 
    1848 00000143 5847          MOVZ      AR0,*-SP[7]           ; [CPU_ALU] |559| 
    1849 00000144 DC97          SUBB      XAR4,#23              ; [CPU_ARAU] |559| 
    1850 00000145 5CA4          MOVZ      AR4,AR4               ; [CPU_ALU] |559| 
    1851 00000146 D806          ADDB      XAR0,#6               ; [CPU_ALU] |559| 
    1852 00000147 9694          MOV       *+XAR4[AR0],AL        ; [CPU_ALU] |559| 
    1853                      .dwpsn  file "C:/ti/Workspace/PLC_certificate/Examples/TI/TMDSDOCK28335/OS2/app.c",line 558,column 32
    1854 00000148 0A47          INC       *-SP[7]               ; [CPU_ALU] |558| 
    1855                      .dwpsn  file "C:/ti/Workspace/PLC_certificate/Examples/TI/TMDSDOCK28335/OS2/app.c",line 558,column 25
    1856 00000149 9247          MOV       AL,*-SP[7]            ; [CPU_ALU] |558| 
    1857 0000014a 5202          CMPB      AL,#2                 ; [CPU_ALU] |558| 
    1858 0000014b 68F2          B         $C$L15,LO             ; [CPU_ALU] |558| 
    1859                      ; branchcc occurs ; [] |558| 
    1860 0000014c       $C$L16:    
    1861                      .dwpsn  file "C:/ti/Workspace/PLC_certificate/Examples/TI/TMDSDOCK28335/OS2/app.c",line 562,column 13
    1862 0000014c 8F00-         MOVL      XAR4,#_context        ; [CPU_ARAU] |562| 
         0000014d 0040 
    1863              $C$DW$147       .dwtag  DW_TAG_TI_branch
    1864                      .dwattr $C$DW$147, DW_AT_low_pc(0x00)
    1865                      .dwattr $C$DW$147, DW_AT_name("_SHA1_Init")
    1866                      .dwattr $C$DW$147, DW_AT_TI_call
    1867              
    1868 0000014e 7640!         LCR       #_SHA1_Init           ; [CPU_ALU] |562| 
         0000014f 0000 
    1869                      ; call occurs [#_SHA1_Init] ; [] |562| 
    1870                      .dwpsn  file "C:/ti/Workspace/PLC_certificate/Examples/TI/TMDSDOCK28335/OS2/app.c",line 563,column 13
    1871 00000150 5DAD          MOVZ      AR5,SP                ; [CPU_ALU] |563| 
    1872 00000151 9A10          MOVB      AL,#16                ; [CPU_ALU] |563| 
TMS320C2000 Assembler PC v20.2.1 Wed Feb 17 17:05:46 2021

Copyright (c) 1996-2018 Texas Instruments Incorporated
app.asm                                                              PAGE   37

    1873 00000152 8F00-         MOVL      XAR4,#_context        ; [CPU_ARAU] |563| 
         00000153 0040 
    1874 00000154 DD97          SUBB      XAR5,#23              ; [CPU_ARAU] |563| 
    1875 00000155 5DA5          MOVZ      AR5,AR5               ; [CPU_ALU] |563| 
    1876              $C$DW$148       .dwtag  DW_TAG_TI_branch
    1877                      .dwattr $C$DW$148, DW_AT_low_pc(0x00)
    1878                      .dwattr $C$DW$148, DW_AT_name("_SHA1_Update")
    1879                      .dwattr $C$DW$148, DW_AT_TI_call
    1880              
    1881 00000156 7640!         LCR       #_SHA1_Update         ; [CPU_ALU] |563| 
         00000157 0000 
    1882                      ; call occurs [#_SHA1_Update] ; [] |563| 
    1883                      .dwpsn  file "C:/ti/Workspace/PLC_certificate/Examples/TI/TMDSDOCK28335/OS2/app.c",line 564,column 13
    1884 00000158 8F00-         MOVL      XAR4,#_hash           ; [CPU_ARAU] |564| 
         00000159 0000 
    1885 0000015a 8F40-         MOVL      XAR5,#_context        ; [CPU_ARAU] |564| 
         0000015b 0040 
    1886              $C$DW$149       .dwtag  DW_TAG_TI_branch
    1887                      .dwattr $C$DW$149, DW_AT_low_pc(0x00)
    1888                      .dwattr $C$DW$149, DW_AT_name("_SHA1_Final")
    1889                      .dwattr $C$DW$149, DW_AT_TI_call
    1890              
    1891 0000015c 7640!         LCR       #_SHA1_Final          ; [CPU_ALU] |564| 
         0000015d 0000 
    1892                      ; call occurs [#_SHA1_Final] ; [] |564| 
    1893                      .dwpsn  file "C:/ti/Workspace/PLC_certificate/Examples/TI/TMDSDOCK28335/OS2/app.c",line 566,column 17
    1894 0000015e 2B47          MOV       *-SP[7],#0            ; [CPU_ALU] |566| 
    1895                      .dwpsn  file "C:/ti/Workspace/PLC_certificate/Examples/TI/TMDSDOCK28335/OS2/app.c",line 566,column 24
    1896 0000015f 9247          MOV       AL,*-SP[7]            ; [CPU_ALU] |566| 
    1897 00000160 5210          CMPB      AL,#16                ; [CPU_ALU] |566| 
    1898 00000161 670C          B         $C$L18,HIS            ; [CPU_ALU] |566| 
    1899                      ; branchcc occurs ; [] |566| 
    1900 00000162       $C$L17:    
    1901                      .dwpsn  file "C:/ti/Workspace/PLC_certificate/Examples/TI/TMDSDOCK28335/OS2/app.c",line 567,column 17
    1902 00000162 5847          MOVZ      AR0,*-SP[7]           ; [CPU_ALU] |567| 
    1903 00000163 8F00-         MOVL      XAR4,#_hash           ; [CPU_ARAU] |567| 
         00000164 0000 
    1904 00000165 9294          MOV       AL,*+XAR4[AR0]        ; [CPU_ALU] |567| 
    1905 00000166 8F00-         MOVL      XAR4,#_R_PLC          ; [CPU_ARAU] |567| 
         00000167 0000 
    1906 00000168 9694          MOV       *+XAR4[AR0],AL        ; [CPU_ALU] |567| 
    1907                      .dwpsn  file "C:/ti/Workspace/PLC_certificate/Examples/TI/TMDSDOCK28335/OS2/app.c",line 566,column 40
    1908 00000169 0A47          INC       *-SP[7]               ; [CPU_ALU] |566| 
    1909                      .dwpsn  file "C:/ti/Workspace/PLC_certificate/Examples/TI/TMDSDOCK28335/OS2/app.c",line 566,column 24
    1910 0000016a 9247          MOV       AL,*-SP[7]            ; [CPU_ALU] |566| 
    1911 0000016b 5210          CMPB      AL,#16                ; [CPU_ALU] |566| 
    1912 0000016c 68F6          B         $C$L17,LO             ; [CPU_ALU] |566| 
    1913                      ; branchcc occurs ; [] |566| 
    1914 0000016d       $C$L18:    
    1915                      .dwpsn  file "C:/ti/Workspace/PLC_certificate/Examples/TI/TMDSDOCK28335/OS2/app.c",line 569,column 13
    1916 0000016d 761F-         MOVW      DP,#_certification_flag1_1 ; [CPU_ARAU] 
         0000016e 0000 
    1917 0000016f 56BF-         MOVB      @_certification_flag1_1,#1,UNC ; [CPU_ALU] |569| 
         00000170 0115 
    1918                      .dwpsn  file "C:/ti/Workspace/PLC_certificate/Examples/TI/TMDSDOCK28335/OS2/app.c",line 570,column 13
TMS320C2000 Assembler PC v20.2.1 Wed Feb 17 17:05:46 2021

Copyright (c) 1996-2018 Texas Instruments Incorporated
app.asm                                                              PAGE   38

    1919 00000171 2B18-         MOV       @_seq1_flag,#0        ; [CPU_ALU] |570| 
    1920                      .dwpsn  file "C:/ti/Workspace/PLC_certificate/Examples/TI/TMDSDOCK28335/OS2/app.c",line 571,column 13
    1921 00000172 7625     ESTOP0
    1922 00000173 FFEF          B         $C$L39,UNC            ; [CPU_ALU] 
         00000174 00B7 
    1923                      ; branch occurs ; [] 
    1924 00000175       $C$L19:    
    1925                      .dwpsn  file "C:/ti/Workspace/PLC_certificate/Examples/TI/TMDSDOCK28335/OS2/app.c",line 574,column 14
    1926 00000175 5200          CMPB      AL,#0                 ; [CPU_ALU] |574| 
    1927 00000176 FFE0          B         $C$L39,NEQ            ; [CPU_ALU] |574| 
         00000177 00B4 
    1928                      ; branchcc occurs ; [] |574| 
    1929              
    1930              $C$DW$150       .dwtag  DW_TAG_lexical_block
    1931                      .dwattr $C$DW$150, DW_AT_low_pc(0x00)
    1932                      .dwattr $C$DW$150, DW_AT_high_pc(0x00)
    1933                      .dwpsn  file "C:/ti/Workspace/PLC_certificate/Examples/TI/TMDSDOCK28335/OS2/app.c",line 576,column 18
    1934 00000178 2B47          MOV       *-SP[7],#0            ; [CPU_ALU] |576| 
    1935                      .dwpsn  file "C:/ti/Workspace/PLC_certificate/Examples/TI/TMDSDOCK28335/OS2/app.c",line 576,column 25
    1936 00000179 9247          MOV       AL,*-SP[7]            ; [CPU_ALU] |576| 
    1937 0000017a 5206          CMPB      AL,#6                 ; [CPU_ALU] |576| 
    1938 0000017b 670D          B         $C$L21,HIS            ; [CPU_ALU] |576| 
    1939                      ; branchcc occurs ; [] |576| 
    1940 0000017c       $C$L20:    
    1941                      .dwpsn  file "C:/ti/Workspace/PLC_certificate/Examples/TI/TMDSDOCK28335/OS2/app.c",line 577,column 17
    1942 0000017c 5847          MOVZ      AR0,*-SP[7]           ; [CPU_ALU] |577| 
    1943 0000017d 8F00-         MOVL      XAR4,#_User_MAC_Address ; [CPU_ARAU] |577| 
         0000017e 0000 
    1944 0000017f 9294          MOV       AL,*+XAR4[AR0]        ; [CPU_ALU] |577| 
    1945 00000180 5CAD          MOVZ      AR4,SP                ; [CPU_ALU] |577| 
    1946 00000181 DC97          SUBB      XAR4,#23              ; [CPU_ARAU] |577| 
    1947 00000182 5CA4          MOVZ      AR4,AR4               ; [CPU_ALU] |577| 
    1948 00000183 9694          MOV       *+XAR4[AR0],AL        ; [CPU_ALU] |577| 
    1949                      .dwpsn  file "C:/ti/Workspace/PLC_certificate/Examples/TI/TMDSDOCK28335/OS2/app.c",line 576,column 55
    1950 00000184 0A47          INC       *-SP[7]               ; [CPU_ALU] |576| 
    1951                      .dwpsn  file "C:/ti/Workspace/PLC_certificate/Examples/TI/TMDSDOCK28335/OS2/app.c",line 576,column 25
    1952 00000185 9247          MOV       AL,*-SP[7]            ; [CPU_ALU] |576| 
    1953 00000186 5206          CMPB      AL,#6                 ; [CPU_ALU] |576| 
    1954 00000187 68F5          B         $C$L20,LO             ; [CPU_ALU] |576| 
    1955                      ; branchcc occurs ; [] |576| 
    1956 00000188       $C$L21:    
    1957                      .dwpsn  file "C:/ti/Workspace/PLC_certificate/Examples/TI/TMDSDOCK28335/OS2/app.c",line 578,column 18
    1958 00000188 2B47          MOV       *-SP[7],#0            ; [CPU_ALU] |578| 
    1959                      .dwpsn  file "C:/ti/Workspace/PLC_certificate/Examples/TI/TMDSDOCK28335/OS2/app.c",line 578,column 25
    1960 00000189 9247          MOV       AL,*-SP[7]            ; [CPU_ALU] |578| 
    1961 0000018a 5204          CMPB      AL,#4                 ; [CPU_ALU] |578| 
    1962 0000018b 6711          B         $C$L23,HIS            ; [CPU_ALU] |578| 
    1963                      ; branchcc occurs ; [] |578| 
    1964 0000018c       $C$L22:    
    1965                      .dwpsn  file "C:/ti/Workspace/PLC_certificate/Examples/TI/TMDSDOCK28335/OS2/app.c",line 579,column 17
    1966 0000018c 5CAD          MOVZ      AR4,SP                ; [CPU_ALU] |579| 
    1967 0000018d DC97          SUBB      XAR4,#23              ; [CPU_ARAU] |579| 
    1968 0000018e 80A4          MOVZ      AR7,AR4               ; [CPU_ALU] |579| 
    1969 0000018f 0E47          MOVU      ACC,*-SP[7]           ; [CPU_ALU] |579| 
    1970 00000190 5847          MOVZ      AR0,*-SP[7]           ; [CPU_ALU] |579| 
TMS320C2000 Assembler PC v20.2.1 Wed Feb 17 17:05:46 2021

Copyright (c) 1996-2018 Texas Instruments Incorporated
app.asm                                                              PAGE   39

    1971 00000191 0906          ADDB      ACC,#6                ; [CPU_ALU] |579| 
    1972 00000192 5601          ADDL      XAR7,ACC              ; [CPU_ALU] |579| 
         00000193 00A7 
    1973 00000194 8F00-         MOVL      XAR4,#_User_ID        ; [CPU_ARAU] |579| 
         00000195 0000 
    1974 00000196 9294          MOV       AL,*+XAR4[AR0]        ; [CPU_ALU] |579| 
    1975 00000197 96C7          MOV       *+XAR7[0],AL          ; [CPU_ALU] |579| 
    1976                      .dwpsn  file "C:/ti/Workspace/PLC_certificate/Examples/TI/TMDSDOCK28335/OS2/app.c",line 578,column 50
    1977 00000198 0A47          INC       *-SP[7]               ; [CPU_ALU] |578| 
    1978                      .dwpsn  file "C:/ti/Workspace/PLC_certificate/Examples/TI/TMDSDOCK28335/OS2/app.c",line 578,column 25
    1979 00000199 9247          MOV       AL,*-SP[7]            ; [CPU_ALU] |578| 
    1980 0000019a 5204          CMPB      AL,#4                 ; [CPU_ALU] |578| 
    1981 0000019b 68F1          B         $C$L22,LO             ; [CPU_ALU] |578| 
    1982                      ; branchcc occurs ; [] |578| 
    1983 0000019c       $C$L23:    
    1984                      .dwpsn  file "C:/ti/Workspace/PLC_certificate/Examples/TI/TMDSDOCK28335/OS2/app.c",line 580,column 18
    1985 0000019c 2B47          MOV       *-SP[7],#0            ; [CPU_ALU] |580| 
    1986                      .dwpsn  file "C:/ti/Workspace/PLC_certificate/Examples/TI/TMDSDOCK28335/OS2/app.c",line 580,column 25
    1987 0000019d 9247          MOV       AL,*-SP[7]            ; [CPU_ALU] |580| 
    1988 0000019e 5204          CMPB      AL,#4                 ; [CPU_ALU] |580| 
    1989 0000019f 6711          B         $C$L25,HIS            ; [CPU_ALU] |580| 
    1990                      ; branchcc occurs ; [] |580| 
    1991 000001a0       $C$L24:    
    1992                      .dwpsn  file "C:/ti/Workspace/PLC_certificate/Examples/TI/TMDSDOCK28335/OS2/app.c",line 581,column 17
    1993 000001a0 5CAD          MOVZ      AR4,SP                ; [CPU_ALU] |581| 
    1994 000001a1 DC97          SUBB      XAR4,#23              ; [CPU_ARAU] |581| 
    1995 000001a2 80A4          MOVZ      AR7,AR4               ; [CPU_ALU] |581| 
    1996 000001a3 0E47          MOVU      ACC,*-SP[7]           ; [CPU_ALU] |581| 
    1997 000001a4 5847          MOVZ      AR0,*-SP[7]           ; [CPU_ALU] |581| 
    1998 000001a5 090A          ADDB      ACC,#10               ; [CPU_ALU] |581| 
    1999 000001a6 5601          ADDL      XAR7,ACC              ; [CPU_ALU] |581| 
         000001a7 00A7 
    2000 000001a8 8F00-         MOVL      XAR4,#_User_password  ; [CPU_ARAU] |581| 
         000001a9 0000 
    2001 000001aa 9294          MOV       AL,*+XAR4[AR0]        ; [CPU_ALU] |581| 
    2002 000001ab 96C7          MOV       *+XAR7[0],AL          ; [CPU_ALU] |581| 
    2003                      .dwpsn  file "C:/ti/Workspace/PLC_certificate/Examples/TI/TMDSDOCK28335/OS2/app.c",line 580,column 56
    2004 000001ac 0A47          INC       *-SP[7]               ; [CPU_ALU] |580| 
    2005                      .dwpsn  file "C:/ti/Workspace/PLC_certificate/Examples/TI/TMDSDOCK28335/OS2/app.c",line 580,column 25
    2006 000001ad 9247          MOV       AL,*-SP[7]            ; [CPU_ALU] |580| 
    2007 000001ae 5204          CMPB      AL,#4                 ; [CPU_ALU] |580| 
    2008 000001af 68F1          B         $C$L24,LO             ; [CPU_ALU] |580| 
    2009                      ; branchcc occurs ; [] |580| 
    2010 000001b0       $C$L25:    
    2011                      .dwpsn  file "C:/ti/Workspace/PLC_certificate/Examples/TI/TMDSDOCK28335/OS2/app.c",line 583,column 18
    2012 000001b0 2B47          MOV       *-SP[7],#0            ; [CPU_ALU] |583| 
    2013                      .dwpsn  file "C:/ti/Workspace/PLC_certificate/Examples/TI/TMDSDOCK28335/OS2/app.c",line 583,column 25
    2014 000001b1 9247          MOV       AL,*-SP[7]            ; [CPU_ALU] |583| 
    2015 000001b2 5202          CMPB      AL,#2                 ; [CPU_ALU] |583| 
    2016 000001b3 6711          B         $C$L27,HIS            ; [CPU_ALU] |583| 
    2017                      ; branchcc occurs ; [] |583| 
    2018 000001b4       $C$L26:    
    2019                      .dwpsn  file "C:/ti/Workspace/PLC_certificate/Examples/TI/TMDSDOCK28335/OS2/app.c",line 584,column 17
    2020 000001b4 5CAD          MOVZ      AR4,SP                ; [CPU_ALU] |584| 
    2021 000001b5 DC97          SUBB      XAR4,#23              ; [CPU_ARAU] |584| 
TMS320C2000 Assembler PC v20.2.1 Wed Feb 17 17:05:46 2021

Copyright (c) 1996-2018 Texas Instruments Incorporated
app.asm                                                              PAGE   40

    2022 000001b6 80A4          MOVZ      AR7,AR4               ; [CPU_ALU] |584| 
    2023 000001b7 0E47          MOVU      ACC,*-SP[7]           ; [CPU_ALU] |584| 
    2024 000001b8 5847          MOVZ      AR0,*-SP[7]           ; [CPU_ALU] |584| 
    2025 000001b9 090E          ADDB      ACC,#14               ; [CPU_ALU] |584| 
    2026 000001ba 5601          ADDL      XAR7,ACC              ; [CPU_ALU] |584| 
         000001bb 00A7 
    2027 000001bc 8F00-         MOVL      XAR4,#_R_PLC_NoneCrypt ; [CPU_ARAU] |584| 
         000001bd 0000 
    2028 000001be 9294          MOV       AL,*+XAR4[AR0]        ; [CPU_ALU] |584| 
    2029 000001bf 96C7          MOV       *+XAR7[0],AL          ; [CPU_ALU] |584| 
    2030                      .dwpsn  file "C:/ti/Workspace/PLC_certificate/Examples/TI/TMDSDOCK28335/OS2/app.c",line 583,column 32
    2031 000001c0 0A47          INC       *-SP[7]               ; [CPU_ALU] |583| 
    2032                      .dwpsn  file "C:/ti/Workspace/PLC_certificate/Examples/TI/TMDSDOCK28335/OS2/app.c",line 583,column 25
    2033 000001c1 9247          MOV       AL,*-SP[7]            ; [CPU_ALU] |583| 
    2034 000001c2 5202          CMPB      AL,#2                 ; [CPU_ALU] |583| 
    2035 000001c3 68F1          B         $C$L26,LO             ; [CPU_ALU] |583| 
    2036                      ; branchcc occurs ; [] |583| 
    2037 000001c4       $C$L27:    
    2038                      .dwpsn  file "C:/ti/Workspace/PLC_certificate/Examples/TI/TMDSDOCK28335/OS2/app.c",line 587,column 18
    2039 000001c4 2B47          MOV       *-SP[7],#0            ; [CPU_ALU] |587| 
    2040                      .dwpsn  file "C:/ti/Workspace/PLC_certificate/Examples/TI/TMDSDOCK28335/OS2/app.c",line 587,column 25
    2041 000001c5 9247          MOV       AL,*-SP[7]            ; [CPU_ALU] |587| 
    2042 000001c6 5210          CMPB      AL,#16                ; [CPU_ALU] |587| 
    2043 000001c7 6712          B         $C$L30,HIS            ; [CPU_ALU] |587| 
    2044                      ; branchcc occurs ; [] |587| 
    2045 000001c8       $C$L28:    
    2046                      .dwpsn  file "C:/ti/Workspace/PLC_certificate/Examples/TI/TMDSDOCK28335/OS2/app.c",line 588,column 17
    2047 000001c8 5CAD          MOVZ      AR4,SP                ; [CPU_ALU] |588| 
    2048 000001c9 5847          MOVZ      AR0,*-SP[7]           ; [CPU_ALU] |588| 
    2049 000001ca DC97          SUBB      XAR4,#23              ; [CPU_ARAU] |588| 
    2050 000001cb 5CA4          MOVZ      AR4,AR4               ; [CPU_ALU] |588| 
    2051 000001cc 0E94          MOVU      ACC,*+XAR4[AR0]       ; [CPU_ALU] |588| 
    2052 000001cd 8F00!         MOVL      XAR4,#_scirxBuf       ; [CPU_ARAU] |588| 
         000001ce 0000 
    2053 000001cf 8894          MOVZ      AR6,*+XAR4[AR0]       ; [CPU_ALU] |588| 
    2054 000001d0 0FA6          CMPL      ACC,XAR6              ; [CPU_ALU] |588| 
    2055 000001d1 6004          B         $C$L29,NEQ            ; [CPU_ALU] |588| 
    2056                      ; branchcc occurs ; [] |588| 
    2057                      .dwpsn  file "C:/ti/Workspace/PLC_certificate/Examples/TI/TMDSDOCK28335/OS2/app.c",line 589,column 21
    2058 000001d2 761F-         MOVW      DP,#_aes_flag         ; [CPU_ARAU] 
         000001d3 0000 
    2059 000001d4 0A17-         INC       @_aes_flag            ; [CPU_ALU] |589| 
    2060 000001d5       $C$L29:    
    2061                      .dwpsn  file "C:/ti/Workspace/PLC_certificate/Examples/TI/TMDSDOCK28335/OS2/app.c",line 587,column 55
    2062 000001d5 0A47          INC       *-SP[7]               ; [CPU_ALU] |587| 
    2063                      .dwpsn  file "C:/ti/Workspace/PLC_certificate/Examples/TI/TMDSDOCK28335/OS2/app.c",line 587,column 25
    2064 000001d6 9247          MOV       AL,*-SP[7]            ; [CPU_ALU] |587| 
    2065 000001d7 5210          CMPB      AL,#16                ; [CPU_ALU] |587| 
    2066 000001d8 68F0          B         $C$L28,LO             ; [CPU_ALU] |587| 
    2067                      ; branchcc occurs ; [] |587| 
    2068 000001d9       $C$L30:    
    2069                      .dwpsn  file "C:/ti/Workspace/PLC_certificate/Examples/TI/TMDSDOCK28335/OS2/app.c",line 590,column 13
    2070 000001d9 7625     ESTOP0
    2071                      .dwpsn  file "C:/ti/Workspace/PLC_certificate/Examples/TI/TMDSDOCK28335/OS2/app.c",line 592,column 13
    2072 000001da 761F-         MOVW      DP,#_psh_flag         ; [CPU_ARAU] 
TMS320C2000 Assembler PC v20.2.1 Wed Feb 17 17:05:46 2021

Copyright (c) 1996-2018 Texas Instruments Incorporated
app.asm                                                              PAGE   41

         000001db 0000 
    2073 000001dc 9219-         MOV       AL,@_psh_flag         ; [CPU_ALU] |592| 
    2074 000001dd 5201          CMPB      AL,#1                 ; [CPU_ALU] |592| 
    2075 000001de 604A          B         $C$L38,NEQ            ; [CPU_ALU] |592| 
    2076                      ; branchcc occurs ; [] |592| 
    2077              
    2078              $C$DW$151       .dwtag  DW_TAG_lexical_block
    2079                      .dwattr $C$DW$151, DW_AT_low_pc(0x00)
    2080                      .dwattr $C$DW$151, DW_AT_high_pc(0x00)
    2081              $C$DW$152       .dwtag  DW_TAG_variable
    2082                      .dwattr $C$DW$152, DW_AT_name("base")
    2083                      .dwattr $C$DW$152, DW_AT_TI_symbol_name("_base")
    2084                      .dwattr $C$DW$152, DW_AT_type(*$C$DW$T$29)
    2085                      .dwattr $C$DW$152, DW_AT_location[DW_OP_breg20 -42]
    2086              
    2087                      .dwpsn  file "C:/ti/Workspace/PLC_certificate/Examples/TI/TMDSDOCK28335/OS2/app.c",line 594,column 29
    2088 000001df 5CAD          MOVZ      AR4,SP                ; [CPU_ALU] |594| 
    2089 000001e0 DC97          SUBB      XAR4,#23              ; [CPU_ARAU] |594| 
    2090 000001e1 0EA4          MOVU      ACC,AR4               ; [CPU_ALU] |594| 
    2091 000001e2 1E6A          MOVL      *-SP[42],ACC          ; [CPU_ALU] |594| 
    2092                      .dwpsn  file "C:/ti/Workspace/PLC_certificate/Examples/TI/TMDSDOCK28335/OS2/app.c",line 599,column 17
    2093 000001e3 FF69          SPM       #0                    ; [CPU_ALU] 
    2094 000001e4 8F00-         MOVL      XAR4,#_context        ; [CPU_ARAU] |599| 
         000001e5 0040 
    2095              $C$DW$153       .dwtag  DW_TAG_TI_branch
    2096                      .dwattr $C$DW$153, DW_AT_low_pc(0x00)
    2097                      .dwattr $C$DW$153, DW_AT_name("_SHA1_Init")
    2098                      .dwattr $C$DW$153, DW_AT_TI_call
    2099              
    2100 000001e6 7640!         LCR       #_SHA1_Init           ; [CPU_ALU] |599| 
         000001e7 0000 
    2101                      ; call occurs [#_SHA1_Init] ; [] |599| 
    2102                      .dwpsn  file "C:/ti/Workspace/PLC_certificate/Examples/TI/TMDSDOCK28335/OS2/app.c",line 600,column 17
    2103 000001e8 9A10          MOVB      AL,#16                ; [CPU_ALU] |600| 
    2104 000001e9 8F00-         MOVL      XAR4,#_context        ; [CPU_ARAU] |600| 
         000001ea 0040 
    2105 000001eb 836A          MOVL      XAR5,*-SP[42]         ; [CPU_ALU] |600| 
    2106              $C$DW$154       .dwtag  DW_TAG_TI_branch
    2107                      .dwattr $C$DW$154, DW_AT_low_pc(0x00)
    2108                      .dwattr $C$DW$154, DW_AT_name("_SHA1_Update")
    2109                      .dwattr $C$DW$154, DW_AT_TI_call
    2110              
    2111 000001ec 7640!         LCR       #_SHA1_Update         ; [CPU_ALU] |600| 
         000001ed 0000 
    2112                      ; call occurs [#_SHA1_Update] ; [] |600| 
    2113                      .dwpsn  file "C:/ti/Workspace/PLC_certificate/Examples/TI/TMDSDOCK28335/OS2/app.c",line 601,column 17
    2114 000001ee 8F00-         MOVL      XAR4,#_hash           ; [CPU_ARAU] |601| 
         000001ef 0000 
    2115 000001f0 8F40-         MOVL      XAR5,#_context        ; [CPU_ARAU] |601| 
         000001f1 0040 
    2116              $C$DW$155       .dwtag  DW_TAG_TI_branch
    2117                      .dwattr $C$DW$155, DW_AT_low_pc(0x00)
    2118                      .dwattr $C$DW$155, DW_AT_name("_SHA1_Final")
    2119                      .dwattr $C$DW$155, DW_AT_TI_call
    2120              
TMS320C2000 Assembler PC v20.2.1 Wed Feb 17 17:05:46 2021

Copyright (c) 1996-2018 Texas Instruments Incorporated
app.asm                                                              PAGE   42

    2121 000001f2 7640!         LCR       #_SHA1_Final          ; [CPU_ALU] |601| 
         000001f3 0000 
    2122                      ; call occurs [#_SHA1_Final] ; [] |601| 
    2123                      .dwpsn  file "C:/ti/Workspace/PLC_certificate/Examples/TI/TMDSDOCK28335/OS2/app.c",line 603,column 22
    2124 000001f4 2B47          MOV       *-SP[7],#0            ; [CPU_ALU] |603| 
    2125                      .dwpsn  file "C:/ti/Workspace/PLC_certificate/Examples/TI/TMDSDOCK28335/OS2/app.c",line 603,column 29
    2126 000001f5 9247          MOV       AL,*-SP[7]            ; [CPU_ALU] |603| 
    2127 000001f6 5214          CMPB      AL,#20                ; [CPU_ALU] |603| 
    2128 000001f7 670F          B         $C$L33,HIS            ; [CPU_ALU] |603| 
    2129                      ; branchcc occurs ; [] |603| 
    2130 000001f8       $C$L31:    
    2131                      .dwpsn  file "C:/ti/Workspace/PLC_certificate/Examples/TI/TMDSDOCK28335/OS2/app.c",line 604,column 21
    2132 000001f8 5847          MOVZ      AR0,*-SP[7]           ; [CPU_ALU] |604| 
    2133 000001f9 8F00!         MOVL      XAR4,#_scirxBuf       ; [CPU_ARAU] |604| 
         000001fa 0000 
    2134 000001fb 0E94          MOVU      ACC,*+XAR4[AR0]       ; [CPU_ALU] |604| 
    2135 000001fc 8F00-         MOVL      XAR4,#_hash           ; [CPU_ARAU] |604| 
         000001fd 0000 
    2136 000001fe 8894          MOVZ      AR6,*+XAR4[AR0]       ; [CPU_ALU] |604| 
    2137 000001ff 0FA6          CMPL      ACC,XAR6              ; [CPU_ALU] |604| 
    2138 00000200 6002          B         $C$L32,NEQ            ; [CPU_ALU] |604| 
    2139                      ; branchcc occurs ; [] |604| 
    2140                      .dwpsn  file "C:/ti/Workspace/PLC_certificate/Examples/TI/TMDSDOCK28335/OS2/app.c",line 605,column 25
    2141 00000201 0A68          INC       *-SP[40]              ; [CPU_ALU] |605| 
    2142 00000202       $C$L32:    
    2143                      .dwpsn  file "C:/ti/Workspace/PLC_certificate/Examples/TI/TMDSDOCK28335/OS2/app.c",line 603,column 47
    2144 00000202 0A47          INC       *-SP[7]               ; [CPU_ALU] |603| 
    2145                      .dwpsn  file "C:/ti/Workspace/PLC_certificate/Examples/TI/TMDSDOCK28335/OS2/app.c",line 603,column 29
    2146 00000203 9247          MOV       AL,*-SP[7]            ; [CPU_ALU] |603| 
    2147 00000204 5214          CMPB      AL,#20                ; [CPU_ALU] |603| 
    2148 00000205 68F3          B         $C$L31,LO             ; [CPU_ALU] |603| 
    2149                      ; branchcc occurs ; [] |603| 
    2150 00000206       $C$L33:    
    2151                      .dwpsn  file "C:/ti/Workspace/PLC_certificate/Examples/TI/TMDSDOCK28335/OS2/app.c",line 607,column 22
    2152 00000206 2B47          MOV       *-SP[7],#0            ; [CPU_ALU] |607| 
    2153                      .dwpsn  file "C:/ti/Workspace/PLC_certificate/Examples/TI/TMDSDOCK28335/OS2/app.c",line 607,column 29
    2154 00000207 9247          MOV       AL,*-SP[7]            ; [CPU_ALU] |607| 
    2155 00000208 5210          CMPB      AL,#16                ; [CPU_ALU] |607| 
    2156 00000209 6709          B         $C$L35,HIS            ; [CPU_ALU] |607| 
    2157                      ; branchcc occurs ; [] |607| 
    2158 0000020a 8F00-         MOVL      XAR4,#_Reply_flag     ; [CPU_ARAU] |608| 
         0000020b 0000 
    2159 0000020c       $C$L34:    
    2160                      .dwpsn  file "C:/ti/Workspace/PLC_certificate/Examples/TI/TMDSDOCK28335/OS2/app.c",line 608,column 21
    2161 0000020c 5847          MOVZ      AR0,*-SP[7]           ; [CPU_ALU] |608| 
    2162 0000020d 2B94          MOV       *+XAR4[AR0],#0        ; [CPU_ALU] |608| 
    2163                      .dwpsn  file "C:/ti/Workspace/PLC_certificate/Examples/TI/TMDSDOCK28335/OS2/app.c",line 607,column 53
    2164 0000020e 0A47          INC       *-SP[7]               ; [CPU_ALU] |607| 
    2165                      .dwpsn  file "C:/ti/Workspace/PLC_certificate/Examples/TI/TMDSDOCK28335/OS2/app.c",line 607,column 29
    2166 0000020f 9247          MOV       AL,*-SP[7]            ; [CPU_ALU] |607| 
    2167 00000210 5210          CMPB      AL,#16                ; [CPU_ALU] |607| 
    2168 00000211 68FB          B         $C$L34,LO             ; [CPU_ALU] |607| 
    2169                      ; branchcc occurs ; [] |607| 
    2170 00000212       $C$L35:    
    2171                      .dwpsn  file "C:/ti/Workspace/PLC_certificate/Examples/TI/TMDSDOCK28335/OS2/app.c",line 609,column 17
TMS320C2000 Assembler PC v20.2.1 Wed Feb 17 17:05:46 2021

Copyright (c) 1996-2018 Texas Instruments Incorporated
app.asm                                                              PAGE   43

    2172 00000212 761F-         MOVW      DP,#_aes_flag         ; [CPU_ARAU] 
         00000213 0000 
    2173 00000214 9217-         MOV       AL,@_aes_flag         ; [CPU_ALU] |609| 
    2174 00000215 5210          CMPB      AL,#16                ; [CPU_ALU] |609| 
    2175 00000216 6009          B         $C$L36,NEQ            ; [CPU_ALU] |609| 
    2176                      ; branchcc occurs ; [] |609| 
    2177 00000217 9268          MOV       AL,*-SP[40]           ; [CPU_ALU] |609| 
    2178 00000218 5210          CMPB      AL,#16                ; [CPU_ALU] |609| 
    2179 00000219 6006          B         $C$L36,NEQ            ; [CPU_ALU] |609| 
    2180                      ; branchcc occurs ; [] |609| 
    2181                      .dwpsn  file "C:/ti/Workspace/PLC_certificate/Examples/TI/TMDSDOCK28335/OS2/app.c",line 610,column 21
    2182 0000021a 761F-         MOVW      DP,#_Reply_flag       ; [CPU_ARAU] 
         0000021b 0000 
    2183 0000021c 56BF!         MOVB      @$BLOCKED(_Reply_flag),#1,UNC ; [CPU_ALU] |610| 
         0000021d 0100 
    2184 0000021e 6F04          B         $C$L37,UNC            ; [CPU_ALU] 
    2185                      ; branch occurs ; [] 
    2186 0000021f       $C$L36:    
    2187                      .dwpsn  file "C:/ti/Workspace/PLC_certificate/Examples/TI/TMDSDOCK28335/OS2/app.c",line 612,column 21
    2188 0000021f 761F-         MOVW      DP,#_Reply_flag       ; [CPU_ARAU] 
         00000220 0000 
    2189 00000221 2B00!         MOV       @$BLOCKED(_Reply_flag),#0 ; [CPU_ALU] |612| 
    2190 00000222       $C$L37:    
    2191                      .dwpsn  file "C:/ti/Workspace/PLC_certificate/Examples/TI/TMDSDOCK28335/OS2/app.c",line 614,column 17
    2192 00000222 761F-         MOVW      DP,#_certification_flag2 ; [CPU_ARAU] 
         00000223 0000 
    2193 00000224 56BF-         MOVB      @_certification_flag2,#1,UNC ; [CPU_ALU] |614| 
         00000225 0116 
    2194                      .dwpsn  file "C:/ti/Workspace/PLC_certificate/Examples/TI/TMDSDOCK28335/OS2/app.c",line 615,column 17
    2195 00000226 2B17-         MOV       @_aes_flag,#0         ; [CPU_ALU] |615| 
    2196                      .dwpsn  file "C:/ti/Workspace/PLC_certificate/Examples/TI/TMDSDOCK28335/OS2/app.c",line 616,column 17
    2197 00000227 7625     ESTOP0
    2198                      .dwendtag $C$DW$151
    2199              
    2200 00000228       $C$L38:    
    2201                      .dwpsn  file "C:/ti/Workspace/PLC_certificate/Examples/TI/TMDSDOCK28335/OS2/app.c",line 620,column 13
    2202 00000228 56BF-         MOVB      @_psh_flag,#1,UNC     ; [CPU_ALU] |620| 
         00000229 0119 
    2203                      .dwendtag $C$DW$150
    2204              
    2205 0000022a       $C$L39:    
    2206                      .dwpsn  file "C:/ti/Workspace/PLC_certificate/Examples/TI/TMDSDOCK28335/OS2/app.c",line 622,column 16
    2207 0000022a       $C$L40:    
    2208                      .dwpsn  file "C:/ti/Workspace/PLC_certificate/Examples/TI/TMDSDOCK28335/OS2/app.c",line 624,column 13
    2209 0000022a 761F!         MOVW      DP,#_OSTime           ; [CPU_ARAU] 
         0000022b 0000 
    2210 0000022c 0600!         MOVL      ACC,@_OSTime          ; [CPU_ALU] |624| 
    2211 0000022d 0344          SUBL      ACC,*-SP[4]           ; [CPU_ALU] |624| 
    2212 0000022e 1E46          MOVL      *-SP[6],ACC           ; [CPU_ALU] |624| 
    2213                      .dwpsn  file "C:/ti/Workspace/PLC_certificate/Examples/TI/TMDSDOCK28335/OS2/app.c",line 625,column 13
    2214 0000022f 761F-         MOVW      DP,#_User_certification_ExTime ; [CPU_ARAU] 
         00000230 0000 
    2215 00000231 0E0A-         MOVU      ACC,@_User_certification_ExTime ; [CPU_ALU] |625| 
    2216 00000232 0F46          CMPL      ACC,*-SP[6]           ; [CPU_ALU] |625| 
    2217 00000233 690A          B         $C$L42,LOS            ; [CPU_ALU] |625| 
TMS320C2000 Assembler PC v20.2.1 Wed Feb 17 17:05:46 2021

Copyright (c) 1996-2018 Texas Instruments Incorporated
app.asm                                                              PAGE   44

    2218                      ; branchcc occurs ; [] |625| 
    2219                      .dwpsn  file "C:/ti/Workspace/PLC_certificate/Examples/TI/TMDSDOCK28335/OS2/app.c",line 626,column 17
    2220                      .dwpsn  file "C:/ti/Workspace/PLC_certificate/Examples/TI/TMDSDOCK28335/OS2/app.c",line 628,column 22
    2221 00000234 2B47          MOV       *-SP[7],#0            ; [CPU_ALU] |628| 
    2222                      .dwpsn  file "C:/ti/Workspace/PLC_certificate/Examples/TI/TMDSDOCK28335/OS2/app.c",line 628,column 29
    2223 00000235 9247          MOV       AL,*-SP[7]            ; [CPU_ALU] |628| 
    2224 00000236 5201          CMPB      AL,#1                 ; [CPU_ALU] |628| 
    2225 00000237 66F3          B         $C$L40,HI             ; [CPU_ALU] |628| 
    2226                      ; branchcc occurs ; [] |628| 
    2227 00000238       $C$L41:    
    2228                      .dwpsn  file "C:/ti/Workspace/PLC_certificate/Examples/TI/TMDSDOCK28335/OS2/app.c",line 628,column 37
    2229 00000238 0A47          INC       *-SP[7]               ; [CPU_ALU] |628| 
    2230                      .dwpsn  file "C:/ti/Workspace/PLC_certificate/Examples/TI/TMDSDOCK28335/OS2/app.c",line 628,column 29
    2231 00000239 9247          MOV       AL,*-SP[7]            ; [CPU_ALU] |628| 
    2232 0000023a 5201          CMPB      AL,#1                 ; [CPU_ALU] |628| 
    2233 0000023b 69FD          B         $C$L41,LOS            ; [CPU_ALU] |628| 
    2234                      ; branchcc occurs ; [] |628| 
    2235                      .dwpsn  file "C:/ti/Workspace/PLC_certificate/Examples/TI/TMDSDOCK28335/OS2/app.c",line 622,column 16
    2236 0000023c 6FEE          B         $C$L40,UNC            ; [CPU_ALU] |622| 
    2237                      ; branch occurs ; [] |622| 
    2238 0000023d       $C$L42:    
    2239                      .dwpsn  file "C:/ti/Workspace/PLC_certificate/Examples/TI/TMDSDOCK28335/OS2/app.c",line 633,column 9,
    2240 0000023d 2B13-         MOV       @_UserCert_flag,#0    ; [CPU_ALU] |633| 
    2241                      .dwpsn  file "C:/ti/Workspace/PLC_certificate/Examples/TI/TMDSDOCK28335/OS2/app.c",line 634,column 9,
    2242 0000023e 9A13          MOVB      AL,#19                ; [CPU_ALU] |634| 
    2243 0000023f FF69          SPM       #0                    ; [CPU_ALU] 
    2244              $C$DW$156       .dwtag  DW_TAG_TI_branch
    2245                      .dwattr $C$DW$156, DW_AT_low_pc(0x00)
    2246                      .dwattr $C$DW$156, DW_AT_name("_OSTaskDel")
    2247                      .dwattr $C$DW$156, DW_AT_TI_call
    2248              
    2249 00000240 7640!         LCR       #_OSTaskDel           ; [CPU_ALU] |634| 
         00000241 0000 
    2250                      ; call occurs [#_OSTaskDel] ; [] |634| 
    2251                      .dwpsn  file "C:/ti/Workspace/PLC_certificate/Examples/TI/TMDSDOCK28335/OS2/app.c",line 635,column 9,
    2252 00000242 9A0A          MOVB      AL,#10                ; [CPU_ALU] |635| 
    2253 00000243 761F-         MOVW      DP,#_User_certification_ExTime ; [CPU_ARAU] 
         00000244 0000 
    2254 00000245 D400          MOVB      XAR4,#0               ; [CPU_ALU] |635| 
    2255 00000246 9E0A-         SUB       AL,@_User_certification_ExTime ; [CPU_ALU] |635| 
    2256 00000247 5DA9          MOVZ      AR5,AL                ; [CPU_ALU] |635| 
    2257 00000248 FF20          MOV       ACC,#0                ; [CPU_ALU] |635| 
         00000249 0000 
    2258              $C$DW$157       .dwtag  DW_TAG_TI_branch
    2259                      .dwattr $C$DW$157, DW_AT_low_pc(0x00)
    2260                      .dwattr $C$DW$157, DW_AT_name("_OSTimeDlyHMSM")
    2261                      .dwattr $C$DW$157, DW_AT_TI_call
    2262              
    2263 0000024a 7640!         LCR       #_OSTimeDlyHMSM       ; [CPU_ALU] |635| 
         0000024b 0000 
    2264                      ; call occurs [#_OSTimeDlyHMSM] ; [] |635| 
    2265                      .dwendtag $C$DW$143
    2266              
    2267                      .dwpsn  file "C:/ti/Workspace/PLC_certificate/Examples/TI/TMDSDOCK28335/OS2/app.c",line 538,column 12
    2268 0000024c FFEF          B         $C$L12,UNC            ; [CPU_ALU] |538| 
TMS320C2000 Assembler PC v20.2.1 Wed Feb 17 17:05:46 2021

Copyright (c) 1996-2018 Texas Instruments Incorporated
app.asm                                                              PAGE   45

         0000024d FEB3 
    2269                      ; branch occurs ; [] |538| 
    2270                      .dwattr $C$DW$137, DW_AT_TI_end_file("C:/ti/Workspace/PLC_certificate/Examples/TI/TMDSDOCK28335/OS2/a
    2271                      .dwattr $C$DW$137, DW_AT_TI_end_line(0x27d)
    2272                      .dwattr $C$DW$137, DW_AT_TI_end_column(0x01)
    2273                      .dwendentry
    2274                      .dwendtag $C$DW$137
    2275              
    2276 0000024e               .sect   ".text"
    2277                      .clink
    2278              
    2279              $C$DW$158       .dwtag  DW_TAG_subprogram
    2280                      .dwattr $C$DW$158, DW_AT_name("UART_Reception")
    2281                      .dwattr $C$DW$158, DW_AT_low_pc(_UART_Reception)
    2282                      .dwattr $C$DW$158, DW_AT_high_pc(0x00)
    2283                      .dwattr $C$DW$158, DW_AT_TI_symbol_name("_UART_Reception")
    2284                      .dwattr $C$DW$158, DW_AT_TI_begin_file("C:/ti/Workspace/PLC_certificate/Examples/TI/TMDSDOCK28335/OS2
    2285                      .dwattr $C$DW$158, DW_AT_TI_begin_line(0x27f)
    2286                      .dwattr $C$DW$158, DW_AT_TI_begin_column(0x0d)
    2287                      .dwattr $C$DW$158, DW_AT_TI_max_frame_size(-26)
    2288                      .dwpsn  file "C:/ti/Workspace/PLC_certificate/Examples/TI/TMDSDOCK28335/OS2/app.c",line 640,column 1,
    2289              
    2290                      .dwfde $C$DW$CIE, _UART_Reception
    2291              $C$DW$159       .dwtag  DW_TAG_formal_parameter
    2292                      .dwattr $C$DW$159, DW_AT_name("p_arg")
    2293                      .dwattr $C$DW$159, DW_AT_TI_symbol_name("_p_arg")
    2294                      .dwattr $C$DW$159, DW_AT_type(*$C$DW$T$3)
    2295                      .dwattr $C$DW$159, DW_AT_location[DW_OP_reg12]
    2296              
    2297              
    2298              ;***************************************************************
    2299              ;* FNAME: _UART_Reception               FR SIZE:  24           *
    2300              ;*                                                             *
    2301              ;* FUNCTION ENVIRONMENT                                        *
    2302              ;*                                                             *
    2303              ;* FUNCTION PROPERTIES                                         *
    2304              ;*                            0 Parameter, 24 Auto,  0 SOE     *
    2305              ;***************************************************************
    2306              
    2307 0000024e       _UART_Reception:
    2308                      .dwcfi  cfa_offset, -2
    2309                      .dwcfi  save_reg_to_mem, 26, 0
    2310 0000024e FE18          ADDB      SP,#24                ; [CPU_ARAU] 
    2311                      .dwcfi  cfa_offset, -26
    2312              $C$DW$160       .dwtag  DW_TAG_variable
    2313                      .dwattr $C$DW$160, DW_AT_name("p_arg")
    2314                      .dwattr $C$DW$160, DW_AT_TI_symbol_name("_p_arg")
    2315                      .dwattr $C$DW$160, DW_AT_type(*$C$DW$T$3)
    2316                      .dwattr $C$DW$160, DW_AT_location[DW_OP_breg20 -2]
    2317              
    2318              $C$DW$161       .dwtag  DW_TAG_variable
    2319                      .dwattr $C$DW$161, DW_AT_name("Start_Time")
    2320                      .dwattr $C$DW$161, DW_AT_TI_symbol_name("_Start_Time")
    2321                      .dwattr $C$DW$161, DW_AT_type(*$C$DW$T$65)
    2322                      .dwattr $C$DW$161, DW_AT_location[DW_OP_breg20 -4]
TMS320C2000 Assembler PC v20.2.1 Wed Feb 17 17:05:46 2021

Copyright (c) 1996-2018 Texas Instruments Incorporated
app.asm                                                              PAGE   46

    2323              
    2324              $C$DW$162       .dwtag  DW_TAG_variable
    2325                      .dwattr $C$DW$162, DW_AT_name("Execute_Time")
    2326                      .dwattr $C$DW$162, DW_AT_TI_symbol_name("_Execute_Time")
    2327                      .dwattr $C$DW$162, DW_AT_type(*$C$DW$T$65)
    2328                      .dwattr $C$DW$162, DW_AT_location[DW_OP_breg20 -6]
    2329              
    2330              $C$DW$163       .dwtag  DW_TAG_variable
    2331                      .dwattr $C$DW$163, DW_AT_name("i")
    2332                      .dwattr $C$DW$163, DW_AT_TI_symbol_name("_i")
    2333                      .dwattr $C$DW$163, DW_AT_type(*$C$DW$T$25)
    2334                      .dwattr $C$DW$163, DW_AT_location[DW_OP_breg20 -7]
    2335              
    2336 0000024f A842          MOVL      *-SP[2],XAR4          ; [CPU_ALU] |640| 
    2337                      .dwpsn  file "C:/ti/Workspace/PLC_certificate/Examples/TI/TMDSDOCK28335/OS2/app.c",line 641,column 5,
    2338                      .dwpsn  file "C:/ti/Workspace/PLC_certificate/Examples/TI/TMDSDOCK28335/OS2/app.c",line 647,column 12
    2339              $C$L43:    
    2340              
    2341              $C$DW$164       .dwtag  DW_TAG_lexical_block
    2342                      .dwattr $C$DW$164, DW_AT_low_pc(0x00)
    2343                      .dwattr $C$DW$164, DW_AT_high_pc(0x00)
    2344              $C$DW$165       .dwtag  DW_TAG_variable
    2345                      .dwattr $C$DW$165, DW_AT_name("key")
    2346                      .dwattr $C$DW$165, DW_AT_TI_symbol_name("_key")
    2347                      .dwattr $C$DW$165, DW_AT_type(*$C$DW$T$73)
    2348                      .dwattr $C$DW$165, DW_AT_location[DW_OP_breg20 -23]
    2349              
    2350              $C$DW$166       .dwtag  DW_TAG_variable
    2351                      .dwattr $C$DW$166, DW_AT_name("FFRX")
    2352                      .dwattr $C$DW$166, DW_AT_TI_symbol_name("_FFRX")
    2353                      .dwattr $C$DW$166, DW_AT_type(*$C$DW$T$26)
    2354                      .dwattr $C$DW$166, DW_AT_location[DW_OP_breg20 -24]
    2355              
    2356                      .dwpsn  file "C:/ti/Workspace/PLC_certificate/Examples/TI/TMDSDOCK28335/OS2/app.c",line 650,column 9,
    2357 00000250 761F!         MOVW      DP,#_OSTime           ; [CPU_ARAU] 
         00000251 0000 
    2358 00000252 0600!         MOVL      ACC,@_OSTime          ; [CPU_ALU] |650| 
    2359 00000253 1E44          MOVL      *-SP[4],ACC           ; [CPU_ALU] |650| 
    2360                      .dwpsn  file "C:/ti/Workspace/PLC_certificate/Examples/TI/TMDSDOCK28335/OS2/app.c",line 651,column 9,
    2361 00000254 761F-         MOVW      DP,#_TaskID           ; [CPU_ARAU] 
         00000255 0000 
    2362 00000256 56BF-         MOVB      @_TaskID,#20,UNC      ; [CPU_ALU] |651| 
         00000257 1410 
    2363                      .dwpsn  file "C:/ti/Workspace/PLC_certificate/Examples/TI/TMDSDOCK28335/OS2/app.c",line 652,column 21
    2364 00000258 F558          MOV       *-SP[24],*(0:0x705b)  ; [CPU_ALU] |652| 
         00000259 705B 
    2365                      .dwpsn  file "C:/ti/Workspace/PLC_certificate/Examples/TI/TMDSDOCK28335/OS2/app.c",line 653,column 15
    2366 0000025a 5CAD          MOVZ      AR4,SP                ; [CPU_ALU] |653| 
    2367 0000025b DC97          SUBB      XAR4,#23              ; [CPU_ARAU] |653| 
    2368 0000025c 5CA4          MOVZ      AR4,AR4               ; [CPU_ALU] |653| 
    2369 0000025d 76C0+         MOVL      XAR7,#_$P$T1$2        ; [CPU_ARAU] |653| 
         0000025e 0000 
    2370 0000025f F60F          RPT       #15
    2371 00000260 2484  ||     PREAD     *XAR4++,*XAR7         ; [CPU_ALU] |653| 
    2372                      .dwpsn  file "C:/ti/Workspace/PLC_certificate/Examples/TI/TMDSDOCK28335/OS2/app.c",line 656,column 9,
TMS320C2000 Assembler PC v20.2.1 Wed Feb 17 17:05:46 2021

Copyright (c) 1996-2018 Texas Instruments Incorporated
app.asm                                                              PAGE   47

    2373 00000261 2B14-         MOV       @_certification_flag1,#0 ; [CPU_ALU] |656| 
    2374                      .dwpsn  file "C:/ti/Workspace/PLC_certificate/Examples/TI/TMDSDOCK28335/OS2/app.c",line 657,column 9,
    2375 00000262 2B16-         MOV       @_certification_flag2,#0 ; [CPU_ALU] |657| 
    2376                      .dwpsn  file "C:/ti/Workspace/PLC_certificate/Examples/TI/TMDSDOCK28335/OS2/app.c",line 658,column 9,
    2377 00000263 CC58          AND       AL,*-SP[24],#0x1f00   ; [CPU_ALU] |658| 
         00000264 1F00 
    2378 00000265 6136          B         $C$L48,EQ             ; [CPU_ALU] |658| 
    2379                      ; branchcc occurs ; [] |658| 
    2380                      .dwpsn  file "C:/ti/Workspace/PLC_certificate/Examples/TI/TMDSDOCK28335/OS2/app.c",line 660,column 13
    2381 00000266 F5A9          MOV       AL,*(0:0x0cf3)        ; [CPU_ALU] |660| 
         00000267 0CF3 
    2382 00000268 5001          ORB       AL,#0x01              ; [CPU_ALU] |660| 
    2383 00000269 F4A9          MOV       *(0:0x0cf3),AL        ; [CPU_ALU] |660| 
         0000026a 0CF3 
    2384                      .dwpsn  file "C:/ti/Workspace/PLC_certificate/Examples/TI/TMDSDOCK28335/OS2/app.c",line 662,column 18
    2385 0000026b 2B47          MOV       *-SP[7],#0            ; [CPU_ALU] |662| 
    2386                      .dwpsn  file "C:/ti/Workspace/PLC_certificate/Examples/TI/TMDSDOCK28335/OS2/app.c",line 662,column 25
    2387 0000026c 9247          MOV       AL,*-SP[7]            ; [CPU_ALU] |662| 
    2388 0000026d 5264          CMPB      AL,#100               ; [CPU_ALU] |662| 
    2389 0000026e 6705          B         $C$L45,HIS            ; [CPU_ALU] |662| 
    2390                      ; branchcc occurs ; [] |662| 
    2391 0000026f       $C$L44:    
    2392                      .dwpsn  file "C:/ti/Workspace/PLC_certificate/Examples/TI/TMDSDOCK28335/OS2/app.c",line 662,column 34
    2393 0000026f 0A47          INC       *-SP[7]               ; [CPU_ALU] |662| 
    2394                      .dwpsn  file "C:/ti/Workspace/PLC_certificate/Examples/TI/TMDSDOCK28335/OS2/app.c",line 662,column 25
    2395 00000270 9247          MOV       AL,*-SP[7]            ; [CPU_ALU] |662| 
    2396 00000271 5264          CMPB      AL,#100               ; [CPU_ALU] |662| 
    2397 00000272 68FD          B         $C$L44,LO             ; [CPU_ALU] |662| 
    2398                      ; branchcc occurs ; [] |662| 
    2399 00000273       $C$L45:    
    2400                      .dwpsn  file "C:/ti/Workspace/PLC_certificate/Examples/TI/TMDSDOCK28335/OS2/app.c",line 665,column 13
    2401 00000273 761F-         MOVW      DP,#_psh_flag         ; [CPU_ARAU] 
         00000274 0000 
    2402 00000275 9219-         MOV       AL,@_psh_flag         ; [CPU_ALU] |665| 
    2403 00000276 5201          CMPB      AL,#1                 ; [CPU_ALU] |665| 
    2404 00000277 6109          B         $C$L46,EQ             ; [CPU_ALU] |665| 
    2405                      ; branchcc occurs ; [] |665| 
    2406                      .dwpsn  file "C:/ti/Workspace/PLC_certificate/Examples/TI/TMDSDOCK28335/OS2/app.c",line 666,column 17
    2407 00000278 5DAD          MOVZ      AR5,SP                ; [CPU_ALU] |666| 
    2408 00000279 8F00!         MOVL      XAR4,#_scirxBuf       ; [CPU_ARAU] |666| 
         0000027a 0000 
    2409 0000027b 9A01          MOVB      AL,#1                 ; [CPU_ALU] |666| 
    2410 0000027c DD97          SUBB      XAR5,#23              ; [CPU_ARAU] |666| 
    2411 0000027d 5DA5          MOVZ      AR5,AR5               ; [CPU_ALU] |666| 
    2412              $C$DW$167       .dwtag  DW_TAG_TI_branch
    2413                      .dwattr $C$DW$167, DW_AT_low_pc(0x00)
    2414                      .dwattr $C$DW$167, DW_AT_name("_aes_enc_dec")
    2415                      .dwattr $C$DW$167, DW_AT_TI_call
    2416              
    2417 0000027e 7640!         LCR       #_aes_enc_dec         ; [CPU_ALU] |666| 
         0000027f 0000 
    2418                      ; call occurs [#_aes_enc_dec] ; [] |666| 
    2419 00000280       $C$L46:    
    2420                      .dwpsn  file "C:/ti/Workspace/PLC_certificate/Examples/TI/TMDSDOCK28335/OS2/app.c",line 668,column 13
    2421 00000280 761F!         MOVW      DP,#_scirxBuf         ; [CPU_ARAU] 
TMS320C2000 Assembler PC v20.2.1 Wed Feb 17 17:05:46 2021

Copyright (c) 1996-2018 Texas Instruments Incorporated
app.asm                                                              PAGE   48

         00000281 0000 
    2422 00000282 9200!         MOV       AL,@$BLOCKED(_scirxBuf) ; [CPU_ALU] |668| 
    2423 00000283 5248          CMPB      AL,#72                ; [CPU_ALU] |668| 
    2424 00000284 6013          B         $C$L47,NEQ            ; [CPU_ALU] |668| 
    2425                      ; branchcc occurs ; [] |668| 
    2426 00000285 9201!         MOV       AL,@$BLOCKED(_scirxBuf)+1 ; [CPU_ALU] |668| 
    2427 00000286 5265          CMPB      AL,#101               ; [CPU_ALU] |668| 
    2428 00000287 6010          B         $C$L47,NEQ            ; [CPU_ALU] |668| 
    2429                      ; branchcc occurs ; [] |668| 
    2430 00000288 9202!         MOV       AL,@$BLOCKED(_scirxBuf)+2 ; [CPU_ALU] |668| 
    2431 00000289 526C          CMPB      AL,#108               ; [CPU_ALU] |668| 
    2432 0000028a 600D          B         $C$L47,NEQ            ; [CPU_ALU] |668| 
    2433                      ; branchcc occurs ; [] |668| 
    2434 0000028b 9203!         MOV       AL,@$BLOCKED(_scirxBuf)+3 ; [CPU_ALU] |668| 
    2435 0000028c 526C          CMPB      AL,#108               ; [CPU_ALU] |668| 
    2436 0000028d 600A          B         $C$L47,NEQ            ; [CPU_ALU] |668| 
    2437                      ; branchcc occurs ; [] |668| 
    2438 0000028e 9204!         MOV       AL,@$BLOCKED(_scirxBuf)+4 ; [CPU_ALU] |668| 
    2439 0000028f 526F          CMPB      AL,#111               ; [CPU_ALU] |668| 
    2440 00000290 6007          B         $C$L47,NEQ            ; [CPU_ALU] |668| 
    2441                      ; branchcc occurs ; [] |668| 
    2442                      .dwpsn  file "C:/ti/Workspace/PLC_certificate/Examples/TI/TMDSDOCK28335/OS2/app.c",line 670,column 17
    2443 00000291 761F-         MOVW      DP,#_certification_flag1 ; [CPU_ARAU] 
         00000292 0000 
    2444 00000293 56BF-         MOVB      @_certification_flag1,#1,UNC ; [CPU_ALU] |670| 
         00000294 0114 
    2445                      .dwpsn  file "C:/ti/Workspace/PLC_certificate/Examples/TI/TMDSDOCK28335/OS2/app.c",line 671,column 17
    2446 00000295 56BF-         MOVB      @_seq1_flag,#1,UNC    ; [CPU_ALU] |671| 
         00000296 0118 
    2447 00000297       $C$L47:    
    2448                      .dwpsn  file "C:/ti/Workspace/PLC_certificate/Examples/TI/TMDSDOCK28335/OS2/app.c",line 674,column 13
    2449 00000297 761F-         MOVW      DP,#_UserCert_flag    ; [CPU_ARAU] 
         00000298 0000 
    2450 00000299 56BF-         MOVB      @_UserCert_flag,#1,UNC ; [CPU_ALU] |674| 
         0000029a 0113 
    2451 0000029b       $C$L48:    
    2452                      .dwpsn  file "C:/ti/Workspace/PLC_certificate/Examples/TI/TMDSDOCK28335/OS2/app.c",line 677,column 16
    2453 0000029b       $C$L49:    
    2454                      .dwpsn  file "C:/ti/Workspace/PLC_certificate/Examples/TI/TMDSDOCK28335/OS2/app.c",line 680,column 13
    2455 0000029b 761F!         MOVW      DP,#_OSTime           ; [CPU_ARAU] 
         0000029c 0000 
    2456 0000029d 0600!         MOVL      ACC,@_OSTime          ; [CPU_ALU] |680| 
    2457 0000029e 0344          SUBL      ACC,*-SP[4]           ; [CPU_ALU] |680| 
    2458 0000029f 1E46          MOVL      *-SP[6],ACC           ; [CPU_ALU] |680| 
    2459                      .dwpsn  file "C:/ti/Workspace/PLC_certificate/Examples/TI/TMDSDOCK28335/OS2/app.c",line 682,column 13
    2460 000002a0 761F-         MOVW      DP,#_UART_Reception_ExTime ; [CPU_ARAU] 
         000002a1 0000 
    2461 000002a2 0E0B-         MOVU      ACC,@_UART_Reception_ExTime ; [CPU_ALU] |682| 
    2462 000002a3 0F46          CMPL      ACC,*-SP[6]           ; [CPU_ALU] |682| 
    2463 000002a4 690A          B         $C$L51,LOS            ; [CPU_ALU] |682| 
    2464                      ; branchcc occurs ; [] |682| 
    2465                      .dwpsn  file "C:/ti/Workspace/PLC_certificate/Examples/TI/TMDSDOCK28335/OS2/app.c",line 683,column 17
    2466                      .dwpsn  file "C:/ti/Workspace/PLC_certificate/Examples/TI/TMDSDOCK28335/OS2/app.c",line 685,column 22
    2467 000002a5 2B47          MOV       *-SP[7],#0            ; [CPU_ALU] |685| 
    2468                      .dwpsn  file "C:/ti/Workspace/PLC_certificate/Examples/TI/TMDSDOCK28335/OS2/app.c",line 685,column 29
TMS320C2000 Assembler PC v20.2.1 Wed Feb 17 17:05:46 2021

Copyright (c) 1996-2018 Texas Instruments Incorporated
app.asm                                                              PAGE   49

    2469 000002a6 9247          MOV       AL,*-SP[7]            ; [CPU_ALU] |685| 
    2470 000002a7 5201          CMPB      AL,#1                 ; [CPU_ALU] |685| 
    2471 000002a8 66F3          B         $C$L49,HI             ; [CPU_ALU] |685| 
    2472                      ; branchcc occurs ; [] |685| 
    2473 000002a9       $C$L50:    
    2474                      .dwpsn  file "C:/ti/Workspace/PLC_certificate/Examples/TI/TMDSDOCK28335/OS2/app.c",line 685,column 37
    2475 000002a9 0A47          INC       *-SP[7]               ; [CPU_ALU] |685| 
    2476                      .dwpsn  file "C:/ti/Workspace/PLC_certificate/Examples/TI/TMDSDOCK28335/OS2/app.c",line 685,column 29
    2477 000002aa 9247          MOV       AL,*-SP[7]            ; [CPU_ALU] |685| 
    2478 000002ab 5201          CMPB      AL,#1                 ; [CPU_ALU] |685| 
    2479 000002ac 69FD          B         $C$L50,LOS            ; [CPU_ALU] |685| 
    2480                      ; branchcc occurs ; [] |685| 
    2481                      .dwpsn  file "C:/ti/Workspace/PLC_certificate/Examples/TI/TMDSDOCK28335/OS2/app.c",line 677,column 16
    2482 000002ad 6FEE          B         $C$L49,UNC            ; [CPU_ALU] |677| 
    2483                      ; branch occurs ; [] |677| 
    2484 000002ae       $C$L51:    
    2485                      .dwpsn  file "C:/ti/Workspace/PLC_certificate/Examples/TI/TMDSDOCK28335/OS2/app.c",line 688,column 9,
    2486 000002ae 28A9          MOV       AL,#500               ; [CPU_ALU] |688| 
         000002af 01F4 
    2487 000002b0 D400          MOVB      XAR4,#0               ; [CPU_ALU] |688| 
    2488 000002b1 9E0B-         SUB       AL,@_UART_Reception_ExTime ; [CPU_ALU] |688| 
    2489 000002b2 5DA9          MOVZ      AR5,AL                ; [CPU_ALU] |688| 
    2490 000002b3 FF20          MOV       ACC,#0                ; [CPU_ALU] |688| 
         000002b4 0000 
    2491              $C$DW$168       .dwtag  DW_TAG_TI_branch
    2492                      .dwattr $C$DW$168, DW_AT_low_pc(0x00)
    2493                      .dwattr $C$DW$168, DW_AT_name("_OSTimeDlyHMSM")
    2494                      .dwattr $C$DW$168, DW_AT_TI_call
    2495              
    2496 000002b5 7640!         LCR       #_OSTimeDlyHMSM       ; [CPU_ALU] |688| 
         000002b6 0000 
    2497                      ; call occurs [#_OSTimeDlyHMSM] ; [] |688| 
    2498                      .dwendtag $C$DW$164
    2499              
    2500                      .dwpsn  file "C:/ti/Workspace/PLC_certificate/Examples/TI/TMDSDOCK28335/OS2/app.c",line 647,column 12
    2501 000002b7 6F99          B         $C$L43,UNC            ; [CPU_ALU] |647| 
    2502                      ; branch occurs ; [] |647| 
    2503                      .dwattr $C$DW$158, DW_AT_TI_end_file("C:/ti/Workspace/PLC_certificate/Examples/TI/TMDSDOCK28335/OS2/a
    2504                      .dwattr $C$DW$158, DW_AT_TI_end_line(0x2b2)
    2505                      .dwattr $C$DW$158, DW_AT_TI_end_column(0x01)
    2506                      .dwendentry
    2507                      .dwendtag $C$DW$158
    2508              
    2509 000002b8               .sect   ".text"
    2510                      .clink
    2511              
    2512              $C$DW$169       .dwtag  DW_TAG_subprogram
    2513                      .dwattr $C$DW$169, DW_AT_name("UART_Transmission")
    2514                      .dwattr $C$DW$169, DW_AT_low_pc(_UART_Transmission)
    2515                      .dwattr $C$DW$169, DW_AT_high_pc(0x00)
    2516                      .dwattr $C$DW$169, DW_AT_TI_symbol_name("_UART_Transmission")
    2517                      .dwattr $C$DW$169, DW_AT_TI_begin_file("C:/ti/Workspace/PLC_certificate/Examples/TI/TMDSDOCK28335/OS2
    2518                      .dwattr $C$DW$169, DW_AT_TI_begin_line(0x2b4)
    2519                      .dwattr $C$DW$169, DW_AT_TI_begin_column(0x0d)
    2520                      .dwattr $C$DW$169, DW_AT_TI_max_frame_size(-26)
TMS320C2000 Assembler PC v20.2.1 Wed Feb 17 17:05:46 2021

Copyright (c) 1996-2018 Texas Instruments Incorporated
app.asm                                                              PAGE   50

    2521                      .dwpsn  file "C:/ti/Workspace/PLC_certificate/Examples/TI/TMDSDOCK28335/OS2/app.c",line 693,column 1,
    2522              
    2523                      .dwfde $C$DW$CIE, _UART_Transmission
    2524              $C$DW$170       .dwtag  DW_TAG_formal_parameter
    2525                      .dwattr $C$DW$170, DW_AT_name("p_arg")
    2526                      .dwattr $C$DW$170, DW_AT_TI_symbol_name("_p_arg")
    2527                      .dwattr $C$DW$170, DW_AT_type(*$C$DW$T$3)
    2528                      .dwattr $C$DW$170, DW_AT_location[DW_OP_reg12]
    2529              
    2530              
    2531              ;***************************************************************
    2532              ;* FNAME: _UART_Transmission            FR SIZE:  24           *
    2533              ;*                                                             *
    2534              ;* FUNCTION ENVIRONMENT                                        *
    2535              ;*                                                             *
    2536              ;* FUNCTION PROPERTIES                                         *
    2537              ;*                            0 Parameter, 23 Auto,  0 SOE     *
    2538              ;***************************************************************
    2539              
    2540 000002b8       _UART_Transmission:
    2541                      .dwcfi  cfa_offset, -2
    2542                      .dwcfi  save_reg_to_mem, 26, 0
    2543 000002b8 FE18          ADDB      SP,#24                ; [CPU_ARAU] 
    2544                      .dwcfi  cfa_offset, -26
    2545              $C$DW$171       .dwtag  DW_TAG_variable
    2546                      .dwattr $C$DW$171, DW_AT_name("p_arg")
    2547                      .dwattr $C$DW$171, DW_AT_TI_symbol_name("_p_arg")
    2548                      .dwattr $C$DW$171, DW_AT_type(*$C$DW$T$3)
    2549                      .dwattr $C$DW$171, DW_AT_location[DW_OP_breg20 -2]
    2550              
    2551              $C$DW$172       .dwtag  DW_TAG_variable
    2552                      .dwattr $C$DW$172, DW_AT_name("Start_Time")
    2553                      .dwattr $C$DW$172, DW_AT_TI_symbol_name("_Start_Time")
    2554                      .dwattr $C$DW$172, DW_AT_type(*$C$DW$T$65)
    2555                      .dwattr $C$DW$172, DW_AT_location[DW_OP_breg20 -4]
    2556              
    2557              $C$DW$173       .dwtag  DW_TAG_variable
    2558                      .dwattr $C$DW$173, DW_AT_name("Execute_Time")
    2559                      .dwattr $C$DW$173, DW_AT_TI_symbol_name("_Execute_Time")
    2560                      .dwattr $C$DW$173, DW_AT_type(*$C$DW$T$65)
    2561                      .dwattr $C$DW$173, DW_AT_location[DW_OP_breg20 -6]
    2562              
    2563              $C$DW$174       .dwtag  DW_TAG_variable
    2564                      .dwattr $C$DW$174, DW_AT_name("i")
    2565                      .dwattr $C$DW$174, DW_AT_TI_symbol_name("_i")
    2566                      .dwattr $C$DW$174, DW_AT_type(*$C$DW$T$25)
    2567                      .dwattr $C$DW$174, DW_AT_location[DW_OP_breg20 -7]
    2568              
    2569 000002b9 A842          MOVL      *-SP[2],XAR4          ; [CPU_ALU] |693| 
    2570                      .dwpsn  file "C:/ti/Workspace/PLC_certificate/Examples/TI/TMDSDOCK28335/OS2/app.c",line 694,column 5,
    2571                      .dwpsn  file "C:/ti/Workspace/PLC_certificate/Examples/TI/TMDSDOCK28335/OS2/app.c",line 700,column 12
    2572              $C$L52:    
    2573              
    2574              $C$DW$175       .dwtag  DW_TAG_lexical_block
    2575                      .dwattr $C$DW$175, DW_AT_low_pc(0x00)
TMS320C2000 Assembler PC v20.2.1 Wed Feb 17 17:05:46 2021

Copyright (c) 1996-2018 Texas Instruments Incorporated
app.asm                                                              PAGE   51

    2576                      .dwattr $C$DW$175, DW_AT_high_pc(0x00)
    2577              $C$DW$176       .dwtag  DW_TAG_variable
    2578                      .dwattr $C$DW$176, DW_AT_name("key")
    2579                      .dwattr $C$DW$176, DW_AT_TI_symbol_name("_key")
    2580                      .dwattr $C$DW$176, DW_AT_type(*$C$DW$T$73)
    2581                      .dwattr $C$DW$176, DW_AT_location[DW_OP_breg20 -23]
    2582              
    2583                      .dwpsn  file "C:/ti/Workspace/PLC_certificate/Examples/TI/TMDSDOCK28335/OS2/app.c",line 702,column 9,
    2584 000002ba 761F!         MOVW      DP,#_OSTime           ; [CPU_ARAU] 
         000002bb 0000 
    2585 000002bc 0600!         MOVL      ACC,@_OSTime          ; [CPU_ALU] |702| 
    2586 000002bd 1E44          MOVL      *-SP[4],ACC           ; [CPU_ALU] |702| 
    2587                      .dwpsn  file "C:/ti/Workspace/PLC_certificate/Examples/TI/TMDSDOCK28335/OS2/app.c",line 703,column 9,
    2588 000002be 761F-         MOVW      DP,#_TaskID           ; [CPU_ARAU] 
         000002bf 0000 
    2589 000002c0 56BF-         MOVB      @_TaskID,#21,UNC      ; [CPU_ALU] |703| 
         000002c1 1510 
    2590                      .dwpsn  file "C:/ti/Workspace/PLC_certificate/Examples/TI/TMDSDOCK28335/OS2/app.c",line 704,column 15
    2591 000002c2 5CAD          MOVZ      AR4,SP                ; [CPU_ALU] |704| 
    2592 000002c3 DC97          SUBB      XAR4,#23              ; [CPU_ARAU] |704| 
    2593 000002c4 5CA4          MOVZ      AR4,AR4               ; [CPU_ALU] |704| 
    2594 000002c5 76C0+         MOVL      XAR7,#_$P$T2$3        ; [CPU_ARAU] |704| 
         000002c6 0000 
    2595 000002c7 F60F          RPT       #15
    2596 000002c8 2484  ||     PREAD     *XAR4++,*XAR7         ; [CPU_ALU] |704| 
    2597                      .dwpsn  file "C:/ti/Workspace/PLC_certificate/Examples/TI/TMDSDOCK28335/OS2/app.c",line 707,column 9,
    2598 000002c9 9214-         MOV       AL,@_certification_flag1 ; [CPU_ALU] |707| 
    2599 000002ca 5201          CMPB      AL,#1                 ; [CPU_ALU] |707| 
    2600 000002cb 6042          B         $C$L57,NEQ            ; [CPU_ALU] |707| 
    2601                      ; branchcc occurs ; [] |707| 
    2602                      .dwpsn  file "C:/ti/Workspace/PLC_certificate/Examples/TI/TMDSDOCK28335/OS2/app.c",line 709,column 18
    2603 000002cc 2B47          MOV       *-SP[7],#0            ; [CPU_ALU] |709| 
    2604                      .dwpsn  file "C:/ti/Workspace/PLC_certificate/Examples/TI/TMDSDOCK28335/OS2/app.c",line 709,column 25
    2605 000002cd 9247          MOV       AL,*-SP[7]            ; [CPU_ALU] |709| 
    2606 000002ce 5210          CMPB      AL,#16                ; [CPU_ALU] |709| 
    2607 000002cf 6709          B         $C$L54,HIS            ; [CPU_ALU] |709| 
    2608                      ; branchcc occurs ; [] |709| 
    2609 000002d0 8F00-         MOVL      XAR4,#_R_PLC          ; [CPU_ARAU] |710| 
         000002d1 0000 
    2610 000002d2       $C$L53:    
    2611                      .dwpsn  file "C:/ti/Workspace/PLC_certificate/Examples/TI/TMDSDOCK28335/OS2/app.c",line 710,column 17
    2612 000002d2 5847          MOVZ      AR0,*-SP[7]           ; [CPU_ALU] |710| 
    2613 000002d3 2B94          MOV       *+XAR4[AR0],#0        ; [CPU_ALU] |710| 
    2614                      .dwpsn  file "C:/ti/Workspace/PLC_certificate/Examples/TI/TMDSDOCK28335/OS2/app.c",line 709,column 44
    2615 000002d4 0A47          INC       *-SP[7]               ; [CPU_ALU] |709| 
    2616                      .dwpsn  file "C:/ti/Workspace/PLC_certificate/Examples/TI/TMDSDOCK28335/OS2/app.c",line 709,column 25
    2617 000002d5 9247          MOV       AL,*-SP[7]            ; [CPU_ALU] |709| 
    2618 000002d6 5210          CMPB      AL,#16                ; [CPU_ALU] |709| 
    2619 000002d7 68FB          B         $C$L53,LO             ; [CPU_ALU] |709| 
    2620                      ; branchcc occurs ; [] |709| 
    2621 000002d8       $C$L54:    
    2622                      .dwpsn  file "C:/ti/Workspace/PLC_certificate/Examples/TI/TMDSDOCK28335/OS2/app.c",line 712,column 13
    2623 000002d8 8F00!         MOVL      XAR4,#_scirxBuf+5     ; [CPU_ARAU] |712| 
         000002d9 0005 
    2624 000002da 0202          MOVB      ACC,#2                ; [CPU_ALU] |712| 
TMS320C2000 Assembler PC v20.2.1 Wed Feb 17 17:05:46 2021

Copyright (c) 1996-2018 Texas Instruments Incorporated
app.asm                                                              PAGE   52

    2625              $C$DW$177       .dwtag  DW_TAG_TI_branch
    2626                      .dwattr $C$DW$177, DW_AT_low_pc(0x00)
    2627                      .dwattr $C$DW$177, DW_AT_name("_prng_seed_bytes")
    2628                      .dwattr $C$DW$177, DW_AT_TI_call
    2629              
    2630 000002db 7640!         LCR       #_prng_seed_bytes     ; [CPU_ALU] |712| 
         000002dc 0000 
    2631                      ; call occurs [#_prng_seed_bytes] ; [] |712| 
    2632                      .dwpsn  file "C:/ti/Workspace/PLC_certificate/Examples/TI/TMDSDOCK28335/OS2/app.c",line 714,column 18
    2633 000002dd 2B47          MOV       *-SP[7],#0            ; [CPU_ALU] |714| 
    2634                      .dwpsn  file "C:/ti/Workspace/PLC_certificate/Examples/TI/TMDSDOCK28335/OS2/app.c",line 714,column 25
    2635 000002de 9247          MOV       AL,*-SP[7]            ; [CPU_ALU] |714| 
    2636 000002df 5202          CMPB      AL,#2                 ; [CPU_ALU] |714| 
    2637 000002e0 6710          B         $C$L56,HIS            ; [CPU_ALU] |714| 
    2638                      ; branchcc occurs ; [] |714| 
    2639 000002e1       $C$L55:    
    2640                      .dwpsn  file "C:/ti/Workspace/PLC_certificate/Examples/TI/TMDSDOCK28335/OS2/app.c",line 716,column 17
    2641              $C$DW$178       .dwtag  DW_TAG_TI_branch
    2642                      .dwattr $C$DW$178, DW_AT_low_pc(0x00)
    2643                      .dwattr $C$DW$178, DW_AT_name("_prng_get_octet")
    2644                      .dwattr $C$DW$178, DW_AT_TI_call
    2645              
    2646 000002e1 7640!         LCR       #_prng_get_octet      ; [CPU_ALU] |716| 
         000002e2 0000 
    2647                      ; call occurs [#_prng_get_octet] ; [] |716| 
    2648 000002e3 5847          MOVZ      AR0,*-SP[7]           ; [CPU_ALU] |716| 
    2649 000002e4 8F00-         MOVL      XAR4,#_R_PLC          ; [CPU_ARAU] |716| 
         000002e5 0000 
    2650 000002e6 9694          MOV       *+XAR4[AR0],AL        ; [CPU_ALU] |716| 
    2651                      .dwpsn  file "C:/ti/Workspace/PLC_certificate/Examples/TI/TMDSDOCK28335/OS2/app.c",line 717,column 17
    2652 000002e7 5847          MOVZ      AR0,*-SP[7]           ; [CPU_ALU] |717| 
    2653 000002e8 9294          MOV       AL,*+XAR4[AR0]        ; [CPU_ALU] |717| 
    2654 000002e9 8F00-         MOVL      XAR4,#_R_PLC_NoneCrypt ; [CPU_ARAU] |717| 
         000002ea 0000 
    2655 000002eb 9694          MOV       *+XAR4[AR0],AL        ; [CPU_ALU] |717| 
    2656                      .dwpsn  file "C:/ti/Workspace/PLC_certificate/Examples/TI/TMDSDOCK28335/OS2/app.c",line 714,column 32
    2657 000002ec 0A47          INC       *-SP[7]               ; [CPU_ALU] |714| 
    2658                      .dwpsn  file "C:/ti/Workspace/PLC_certificate/Examples/TI/TMDSDOCK28335/OS2/app.c",line 714,column 25
    2659 000002ed 9247          MOV       AL,*-SP[7]            ; [CPU_ALU] |714| 
    2660 000002ee 5202          CMPB      AL,#2                 ; [CPU_ALU] |714| 
    2661 000002ef 68F2          B         $C$L55,LO             ; [CPU_ALU] |714| 
    2662                      ; branchcc occurs ; [] |714| 
    2663 000002f0       $C$L56:    
    2664                      .dwpsn  file "C:/ti/Workspace/PLC_certificate/Examples/TI/TMDSDOCK28335/OS2/app.c",line 720,column 13
    2665 000002f0 F5A9          MOV       AL,*(0:0x0900)        ; [CPU_ALU] |720| 
         000002f1 0900 
    2666 000002f2 761F-         MOVW      DP,#_R_PLC+2          ; [CPU_ARAU] 
         000002f3 0000 
    2667 000002f4 FFC7          LSR       AL,8                  ; [CPU_ALU] |720| 
    2668 000002f5 90FF          ANDB      AL,#0xff              ; [CPU_ALU] |720| 
    2669 000002f6 9602!         MOV       @$BLOCKED(_R_PLC)+2,AL ; [CPU_ALU] |720| 
    2670                      .dwpsn  file "C:/ti/Workspace/PLC_certificate/Examples/TI/TMDSDOCK28335/OS2/app.c",line 721,column 13
    2671 000002f7 F5A9          MOV       AL,*(0:0x0900)        ; [CPU_ALU] |721| 
         000002f8 0900 
    2672 000002f9 90FF          ANDB      AL,#0xff              ; [CPU_ALU] |721| 
TMS320C2000 Assembler PC v20.2.1 Wed Feb 17 17:05:46 2021

Copyright (c) 1996-2018 Texas Instruments Incorporated
app.asm                                                              PAGE   53

    2673 000002fa 9603!         MOV       @$BLOCKED(_R_PLC)+3,AL ; [CPU_ALU] |721| 
    2674                      .dwpsn  file "C:/ti/Workspace/PLC_certificate/Examples/TI/TMDSDOCK28335/OS2/app.c",line 722,column 13
    2675 000002fb F5A9          MOV       AL,*(0:0x0901)        ; [CPU_ALU] |722| 
         000002fc 0901 
    2676 000002fd FFC7          LSR       AL,8                  ; [CPU_ALU] |722| 
    2677 000002fe 90FF          ANDB      AL,#0xff              ; [CPU_ALU] |722| 
    2678 000002ff 9604!         MOV       @$BLOCKED(_R_PLC)+4,AL ; [CPU_ALU] |722| 
    2679                      .dwpsn  file "C:/ti/Workspace/PLC_certificate/Examples/TI/TMDSDOCK28335/OS2/app.c",line 723,column 13
    2680 00000300 F5A9          MOV       AL,*(0:0x0901)        ; [CPU_ALU] |723| 
         00000301 0901 
    2681 00000302 90FF          ANDB      AL,#0xff              ; [CPU_ALU] |723| 
    2682 00000303 9605!         MOV       @$BLOCKED(_R_PLC)+5,AL ; [CPU_ALU] |723| 
    2683                      .dwpsn  file "C:/ti/Workspace/PLC_certificate/Examples/TI/TMDSDOCK28335/OS2/app.c",line 725,column 13
    2684 00000304 5DAD          MOVZ      AR5,SP                ; [CPU_ALU] |725| 
    2685 00000305 8F00-         MOVL      XAR4,#_R_PLC          ; [CPU_ARAU] |725| 
         00000306 0000 
    2686 00000307 9A00          MOVB      AL,#0                 ; [CPU_ALU] |725| 
    2687 00000308 DD97          SUBB      XAR5,#23              ; [CPU_ARAU] |725| 
    2688 00000309 5DA5          MOVZ      AR5,AR5               ; [CPU_ALU] |725| 
    2689              $C$DW$179       .dwtag  DW_TAG_TI_branch
    2690                      .dwattr $C$DW$179, DW_AT_low_pc(0x00)
    2691                      .dwattr $C$DW$179, DW_AT_name("_aes_enc_dec")
    2692                      .dwattr $C$DW$179, DW_AT_TI_call
    2693              
    2694 0000030a 7640!         LCR       #_aes_enc_dec         ; [CPU_ALU] |725| 
         0000030b 0000 
    2695                      ; call occurs [#_aes_enc_dec] ; [] |725| 
    2696 0000030c 6F0C          B         $C$L58,UNC            ; [CPU_ALU] 
    2697                      ; branch occurs ; [] 
    2698 0000030d       $C$L57:    
    2699                      .dwpsn  file "C:/ti/Workspace/PLC_certificate/Examples/TI/TMDSDOCK28335/OS2/app.c",line 728,column 14
    2700 0000030d 9216-         MOV       AL,@_certification_flag2 ; [CPU_ALU] |728| 
    2701 0000030e 5201          CMPB      AL,#1                 ; [CPU_ALU] |728| 
    2702 0000030f 6009          B         $C$L58,NEQ            ; [CPU_ALU] |728| 
    2703                      ; branchcc occurs ; [] |728| 
    2704                      .dwpsn  file "C:/ti/Workspace/PLC_certificate/Examples/TI/TMDSDOCK28335/OS2/app.c",line 729,column 13
    2705 00000310 5DAD          MOVZ      AR5,SP                ; [CPU_ALU] |729| 
    2706 00000311 8F00-         MOVL      XAR4,#_Reply_flag     ; [CPU_ARAU] |729| 
         00000312 0000 
    2707 00000313 9A00          MOVB      AL,#0                 ; [CPU_ALU] |729| 
    2708 00000314 DD97          SUBB      XAR5,#23              ; [CPU_ARAU] |729| 
    2709 00000315 5DA5          MOVZ      AR5,AR5               ; [CPU_ALU] |729| 
    2710              $C$DW$180       .dwtag  DW_TAG_TI_branch
    2711                      .dwattr $C$DW$180, DW_AT_low_pc(0x00)
    2712                      .dwattr $C$DW$180, DW_AT_name("_aes_enc_dec")
    2713                      .dwattr $C$DW$180, DW_AT_TI_call
    2714              
    2715 00000316 7640!         LCR       #_aes_enc_dec         ; [CPU_ALU] |729| 
         00000317 0000 
    2716                      ; call occurs [#_aes_enc_dec] ; [] |729| 
    2717 00000318       $C$L58:    
    2718                      .dwpsn  file "C:/ti/Workspace/PLC_certificate/Examples/TI/TMDSDOCK28335/OS2/app.c",line 731,column 16
    2719 00000318       $C$L59:    
    2720                      .dwpsn  file "C:/ti/Workspace/PLC_certificate/Examples/TI/TMDSDOCK28335/OS2/app.c",line 734,column 13
    2721 00000318 761F!         MOVW      DP,#_OSTime           ; [CPU_ARAU] 
TMS320C2000 Assembler PC v20.2.1 Wed Feb 17 17:05:46 2021

Copyright (c) 1996-2018 Texas Instruments Incorporated
app.asm                                                              PAGE   54

         00000319 0000 
    2722 0000031a 0600!         MOVL      ACC,@_OSTime          ; [CPU_ALU] |734| 
    2723 0000031b 0344          SUBL      ACC,*-SP[4]           ; [CPU_ALU] |734| 
    2724 0000031c 1E46          MOVL      *-SP[6],ACC           ; [CPU_ALU] |734| 
    2725                      .dwpsn  file "C:/ti/Workspace/PLC_certificate/Examples/TI/TMDSDOCK28335/OS2/app.c",line 736,column 13
    2726 0000031d 761F-         MOVW      DP,#_UART_Transmission_ExTime ; [CPU_ARAU] 
         0000031e 0000 
    2727 0000031f 0E0C-         MOVU      ACC,@_UART_Transmission_ExTime ; [CPU_ALU] |736| 
    2728 00000320 0F46          CMPL      ACC,*-SP[6]           ; [CPU_ALU] |736| 
    2729 00000321 690A          B         $C$L61,LOS            ; [CPU_ALU] |736| 
    2730                      ; branchcc occurs ; [] |736| 
    2731                      .dwpsn  file "C:/ti/Workspace/PLC_certificate/Examples/TI/TMDSDOCK28335/OS2/app.c",line 737,column 17
    2732                      .dwpsn  file "C:/ti/Workspace/PLC_certificate/Examples/TI/TMDSDOCK28335/OS2/app.c",line 740,column 22
    2733 00000322 2B47          MOV       *-SP[7],#0            ; [CPU_ALU] |740| 
    2734                      .dwpsn  file "C:/ti/Workspace/PLC_certificate/Examples/TI/TMDSDOCK28335/OS2/app.c",line 740,column 29
    2735 00000323 9247          MOV       AL,*-SP[7]            ; [CPU_ALU] |740| 
    2736 00000324 5201          CMPB      AL,#1                 ; [CPU_ALU] |740| 
    2737 00000325 66F3          B         $C$L59,HI             ; [CPU_ALU] |740| 
    2738                      ; branchcc occurs ; [] |740| 
    2739 00000326       $C$L60:    
    2740                      .dwpsn  file "C:/ti/Workspace/PLC_certificate/Examples/TI/TMDSDOCK28335/OS2/app.c",line 740,column 37
    2741 00000326 0A47          INC       *-SP[7]               ; [CPU_ALU] |740| 
    2742                      .dwpsn  file "C:/ti/Workspace/PLC_certificate/Examples/TI/TMDSDOCK28335/OS2/app.c",line 740,column 29
    2743 00000327 9247          MOV       AL,*-SP[7]            ; [CPU_ALU] |740| 
    2744 00000328 5201          CMPB      AL,#1                 ; [CPU_ALU] |740| 
    2745 00000329 69FD          B         $C$L60,LOS            ; [CPU_ALU] |740| 
    2746                      ; branchcc occurs ; [] |740| 
    2747                      .dwpsn  file "C:/ti/Workspace/PLC_certificate/Examples/TI/TMDSDOCK28335/OS2/app.c",line 731,column 16
    2748 0000032a 6FEE          B         $C$L59,UNC            ; [CPU_ALU] |731| 
    2749                      ; branch occurs ; [] |731| 
    2750 0000032b       $C$L61:    
    2751                      .dwpsn  file "C:/ti/Workspace/PLC_certificate/Examples/TI/TMDSDOCK28335/OS2/app.c",line 744,column 9,
    2752 0000032b 9214-         MOV       AL,@_certification_flag1 ; [CPU_ALU] |744| 
    2753 0000032c 5201          CMPB      AL,#1                 ; [CPU_ALU] |744| 
    2754 0000032d 6107          B         $C$L62,EQ             ; [CPU_ALU] |744| 
    2755                      ; branchcc occurs ; [] |744| 
    2756 0000032e 9215-         MOV       AL,@_certification_flag1_1 ; [CPU_ALU] |744| 
    2757 0000032f 5201          CMPB      AL,#1                 ; [CPU_ALU] |744| 
    2758 00000330 6104          B         $C$L62,EQ             ; [CPU_ALU] |744| 
    2759                      ; branchcc occurs ; [] |744| 
    2760 00000331 9216-         MOV       AL,@_certification_flag2 ; [CPU_ALU] |744| 
    2761 00000332 5201          CMPB      AL,#1                 ; [CPU_ALU] |744| 
    2762 00000333 6006          B         $C$L63,NEQ            ; [CPU_ALU] |744| 
    2763                      ; branchcc occurs ; [] |744| 
    2764 00000334       $C$L62:    
    2765                      .dwpsn  file "C:/ti/Workspace/PLC_certificate/Examples/TI/TMDSDOCK28335/OS2/app.c",line 745,column 13
    2766 00000334 F5A9          MOV       AL,*(0:0x0cf3)        ; [CPU_ALU] |745| 
         00000335 0CF3 
    2767 00000336 5002          ORB       AL,#0x02              ; [CPU_ALU] |745| 
    2768 00000337 F4A9          MOV       *(0:0x0cf3),AL        ; [CPU_ALU] |745| 
         00000338 0CF3 
    2769 00000339       $C$L63:    
    2770                      .dwpsn  file "C:/ti/Workspace/PLC_certificate/Examples/TI/TMDSDOCK28335/OS2/app.c",line 747,column 9,
    2771 00000339 9A0A          MOVB      AL,#10                ; [CPU_ALU] |747| 
    2772 0000033a D400          MOVB      XAR4,#0               ; [CPU_ALU] |747| 
TMS320C2000 Assembler PC v20.2.1 Wed Feb 17 17:05:46 2021

Copyright (c) 1996-2018 Texas Instruments Incorporated
app.asm                                                              PAGE   55

    2773 0000033b 9E0C-         SUB       AL,@_UART_Transmission_ExTime ; [CPU_ALU] |747| 
    2774 0000033c 5DA9          MOVZ      AR5,AL                ; [CPU_ALU] |747| 
    2775 0000033d FF20          MOV       ACC,#0                ; [CPU_ALU] |747| 
         0000033e 0000 
    2776              $C$DW$181       .dwtag  DW_TAG_TI_branch
    2777                      .dwattr $C$DW$181, DW_AT_low_pc(0x00)
    2778                      .dwattr $C$DW$181, DW_AT_name("_OSTimeDlyHMSM")
    2779                      .dwattr $C$DW$181, DW_AT_TI_call
    2780              
    2781 0000033f 7640!         LCR       #_OSTimeDlyHMSM       ; [CPU_ALU] |747| 
         00000340 0000 
    2782                      ; call occurs [#_OSTimeDlyHMSM] ; [] |747| 
    2783                      .dwendtag $C$DW$175
    2784              
    2785                      .dwpsn  file "C:/ti/Workspace/PLC_certificate/Examples/TI/TMDSDOCK28335/OS2/app.c",line 700,column 12
    2786 00000341 FFEF          B         $C$L52,UNC            ; [CPU_ALU] |700| 
         00000342 FF79 
    2787                      ; branch occurs ; [] |700| 
    2788                      .dwattr $C$DW$169, DW_AT_TI_end_file("C:/ti/Workspace/PLC_certificate/Examples/TI/TMDSDOCK28335/OS2/a
    2789                      .dwattr $C$DW$169, DW_AT_TI_end_line(0x2ed)
    2790                      .dwattr $C$DW$169, DW_AT_TI_end_column(0x01)
    2791                      .dwendentry
    2792                      .dwendtag $C$DW$169
    2793              
    2794 00000343               .sect   ".text"
    2795                      .clink
    2796              
    2797              $C$DW$182       .dwtag  DW_TAG_subprogram
    2798                      .dwattr $C$DW$182, DW_AT_name("Diagnosis")
    2799                      .dwattr $C$DW$182, DW_AT_low_pc(_Diagnosis)
    2800                      .dwattr $C$DW$182, DW_AT_high_pc(0x00)
    2801                      .dwattr $C$DW$182, DW_AT_TI_symbol_name("_Diagnosis")
    2802                      .dwattr $C$DW$182, DW_AT_TI_begin_file("C:/ti/Workspace/PLC_certificate/Examples/TI/TMDSDOCK28335/OS2
    2803                      .dwattr $C$DW$182, DW_AT_TI_begin_line(0x2ef)
    2804                      .dwattr $C$DW$182, DW_AT_TI_begin_column(0x0d)
    2805                      .dwattr $C$DW$182, DW_AT_TI_max_frame_size(-10)
    2806                      .dwpsn  file "C:/ti/Workspace/PLC_certificate/Examples/TI/TMDSDOCK28335/OS2/app.c",line 752,column 1,
    2807              
    2808                      .dwfde $C$DW$CIE, _Diagnosis
    2809              $C$DW$183       .dwtag  DW_TAG_formal_parameter
    2810                      .dwattr $C$DW$183, DW_AT_name("p_arg")
    2811                      .dwattr $C$DW$183, DW_AT_TI_symbol_name("_p_arg")
    2812                      .dwattr $C$DW$183, DW_AT_type(*$C$DW$T$3)
    2813                      .dwattr $C$DW$183, DW_AT_location[DW_OP_reg12]
    2814              
    2815              
    2816              ;***************************************************************
    2817              ;* FNAME: _Diagnosis                    FR SIZE:   8           *
    2818              ;*                                                             *
    2819              ;* FUNCTION ENVIRONMENT                                        *
    2820              ;*                                                             *
    2821              ;* FUNCTION PROPERTIES                                         *
    2822              ;*                            0 Parameter,  7 Auto,  0 SOE     *
    2823              ;***************************************************************
    2824              
TMS320C2000 Assembler PC v20.2.1 Wed Feb 17 17:05:46 2021

Copyright (c) 1996-2018 Texas Instruments Incorporated
app.asm                                                              PAGE   56

    2825 00000343       _Diagnosis:
    2826                      .dwcfi  cfa_offset, -2
    2827                      .dwcfi  save_reg_to_mem, 26, 0
    2828 00000343 FE08          ADDB      SP,#8                 ; [CPU_ARAU] 
    2829                      .dwcfi  cfa_offset, -10
    2830              $C$DW$184       .dwtag  DW_TAG_variable
    2831                      .dwattr $C$DW$184, DW_AT_name("p_arg")
    2832                      .dwattr $C$DW$184, DW_AT_TI_symbol_name("_p_arg")
    2833                      .dwattr $C$DW$184, DW_AT_type(*$C$DW$T$3)
    2834                      .dwattr $C$DW$184, DW_AT_location[DW_OP_breg20 -2]
    2835              
    2836              $C$DW$185       .dwtag  DW_TAG_variable
    2837                      .dwattr $C$DW$185, DW_AT_name("Start_Time")
    2838                      .dwattr $C$DW$185, DW_AT_TI_symbol_name("_Start_Time")
    2839                      .dwattr $C$DW$185, DW_AT_type(*$C$DW$T$65)
    2840                      .dwattr $C$DW$185, DW_AT_location[DW_OP_breg20 -4]
    2841              
    2842              $C$DW$186       .dwtag  DW_TAG_variable
    2843                      .dwattr $C$DW$186, DW_AT_name("Execute_Time")
    2844                      .dwattr $C$DW$186, DW_AT_TI_symbol_name("_Execute_Time")
    2845                      .dwattr $C$DW$186, DW_AT_type(*$C$DW$T$65)
    2846                      .dwattr $C$DW$186, DW_AT_location[DW_OP_breg20 -6]
    2847              
    2848              $C$DW$187       .dwtag  DW_TAG_variable
    2849                      .dwattr $C$DW$187, DW_AT_name("i")
    2850                      .dwattr $C$DW$187, DW_AT_TI_symbol_name("_i")
    2851                      .dwattr $C$DW$187, DW_AT_type(*$C$DW$T$25)
    2852                      .dwattr $C$DW$187, DW_AT_location[DW_OP_breg20 -7]
    2853              
    2854 00000344 A842          MOVL      *-SP[2],XAR4          ; [CPU_ALU] |752| 
    2855                      .dwpsn  file "C:/ti/Workspace/PLC_certificate/Examples/TI/TMDSDOCK28335/OS2/app.c",line 753,column 5,
    2856                      .dwpsn  file "C:/ti/Workspace/PLC_certificate/Examples/TI/TMDSDOCK28335/OS2/app.c",line 758,column 12
    2857 00000345       $C$L64:    
    2858                      .dwpsn  file "C:/ti/Workspace/PLC_certificate/Examples/TI/TMDSDOCK28335/OS2/app.c",line 760,column 9,
    2859 00000345 761F!         MOVW      DP,#_OSTime           ; [CPU_ARAU] 
         00000346 0000 
    2860 00000347 0600!         MOVL      ACC,@_OSTime          ; [CPU_ALU] |760| 
    2861 00000348 1E44          MOVL      *-SP[4],ACC           ; [CPU_ALU] |760| 
    2862                      .dwpsn  file "C:/ti/Workspace/PLC_certificate/Examples/TI/TMDSDOCK28335/OS2/app.c",line 761,column 9,
    2863 00000349 761F-         MOVW      DP,#_TaskID           ; [CPU_ARAU] 
         0000034a 0000 
    2864 0000034b 56BF-         MOVB      @_TaskID,#30,UNC      ; [CPU_ALU] |761| 
         0000034c 1E10 
    2865                      .dwpsn  file "C:/ti/Workspace/PLC_certificate/Examples/TI/TMDSDOCK28335/OS2/app.c",line 762,column 16
    2866 0000034d       $C$L65:    
    2867                      .dwpsn  file "C:/ti/Workspace/PLC_certificate/Examples/TI/TMDSDOCK28335/OS2/app.c",line 764,column 13
    2868 0000034d 761F!         MOVW      DP,#_OSTime           ; [CPU_ARAU] 
         0000034e 0000 
    2869 0000034f 0600!         MOVL      ACC,@_OSTime          ; [CPU_ALU] |764| 
    2870 00000350 0344          SUBL      ACC,*-SP[4]           ; [CPU_ALU] |764| 
    2871 00000351 1E46          MOVL      *-SP[6],ACC           ; [CPU_ALU] |764| 
    2872                      .dwpsn  file "C:/ti/Workspace/PLC_certificate/Examples/TI/TMDSDOCK28335/OS2/app.c",line 766,column 13
    2873 00000352 761F-         MOVW      DP,#_Diagnosis_ExTime ; [CPU_ARAU] 
         00000353 0000 
    2874 00000354 0E0D-         MOVU      ACC,@_Diagnosis_ExTime ; [CPU_ALU] |766| 
TMS320C2000 Assembler PC v20.2.1 Wed Feb 17 17:05:46 2021

Copyright (c) 1996-2018 Texas Instruments Incorporated
app.asm                                                              PAGE   57

    2875 00000355 0F46          CMPL      ACC,*-SP[6]           ; [CPU_ALU] |766| 
    2876 00000356 690A          B         $C$L67,LOS            ; [CPU_ALU] |766| 
    2877                      ; branchcc occurs ; [] |766| 
    2878                      .dwpsn  file "C:/ti/Workspace/PLC_certificate/Examples/TI/TMDSDOCK28335/OS2/app.c",line 767,column 17
    2879                      .dwpsn  file "C:/ti/Workspace/PLC_certificate/Examples/TI/TMDSDOCK28335/OS2/app.c",line 770,column 22
    2880 00000357 2B47          MOV       *-SP[7],#0            ; [CPU_ALU] |770| 
    2881                      .dwpsn  file "C:/ti/Workspace/PLC_certificate/Examples/TI/TMDSDOCK28335/OS2/app.c",line 770,column 29
    2882 00000358 9247          MOV       AL,*-SP[7]            ; [CPU_ALU] |770| 
    2883 00000359 5201          CMPB      AL,#1                 ; [CPU_ALU] |770| 
    2884 0000035a 66F3          B         $C$L65,HI             ; [CPU_ALU] |770| 
    2885                      ; branchcc occurs ; [] |770| 
    2886 0000035b       $C$L66:    
    2887                      .dwpsn  file "C:/ti/Workspace/PLC_certificate/Examples/TI/TMDSDOCK28335/OS2/app.c",line 770,column 37
    2888 0000035b 0A47          INC       *-SP[7]               ; [CPU_ALU] |770| 
    2889                      .dwpsn  file "C:/ti/Workspace/PLC_certificate/Examples/TI/TMDSDOCK28335/OS2/app.c",line 770,column 29
    2890 0000035c 9247          MOV       AL,*-SP[7]            ; [CPU_ALU] |770| 
    2891 0000035d 5201          CMPB      AL,#1                 ; [CPU_ALU] |770| 
    2892 0000035e 69FD          B         $C$L66,LOS            ; [CPU_ALU] |770| 
    2893                      ; branchcc occurs ; [] |770| 
    2894                      .dwpsn  file "C:/ti/Workspace/PLC_certificate/Examples/TI/TMDSDOCK28335/OS2/app.c",line 762,column 16
    2895 0000035f 6FEE          B         $C$L65,UNC            ; [CPU_ALU] |762| 
    2896                      ; branch occurs ; [] |762| 
    2897 00000360       $C$L67:    
    2898                      .dwpsn  file "C:/ti/Workspace/PLC_certificate/Examples/TI/TMDSDOCK28335/OS2/app.c",line 773,column 9,
    2899 00000360 9A0A          MOVB      AL,#10                ; [CPU_ALU] |773| 
    2900 00000361 D400          MOVB      XAR4,#0               ; [CPU_ALU] |773| 
    2901 00000362 9E0D-         SUB       AL,@_Diagnosis_ExTime ; [CPU_ALU] |773| 
    2902 00000363 5DA9          MOVZ      AR5,AL                ; [CPU_ALU] |773| 
    2903 00000364 FF20          MOV       ACC,#0                ; [CPU_ALU] |773| 
         00000365 0000 
    2904              $C$DW$188       .dwtag  DW_TAG_TI_branch
    2905                      .dwattr $C$DW$188, DW_AT_low_pc(0x00)
    2906                      .dwattr $C$DW$188, DW_AT_name("_OSTimeDlyHMSM")
    2907                      .dwattr $C$DW$188, DW_AT_TI_call
    2908              
    2909 00000366 7640!         LCR       #_OSTimeDlyHMSM       ; [CPU_ALU] |773| 
         00000367 0000 
    2910                      ; call occurs [#_OSTimeDlyHMSM] ; [] |773| 
    2911                      .dwpsn  file "C:/ti/Workspace/PLC_certificate/Examples/TI/TMDSDOCK28335/OS2/app.c",line 758,column 12
    2912 00000368 6FDD          B         $C$L64,UNC            ; [CPU_ALU] |758| 
    2913                      ; branch occurs ; [] |758| 
    2914                      .dwattr $C$DW$182, DW_AT_TI_end_file("C:/ti/Workspace/PLC_certificate/Examples/TI/TMDSDOCK28335/OS2/a
    2915                      .dwattr $C$DW$182, DW_AT_TI_end_line(0x307)
    2916                      .dwattr $C$DW$182, DW_AT_TI_end_column(0x01)
    2917                      .dwendentry
    2918                      .dwendtag $C$DW$182
    2919              
    2920 00000369               .sect   ".text"
    2921                      .clink
    2922              
    2923              $C$DW$189       .dwtag  DW_TAG_subprogram
    2924                      .dwattr $C$DW$189, DW_AT_name("Data_Sync")
    2925                      .dwattr $C$DW$189, DW_AT_low_pc(_Data_Sync)
    2926                      .dwattr $C$DW$189, DW_AT_high_pc(0x00)
    2927                      .dwattr $C$DW$189, DW_AT_TI_symbol_name("_Data_Sync")
TMS320C2000 Assembler PC v20.2.1 Wed Feb 17 17:05:46 2021

Copyright (c) 1996-2018 Texas Instruments Incorporated
app.asm                                                              PAGE   58

    2928                      .dwattr $C$DW$189, DW_AT_TI_begin_file("C:/ti/Workspace/PLC_certificate/Examples/TI/TMDSDOCK28335/OS2
    2929                      .dwattr $C$DW$189, DW_AT_TI_begin_line(0x309)
    2930                      .dwattr $C$DW$189, DW_AT_TI_begin_column(0x0d)
    2931                      .dwattr $C$DW$189, DW_AT_TI_max_frame_size(-10)
    2932                      .dwpsn  file "C:/ti/Workspace/PLC_certificate/Examples/TI/TMDSDOCK28335/OS2/app.c",line 778,column 1,
    2933              
    2934                      .dwfde $C$DW$CIE, _Data_Sync
    2935              $C$DW$190       .dwtag  DW_TAG_formal_parameter
    2936                      .dwattr $C$DW$190, DW_AT_name("p_arg")
    2937                      .dwattr $C$DW$190, DW_AT_TI_symbol_name("_p_arg")
    2938                      .dwattr $C$DW$190, DW_AT_type(*$C$DW$T$3)
    2939                      .dwattr $C$DW$190, DW_AT_location[DW_OP_reg12]
    2940              
    2941              
    2942              ;***************************************************************
    2943              ;* FNAME: _Data_Sync                    FR SIZE:   8           *
    2944              ;*                                                             *
    2945              ;* FUNCTION ENVIRONMENT                                        *
    2946              ;*                                                             *
    2947              ;* FUNCTION PROPERTIES                                         *
    2948              ;*                            0 Parameter,  7 Auto,  0 SOE     *
    2949              ;***************************************************************
    2950              
    2951 00000369       _Data_Sync:
    2952                      .dwcfi  cfa_offset, -2
    2953                      .dwcfi  save_reg_to_mem, 26, 0
    2954 00000369 FE08          ADDB      SP,#8                 ; [CPU_ARAU] 
    2955                      .dwcfi  cfa_offset, -10
    2956              $C$DW$191       .dwtag  DW_TAG_variable
    2957                      .dwattr $C$DW$191, DW_AT_name("p_arg")
    2958                      .dwattr $C$DW$191, DW_AT_TI_symbol_name("_p_arg")
    2959                      .dwattr $C$DW$191, DW_AT_type(*$C$DW$T$3)
    2960                      .dwattr $C$DW$191, DW_AT_location[DW_OP_breg20 -2]
    2961              
    2962              $C$DW$192       .dwtag  DW_TAG_variable
    2963                      .dwattr $C$DW$192, DW_AT_name("Start_Time")
    2964                      .dwattr $C$DW$192, DW_AT_TI_symbol_name("_Start_Time")
    2965                      .dwattr $C$DW$192, DW_AT_type(*$C$DW$T$65)
    2966                      .dwattr $C$DW$192, DW_AT_location[DW_OP_breg20 -4]
    2967              
    2968              $C$DW$193       .dwtag  DW_TAG_variable
    2969                      .dwattr $C$DW$193, DW_AT_name("Execute_Time")
    2970                      .dwattr $C$DW$193, DW_AT_TI_symbol_name("_Execute_Time")
    2971                      .dwattr $C$DW$193, DW_AT_type(*$C$DW$T$65)
    2972                      .dwattr $C$DW$193, DW_AT_location[DW_OP_breg20 -6]
    2973              
    2974              $C$DW$194       .dwtag  DW_TAG_variable
    2975                      .dwattr $C$DW$194, DW_AT_name("i")
    2976                      .dwattr $C$DW$194, DW_AT_TI_symbol_name("_i")
    2977                      .dwattr $C$DW$194, DW_AT_type(*$C$DW$T$25)
    2978                      .dwattr $C$DW$194, DW_AT_location[DW_OP_breg20 -7]
    2979              
    2980 0000036a A842          MOVL      *-SP[2],XAR4          ; [CPU_ALU] |778| 
    2981                      .dwpsn  file "C:/ti/Workspace/PLC_certificate/Examples/TI/TMDSDOCK28335/OS2/app.c",line 779,column 5,
    2982                      .dwpsn  file "C:/ti/Workspace/PLC_certificate/Examples/TI/TMDSDOCK28335/OS2/app.c",line 784,column 12
TMS320C2000 Assembler PC v20.2.1 Wed Feb 17 17:05:46 2021

Copyright (c) 1996-2018 Texas Instruments Incorporated
app.asm                                                              PAGE   59

    2983 0000036b       $C$L68:    
    2984                      .dwpsn  file "C:/ti/Workspace/PLC_certificate/Examples/TI/TMDSDOCK28335/OS2/app.c",line 786,column 9,
    2985 0000036b 761F!         MOVW      DP,#_OSTime           ; [CPU_ARAU] 
         0000036c 0000 
    2986 0000036d 0600!         MOVL      ACC,@_OSTime          ; [CPU_ALU] |786| 
    2987 0000036e 1E44          MOVL      *-SP[4],ACC           ; [CPU_ALU] |786| 
    2988                      .dwpsn  file "C:/ti/Workspace/PLC_certificate/Examples/TI/TMDSDOCK28335/OS2/app.c",line 787,column 9,
    2989 0000036f 761F-         MOVW      DP,#_TaskID           ; [CPU_ARAU] 
         00000370 0000 
    2990 00000371 56BF-         MOVB      @_TaskID,#61,UNC      ; [CPU_ALU] |787| 
         00000372 3D10 
    2991                      .dwpsn  file "C:/ti/Workspace/PLC_certificate/Examples/TI/TMDSDOCK28335/OS2/app.c",line 788,column 16
    2992 00000373       $C$L69:    
    2993                      .dwpsn  file "C:/ti/Workspace/PLC_certificate/Examples/TI/TMDSDOCK28335/OS2/app.c",line 790,column 13
    2994 00000373 761F!         MOVW      DP,#_OSTime           ; [CPU_ARAU] 
         00000374 0000 
    2995 00000375 0600!         MOVL      ACC,@_OSTime          ; [CPU_ALU] |790| 
    2996 00000376 0344          SUBL      ACC,*-SP[4]           ; [CPU_ALU] |790| 
    2997 00000377 1E46          MOVL      *-SP[6],ACC           ; [CPU_ALU] |790| 
    2998                      .dwpsn  file "C:/ti/Workspace/PLC_certificate/Examples/TI/TMDSDOCK28335/OS2/app.c",line 792,column 13
    2999 00000378 761F-         MOVW      DP,#_Data_Sync_ExTime ; [CPU_ARAU] 
         00000379 0000 
    3000 0000037a 0E0E-         MOVU      ACC,@_Data_Sync_ExTime ; [CPU_ALU] |792| 
    3001 0000037b 0F46          CMPL      ACC,*-SP[6]           ; [CPU_ALU] |792| 
    3002 0000037c 690A          B         $C$L71,LOS            ; [CPU_ALU] |792| 
    3003                      ; branchcc occurs ; [] |792| 
    3004                      .dwpsn  file "C:/ti/Workspace/PLC_certificate/Examples/TI/TMDSDOCK28335/OS2/app.c",line 793,column 17
    3005                      .dwpsn  file "C:/ti/Workspace/PLC_certificate/Examples/TI/TMDSDOCK28335/OS2/app.c",line 796,column 22
    3006 0000037d 2B47          MOV       *-SP[7],#0            ; [CPU_ALU] |796| 
    3007                      .dwpsn  file "C:/ti/Workspace/PLC_certificate/Examples/TI/TMDSDOCK28335/OS2/app.c",line 796,column 29
    3008 0000037e 9247          MOV       AL,*-SP[7]            ; [CPU_ALU] |796| 
    3009 0000037f 5201          CMPB      AL,#1                 ; [CPU_ALU] |796| 
    3010 00000380 66F3          B         $C$L69,HI             ; [CPU_ALU] |796| 
    3011                      ; branchcc occurs ; [] |796| 
    3012 00000381       $C$L70:    
    3013                      .dwpsn  file "C:/ti/Workspace/PLC_certificate/Examples/TI/TMDSDOCK28335/OS2/app.c",line 796,column 37
    3014 00000381 0A47          INC       *-SP[7]               ; [CPU_ALU] |796| 
    3015                      .dwpsn  file "C:/ti/Workspace/PLC_certificate/Examples/TI/TMDSDOCK28335/OS2/app.c",line 796,column 29
    3016 00000382 9247          MOV       AL,*-SP[7]            ; [CPU_ALU] |796| 
    3017 00000383 5201          CMPB      AL,#1                 ; [CPU_ALU] |796| 
    3018 00000384 69FD          B         $C$L70,LOS            ; [CPU_ALU] |796| 
    3019                      ; branchcc occurs ; [] |796| 
    3020                      .dwpsn  file "C:/ti/Workspace/PLC_certificate/Examples/TI/TMDSDOCK28335/OS2/app.c",line 788,column 16
    3021 00000385 6FEE          B         $C$L69,UNC            ; [CPU_ALU] |788| 
    3022                      ; branch occurs ; [] |788| 
    3023 00000386       $C$L71:    
    3024                      .dwpsn  file "C:/ti/Workspace/PLC_certificate/Examples/TI/TMDSDOCK28335/OS2/app.c",line 799,column 9,
    3025 00000386 28A9          MOV       AL,#1000              ; [CPU_ALU] |799| 
         00000387 03E8 
    3026 00000388 D400          MOVB      XAR4,#0               ; [CPU_ALU] |799| 
    3027 00000389 9E0E-         SUB       AL,@_Data_Sync_ExTime ; [CPU_ALU] |799| 
    3028 0000038a 5DA9          MOVZ      AR5,AL                ; [CPU_ALU] |799| 
    3029 0000038b FF20          MOV       ACC,#0                ; [CPU_ALU] |799| 
         0000038c 0000 
    3030              $C$DW$195       .dwtag  DW_TAG_TI_branch
TMS320C2000 Assembler PC v20.2.1 Wed Feb 17 17:05:46 2021

Copyright (c) 1996-2018 Texas Instruments Incorporated
app.asm                                                              PAGE   60

    3031                      .dwattr $C$DW$195, DW_AT_low_pc(0x00)
    3032                      .dwattr $C$DW$195, DW_AT_name("_OSTimeDlyHMSM")
    3033                      .dwattr $C$DW$195, DW_AT_TI_call
    3034              
    3035 0000038d 7640!         LCR       #_OSTimeDlyHMSM       ; [CPU_ALU] |799| 
         0000038e 0000 
    3036                      ; call occurs [#_OSTimeDlyHMSM] ; [] |799| 
    3037                      .dwpsn  file "C:/ti/Workspace/PLC_certificate/Examples/TI/TMDSDOCK28335/OS2/app.c",line 784,column 12
    3038 0000038f 6FDC          B         $C$L68,UNC            ; [CPU_ALU] |784| 
    3039                      ; branch occurs ; [] |784| 
    3040                      .dwattr $C$DW$189, DW_AT_TI_end_file("C:/ti/Workspace/PLC_certificate/Examples/TI/TMDSDOCK28335/OS2/a
    3041                      .dwattr $C$DW$189, DW_AT_TI_end_line(0x321)
    3042                      .dwattr $C$DW$189, DW_AT_TI_end_column(0x01)
    3043                      .dwendentry
    3044                      .dwendtag $C$DW$189
    3045              
    3046              ;**************************************************************
    3047              ;* UNDEFINED EXTERNAL REFERENCES                              *
    3048              ;**************************************************************
    3049                      .global _CPU_Init
    3050                      .global _BSP_Init
    3051                      .global _OSInit
    3052                      .global _OSStart
    3053                      .global _BSP_LED_Off
    3054                      .global _BSP_Tick_Init
    3055                      .global _OSStatInit
    3056                      .global _SHA1_Init
    3057                      .global _SHA1_Update
    3058                      .global _SHA1_Final
    3059                      .global _aes_enc_dec
    3060                      .global _prng_seed_bytes
    3061                      .global _OSTaskCreateExt
    3062                      .global _OSTimeDlyHMSM
    3063                      .global _OSTaskDel
    3064                      .global _prng_get_octet
    3065                      .global _OSTime
    3066                      .global _OSSemCreate
    3067                      .global _memset
    3068                      .global _scirxBuf
    3069              
    3070              ;***************************************************************
    3071              ;* TYPE INFORMATION                                            *
    3072              ;***************************************************************
    3073              
    3074              $C$DW$T$24      .dwtag  DW_TAG_structure_type
    3075                      .dwattr $C$DW$T$24, DW_AT_byte_size(0x50)
    3076              $C$DW$196       .dwtag  DW_TAG_member
    3077                      .dwattr $C$DW$196, DW_AT_type(*$C$DW$T$20)
    3078                      .dwattr $C$DW$196, DW_AT_name("Intermediate_Hash")
    3079                      .dwattr $C$DW$196, DW_AT_TI_symbol_name("_Intermediate_Hash")
    3080                      .dwattr $C$DW$196, DW_AT_data_member_location[DW_OP_plus_uconst 0x0]
    3081                      .dwattr $C$DW$196, DW_AT_accessibility(DW_ACCESS_public)
    3082              
    3083              $C$DW$197       .dwtag  DW_TAG_member
    3084                      .dwattr $C$DW$197, DW_AT_type(*$C$DW$T$19)
TMS320C2000 Assembler PC v20.2.1 Wed Feb 17 17:05:46 2021

Copyright (c) 1996-2018 Texas Instruments Incorporated
app.asm                                                              PAGE   61

    3085                      .dwattr $C$DW$197, DW_AT_name("Length_Low")
    3086                      .dwattr $C$DW$197, DW_AT_TI_symbol_name("_Length_Low")
    3087                      .dwattr $C$DW$197, DW_AT_data_member_location[DW_OP_plus_uconst 0xa]
    3088                      .dwattr $C$DW$197, DW_AT_accessibility(DW_ACCESS_public)
    3089              
    3090              $C$DW$198       .dwtag  DW_TAG_member
    3091                      .dwattr $C$DW$198, DW_AT_type(*$C$DW$T$19)
    3092                      .dwattr $C$DW$198, DW_AT_name("Length_High")
    3093                      .dwattr $C$DW$198, DW_AT_TI_symbol_name("_Length_High")
    3094                      .dwattr $C$DW$198, DW_AT_data_member_location[DW_OP_plus_uconst 0xc]
    3095                      .dwattr $C$DW$198, DW_AT_accessibility(DW_ACCESS_public)
    3096              
    3097              $C$DW$199       .dwtag  DW_TAG_member
    3098                      .dwattr $C$DW$199, DW_AT_type(*$C$DW$T$21)
    3099                      .dwattr $C$DW$199, DW_AT_name("Message_Block_Index")
    3100                      .dwattr $C$DW$199, DW_AT_TI_symbol_name("_Message_Block_Index")
    3101                      .dwattr $C$DW$199, DW_AT_data_member_location[DW_OP_plus_uconst 0xe]
    3102                      .dwattr $C$DW$199, DW_AT_accessibility(DW_ACCESS_public)
    3103              
    3104              $C$DW$200       .dwtag  DW_TAG_member
    3105                      .dwattr $C$DW$200, DW_AT_type(*$C$DW$T$23)
    3106                      .dwattr $C$DW$200, DW_AT_name("Message_Block")
    3107                      .dwattr $C$DW$200, DW_AT_TI_symbol_name("_Message_Block")
    3108                      .dwattr $C$DW$200, DW_AT_data_member_location[DW_OP_plus_uconst 0xf]
    3109                      .dwattr $C$DW$200, DW_AT_accessibility(DW_ACCESS_public)
    3110              
    3111                      .dwendtag $C$DW$T$24
    3112              
    3113              $C$DW$T$31      .dwtag  DW_TAG_typedef
    3114                      .dwattr $C$DW$T$31, DW_AT_name("SHA1_CTX")
    3115                      .dwattr $C$DW$T$31, DW_AT_type(*$C$DW$T$24)
    3116                      .dwattr $C$DW$T$31, DW_AT_language(DW_LANG_C)
    3117              
    3118              $C$DW$T$32      .dwtag  DW_TAG_pointer_type
    3119                      .dwattr $C$DW$T$32, DW_AT_type(*$C$DW$T$31)
    3120                      .dwattr $C$DW$T$32, DW_AT_address_class(0x20)
    3121              
    3122              $C$DW$T$2       .dwtag  DW_TAG_unspecified_type
    3123                      .dwattr $C$DW$T$2, DW_AT_name("void")
    3124              
    3125              $C$DW$T$3       .dwtag  DW_TAG_pointer_type
    3126                      .dwattr $C$DW$T$3, DW_AT_type(*$C$DW$T$2)
    3127                      .dwattr $C$DW$T$3, DW_AT_address_class(0x20)
    3128              
    3129              
    3130              $C$DW$T$36      .dwtag  DW_TAG_subroutine_type
    3131                      .dwattr $C$DW$T$36, DW_AT_language(DW_LANG_C)
    3132              $C$DW$201       .dwtag  DW_TAG_formal_parameter
    3133                      .dwattr $C$DW$201, DW_AT_type(*$C$DW$T$3)
    3134              
    3135                      .dwendtag $C$DW$T$36
    3136              
    3137              $C$DW$T$37      .dwtag  DW_TAG_pointer_type
    3138                      .dwattr $C$DW$T$37, DW_AT_type(*$C$DW$T$36)
    3139                      .dwattr $C$DW$T$37, DW_AT_address_class(0x20)
TMS320C2000 Assembler PC v20.2.1 Wed Feb 17 17:05:46 2021

Copyright (c) 1996-2018 Texas Instruments Incorporated
app.asm                                                              PAGE   62

    3140              
    3141              $C$DW$202       .dwtag  DW_TAG_TI_far_type
    3142                      .dwattr $C$DW$202, DW_AT_type(*$C$DW$T$2)
    3143              
    3144              $C$DW$T$56      .dwtag  DW_TAG_const_type
    3145                      .dwattr $C$DW$T$56, DW_AT_type(*$C$DW$202)
    3146              
    3147              $C$DW$T$57      .dwtag  DW_TAG_pointer_type
    3148                      .dwattr $C$DW$T$57, DW_AT_type(*$C$DW$T$56)
    3149                      .dwattr $C$DW$T$57, DW_AT_address_class(0x20)
    3150              
    3151              $C$DW$T$4       .dwtag  DW_TAG_base_type
    3152                      .dwattr $C$DW$T$4, DW_AT_encoding(DW_ATE_boolean)
    3153                      .dwattr $C$DW$T$4, DW_AT_name("bool")
    3154                      .dwattr $C$DW$T$4, DW_AT_byte_size(0x01)
    3155              
    3156              $C$DW$T$5       .dwtag  DW_TAG_base_type
    3157                      .dwattr $C$DW$T$5, DW_AT_encoding(DW_ATE_signed_char)
    3158                      .dwattr $C$DW$T$5, DW_AT_name("signed char")
    3159                      .dwattr $C$DW$T$5, DW_AT_byte_size(0x01)
    3160              
    3161              $C$DW$T$6       .dwtag  DW_TAG_base_type
    3162                      .dwattr $C$DW$T$6, DW_AT_encoding(DW_ATE_unsigned_char)
    3163                      .dwattr $C$DW$T$6, DW_AT_name("unsigned char")
    3164                      .dwattr $C$DW$T$6, DW_AT_byte_size(0x01)
    3165              
    3166              $C$DW$T$25      .dwtag  DW_TAG_typedef
    3167                      .dwattr $C$DW$T$25, DW_AT_name("INT8U")
    3168                      .dwattr $C$DW$T$25, DW_AT_type(*$C$DW$T$6)
    3169                      .dwattr $C$DW$T$25, DW_AT_language(DW_LANG_C)
    3170              
    3171              $C$DW$203       .dwtag  DW_TAG_TI_far_type
    3172                      .dwattr $C$DW$203, DW_AT_type(*$C$DW$T$25)
    3173              
    3174              $C$DW$T$61      .dwtag  DW_TAG_const_type
    3175                      .dwattr $C$DW$T$61, DW_AT_type(*$C$DW$203)
    3176              
    3177              
    3178              $C$DW$T$62      .dwtag  DW_TAG_array_type
    3179                      .dwattr $C$DW$T$62, DW_AT_type(*$C$DW$T$61)
    3180                      .dwattr $C$DW$T$62, DW_AT_language(DW_LANG_C)
    3181                      .dwattr $C$DW$T$62, DW_AT_byte_size(0x10)
    3182              $C$DW$204       .dwtag  DW_TAG_subrange_type
    3183                      .dwattr $C$DW$204, DW_AT_upper_bound(0x0f)
    3184              
    3185                      .dwendtag $C$DW$T$62
    3186              
    3187              $C$DW$T$27      .dwtag  DW_TAG_typedef
    3188                      .dwattr $C$DW$T$27, DW_AT_name("OS_PRIO")
    3189                      .dwattr $C$DW$T$27, DW_AT_type(*$C$DW$T$25)
    3190                      .dwattr $C$DW$T$27, DW_AT_language(DW_LANG_C)
    3191              
    3192              
    3193              $C$DW$T$28      .dwtag  DW_TAG_array_type
    3194                      .dwattr $C$DW$T$28, DW_AT_type(*$C$DW$T$27)
TMS320C2000 Assembler PC v20.2.1 Wed Feb 17 17:05:46 2021

Copyright (c) 1996-2018 Texas Instruments Incorporated
app.asm                                                              PAGE   63

    3195                      .dwattr $C$DW$T$28, DW_AT_language(DW_LANG_C)
    3196                      .dwattr $C$DW$T$28, DW_AT_byte_size(0x08)
    3197              $C$DW$205       .dwtag  DW_TAG_subrange_type
    3198                      .dwattr $C$DW$205, DW_AT_upper_bound(0x07)
    3199              
    3200                      .dwendtag $C$DW$T$28
    3201              
    3202              $C$DW$T$29      .dwtag  DW_TAG_pointer_type
    3203                      .dwattr $C$DW$T$29, DW_AT_type(*$C$DW$T$25)
    3204                      .dwattr $C$DW$T$29, DW_AT_address_class(0x20)
    3205              
    3206              
    3207              $C$DW$T$72      .dwtag  DW_TAG_array_type
    3208                      .dwattr $C$DW$T$72, DW_AT_type(*$C$DW$T$25)
    3209                      .dwattr $C$DW$T$72, DW_AT_language(DW_LANG_C)
    3210                      .dwattr $C$DW$T$72, DW_AT_byte_size(0x04)
    3211              $C$DW$206       .dwtag  DW_TAG_subrange_type
    3212                      .dwattr $C$DW$206, DW_AT_upper_bound(0x03)
    3213              
    3214                      .dwendtag $C$DW$T$72
    3215              
    3216              
    3217              $C$DW$T$73      .dwtag  DW_TAG_array_type
    3218                      .dwattr $C$DW$T$73, DW_AT_type(*$C$DW$T$25)
    3219                      .dwattr $C$DW$T$73, DW_AT_language(DW_LANG_C)
    3220                      .dwattr $C$DW$T$73, DW_AT_byte_size(0x10)
    3221              $C$DW$207       .dwtag  DW_TAG_subrange_type
    3222                      .dwattr $C$DW$207, DW_AT_upper_bound(0x0f)
    3223              
    3224                      .dwendtag $C$DW$T$73
    3225              
    3226              
    3227              $C$DW$T$75      .dwtag  DW_TAG_array_type
    3228                      .dwattr $C$DW$T$75, DW_AT_type(*$C$DW$T$25)
    3229                      .dwattr $C$DW$T$75, DW_AT_language(DW_LANG_C)
    3230                      .dwattr $C$DW$T$75, DW_AT_byte_size(0x02)
    3231              $C$DW$208       .dwtag  DW_TAG_subrange_type
    3232                      .dwattr $C$DW$208, DW_AT_upper_bound(0x01)
    3233              
    3234                      .dwendtag $C$DW$T$75
    3235              
    3236              
    3237              $C$DW$T$76      .dwtag  DW_TAG_array_type
    3238                      .dwattr $C$DW$T$76, DW_AT_type(*$C$DW$T$25)
    3239                      .dwattr $C$DW$T$76, DW_AT_language(DW_LANG_C)
    3240                      .dwattr $C$DW$T$76, DW_AT_byte_size(0x06)
    3241              $C$DW$209       .dwtag  DW_TAG_subrange_type
    3242                      .dwattr $C$DW$209, DW_AT_upper_bound(0x05)
    3243              
    3244                      .dwendtag $C$DW$T$76
    3245              
    3246              
    3247              $C$DW$T$77      .dwtag  DW_TAG_array_type
    3248                      .dwattr $C$DW$T$77, DW_AT_type(*$C$DW$T$25)
    3249                      .dwattr $C$DW$T$77, DW_AT_language(DW_LANG_C)
TMS320C2000 Assembler PC v20.2.1 Wed Feb 17 17:05:46 2021

Copyright (c) 1996-2018 Texas Instruments Incorporated
app.asm                                                              PAGE   64

    3250                      .dwattr $C$DW$T$77, DW_AT_byte_size(0x05)
    3251              $C$DW$210       .dwtag  DW_TAG_subrange_type
    3252                      .dwattr $C$DW$210, DW_AT_upper_bound(0x04)
    3253              
    3254                      .dwendtag $C$DW$T$77
    3255              
    3256              
    3257              $C$DW$T$78      .dwtag  DW_TAG_array_type
    3258                      .dwattr $C$DW$T$78, DW_AT_type(*$C$DW$T$25)
    3259                      .dwattr $C$DW$T$78, DW_AT_language(DW_LANG_C)
    3260                      .dwattr $C$DW$T$78, DW_AT_byte_size(0x14)
