TMS320C2000 Assembler PC v18.12.1 Mon Mar  4 16:44:22 2019

Copyright (c) 1996-2018 Texas Instruments Incorporated
queue.asm                                                            PAGE    1

       1              ;***************************************************************
       2              ;* TMS320C2000 G3 C/C++ Codegen                             PC v18.12.1.LTS *
       3              ;* Date/Time created: Mon Mar  4 16:44:22 2019                 *
       4              ;***************************************************************
       5                      .compiler_opts --abi=coffabi --diag_wrap=off --float_support=fpu32 --hll_source=on --mem_model:code=f
       6                      .asg    XAR2, FP
       7              
       8              $C$DW$CU        .dwtag  DW_TAG_compile_unit
       9                      .dwattr $C$DW$CU, DW_AT_name("C:/Users/hbryu/Desktop/test/Micrium/Examples/TI/TMDSDOCK28335/OS2/queue
      10                      .dwattr $C$DW$CU, DW_AT_producer("TI TMS320C2000 G3 C/C++ Codegen PC v18.12.1.LTS Copyright (c) 1996-
      11                      .dwattr $C$DW$CU, DW_AT_TI_version(0x01)
      12                      .dwattr $C$DW$CU, DW_AT_comp_dir("C:\Users\hbryu\Desktop\test\Micrium\Examples\TI\TMDSDOCK28335\OS2\C
      13                      .global _front
      14 00000000       _front: .usect  ".ebss",1,1,0
      15              $C$DW$1 .dwtag  DW_TAG_variable
      16                      .dwattr $C$DW$1, DW_AT_name("front")
      17                      .dwattr $C$DW$1, DW_AT_TI_symbol_name("_front")
      18                      .dwattr $C$DW$1, DW_AT_location[DW_OP_addr _front]
      19                      .dwattr $C$DW$1, DW_AT_type(*$C$DW$T$10)
      20                      .dwattr $C$DW$1, DW_AT_external
      21              
      22                      .global _rear
      23 00000001       _rear:  .usect  ".ebss",1,1,0
      24              $C$DW$2 .dwtag  DW_TAG_variable
      25                      .dwattr $C$DW$2, DW_AT_name("rear")
      26                      .dwattr $C$DW$2, DW_AT_TI_symbol_name("_rear")
      27                      .dwattr $C$DW$2, DW_AT_location[DW_OP_addr _rear]
      28                      .dwattr $C$DW$2, DW_AT_type(*$C$DW$T$10)
      29                      .dwattr $C$DW$2, DW_AT_external
      30              
      31                      .global _queue
      32 00000000       _queue: .usect  ".ebss:_queue",8,1,0
      33                      .clink ".ebss:_queue"
      34              $C$DW$3 .dwtag  DW_TAG_variable
      35                      .dwattr $C$DW$3, DW_AT_name("queue")
      36                      .dwattr $C$DW$3, DW_AT_TI_symbol_name("_queue")
      37                      .dwattr $C$DW$3, DW_AT_location[DW_OP_addr _queue]
      38                      .dwattr $C$DW$3, DW_AT_type(*$C$DW$T$22)
      39                      .dwattr $C$DW$3, DW_AT_external
      40              
      41                      .sblock ".ebss"
      42                      .sblock ".ebss:_queue"
      43              ;       C:\ti\ccsv6\tools\compiler\ti-cgt-c2000_18.12.1.LTS\bin\ac2000.exe -@C:\\Users\\hbryu\\AppData\\Local
      44 00000000               .sect   ".text"
      45                      .clink
      46                      .global _queue_init
      47              
      48              $C$DW$4 .dwtag  DW_TAG_subprogram
      49                      .dwattr $C$DW$4, DW_AT_name("queue_init")
      50                      .dwattr $C$DW$4, DW_AT_low_pc(_queue_init)
      51                      .dwattr $C$DW$4, DW_AT_high_pc(0x00)
      52                      .dwattr $C$DW$4, DW_AT_TI_symbol_name("_queue_init")
      53                      .dwattr $C$DW$4, DW_AT_external
      54                      .dwattr $C$DW$4, DW_AT_TI_begin_file("C:/Users/hbryu/Desktop/test/Micrium/Examples/TI/TMDSDOCK28335/O
      55                      .dwattr $C$DW$4, DW_AT_TI_begin_line(0x07)
TMS320C2000 Assembler PC v18.12.1 Mon Mar  4 16:44:22 2019

Copyright (c) 1996-2018 Texas Instruments Incorporated
queue.asm                                                            PAGE    2

      56                      .dwattr $C$DW$4, DW_AT_TI_begin_column(0x06)
      57                      .dwattr $C$DW$4, DW_AT_TI_max_frame_size(-2)
      58                      .dwpsn  file "C:/Users/hbryu/Desktop/test/Micrium/Examples/TI/TMDSDOCK28335/OS2/queue.c",line 8,colum
      59              
      60                      .dwfde $C$DW$CIE, _queue_init
      61              
      62              ;***************************************************************
      63              ;* FNAME: _queue_init                   FR SIZE:   0           *
      64              ;*                                                             *
      65              ;* FUNCTION ENVIRONMENT                                        *
      66              ;*                                                             *
      67              ;* FUNCTION PROPERTIES                                         *
      68              ;*                            0 Parameter,  0 Auto,  0 SOE     *
      69              ;***************************************************************
      70              
      71 00000000       _queue_init:
      72                      .dwcfi  cfa_offset, -2
      73                      .dwcfi  save_reg_to_mem, 26, 0
      74                      .dwpsn  file "C:/Users/hbryu/Desktop/test/Micrium/Examples/TI/TMDSDOCK28335/OS2/queue.c",line 9,colum
      75 00000000 761F-         MOVW      DP,#_front            ; [CPU_ARAU] 
         00000001 0000 
      76 00000002 2B00-         MOV       @_front,#0            ; [CPU_ALU] |9| 
      77 00000003 2B01-         MOV       @_rear,#0             ; [CPU_ALU] |9| 
      78                      .dwpsn  file "C:/Users/hbryu/Desktop/test/Micrium/Examples/TI/TMDSDOCK28335/OS2/queue.c",line 10,colu
      79              $C$DW$5 .dwtag  DW_TAG_TI_branch
      80                      .dwattr $C$DW$5, DW_AT_low_pc(0x00)
      81                      .dwattr $C$DW$5, DW_AT_TI_return
      82              
      83 00000004 0006          LRETR     ; [CPU_ALU] 
      84                      ; return occurs ; [] 
      85                      .dwattr $C$DW$4, DW_AT_TI_end_file("C:/Users/hbryu/Desktop/test/Micrium/Examples/TI/TMDSDOCK28335/OS2
      86                      .dwattr $C$DW$4, DW_AT_TI_end_line(0x0a)
      87                      .dwattr $C$DW$4, DW_AT_TI_end_column(0x01)
      88                      .dwendentry
      89                      .dwendtag $C$DW$4
      90              
      91 00000005               .sect   ".text"
      92                      .clink
      93                      .global _put
      94              
      95              $C$DW$6 .dwtag  DW_TAG_subprogram
      96                      .dwattr $C$DW$6, DW_AT_name("put")
      97                      .dwattr $C$DW$6, DW_AT_low_pc(_put)
      98                      .dwattr $C$DW$6, DW_AT_high_pc(0x00)
      99                      .dwattr $C$DW$6, DW_AT_TI_symbol_name("_put")
     100                      .dwattr $C$DW$6, DW_AT_external
     101                      .dwattr $C$DW$6, DW_AT_TI_begin_file("C:/Users/hbryu/Desktop/test/Micrium/Examples/TI/TMDSDOCK28335/O
     102                      .dwattr $C$DW$6, DW_AT_TI_begin_line(0x0c)
     103                      .dwattr $C$DW$6, DW_AT_TI_begin_column(0x06)
     104                      .dwattr $C$DW$6, DW_AT_TI_max_frame_size(-4)
     105                      .dwpsn  file "C:/Users/hbryu/Desktop/test/Micrium/Examples/TI/TMDSDOCK28335/OS2/queue.c",line 13,colu
     106              
     107                      .dwfde $C$DW$CIE, _put
     108              $C$DW$7 .dwtag  DW_TAG_formal_parameter
     109                      .dwattr $C$DW$7, DW_AT_name("data")
TMS320C2000 Assembler PC v18.12.1 Mon Mar  4 16:44:22 2019

Copyright (c) 1996-2018 Texas Instruments Incorporated
queue.asm                                                            PAGE    3

     110                      .dwattr $C$DW$7, DW_AT_TI_symbol_name("_data")
     111                      .dwattr $C$DW$7, DW_AT_type(*$C$DW$T$10)
     112                      .dwattr $C$DW$7, DW_AT_location[DW_OP_reg0]
     113              
     114              
     115              ;***************************************************************
     116              ;* FNAME: _put                          FR SIZE:   2           *
     117              ;*                                                             *
     118              ;* FUNCTION ENVIRONMENT                                        *
     119              ;*                                                             *
     120              ;* FUNCTION PROPERTIES                                         *
     121              ;*                            0 Parameter,  1 Auto,  0 SOE     *
     122              ;***************************************************************
     123              
     124 00000005       _put:
     125                      .dwcfi  cfa_offset, -2
     126                      .dwcfi  save_reg_to_mem, 26, 0
     127 00000005 FE02          ADDB      SP,#2                 ; [CPU_ARAU] 
     128                      .dwcfi  cfa_offset, -4
     129              $C$DW$8 .dwtag  DW_TAG_variable
     130                      .dwattr $C$DW$8, DW_AT_name("data")
     131                      .dwattr $C$DW$8, DW_AT_TI_symbol_name("_data")
     132                      .dwattr $C$DW$8, DW_AT_type(*$C$DW$T$10)
     133                      .dwattr $C$DW$8, DW_AT_location[DW_OP_breg20 -1]
     134              
     135 00000006 9641          MOV       *-SP[1],AL            ; [CPU_ALU] |13| 
     136                      .dwpsn  file "C:/Users/hbryu/Desktop/test/Micrium/Examples/TI/TMDSDOCK28335/OS2/queue.c",line 14,colu
     137 00000007 8F00-         MOVL      XAR4,#_queue          ; [CPU_ARAU] |14| 
         00000008 0000 
     138 00000009 3B01          SETC      SXM                   ; [CPU_ALU] 
     139 0000000a 761F-         MOVW      DP,#_rear             ; [CPU_ARAU] 
         0000000b 0000 
     140 0000000c A8A9          MOVL      ACC,XAR4              ; [CPU_ALU] |14| 
     141 0000000d 8101-         ADD       ACC,@_rear            ; [CPU_ALU] |14| 
     142 0000000e 1EA7          MOVL      XAR7,ACC              ; [CPU_ALU] |14| 
     143 0000000f 9241          MOV       AL,*-SP[1]            ; [CPU_ALU] |14| 
     144 00000010 96C7          MOV       *+XAR7[0],AL          ; [CPU_ALU] |14| 
     145                      .dwpsn  file "C:/Users/hbryu/Desktop/test/Micrium/Examples/TI/TMDSDOCK28335/OS2/queue.c",line 15,colu
     146 00000011 9201-         MOV       AL,@_rear             ; [CPU_ALU] |15| 
     147 00000012 9B08          MOVB      AH,#8                 ; [CPU_ALU] |15| 
     148 00000013 9C01          ADDB      AL,#1                 ; [CPU_ALU] |15| 
     149              $C$DW$9 .dwtag  DW_TAG_TI_branch
     150                      .dwattr $C$DW$9, DW_AT_low_pc(0x00)
     151                      .dwattr $C$DW$9, DW_AT_name("I$$MOD")
     152                      .dwattr $C$DW$9, DW_AT_TI_call
     153              
     154 00000014 00C0!         FFC       XAR7,#I$$MOD          ; [CPU_ALU] |15| 
         00000015 0000 
     155                      ; call occurs [#I$$MOD] ; [] |15| 
     156 00000016 9601-         MOV       @_rear,AL             ; [CPU_ALU] |15| 
     157                      .dwpsn  file "C:/Users/hbryu/Desktop/test/Micrium/Examples/TI/TMDSDOCK28335/OS2/queue.c",line 16,colu
     158 00000017 FE82          SUBB      SP,#2                 ; [CPU_ARAU] 
     159                      .dwcfi  cfa_offset, -2
     160              $C$DW$10        .dwtag  DW_TAG_TI_branch
     161                      .dwattr $C$DW$10, DW_AT_low_pc(0x00)
TMS320C2000 Assembler PC v18.12.1 Mon Mar  4 16:44:22 2019

Copyright (c) 1996-2018 Texas Instruments Incorporated
queue.asm                                                            PAGE    4

     162                      .dwattr $C$DW$10, DW_AT_TI_return
     163              
     164 00000018 0006          LRETR     ; [CPU_ALU] 
     165                      ; return occurs ; [] 
     166                      .dwattr $C$DW$6, DW_AT_TI_end_file("C:/Users/hbryu/Desktop/test/Micrium/Examples/TI/TMDSDOCK28335/OS2
     167                      .dwattr $C$DW$6, DW_AT_TI_end_line(0x10)
     168                      .dwattr $C$DW$6, DW_AT_TI_end_column(0x01)
     169                      .dwendentry
     170                      .dwendtag $C$DW$6
     171              
     172 00000019               .sect   ".text"
     173                      .clink
     174                      .global _get
     175              
     176              $C$DW$11        .dwtag  DW_TAG_subprogram
     177                      .dwattr $C$DW$11, DW_AT_name("get")
     178                      .dwattr $C$DW$11, DW_AT_low_pc(_get)
     179                      .dwattr $C$DW$11, DW_AT_high_pc(0x00)
     180                      .dwattr $C$DW$11, DW_AT_TI_symbol_name("_get")
     181                      .dwattr $C$DW$11, DW_AT_external
     182                      .dwattr $C$DW$11, DW_AT_type(*$C$DW$T$10)
     183                      .dwattr $C$DW$11, DW_AT_TI_begin_file("C:/Users/hbryu/Desktop/test/Micrium/Examples/TI/TMDSDOCK28335/
     184                      .dwattr $C$DW$11, DW_AT_TI_begin_line(0x12)
     185                      .dwattr $C$DW$11, DW_AT_TI_begin_column(0x05)
     186                      .dwattr $C$DW$11, DW_AT_TI_max_frame_size(-4)
     187                      .dwpsn  file "C:/Users/hbryu/Desktop/test/Micrium/Examples/TI/TMDSDOCK28335/OS2/queue.c",line 19,colu
     188              
     189                      .dwfde $C$DW$CIE, _get
     190              
     191              ;***************************************************************
     192              ;* FNAME: _get                          FR SIZE:   2           *
     193              ;*                                                             *
     194              ;* FUNCTION ENVIRONMENT                                        *
     195              ;*                                                             *
     196              ;* FUNCTION PROPERTIES                                         *
     197              ;*                            0 Parameter,  1 Auto,  0 SOE     *
     198              ;***************************************************************
     199              
     200 00000019       _get:
     201                      .dwcfi  cfa_offset, -2
     202                      .dwcfi  save_reg_to_mem, 26, 0
     203 00000019 FE02          ADDB      SP,#2                 ; [CPU_ARAU] 
     204                      .dwcfi  cfa_offset, -4
     205              $C$DW$12        .dwtag  DW_TAG_variable
     206                      .dwattr $C$DW$12, DW_AT_name("temp")
     207                      .dwattr $C$DW$12, DW_AT_TI_symbol_name("_temp")
     208                      .dwattr $C$DW$12, DW_AT_type(*$C$DW$T$10)
     209                      .dwattr $C$DW$12, DW_AT_location[DW_OP_breg20 -1]
     210              
     211                      .dwpsn  file "C:/Users/hbryu/Desktop/test/Micrium/Examples/TI/TMDSDOCK28335/OS2/queue.c",line 21,colu
     212 0000001a 8F00-         MOVL      XAR4,#_queue          ; [CPU_ARAU] |21| 
         0000001b 0000 
     213 0000001c 3B01          SETC      SXM                   ; [CPU_ALU] 
     214 0000001d 761F-         MOVW      DP,#_front            ; [CPU_ARAU] 
         0000001e 0000 
TMS320C2000 Assembler PC v18.12.1 Mon Mar  4 16:44:22 2019

Copyright (c) 1996-2018 Texas Instruments Incorporated
queue.asm                                                            PAGE    5

     215 0000001f A8A9          MOVL      ACC,XAR4              ; [CPU_ALU] |21| 
     216 00000020 8100-         ADD       ACC,@_front           ; [CPU_ALU] |21| 
     217 00000021 1EA7          MOVL      XAR7,ACC              ; [CPU_ALU] |21| 
     218 00000022 92C7          MOV       AL,*+XAR7[0]          ; [CPU_ALU] |21| 
     219 00000023 9641          MOV       *-SP[1],AL            ; [CPU_ALU] |21| 
     220                      .dwpsn  file "C:/Users/hbryu/Desktop/test/Micrium/Examples/TI/TMDSDOCK28335/OS2/queue.c",line 22,colu
     221 00000024 9200-         MOV       AL,@_front            ; [CPU_ALU] |22| 
     222 00000025 9B08          MOVB      AH,#8                 ; [CPU_ALU] |22| 
     223 00000026 9C01          ADDB      AL,#1                 ; [CPU_ALU] |22| 
     224              $C$DW$13        .dwtag  DW_TAG_TI_branch
     225                      .dwattr $C$DW$13, DW_AT_low_pc(0x00)
     226                      .dwattr $C$DW$13, DW_AT_name("I$$MOD")
     227                      .dwattr $C$DW$13, DW_AT_TI_call
     228              
     229 00000027 00C0!         FFC       XAR7,#I$$MOD          ; [CPU_ALU] |22| 
         00000028 0000 
     230                      ; call occurs [#I$$MOD] ; [] |22| 
     231 00000029 9600-         MOV       @_front,AL            ; [CPU_ALU] |22| 
     232                      .dwpsn  file "C:/Users/hbryu/Desktop/test/Micrium/Examples/TI/TMDSDOCK28335/OS2/queue.c",line 23,colu
     233 0000002a 9241          MOV       AL,*-SP[1]            ; [CPU_ALU] |23| 
     234                      .dwpsn  file "C:/Users/hbryu/Desktop/test/Micrium/Examples/TI/TMDSDOCK28335/OS2/queue.c",line 24,colu
     235 0000002b FE82          SUBB      SP,#2                 ; [CPU_ARAU] 
     236                      .dwcfi  cfa_offset, -2
     237              $C$DW$14        .dwtag  DW_TAG_TI_branch
     238                      .dwattr $C$DW$14, DW_AT_low_pc(0x00)
     239                      .dwattr $C$DW$14, DW_AT_TI_return
     240              
     241 0000002c 0006          LRETR     ; [CPU_ALU] 
     242                      ; return occurs ; [] 
     243                      .dwattr $C$DW$11, DW_AT_TI_end_file("C:/Users/hbryu/Desktop/test/Micrium/Examples/TI/TMDSDOCK28335/OS
     244                      .dwattr $C$DW$11, DW_AT_TI_end_line(0x18)
     245                      .dwattr $C$DW$11, DW_AT_TI_end_column(0x01)
     246                      .dwendentry
     247                      .dwendtag $C$DW$11
     248              
     249 0000002d               .sect   ".text"
     250                      .clink
     251                      .global _is_empty
     252              
     253              $C$DW$15        .dwtag  DW_TAG_subprogram
     254                      .dwattr $C$DW$15, DW_AT_name("is_empty")
     255                      .dwattr $C$DW$15, DW_AT_low_pc(_is_empty)
     256                      .dwattr $C$DW$15, DW_AT_high_pc(0x00)
     257                      .dwattr $C$DW$15, DW_AT_TI_symbol_name("_is_empty")
     258                      .dwattr $C$DW$15, DW_AT_external
     259                      .dwattr $C$DW$15, DW_AT_type(*$C$DW$T$10)
     260                      .dwattr $C$DW$15, DW_AT_TI_begin_file("C:/Users/hbryu/Desktop/test/Micrium/Examples/TI/TMDSDOCK28335/
     261                      .dwattr $C$DW$15, DW_AT_TI_begin_line(0x1a)
     262                      .dwattr $C$DW$15, DW_AT_TI_begin_column(0x05)
     263                      .dwattr $C$DW$15, DW_AT_TI_max_frame_size(-2)
     264                      .dwpsn  file "C:/Users/hbryu/Desktop/test/Micrium/Examples/TI/TMDSDOCK28335/OS2/queue.c",line 27,colu
     265              
     266                      .dwfde $C$DW$CIE, _is_empty
     267              
     268              ;***************************************************************
TMS320C2000 Assembler PC v18.12.1 Mon Mar  4 16:44:22 2019

Copyright (c) 1996-2018 Texas Instruments Incorporated
queue.asm                                                            PAGE    6

     269              ;* FNAME: _is_empty                     FR SIZE:   0           *
     270              ;*                                                             *
     271              ;* FUNCTION ENVIRONMENT                                        *
     272              ;*                                                             *
     273              ;* FUNCTION PROPERTIES                                         *
     274              ;*                            0 Parameter,  0 Auto,  0 SOE     *
     275              ;***************************************************************
     276              
     277 0000002d       _is_empty:
     278                      .dwcfi  cfa_offset, -2
     279                      .dwcfi  save_reg_to_mem, 26, 0
     280                      .dwpsn  file "C:/Users/hbryu/Desktop/test/Micrium/Examples/TI/TMDSDOCK28335/OS2/queue.c",line 28,colu
     281 0000002d 761F-         MOVW      DP,#_front            ; [CPU_ARAU] 
         0000002e 0000 
     282 0000002f 9A00          MOVB      AL,#0                 ; [CPU_ALU] |28| 
     283 00000030 9300-         MOV       AH,@_front            ; [CPU_ALU] |28| 
     284 00000031 5501-         CMP       AH,@_rear             ; [CPU_ALU] |28| 
     285 00000032 6002          B         $C$L1,NEQ             ; [CPU_ALU] |28| 
     286                      ; branchcc occurs ; [] |28| 
     287 00000033 9A01          MOVB      AL,#1                 ; [CPU_ALU] |28| 
     288 00000034       $C$L1:    
     289                      .dwpsn  file "C:/Users/hbryu/Desktop/test/Micrium/Examples/TI/TMDSDOCK28335/OS2/queue.c",line 29,colu
     290              $C$DW$16        .dwtag  DW_TAG_TI_branch
     291                      .dwattr $C$DW$16, DW_AT_low_pc(0x00)
     292                      .dwattr $C$DW$16, DW_AT_TI_return
     293              
     294 00000034 0006          LRETR     ; [CPU_ALU] 
     295                      ; return occurs ; [] 
     296                      .dwattr $C$DW$15, DW_AT_TI_end_file("C:/Users/hbryu/Desktop/test/Micrium/Examples/TI/TMDSDOCK28335/OS
     297                      .dwattr $C$DW$15, DW_AT_TI_end_line(0x1d)
     298                      .dwattr $C$DW$15, DW_AT_TI_end_column(0x01)
     299                      .dwendentry
     300                      .dwendtag $C$DW$15
     301              
     302 00000035               .sect   ".text"
     303                      .clink
     304                      .global _is_full
     305              
     306              $C$DW$17        .dwtag  DW_TAG_subprogram
     307                      .dwattr $C$DW$17, DW_AT_name("is_full")
     308                      .dwattr $C$DW$17, DW_AT_low_pc(_is_full)
     309                      .dwattr $C$DW$17, DW_AT_high_pc(0x00)
     310                      .dwattr $C$DW$17, DW_AT_TI_symbol_name("_is_full")
     311                      .dwattr $C$DW$17, DW_AT_external
     312                      .dwattr $C$DW$17, DW_AT_type(*$C$DW$T$10)
     313                      .dwattr $C$DW$17, DW_AT_TI_begin_file("C:/Users/hbryu/Desktop/test/Micrium/Examples/TI/TMDSDOCK28335/
     314                      .dwattr $C$DW$17, DW_AT_TI_begin_line(0x1f)
     315                      .dwattr $C$DW$17, DW_AT_TI_begin_column(0x05)
     316                      .dwattr $C$DW$17, DW_AT_TI_max_frame_size(-2)
     317                      .dwpsn  file "C:/Users/hbryu/Desktop/test/Micrium/Examples/TI/TMDSDOCK28335/OS2/queue.c",line 32,colu
     318              
     319                      .dwfde $C$DW$CIE, _is_full
     320              
     321              ;***************************************************************
     322              ;* FNAME: _is_full                      FR SIZE:   0           *
TMS320C2000 Assembler PC v18.12.1 Mon Mar  4 16:44:22 2019

Copyright (c) 1996-2018 Texas Instruments Incorporated
queue.asm                                                            PAGE    7

     323              ;*                                                             *
     324              ;* FUNCTION ENVIRONMENT                                        *
     325              ;*                                                             *
     326              ;* FUNCTION PROPERTIES                                         *
     327              ;*                            0 Parameter,  0 Auto,  0 SOE     *
     328              ;***************************************************************
     329              
     330 00000035       _is_full:
     331                      .dwcfi  cfa_offset, -2
     332                      .dwcfi  save_reg_to_mem, 26, 0
     333                      .dwpsn  file "C:/Users/hbryu/Desktop/test/Micrium/Examples/TI/TMDSDOCK28335/OS2/queue.c",line 33,colu
     334 00000035 761F-         MOVW      DP,#_rear             ; [CPU_ARAU] 
         00000036 0000 
     335 00000037 9201-         MOV       AL,@_rear             ; [CPU_ALU] |33| 
     336 00000038 9B08          MOVB      AH,#8                 ; [CPU_ALU] |33| 
     337 00000039 9C01          ADDB      AL,#1                 ; [CPU_ALU] |33| 
     338              $C$DW$18        .dwtag  DW_TAG_TI_branch
     339                      .dwattr $C$DW$18, DW_AT_low_pc(0x00)
     340                      .dwattr $C$DW$18, DW_AT_name("I$$MOD")
     341                      .dwattr $C$DW$18, DW_AT_TI_call
     342              
     343 0000003a 00C0!         FFC       XAR7,#I$$MOD          ; [CPU_ALU] |33| 
         0000003b 0000 
     344                      ; call occurs [#I$$MOD] ; [] |33| 
     345 0000003c 9B00          MOVB      AH,#0                 ; [CPU_ALU] |33| 
     346 0000003d 5400-         CMP       AL,@_front            ; [CPU_ALU] |33| 
     347 0000003e 6002          B         $C$L2,NEQ             ; [CPU_ALU] |33| 
     348                      ; branchcc occurs ; [] |33| 
     349 0000003f 9B01          MOVB      AH,#1                 ; [CPU_ALU] |33| 
     350 00000040       $C$L2:    
     351 00000040 92A8          MOV       AL,AH                 ; [CPU_ALU] |33| 
     352                      .dwpsn  file "C:/Users/hbryu/Desktop/test/Micrium/Examples/TI/TMDSDOCK28335/OS2/queue.c",line 34,colu
     353              $C$DW$19        .dwtag  DW_TAG_TI_branch
     354                      .dwattr $C$DW$19, DW_AT_low_pc(0x00)
     355                      .dwattr $C$DW$19, DW_AT_TI_return
     356              
     357 00000041 0006          LRETR     ; [CPU_ALU] 
     358                      ; return occurs ; [] 
     359                      .dwattr $C$DW$17, DW_AT_TI_end_file("C:/Users/hbryu/Desktop/test/Micrium/Examples/TI/TMDSDOCK28335/OS
     360                      .dwattr $C$DW$17, DW_AT_TI_end_line(0x22)
     361                      .dwattr $C$DW$17, DW_AT_TI_end_column(0x01)
     362                      .dwendentry
     363                      .dwendtag $C$DW$17
     364              
     365              ;**************************************************************
     366              ;* UNDEFINED EXTERNAL REFERENCES                              *
     367              ;**************************************************************
     368                      .global I$$MOD
     369              
     370              ;***************************************************************
     371              ;* TYPE INFORMATION                                            *
     372              ;***************************************************************
     373              $C$DW$T$2       .dwtag  DW_TAG_unspecified_type
     374                      .dwattr $C$DW$T$2, DW_AT_name("void")
     375              
TMS320C2000 Assembler PC v18.12.1 Mon Mar  4 16:44:22 2019

Copyright (c) 1996-2018 Texas Instruments Incorporated
queue.asm                                                            PAGE    8

     376              $C$DW$T$4       .dwtag  DW_TAG_base_type
     377                      .dwattr $C$DW$T$4, DW_AT_encoding(DW_ATE_boolean)
     378                      .dwattr $C$DW$T$4, DW_AT_name("bool")
     379                      .dwattr $C$DW$T$4, DW_AT_byte_size(0x01)
     380              
     381              $C$DW$T$5       .dwtag  DW_TAG_base_type
     382                      .dwattr $C$DW$T$5, DW_AT_encoding(DW_ATE_signed_char)
     383                      .dwattr $C$DW$T$5, DW_AT_name("signed char")
     384                      .dwattr $C$DW$T$5, DW_AT_byte_size(0x01)
     385              
     386              $C$DW$T$6       .dwtag  DW_TAG_base_type
     387                      .dwattr $C$DW$T$6, DW_AT_encoding(DW_ATE_unsigned_char)
     388                      .dwattr $C$DW$T$6, DW_AT_name("unsigned char")
     389                      .dwattr $C$DW$T$6, DW_AT_byte_size(0x01)
     390              
     391              $C$DW$T$7       .dwtag  DW_TAG_base_type
     392                      .dwattr $C$DW$T$7, DW_AT_encoding(DW_ATE_signed_char)
     393                      .dwattr $C$DW$T$7, DW_AT_name("wchar_t")
     394                      .dwattr $C$DW$T$7, DW_AT_byte_size(0x01)
     395              
     396              $C$DW$T$8       .dwtag  DW_TAG_base_type
     397                      .dwattr $C$DW$T$8, DW_AT_encoding(DW_ATE_signed)
     398                      .dwattr $C$DW$T$8, DW_AT_name("short")
     399                      .dwattr $C$DW$T$8, DW_AT_byte_size(0x01)
     400              
     401              $C$DW$T$9       .dwtag  DW_TAG_base_type
     402                      .dwattr $C$DW$T$9, DW_AT_encoding(DW_ATE_unsigned)
     403                      .dwattr $C$DW$T$9, DW_AT_name("unsigned short")
     404                      .dwattr $C$DW$T$9, DW_AT_byte_size(0x01)
     405              
     406              $C$DW$T$10      .dwtag  DW_TAG_base_type
     407                      .dwattr $C$DW$T$10, DW_AT_encoding(DW_ATE_signed)
     408                      .dwattr $C$DW$T$10, DW_AT_name("int")
     409                      .dwattr $C$DW$T$10, DW_AT_byte_size(0x01)
     410              
     411              
     412              $C$DW$T$22      .dwtag  DW_TAG_array_type
     413                      .dwattr $C$DW$T$22, DW_AT_type(*$C$DW$T$10)
     414                      .dwattr $C$DW$T$22, DW_AT_language(DW_LANG_C)
     415                      .dwattr $C$DW$T$22, DW_AT_byte_size(0x08)
     416              $C$DW$20        .dwtag  DW_TAG_subrange_type
     417                      .dwattr $C$DW$20, DW_AT_upper_bound(0x07)
     418              
     419                      .dwendtag $C$DW$T$22
     420              
     421              $C$DW$T$11      .dwtag  DW_TAG_base_type
     422                      .dwattr $C$DW$T$11, DW_AT_encoding(DW_ATE_unsigned)
     423                      .dwattr $C$DW$T$11, DW_AT_name("unsigned int")
     424                      .dwattr $C$DW$T$11, DW_AT_byte_size(0x01)
     425              
     426              $C$DW$T$12      .dwtag  DW_TAG_base_type
     427                      .dwattr $C$DW$T$12, DW_AT_encoding(DW_ATE_signed)
     428                      .dwattr $C$DW$T$12, DW_AT_name("long")
     429                      .dwattr $C$DW$T$12, DW_AT_byte_size(0x02)
     430              
TMS320C2000 Assembler PC v18.12.1 Mon Mar  4 16:44:22 2019

Copyright (c) 1996-2018 Texas Instruments Incorporated
queue.asm                                                            PAGE    9

     431              $C$DW$T$13      .dwtag  DW_TAG_base_type
     432                      .dwattr $C$DW$T$13, DW_AT_encoding(DW_ATE_unsigned)
     433                      .dwattr $C$DW$T$13, DW_AT_name("unsigned long")
     434                      .dwattr $C$DW$T$13, DW_AT_byte_size(0x02)
     435              
     436              $C$DW$T$14      .dwtag  DW_TAG_base_type
     437                      .dwattr $C$DW$T$14, DW_AT_encoding(DW_ATE_signed)
     438                      .dwattr $C$DW$T$14, DW_AT_name("long long")
     439                      .dwattr $C$DW$T$14, DW_AT_byte_size(0x04)
     440              
     441              $C$DW$T$15      .dwtag  DW_TAG_base_type
     442                      .dwattr $C$DW$T$15, DW_AT_encoding(DW_ATE_unsigned)
     443                      .dwattr $C$DW$T$15, DW_AT_name("unsigned long long")
     444                      .dwattr $C$DW$T$15, DW_AT_byte_size(0x04)
     445              
     446              $C$DW$T$16      .dwtag  DW_TAG_base_type
     447                      .dwattr $C$DW$T$16, DW_AT_encoding(DW_ATE_float)
     448                      .dwattr $C$DW$T$16, DW_AT_name("float")
     449                      .dwattr $C$DW$T$16, DW_AT_byte_size(0x02)
     450              
     451              $C$DW$T$17      .dwtag  DW_TAG_base_type
     452                      .dwattr $C$DW$T$17, DW_AT_encoding(DW_ATE_float)
     453                      .dwattr $C$DW$T$17, DW_AT_name("double")
     454                      .dwattr $C$DW$T$17, DW_AT_byte_size(0x02)
     455              
     456              $C$DW$T$18      .dwtag  DW_TAG_base_type
     457                      .dwattr $C$DW$T$18, DW_AT_encoding(DW_ATE_float)
     458                      .dwattr $C$DW$T$18, DW_AT_name("long double")
     459                      .dwattr $C$DW$T$18, DW_AT_byte_size(0x04)
     460              
     461                      .dwattr $C$DW$CU, DW_AT_language(DW_LANG_C)
     462              
     463              ;***************************************************************
     464              ;* DWARF CIE ENTRIES                                           *
     465              ;***************************************************************
     466              
     467              $C$DW$CIE       .dwcie 26
     468                      .dwcfi  cfa_register, 20
     469                      .dwcfi  cfa_offset, 0
     470                      .dwcfi  same_value, 28
     471                      .dwcfi  same_value, 6
     472                      .dwcfi  same_value, 7
     473                      .dwcfi  same_value, 8
     474                      .dwcfi  same_value, 9
     475                      .dwcfi  same_value, 10
     476                      .dwcfi  same_value, 11
     477                      .dwcfi  same_value, 59
     478                      .dwcfi  same_value, 63
     479                      .dwcfi  same_value, 67
     480                      .dwcfi  same_value, 71
     481                      .dwendentry
     482              
     483              ;***************************************************************
     484              ;* DWARF REGISTER MAP                                          *
     485              ;***************************************************************
TMS320C2000 Assembler PC v18.12.1 Mon Mar  4 16:44:22 2019

Copyright (c) 1996-2018 Texas Instruments Incorporated
queue.asm                                                            PAGE   10

     486              
     487              $C$DW$21        .dwtag  DW_TAG_TI_assign_register
     488                      .dwattr $C$DW$21, DW_AT_name("AL")
     489                      .dwattr $C$DW$21, DW_AT_location[DW_OP_reg0]
     490              
     491              $C$DW$22        .dwtag  DW_TAG_TI_assign_register
     492                      .dwattr $C$DW$22, DW_AT_name("AH")
     493                      .dwattr $C$DW$22, DW_AT_location[DW_OP_reg1]
     494              
     495              $C$DW$23        .dwtag  DW_TAG_TI_assign_register
     496                      .dwattr $C$DW$23, DW_AT_name("PL")
     497                      .dwattr $C$DW$23, DW_AT_location[DW_OP_reg2]
     498              
     499              $C$DW$24        .dwtag  DW_TAG_TI_assign_register
     500                      .dwattr $C$DW$24, DW_AT_name("PH")
     501                      .dwattr $C$DW$24, DW_AT_location[DW_OP_reg3]
     502              
     503              $C$DW$25        .dwtag  DW_TAG_TI_assign_register
     504                      .dwattr $C$DW$25, DW_AT_name("SP")
     505                      .dwattr $C$DW$25, DW_AT_location[DW_OP_reg20]
     506              
     507              $C$DW$26        .dwtag  DW_TAG_TI_assign_register
     508                      .dwattr $C$DW$26, DW_AT_name("XT")
     509                      .dwattr $C$DW$26, DW_AT_location[DW_OP_reg21]
     510              
     511              $C$DW$27        .dwtag  DW_TAG_TI_assign_register
     512                      .dwattr $C$DW$27, DW_AT_name("T")
     513                      .dwattr $C$DW$27, DW_AT_location[DW_OP_reg22]
     514              
     515              $C$DW$28        .dwtag  DW_TAG_TI_assign_register
     516                      .dwattr $C$DW$28, DW_AT_name("ST0")
     517                      .dwattr $C$DW$28, DW_AT_location[DW_OP_reg23]
     518              
     519              $C$DW$29        .dwtag  DW_TAG_TI_assign_register
     520                      .dwattr $C$DW$29, DW_AT_name("ST1")
     521                      .dwattr $C$DW$29, DW_AT_location[DW_OP_reg24]
     522              
     523              $C$DW$30        .dwtag  DW_TAG_TI_assign_register
     524                      .dwattr $C$DW$30, DW_AT_name("PC")
     525                      .dwattr $C$DW$30, DW_AT_location[DW_OP_reg25]
     526              
     527              $C$DW$31        .dwtag  DW_TAG_TI_assign_register
     528                      .dwattr $C$DW$31, DW_AT_name("RPC")
     529                      .dwattr $C$DW$31, DW_AT_location[DW_OP_reg26]
     530              
     531              $C$DW$32        .dwtag  DW_TAG_TI_assign_register
     532                      .dwattr $C$DW$32, DW_AT_name("FP")
     533                      .dwattr $C$DW$32, DW_AT_location[DW_OP_reg28]
     534              
     535              $C$DW$33        .dwtag  DW_TAG_TI_assign_register
     536                      .dwattr $C$DW$33, DW_AT_name("DP")
     537                      .dwattr $C$DW$33, DW_AT_location[DW_OP_reg29]
     538              
     539              $C$DW$34        .dwtag  DW_TAG_TI_assign_register
     540                      .dwattr $C$DW$34, DW_AT_name("SXM")
TMS320C2000 Assembler PC v18.12.1 Mon Mar  4 16:44:22 2019

Copyright (c) 1996-2018 Texas Instruments Incorporated
queue.asm                                                            PAGE   11

     541                      .dwattr $C$DW$34, DW_AT_location[DW_OP_reg30]
     542              
     543              $C$DW$35        .dwtag  DW_TAG_TI_assign_register
     544                      .dwattr $C$DW$35, DW_AT_name("PM")
     545                      .dwattr $C$DW$35, DW_AT_location[DW_OP_reg31]
     546              
     547              $C$DW$36        .dwtag  DW_TAG_TI_assign_register
     548                      .dwattr $C$DW$36, DW_AT_name("OVM")
     549                      .dwattr $C$DW$36, DW_AT_location[DW_OP_regx 0x20]
     550              
     551              $C$DW$37        .dwtag  DW_TAG_TI_assign_register
     552                      .dwattr $C$DW$37, DW_AT_name("PAGE0")
     553                      .dwattr $C$DW$37, DW_AT_location[DW_OP_regx 0x21]
     554              
     555              $C$DW$38        .dwtag  DW_TAG_TI_assign_register
     556                      .dwattr $C$DW$38, DW_AT_name("AMODE")
     557                      .dwattr $C$DW$38, DW_AT_location[DW_OP_regx 0x22]
     558              
     559              $C$DW$39        .dwtag  DW_TAG_TI_assign_register
     560                      .dwattr $C$DW$39, DW_AT_name("EALLOW")
     561                      .dwattr $C$DW$39, DW_AT_location[DW_OP_regx 0x4e]
     562              
     563              $C$DW$40        .dwtag  DW_TAG_TI_assign_register
     564                      .dwattr $C$DW$40, DW_AT_name("INTM")
     565                      .dwattr $C$DW$40, DW_AT_location[DW_OP_regx 0x23]
     566              
     567              $C$DW$41        .dwtag  DW_TAG_TI_assign_register
     568                      .dwattr $C$DW$41, DW_AT_name("IFR")
     569                      .dwattr $C$DW$41, DW_AT_location[DW_OP_regx 0x24]
     570              
     571              $C$DW$42        .dwtag  DW_TAG_TI_assign_register
     572                      .dwattr $C$DW$42, DW_AT_name("IER")
     573                      .dwattr $C$DW$42, DW_AT_location[DW_OP_regx 0x25]
     574              
     575              $C$DW$43        .dwtag  DW_TAG_TI_assign_register
     576                      .dwattr $C$DW$43, DW_AT_name("V")
     577                      .dwattr $C$DW$43, DW_AT_location[DW_OP_regx 0x26]
     578              
     579              $C$DW$44        .dwtag  DW_TAG_TI_assign_register
     580                      .dwattr $C$DW$44, DW_AT_name("PSEUDOH")
     581                      .dwattr $C$DW$44, DW_AT_location[DW_OP_regx 0x4c]
     582              
     583              $C$DW$45        .dwtag  DW_TAG_TI_assign_register
     584                      .dwattr $C$DW$45, DW_AT_name("VOL")
     585                      .dwattr $C$DW$45, DW_AT_location[DW_OP_regx 0x4d]
     586              
     587              $C$DW$46        .dwtag  DW_TAG_TI_assign_register
     588                      .dwattr $C$DW$46, DW_AT_name("AR0")
     589                      .dwattr $C$DW$46, DW_AT_location[DW_OP_reg4]
     590              
     591              $C$DW$47        .dwtag  DW_TAG_TI_assign_register
     592                      .dwattr $C$DW$47, DW_AT_name("XAR0")
     593                      .dwattr $C$DW$47, DW_AT_location[DW_OP_reg5]
     594              
     595              $C$DW$48        .dwtag  DW_TAG_TI_assign_register
TMS320C2000 Assembler PC v18.12.1 Mon Mar  4 16:44:22 2019

Copyright (c) 1996-2018 Texas Instruments Incorporated
queue.asm                                                            PAGE   12

     596                      .dwattr $C$DW$48, DW_AT_name("AR1")
     597                      .dwattr $C$DW$48, DW_AT_location[DW_OP_reg6]
     598              
     599              $C$DW$49        .dwtag  DW_TAG_TI_assign_register
     600                      .dwattr $C$DW$49, DW_AT_name("XAR1")
     601                      .dwattr $C$DW$49, DW_AT_location[DW_OP_reg7]
     602              
     603              $C$DW$50        .dwtag  DW_TAG_TI_assign_register
     604                      .dwattr $C$DW$50, DW_AT_name("AR2")
     605                      .dwattr $C$DW$50, DW_AT_location[DW_OP_reg8]
     606              
     607              $C$DW$51        .dwtag  DW_TAG_TI_assign_register
     608                      .dwattr $C$DW$51, DW_AT_name("XAR2")
     609                      .dwattr $C$DW$51, DW_AT_location[DW_OP_reg9]
     610              
     611              $C$DW$52        .dwtag  DW_TAG_TI_assign_register
     612                      .dwattr $C$DW$52, DW_AT_name("AR3")
     613                      .dwattr $C$DW$52, DW_AT_location[DW_OP_reg10]
     614              
     615              $C$DW$53        .dwtag  DW_TAG_TI_assign_register
     616                      .dwattr $C$DW$53, DW_AT_name("XAR3")
     617                      .dwattr $C$DW$53, DW_AT_location[DW_OP_reg11]
     618              
     619              $C$DW$54        .dwtag  DW_TAG_TI_assign_register
     620                      .dwattr $C$DW$54, DW_AT_name("AR4")
     621                      .dwattr $C$DW$54, DW_AT_location[DW_OP_reg12]
     622              
     623              $C$DW$55        .dwtag  DW_TAG_TI_assign_register
     624                      .dwattr $C$DW$55, DW_AT_name("XAR4")
     625                      .dwattr $C$DW$55, DW_AT_location[DW_OP_reg13]
     626              
     627              $C$DW$56        .dwtag  DW_TAG_TI_assign_register
     628                      .dwattr $C$DW$56, DW_AT_name("AR5")
     629                      .dwattr $C$DW$56, DW_AT_location[DW_OP_reg14]
     630              
     631              $C$DW$57        .dwtag  DW_TAG_TI_assign_register
     632                      .dwattr $C$DW$57, DW_AT_name("XAR5")
     633                      .dwattr $C$DW$57, DW_AT_location[DW_OP_reg15]
     634              
     635              $C$DW$58        .dwtag  DW_TAG_TI_assign_register
     636                      .dwattr $C$DW$58, DW_AT_name("AR6")
     637                      .dwattr $C$DW$58, DW_AT_location[DW_OP_reg16]
     638              
     639              $C$DW$59        .dwtag  DW_TAG_TI_assign_register
     640                      .dwattr $C$DW$59, DW_AT_name("XAR6")
     641                      .dwattr $C$DW$59, DW_AT_location[DW_OP_reg17]
     642              
     643              $C$DW$60        .dwtag  DW_TAG_TI_assign_register
     644                      .dwattr $C$DW$60, DW_AT_name("AR7")
     645                      .dwattr $C$DW$60, DW_AT_location[DW_OP_reg18]
     646              
     647              $C$DW$61        .dwtag  DW_TAG_TI_assign_register
     648                      .dwattr $C$DW$61, DW_AT_name("XAR7")
     649                      .dwattr $C$DW$61, DW_AT_location[DW_OP_reg19]
     650              
TMS320C2000 Assembler PC v18.12.1 Mon Mar  4 16:44:22 2019

Copyright (c) 1996-2018 Texas Instruments Incorporated
queue.asm                                                            PAGE   13

     651              $C$DW$62        .dwtag  DW_TAG_TI_assign_register
     652                      .dwattr $C$DW$62, DW_AT_name("R0H")
     653                      .dwattr $C$DW$62, DW_AT_location[DW_OP_regx 0x2b]
     654              
     655              $C$DW$63        .dwtag  DW_TAG_TI_assign_register
     656                      .dwattr $C$DW$63, DW_AT_name("R1H")
     657                      .dwattr $C$DW$63, DW_AT_location[DW_OP_regx 0x2f]
     658              
     659              $C$DW$64        .dwtag  DW_TAG_TI_assign_register
     660                      .dwattr $C$DW$64, DW_AT_name("R2H")
     661                      .dwattr $C$DW$64, DW_AT_location[DW_OP_regx 0x33]
     662              
     663              $C$DW$65        .dwtag  DW_TAG_TI_assign_register
     664                      .dwattr $C$DW$65, DW_AT_name("R3H")
     665                      .dwattr $C$DW$65, DW_AT_location[DW_OP_regx 0x37]
     666              
     667              $C$DW$66        .dwtag  DW_TAG_TI_assign_register
     668                      .dwattr $C$DW$66, DW_AT_name("R4H")
     669                      .dwattr $C$DW$66, DW_AT_location[DW_OP_regx 0x3b]
     670              
     671              $C$DW$67        .dwtag  DW_TAG_TI_assign_register
     672                      .dwattr $C$DW$67, DW_AT_name("R5H")
     673                      .dwattr $C$DW$67, DW_AT_location[DW_OP_regx 0x3f]
     674              
     675              $C$DW$68        .dwtag  DW_TAG_TI_assign_register
     676                      .dwattr $C$DW$68, DW_AT_name("R6H")
     677                      .dwattr $C$DW$68, DW_AT_location[DW_OP_regx 0x43]
     678              
     679              $C$DW$69        .dwtag  DW_TAG_TI_assign_register
     680                      .dwattr $C$DW$69, DW_AT_name("R7H")
     681                      .dwattr $C$DW$69, DW_AT_location[DW_OP_regx 0x47]
     682              
     683              $C$DW$70        .dwtag  DW_TAG_TI_assign_register
     684                      .dwattr $C$DW$70, DW_AT_name("RB")
     685                      .dwattr $C$DW$70, DW_AT_location[DW_OP_regx 0x4a]
     686              
     687              $C$DW$71        .dwtag  DW_TAG_TI_assign_register
     688                      .dwattr $C$DW$71, DW_AT_name("STF")
     689                      .dwattr $C$DW$71, DW_AT_location[DW_OP_regx 0x28]
     690              
     691              $C$DW$72        .dwtag  DW_TAG_TI_assign_register
     692                      .dwattr $C$DW$72, DW_AT_name("FPUHAZ")
     693                      .dwattr $C$DW$72, DW_AT_location[DW_OP_reg27]
     694              
     695                      .dwendtag $C$DW$CU
     696              

No Assembly Errors, No Assembly Warnings
