;***************************************************************
;* TMS320C2000 G3 C/C++ Codegen                               PC v20.2.1.LTS *
;* Date/Time created: Mon Feb  8 19:02:45 2021                 *
;***************************************************************
	.compiler_opts --abi=coffabi --diag_wrap=off --float_support=softlib --hll_source=on --mem_model:code=flat --mem_model:data=large --object_format=coff --silicon_errata_fpu1_workaround=on --silicon_version=28 --symdebug:dwarf --symdebug:dwarf_version=3 
	.asg	XAR2, FP

$C$DW$CU	.dwtag  DW_TAG_compile_unit
	.dwattr $C$DW$CU, DW_AT_name("C:/ti/Workspace/PLC_certificate/Software/uC-LIB/lib_str.c")
	.dwattr $C$DW$CU, DW_AT_producer("TI TMS320C2000 G3 C/C++ Codegen PC v20.2.1.LTS Copyright (c) 1996-2018 Texas Instruments Incorporated")
	.dwattr $C$DW$CU, DW_AT_TI_version(0x01)
	.dwattr $C$DW$CU, DW_AT_comp_dir("C:\ti\Workspace\PLC_certificate\Examples\TI\TMDSDOCK28335\OS2\CCS\Debug")

$C$DW$1	.dwtag  DW_TAG_subprogram
	.dwattr $C$DW$1, DW_AT_name("ASCII_ToLower")
	.dwattr $C$DW$1, DW_AT_TI_symbol_name("_ASCII_ToLower")
	.dwattr $C$DW$1, DW_AT_type(*$C$DW$T$21)
	.dwattr $C$DW$1, DW_AT_declaration
	.dwattr $C$DW$1, DW_AT_external
$C$DW$2	.dwtag  DW_TAG_formal_parameter
	.dwattr $C$DW$2, DW_AT_type(*$C$DW$T$21)

	.dwendtag $C$DW$1


$C$DW$3	.dwtag  DW_TAG_subprogram
	.dwattr $C$DW$3, DW_AT_name("ASCII_IsPrint")
	.dwattr $C$DW$3, DW_AT_TI_symbol_name("_ASCII_IsPrint")
	.dwattr $C$DW$3, DW_AT_type(*$C$DW$T$19)
	.dwattr $C$DW$3, DW_AT_declaration
	.dwattr $C$DW$3, DW_AT_external
$C$DW$4	.dwtag  DW_TAG_formal_parameter
	.dwattr $C$DW$4, DW_AT_type(*$C$DW$T$21)

	.dwendtag $C$DW$3


$C$DW$5	.dwtag  DW_TAG_subprogram
	.dwattr $C$DW$5, DW_AT_name("ASCII_IsSpace")
	.dwattr $C$DW$5, DW_AT_TI_symbol_name("_ASCII_IsSpace")
	.dwattr $C$DW$5, DW_AT_type(*$C$DW$T$19)
	.dwattr $C$DW$5, DW_AT_declaration
	.dwattr $C$DW$5, DW_AT_external
$C$DW$6	.dwtag  DW_TAG_formal_parameter
	.dwattr $C$DW$6, DW_AT_type(*$C$DW$T$21)

	.dwendtag $C$DW$5


$C$DW$7	.dwtag  DW_TAG_subprogram
	.dwattr $C$DW$7, DW_AT_name("ASCII_IsDigHex")
	.dwattr $C$DW$7, DW_AT_TI_symbol_name("_ASCII_IsDigHex")
	.dwattr $C$DW$7, DW_AT_type(*$C$DW$T$19)
	.dwattr $C$DW$7, DW_AT_declaration
	.dwattr $C$DW$7, DW_AT_external
$C$DW$8	.dwtag  DW_TAG_formal_parameter
	.dwattr $C$DW$8, DW_AT_type(*$C$DW$T$21)

	.dwendtag $C$DW$7


$C$DW$9	.dwtag  DW_TAG_subprogram
	.dwattr $C$DW$9, DW_AT_name("ASCII_IsAlphaNum")
	.dwattr $C$DW$9, DW_AT_TI_symbol_name("_ASCII_IsAlphaNum")
	.dwattr $C$DW$9, DW_AT_type(*$C$DW$T$19)
	.dwattr $C$DW$9, DW_AT_declaration
	.dwattr $C$DW$9, DW_AT_external
$C$DW$10	.dwtag  DW_TAG_formal_parameter
	.dwattr $C$DW$10, DW_AT_type(*$C$DW$T$21)

	.dwendtag $C$DW$9


$C$DW$11	.dwtag  DW_TAG_subprogram
	.dwattr $C$DW$11, DW_AT_name("ASCII_IsDig")
	.dwattr $C$DW$11, DW_AT_TI_symbol_name("_ASCII_IsDig")
	.dwattr $C$DW$11, DW_AT_type(*$C$DW$T$19)
	.dwattr $C$DW$11, DW_AT_declaration
	.dwattr $C$DW$11, DW_AT_external
$C$DW$12	.dwtag  DW_TAG_formal_parameter
	.dwattr $C$DW$12, DW_AT_type(*$C$DW$T$21)

	.dwendtag $C$DW$11


$C$DW$13	.dwtag  DW_TAG_subprogram
	.dwattr $C$DW$13, DW_AT_name("ASCII_IsLower")
	.dwattr $C$DW$13, DW_AT_TI_symbol_name("_ASCII_IsLower")
	.dwattr $C$DW$13, DW_AT_type(*$C$DW$T$19)
	.dwattr $C$DW$13, DW_AT_declaration
	.dwattr $C$DW$13, DW_AT_external
$C$DW$14	.dwtag  DW_TAG_formal_parameter
	.dwattr $C$DW$14, DW_AT_type(*$C$DW$T$21)

	.dwendtag $C$DW$13

	.sect	".econst:_Str_MultOvfThTbl_Int32U"
	.clink
	.align	2
	.elfsym	_Str_MultOvfThTbl_Int32U,SYM_SIZE(74)
_Str_MultOvfThTbl_Int32U:
	.bits		0xffffffff,32
			; _Str_MultOvfThTbl_Int32U[0] @ 0
	.bits		0xffffffff,32
			; _Str_MultOvfThTbl_Int32U[1] @ 32
	.bits		0x7fffffff,32
			; _Str_MultOvfThTbl_Int32U[2] @ 64
	.bits		0x55555555,32
			; _Str_MultOvfThTbl_Int32U[3] @ 96
	.bits		0x3fffffff,32
			; _Str_MultOvfThTbl_Int32U[4] @ 128
	.bits		0x33333333,32
			; _Str_MultOvfThTbl_Int32U[5] @ 160
	.bits		0x2aaaaaaa,32
			; _Str_MultOvfThTbl_Int32U[6] @ 192
	.bits		0x24924924,32
			; _Str_MultOvfThTbl_Int32U[7] @ 224
	.bits		0x1fffffff,32
			; _Str_MultOvfThTbl_Int32U[8] @ 256
	.bits		0x1c71c71c,32
			; _Str_MultOvfThTbl_Int32U[9] @ 288
	.bits		0x19999999,32
			; _Str_MultOvfThTbl_Int32U[10] @ 320
	.bits		0x1745d174,32
			; _Str_MultOvfThTbl_Int32U[11] @ 352
	.bits		0x15555555,32
			; _Str_MultOvfThTbl_Int32U[12] @ 384
	.bits		0x13b13b13,32
			; _Str_MultOvfThTbl_Int32U[13] @ 416
	.bits		0x12492492,32
			; _Str_MultOvfThTbl_Int32U[14] @ 448
	.bits		0x11111111,32
			; _Str_MultOvfThTbl_Int32U[15] @ 480
	.bits		0xfffffff,32
			; _Str_MultOvfThTbl_Int32U[16] @ 512
	.bits		0xf0f0f0f,32
			; _Str_MultOvfThTbl_Int32U[17] @ 544
	.bits		0xe38e38e,32
			; _Str_MultOvfThTbl_Int32U[18] @ 576
	.bits		0xd79435e,32
			; _Str_MultOvfThTbl_Int32U[19] @ 608
	.bits		0xccccccc,32
			; _Str_MultOvfThTbl_Int32U[20] @ 640
	.bits		0xc30c30c,32
			; _Str_MultOvfThTbl_Int32U[21] @ 672
	.bits		0xba2e8ba,32
			; _Str_MultOvfThTbl_Int32U[22] @ 704
	.bits		0xb21642c,32
			; _Str_MultOvfThTbl_Int32U[23] @ 736
	.bits		0xaaaaaaa,32
			; _Str_MultOvfThTbl_Int32U[24] @ 768
	.bits		0xa3d70a3,32
			; _Str_MultOvfThTbl_Int32U[25] @ 800
	.bits		0x9d89d89,32
			; _Str_MultOvfThTbl_Int32U[26] @ 832
	.bits		0x97b425e,32
			; _Str_MultOvfThTbl_Int32U[27] @ 864
	.bits		0x9249249,32
			; _Str_MultOvfThTbl_Int32U[28] @ 896
	.bits		0x8d3dcb0,32
			; _Str_MultOvfThTbl_Int32U[29] @ 928
	.bits		0x8888888,32
			; _Str_MultOvfThTbl_Int32U[30] @ 960
	.bits		0x8421084,32
			; _Str_MultOvfThTbl_Int32U[31] @ 992
	.bits		0x7ffffff,32
			; _Str_MultOvfThTbl_Int32U[32] @ 1024
	.bits		0x7c1f07c,32
			; _Str_MultOvfThTbl_Int32U[33] @ 1056
	.bits		0x7878787,32
			; _Str_MultOvfThTbl_Int32U[34] @ 1088
	.bits		0x7507507,32
			; _Str_MultOvfThTbl_Int32U[35] @ 1120
	.bits		0x71c71c7,32
			; _Str_MultOvfThTbl_Int32U[36] @ 1152

$C$DW$15	.dwtag  DW_TAG_variable
	.dwattr $C$DW$15, DW_AT_name("Str_MultOvfThTbl_Int32U")
	.dwattr $C$DW$15, DW_AT_TI_symbol_name("_Str_MultOvfThTbl_Int32U")
	.dwattr $C$DW$15, DW_AT_type(*$C$DW$T$45)
	.dwattr $C$DW$15, DW_AT_location[DW_OP_addr _Str_MultOvfThTbl_Int32U]

;	C:\ti\ccs1011\ccs\tools\compiler\ti-cgt-c2000_20.2.1.LTS\bin\ac2000.exe -@C:\\Users\\LEEKEO~1\\AppData\\Local\\Temp\\{57B2E3F6-06C6-40CC-BC51-ED6BA8E00CCF} 
	.sect	".text"
	.clink
	.global	_Str_Len

$C$DW$16	.dwtag  DW_TAG_subprogram
	.dwattr $C$DW$16, DW_AT_name("Str_Len")
	.dwattr $C$DW$16, DW_AT_low_pc(_Str_Len)
	.dwattr $C$DW$16, DW_AT_high_pc(0x00)
	.dwattr $C$DW$16, DW_AT_TI_symbol_name("_Str_Len")
	.dwattr $C$DW$16, DW_AT_external
	.dwattr $C$DW$16, DW_AT_type(*$C$DW$T$32)
	.dwattr $C$DW$16, DW_AT_TI_begin_file("C:/ti/Workspace/PLC_certificate/Software/uC-LIB/lib_str.c")
	.dwattr $C$DW$16, DW_AT_TI_begin_line(0xdb)
	.dwattr $C$DW$16, DW_AT_TI_begin_column(0x0d)
	.dwattr $C$DW$16, DW_AT_TI_max_frame_size(-6)
	.dwpsn	file "C:/ti/Workspace/PLC_certificate/Software/uC-LIB/lib_str.c",line 220,column 1,is_stmt,address _Str_Len,isa 0

	.dwfde $C$DW$CIE, _Str_Len
$C$DW$17	.dwtag  DW_TAG_formal_parameter
	.dwattr $C$DW$17, DW_AT_name("pstr")
	.dwattr $C$DW$17, DW_AT_TI_symbol_name("_pstr")
	.dwattr $C$DW$17, DW_AT_type(*$C$DW$T$28)
	.dwattr $C$DW$17, DW_AT_location[DW_OP_reg12]


;***************************************************************
;* FNAME: _Str_Len                      FR SIZE:   4           *
;*                                                             *
;* FUNCTION ENVIRONMENT                                        *
;*                                                             *
;* FUNCTION PROPERTIES                                         *
;*                            0 Parameter,  4 Auto,  0 SOE     *
;***************************************************************

_Str_Len:
	.dwcfi	cfa_offset, -2
	.dwcfi	save_reg_to_mem, 26, 0
        ADDB      SP,#4                 ; [CPU_ARAU] 
	.dwcfi	cfa_offset, -6
$C$DW$18	.dwtag  DW_TAG_variable
	.dwattr $C$DW$18, DW_AT_name("pstr")
	.dwattr $C$DW$18, DW_AT_TI_symbol_name("_pstr")
	.dwattr $C$DW$18, DW_AT_type(*$C$DW$T$28)
	.dwattr $C$DW$18, DW_AT_location[DW_OP_breg20 -2]

$C$DW$19	.dwtag  DW_TAG_variable
	.dwattr $C$DW$19, DW_AT_name("len")
	.dwattr $C$DW$19, DW_AT_TI_symbol_name("_len")
	.dwattr $C$DW$19, DW_AT_type(*$C$DW$T$32)
	.dwattr $C$DW$19, DW_AT_location[DW_OP_breg20 -4]

        MOVL      *-SP[2],XAR4          ; [CPU_ALU] |220| 
	.dwpsn	file "C:/ti/Workspace/PLC_certificate/Software/uC-LIB/lib_str.c",line 224,column 5,is_stmt,isa 0
        MOVL      XAR5,#65535           ; [CPU_ARAU] |224| 
        MOVL      ACC,XAR5              ; [CPU_ALU] |224| 
$C$DW$20	.dwtag  DW_TAG_TI_branch
	.dwattr $C$DW$20, DW_AT_low_pc(0x00)
	.dwattr $C$DW$20, DW_AT_name("_Str_Len_N")
	.dwattr $C$DW$20, DW_AT_TI_call

        LCR       #_Str_Len_N           ; [CPU_ALU] |224| 
        ; call occurs [#_Str_Len_N] ; [] |224| 
        MOVL      *-SP[4],ACC           ; [CPU_ALU] |224| 
	.dwpsn	file "C:/ti/Workspace/PLC_certificate/Software/uC-LIB/lib_str.c",line 227,column 5,is_stmt,isa 0
	.dwpsn	file "C:/ti/Workspace/PLC_certificate/Software/uC-LIB/lib_str.c",line 228,column 1,is_stmt,isa 0
        SUBB      SP,#4                 ; [CPU_ARAU] 
	.dwcfi	cfa_offset, -2
$C$DW$21	.dwtag  DW_TAG_TI_branch
	.dwattr $C$DW$21, DW_AT_low_pc(0x00)
	.dwattr $C$DW$21, DW_AT_TI_return

        LRETR     ; [CPU_ALU] 
        ; return occurs ; [] 
	.dwattr $C$DW$16, DW_AT_TI_end_file("C:/ti/Workspace/PLC_certificate/Software/uC-LIB/lib_str.c")
	.dwattr $C$DW$16, DW_AT_TI_end_line(0xe4)
	.dwattr $C$DW$16, DW_AT_TI_end_column(0x01)
	.dwendentry
	.dwendtag $C$DW$16

	.sect	".text"
	.clink
	.global	_Str_Len_N

$C$DW$22	.dwtag  DW_TAG_subprogram
	.dwattr $C$DW$22, DW_AT_name("Str_Len_N")
	.dwattr $C$DW$22, DW_AT_low_pc(_Str_Len_N)
	.dwattr $C$DW$22, DW_AT_high_pc(0x00)
	.dwattr $C$DW$22, DW_AT_TI_symbol_name("_Str_Len_N")
	.dwattr $C$DW$22, DW_AT_external
	.dwattr $C$DW$22, DW_AT_type(*$C$DW$T$32)
	.dwattr $C$DW$22, DW_AT_TI_begin_file("C:/ti/Workspace/PLC_certificate/Software/uC-LIB/lib_str.c")
	.dwattr $C$DW$22, DW_AT_TI_begin_line(0x116)
	.dwattr $C$DW$22, DW_AT_TI_begin_column(0x0d)
	.dwattr $C$DW$22, DW_AT_TI_max_frame_size(-10)
	.dwpsn	file "C:/ti/Workspace/PLC_certificate/Software/uC-LIB/lib_str.c",line 280,column 1,is_stmt,address _Str_Len_N,isa 0

	.dwfde $C$DW$CIE, _Str_Len_N
$C$DW$23	.dwtag  DW_TAG_formal_parameter
	.dwattr $C$DW$23, DW_AT_name("pstr")
	.dwattr $C$DW$23, DW_AT_TI_symbol_name("_pstr")
	.dwattr $C$DW$23, DW_AT_type(*$C$DW$T$28)
	.dwattr $C$DW$23, DW_AT_location[DW_OP_reg12]

$C$DW$24	.dwtag  DW_TAG_formal_parameter
	.dwattr $C$DW$24, DW_AT_name("len_max")
	.dwattr $C$DW$24, DW_AT_TI_symbol_name("_len_max")
	.dwattr $C$DW$24, DW_AT_type(*$C$DW$T$32)
	.dwattr $C$DW$24, DW_AT_location[DW_OP_reg0]


;***************************************************************
;* FNAME: _Str_Len_N                    FR SIZE:   8           *
;*                                                             *
;* FUNCTION ENVIRONMENT                                        *
;*                                                             *
;* FUNCTION PROPERTIES                                         *
;*                            0 Parameter,  8 Auto,  0 SOE     *
;***************************************************************

_Str_Len_N:
	.dwcfi	cfa_offset, -2
	.dwcfi	save_reg_to_mem, 26, 0
        ADDB      SP,#8                 ; [CPU_ARAU] 
	.dwcfi	cfa_offset, -10
$C$DW$25	.dwtag  DW_TAG_variable
	.dwattr $C$DW$25, DW_AT_name("pstr")
	.dwattr $C$DW$25, DW_AT_TI_symbol_name("_pstr")
	.dwattr $C$DW$25, DW_AT_type(*$C$DW$T$28)
	.dwattr $C$DW$25, DW_AT_location[DW_OP_breg20 -2]

$C$DW$26	.dwtag  DW_TAG_variable
	.dwattr $C$DW$26, DW_AT_name("len_max")
	.dwattr $C$DW$26, DW_AT_TI_symbol_name("_len_max")
	.dwattr $C$DW$26, DW_AT_type(*$C$DW$T$32)
	.dwattr $C$DW$26, DW_AT_location[DW_OP_breg20 -4]

$C$DW$27	.dwtag  DW_TAG_variable
	.dwattr $C$DW$27, DW_AT_name("pstr_len")
	.dwattr $C$DW$27, DW_AT_TI_symbol_name("_pstr_len")
	.dwattr $C$DW$27, DW_AT_type(*$C$DW$T$28)
	.dwattr $C$DW$27, DW_AT_location[DW_OP_breg20 -6]

$C$DW$28	.dwtag  DW_TAG_variable
	.dwattr $C$DW$28, DW_AT_name("len")
	.dwattr $C$DW$28, DW_AT_TI_symbol_name("_len")
	.dwattr $C$DW$28, DW_AT_type(*$C$DW$T$32)
	.dwattr $C$DW$28, DW_AT_location[DW_OP_breg20 -8]

        MOVL      *-SP[4],ACC           ; [CPU_ALU] |280| 
        MOVL      *-SP[2],XAR4          ; [CPU_ALU] |280| 
	.dwpsn	file "C:/ti/Workspace/PLC_certificate/Software/uC-LIB/lib_str.c",line 285,column 5,is_stmt,isa 0
        MOVL      ACC,*-SP[2]           ; [CPU_ALU] |285| 
        MOVL      *-SP[6],ACC           ; [CPU_ALU] |285| 
	.dwpsn	file "C:/ti/Workspace/PLC_certificate/Software/uC-LIB/lib_str.c",line 286,column 5,is_stmt,isa 0
        MOVB      ACC,#0                ; [CPU_ALU] |286| 
        MOVL      *-SP[8],ACC           ; [CPU_ALU] |286| 
	.dwpsn	file "C:/ti/Workspace/PLC_certificate/Software/uC-LIB/lib_str.c",line 287,column 5,is_stmt,isa 0
        B         $C$L2,UNC             ; [CPU_ALU] |287| 
        ; branch occurs ; [] |287| 
$C$L1:    
	.dwpsn	file "C:/ti/Workspace/PLC_certificate/Software/uC-LIB/lib_str.c",line 290,column 9,is_stmt,isa 0
        MOVB      ACC,#1                ; [CPU_ALU] |290| 
        ADDL      ACC,*-SP[6]           ; [CPU_ALU] |290| 
        MOVL      *-SP[6],ACC           ; [CPU_ALU] |290| 
	.dwpsn	file "C:/ti/Workspace/PLC_certificate/Software/uC-LIB/lib_str.c",line 291,column 9,is_stmt,isa 0
        MOVB      ACC,#1                ; [CPU_ALU] |291| 
        ADDL      ACC,*-SP[8]           ; [CPU_ALU] |291| 
        MOVL      *-SP[8],ACC           ; [CPU_ALU] |291| 
$C$L2:    
	.dwpsn	file "C:/ti/Workspace/PLC_certificate/Software/uC-LIB/lib_str.c",line 287,column 12,is_stmt,isa 0
        MOVL      ACC,*-SP[6]           ; [CPU_ALU] |287| 
        B         $C$L3,EQ              ; [CPU_ALU] |287| 
        ; branchcc occurs ; [] |287| 
        MOVL      XAR4,*-SP[6]          ; [CPU_ALU] |287| 
        MOV       AL,*+XAR4[0]          ; [CPU_ALU] |287| 
        B         $C$L3,EQ              ; [CPU_ALU] |287| 
        ; branchcc occurs ; [] |287| 
        MOVL      ACC,*-SP[4]           ; [CPU_ALU] |287| 
        CMPL      ACC,*-SP[8]           ; [CPU_ALU] |287| 
        B         $C$L1,HI              ; [CPU_ALU] |287| 
        ; branchcc occurs ; [] |287| 
$C$L3:    
	.dwpsn	file "C:/ti/Workspace/PLC_certificate/Software/uC-LIB/lib_str.c",line 294,column 5,is_stmt,isa 0
        MOVL      ACC,*-SP[8]           ; [CPU_ALU] |294| 
	.dwpsn	file "C:/ti/Workspace/PLC_certificate/Software/uC-LIB/lib_str.c",line 295,column 1,is_stmt,isa 0
        SUBB      SP,#8                 ; [CPU_ARAU] 
	.dwcfi	cfa_offset, -2
$C$DW$29	.dwtag  DW_TAG_TI_branch
	.dwattr $C$DW$29, DW_AT_low_pc(0x00)
	.dwattr $C$DW$29, DW_AT_TI_return

        LRETR     ; [CPU_ALU] 
        ; return occurs ; [] 
	.dwattr $C$DW$22, DW_AT_TI_end_file("C:/ti/Workspace/PLC_certificate/Software/uC-LIB/lib_str.c")
	.dwattr $C$DW$22, DW_AT_TI_end_line(0x127)
	.dwattr $C$DW$22, DW_AT_TI_end_column(0x01)
	.dwendentry
	.dwendtag $C$DW$22

	.sect	".text"
	.clink
	.global	_Str_Copy

$C$DW$30	.dwtag  DW_TAG_subprogram
	.dwattr $C$DW$30, DW_AT_name("Str_Copy")
	.dwattr $C$DW$30, DW_AT_low_pc(_Str_Copy)
	.dwattr $C$DW$30, DW_AT_high_pc(0x00)
	.dwattr $C$DW$30, DW_AT_TI_symbol_name("_Str_Copy")
	.dwattr $C$DW$30, DW_AT_external
	.dwattr $C$DW$30, DW_AT_type(*$C$DW$T$38)
	.dwattr $C$DW$30, DW_AT_TI_begin_file("C:/ti/Workspace/PLC_certificate/Software/uC-LIB/lib_str.c")
	.dwattr $C$DW$30, DW_AT_TI_begin_line(0x15e)
	.dwattr $C$DW$30, DW_AT_TI_begin_column(0x0c)
	.dwattr $C$DW$30, DW_AT_TI_max_frame_size(-8)
	.dwpsn	file "C:/ti/Workspace/PLC_certificate/Software/uC-LIB/lib_str.c",line 352,column 1,is_stmt,address _Str_Copy,isa 0

	.dwfde $C$DW$CIE, _Str_Copy
$C$DW$31	.dwtag  DW_TAG_formal_parameter
	.dwattr $C$DW$31, DW_AT_name("pstr_dest")
	.dwattr $C$DW$31, DW_AT_TI_symbol_name("_pstr_dest")
	.dwattr $C$DW$31, DW_AT_type(*$C$DW$T$38)
	.dwattr $C$DW$31, DW_AT_location[DW_OP_reg12]

$C$DW$32	.dwtag  DW_TAG_formal_parameter
	.dwattr $C$DW$32, DW_AT_name("pstr_src")
	.dwattr $C$DW$32, DW_AT_TI_symbol_name("_pstr_src")
	.dwattr $C$DW$32, DW_AT_type(*$C$DW$T$28)
	.dwattr $C$DW$32, DW_AT_location[DW_OP_reg14]


;***************************************************************
;* FNAME: _Str_Copy                     FR SIZE:   6           *
;*                                                             *
;* FUNCTION ENVIRONMENT                                        *
;*                                                             *
;* FUNCTION PROPERTIES                                         *
;*                            0 Parameter,  6 Auto,  0 SOE     *
;***************************************************************

_Str_Copy:
	.dwcfi	cfa_offset, -2
	.dwcfi	save_reg_to_mem, 26, 0
        ADDB      SP,#6                 ; [CPU_ARAU] 
	.dwcfi	cfa_offset, -8
$C$DW$33	.dwtag  DW_TAG_variable
	.dwattr $C$DW$33, DW_AT_name("pstr_dest")
	.dwattr $C$DW$33, DW_AT_TI_symbol_name("_pstr_dest")
	.dwattr $C$DW$33, DW_AT_type(*$C$DW$T$38)
	.dwattr $C$DW$33, DW_AT_location[DW_OP_breg20 -2]

$C$DW$34	.dwtag  DW_TAG_variable
	.dwattr $C$DW$34, DW_AT_name("pstr_src")
	.dwattr $C$DW$34, DW_AT_TI_symbol_name("_pstr_src")
	.dwattr $C$DW$34, DW_AT_type(*$C$DW$T$28)
	.dwattr $C$DW$34, DW_AT_location[DW_OP_breg20 -4]

$C$DW$35	.dwtag  DW_TAG_variable
	.dwattr $C$DW$35, DW_AT_name("pstr_rtn")
	.dwattr $C$DW$35, DW_AT_TI_symbol_name("_pstr_rtn")
	.dwattr $C$DW$35, DW_AT_type(*$C$DW$T$38)
	.dwattr $C$DW$35, DW_AT_location[DW_OP_breg20 -6]

        MOVL      *-SP[4],XAR5          ; [CPU_ALU] |352| 
        MOVL      *-SP[2],XAR4          ; [CPU_ALU] |352| 
	.dwpsn	file "C:/ti/Workspace/PLC_certificate/Software/uC-LIB/lib_str.c",line 356,column 5,is_stmt,isa 0
        MOVL      XAR6,#65535           ; [CPU_ARAU] |356| 
        MOVL      ACC,XAR6              ; [CPU_ALU] |356| 
$C$DW$36	.dwtag  DW_TAG_TI_branch
	.dwattr $C$DW$36, DW_AT_low_pc(0x00)
	.dwattr $C$DW$36, DW_AT_name("_Str_Copy_N")
	.dwattr $C$DW$36, DW_AT_TI_call

        LCR       #_Str_Copy_N          ; [CPU_ALU] |356| 
        ; call occurs [#_Str_Copy_N] ; [] |356| 
        MOVL      *-SP[6],XAR4          ; [CPU_ALU] |356| 
	.dwpsn	file "C:/ti/Workspace/PLC_certificate/Software/uC-LIB/lib_str.c",line 360,column 5,is_stmt,isa 0
	.dwpsn	file "C:/ti/Workspace/PLC_certificate/Software/uC-LIB/lib_str.c",line 361,column 1,is_stmt,isa 0
        SUBB      SP,#6                 ; [CPU_ARAU] 
	.dwcfi	cfa_offset, -2
$C$DW$37	.dwtag  DW_TAG_TI_branch
	.dwattr $C$DW$37, DW_AT_low_pc(0x00)
	.dwattr $C$DW$37, DW_AT_TI_return

        LRETR     ; [CPU_ALU] 
        ; return occurs ; [] 
	.dwattr $C$DW$30, DW_AT_TI_end_file("C:/ti/Workspace/PLC_certificate/Software/uC-LIB/lib_str.c")
	.dwattr $C$DW$30, DW_AT_TI_end_line(0x169)
	.dwattr $C$DW$30, DW_AT_TI_end_column(0x01)
	.dwendentry
	.dwendtag $C$DW$30

	.sect	".text"
	.clink
	.global	_Str_Copy_N

$C$DW$38	.dwtag  DW_TAG_subprogram
	.dwattr $C$DW$38, DW_AT_name("Str_Copy_N")
	.dwattr $C$DW$38, DW_AT_low_pc(_Str_Copy_N)
	.dwattr $C$DW$38, DW_AT_high_pc(0x00)
	.dwattr $C$DW$38, DW_AT_TI_symbol_name("_Str_Copy_N")
	.dwattr $C$DW$38, DW_AT_external
	.dwattr $C$DW$38, DW_AT_type(*$C$DW$T$38)
	.dwattr $C$DW$38, DW_AT_TI_begin_file("C:/ti/Workspace/PLC_certificate/Software/uC-LIB/lib_str.c")
	.dwattr $C$DW$38, DW_AT_TI_begin_line(0x1b8)
	.dwattr $C$DW$38, DW_AT_TI_begin_column(0x0c)
	.dwattr $C$DW$38, DW_AT_TI_max_frame_size(-14)
	.dwpsn	file "C:/ti/Workspace/PLC_certificate/Software/uC-LIB/lib_str.c",line 443,column 1,is_stmt,address _Str_Copy_N,isa 0

	.dwfde $C$DW$CIE, _Str_Copy_N
$C$DW$39	.dwtag  DW_TAG_formal_parameter
	.dwattr $C$DW$39, DW_AT_name("pstr_dest")
	.dwattr $C$DW$39, DW_AT_TI_symbol_name("_pstr_dest")
	.dwattr $C$DW$39, DW_AT_type(*$C$DW$T$38)
	.dwattr $C$DW$39, DW_AT_location[DW_OP_reg12]

$C$DW$40	.dwtag  DW_TAG_formal_parameter
	.dwattr $C$DW$40, DW_AT_name("pstr_src")
	.dwattr $C$DW$40, DW_AT_TI_symbol_name("_pstr_src")
	.dwattr $C$DW$40, DW_AT_type(*$C$DW$T$28)
	.dwattr $C$DW$40, DW_AT_location[DW_OP_reg14]

$C$DW$41	.dwtag  DW_TAG_formal_parameter
	.dwattr $C$DW$41, DW_AT_name("len_max")
	.dwattr $C$DW$41, DW_AT_TI_symbol_name("_len_max")
	.dwattr $C$DW$41, DW_AT_type(*$C$DW$T$32)
	.dwattr $C$DW$41, DW_AT_location[DW_OP_reg0]


;***************************************************************
;* FNAME: _Str_Copy_N                   FR SIZE:  12           *
;*                                                             *
;* FUNCTION ENVIRONMENT                                        *
;*                                                             *
;* FUNCTION PROPERTIES                                         *
;*                            0 Parameter, 12 Auto,  0 SOE     *
;***************************************************************

_Str_Copy_N:
	.dwcfi	cfa_offset, -2
	.dwcfi	save_reg_to_mem, 26, 0
        ADDB      SP,#12                ; [CPU_ARAU] 
	.dwcfi	cfa_offset, -14
$C$DW$42	.dwtag  DW_TAG_variable
	.dwattr $C$DW$42, DW_AT_name("pstr_dest")
	.dwattr $C$DW$42, DW_AT_TI_symbol_name("_pstr_dest")
	.dwattr $C$DW$42, DW_AT_type(*$C$DW$T$38)
	.dwattr $C$DW$42, DW_AT_location[DW_OP_breg20 -2]

$C$DW$43	.dwtag  DW_TAG_variable
	.dwattr $C$DW$43, DW_AT_name("pstr_src")
	.dwattr $C$DW$43, DW_AT_TI_symbol_name("_pstr_src")
	.dwattr $C$DW$43, DW_AT_type(*$C$DW$T$28)
	.dwattr $C$DW$43, DW_AT_location[DW_OP_breg20 -4]

$C$DW$44	.dwtag  DW_TAG_variable
	.dwattr $C$DW$44, DW_AT_name("len_max")
	.dwattr $C$DW$44, DW_AT_TI_symbol_name("_len_max")
	.dwattr $C$DW$44, DW_AT_type(*$C$DW$T$32)
	.dwattr $C$DW$44, DW_AT_location[DW_OP_breg20 -6]

$C$DW$45	.dwtag  DW_TAG_variable
	.dwattr $C$DW$45, DW_AT_name("pstr_copy_dest")
	.dwattr $C$DW$45, DW_AT_TI_symbol_name("_pstr_copy_dest")
	.dwattr $C$DW$45, DW_AT_type(*$C$DW$T$38)
	.dwattr $C$DW$45, DW_AT_location[DW_OP_breg20 -8]

$C$DW$46	.dwtag  DW_TAG_variable
	.dwattr $C$DW$46, DW_AT_name("pstr_copy_src")
	.dwattr $C$DW$46, DW_AT_TI_symbol_name("_pstr_copy_src")
	.dwattr $C$DW$46, DW_AT_type(*$C$DW$T$28)
	.dwattr $C$DW$46, DW_AT_location[DW_OP_breg20 -10]

$C$DW$47	.dwtag  DW_TAG_variable
	.dwattr $C$DW$47, DW_AT_name("len_copy")
	.dwattr $C$DW$47, DW_AT_TI_symbol_name("_len_copy")
	.dwattr $C$DW$47, DW_AT_type(*$C$DW$T$32)
	.dwattr $C$DW$47, DW_AT_location[DW_OP_breg20 -12]

        MOVL      *-SP[6],ACC           ; [CPU_ALU] |443| 
        MOVL      *-SP[4],XAR5          ; [CPU_ALU] |443| 
        MOVL      *-SP[2],XAR4          ; [CPU_ALU] |443| 
	.dwpsn	file "C:/ti/Workspace/PLC_certificate/Software/uC-LIB/lib_str.c",line 449,column 5,is_stmt,isa 0
        MOVL      ACC,*-SP[2]           ; [CPU_ALU] |449| 
        B         $C$L4,NEQ             ; [CPU_ALU] |449| 
        ; branchcc occurs ; [] |449| 
	.dwpsn	file "C:/ti/Workspace/PLC_certificate/Software/uC-LIB/lib_str.c",line 450,column 9,is_stmt,isa 0
        MOVB      XAR4,#0               ; [CPU_ALU] |450| 
        B         $C$L12,UNC            ; [CPU_ALU] |450| 
        ; branch occurs ; [] |450| 
$C$L4:    
	.dwpsn	file "C:/ti/Workspace/PLC_certificate/Software/uC-LIB/lib_str.c",line 452,column 5,is_stmt,isa 0
        MOVL      ACC,*-SP[4]           ; [CPU_ALU] |452| 
        B         $C$L5,NEQ             ; [CPU_ALU] |452| 
        ; branchcc occurs ; [] |452| 
	.dwpsn	file "C:/ti/Workspace/PLC_certificate/Software/uC-LIB/lib_str.c",line 453,column 9,is_stmt,isa 0
        MOVB      XAR4,#0               ; [CPU_ALU] |453| 
        B         $C$L12,UNC            ; [CPU_ALU] |453| 
        ; branch occurs ; [] |453| 
$C$L5:    
	.dwpsn	file "C:/ti/Workspace/PLC_certificate/Software/uC-LIB/lib_str.c",line 457,column 5,is_stmt,isa 0
        MOVL      ACC,*-SP[2]           ; [CPU_ALU] |457| 
        MOVL      *-SP[8],ACC           ; [CPU_ALU] |457| 
	.dwpsn	file "C:/ti/Workspace/PLC_certificate/Software/uC-LIB/lib_str.c",line 458,column 5,is_stmt,isa 0
        MOVL      ACC,*-SP[4]           ; [CPU_ALU] |458| 
        MOVL      *-SP[10],ACC          ; [CPU_ALU] |458| 
	.dwpsn	file "C:/ti/Workspace/PLC_certificate/Software/uC-LIB/lib_str.c",line 459,column 5,is_stmt,isa 0
        MOVB      ACC,#0                ; [CPU_ALU] |459| 
        MOVL      *-SP[12],ACC          ; [CPU_ALU] |459| 
	.dwpsn	file "C:/ti/Workspace/PLC_certificate/Software/uC-LIB/lib_str.c",line 461,column 5,is_stmt,isa 0
        B         $C$L7,UNC             ; [CPU_ALU] |461| 
        ; branch occurs ; [] |461| 
$C$L6:    
	.dwpsn	file "C:/ti/Workspace/PLC_certificate/Software/uC-LIB/lib_str.c",line 465,column 8,is_stmt,isa 0
        MOVL      XAR7,*-SP[10]         ; [CPU_ALU] |465| 
        MOVL      XAR4,*-SP[8]          ; [CPU_ALU] |465| 
        MOV       AL,*+XAR7[0]          ; [CPU_ALU] |465| 
        MOV       *+XAR4[0],AL          ; [CPU_ALU] |465| 
	.dwpsn	file "C:/ti/Workspace/PLC_certificate/Software/uC-LIB/lib_str.c",line 466,column 9,is_stmt,isa 0
        MOVB      ACC,#1                ; [CPU_ALU] |466| 
        ADDL      ACC,*-SP[8]           ; [CPU_ALU] |466| 
        MOVL      *-SP[8],ACC           ; [CPU_ALU] |466| 
	.dwpsn	file "C:/ti/Workspace/PLC_certificate/Software/uC-LIB/lib_str.c",line 467,column 9,is_stmt,isa 0
        MOVB      ACC,#1                ; [CPU_ALU] |467| 
        ADDL      ACC,*-SP[10]          ; [CPU_ALU] |467| 
        MOVL      *-SP[10],ACC          ; [CPU_ALU] |467| 
	.dwpsn	file "C:/ti/Workspace/PLC_certificate/Software/uC-LIB/lib_str.c",line 468,column 9,is_stmt,isa 0
        MOVB      ACC,#1                ; [CPU_ALU] |468| 
        ADDL      ACC,*-SP[12]          ; [CPU_ALU] |468| 
        MOVL      *-SP[12],ACC          ; [CPU_ALU] |468| 
$C$L7:    
	.dwpsn	file "C:/ti/Workspace/PLC_certificate/Software/uC-LIB/lib_str.c",line 461,column 12,is_stmt,isa 0
        MOVL      ACC,*-SP[8]           ; [CPU_ALU] |461| 
        B         $C$L8,EQ              ; [CPU_ALU] |461| 
        ; branchcc occurs ; [] |461| 
        MOVL      ACC,*-SP[10]          ; [CPU_ALU] |461| 
        B         $C$L8,EQ              ; [CPU_ALU] |461| 
        ; branchcc occurs ; [] |461| 
        MOVL      XAR4,*-SP[10]         ; [CPU_ALU] |461| 
        MOV       AL,*+XAR4[0]          ; [CPU_ALU] |461| 
        B         $C$L8,EQ              ; [CPU_ALU] |461| 
        ; branchcc occurs ; [] |461| 
        MOVL      ACC,*-SP[6]           ; [CPU_ALU] |461| 
        CMPL      ACC,*-SP[12]          ; [CPU_ALU] |461| 
        B         $C$L6,HI              ; [CPU_ALU] |461| 
        ; branchcc occurs ; [] |461| 
$C$L8:    
	.dwpsn	file "C:/ti/Workspace/PLC_certificate/Software/uC-LIB/lib_str.c",line 471,column 5,is_stmt,isa 0
        MOVL      ACC,*-SP[8]           ; [CPU_ALU] |471| 
        B         $C$L9,EQ              ; [CPU_ALU] |471| 
        ; branchcc occurs ; [] |471| 
        MOVL      ACC,*-SP[10]          ; [CPU_ALU] |471| 
        B         $C$L10,NEQ            ; [CPU_ALU] |471| 
        ; branchcc occurs ; [] |471| 
$C$L9:    
	.dwpsn	file "C:/ti/Workspace/PLC_certificate/Software/uC-LIB/lib_str.c",line 473,column 10,is_stmt,isa 0
        MOVB      XAR4,#0               ; [CPU_ALU] |473| 
        B         $C$L12,UNC            ; [CPU_ALU] |473| 
        ; branch occurs ; [] |473| 
$C$L10:    
	.dwpsn	file "C:/ti/Workspace/PLC_certificate/Software/uC-LIB/lib_str.c",line 476,column 5,is_stmt,isa 0
        MOVL      ACC,*-SP[6]           ; [CPU_ALU] |476| 
        CMPL      ACC,*-SP[12]          ; [CPU_ALU] |476| 
        B         $C$L11,LOS            ; [CPU_ALU] |476| 
        ; branchcc occurs ; [] |476| 
	.dwpsn	file "C:/ti/Workspace/PLC_certificate/Software/uC-LIB/lib_str.c",line 477,column 8,is_stmt,isa 0
        MOVL      XAR4,*-SP[8]          ; [CPU_ALU] |477| 
        MOV       *+XAR4[0],#0          ; [CPU_ALU] |477| 
$C$L11:    
	.dwpsn	file "C:/ti/Workspace/PLC_certificate/Software/uC-LIB/lib_str.c",line 481,column 5,is_stmt,isa 0
        MOVL      XAR4,*-SP[2]          ; [CPU_ALU] |481| 
$C$L12:    
	.dwpsn	file "C:/ti/Workspace/PLC_certificate/Software/uC-LIB/lib_str.c",line 482,column 1,is_stmt,isa 0
        SUBB      SP,#12                ; [CPU_ARAU] 
	.dwcfi	cfa_offset, -2
$C$DW$48	.dwtag  DW_TAG_TI_branch
	.dwattr $C$DW$48, DW_AT_low_pc(0x00)
	.dwattr $C$DW$48, DW_AT_TI_return

        LRETR     ; [CPU_ALU] 
        ; return occurs ; [] 
	.dwattr $C$DW$38, DW_AT_TI_end_file("C:/ti/Workspace/PLC_certificate/Software/uC-LIB/lib_str.c")
	.dwattr $C$DW$38, DW_AT_TI_end_line(0x1e2)
	.dwattr $C$DW$38, DW_AT_TI_end_column(0x01)
	.dwendentry
	.dwendtag $C$DW$38

	.sect	".text"
	.clink
	.global	_Str_Cat

$C$DW$49	.dwtag  DW_TAG_subprogram
	.dwattr $C$DW$49, DW_AT_name("Str_Cat")
	.dwattr $C$DW$49, DW_AT_low_pc(_Str_Cat)
	.dwattr $C$DW$49, DW_AT_high_pc(0x00)
	.dwattr $C$DW$49, DW_AT_TI_symbol_name("_Str_Cat")
	.dwattr $C$DW$49, DW_AT_external
	.dwattr $C$DW$49, DW_AT_type(*$C$DW$T$38)
	.dwattr $C$DW$49, DW_AT_TI_begin_file("C:/ti/Workspace/PLC_certificate/Software/uC-LIB/lib_str.c")
	.dwattr $C$DW$49, DW_AT_TI_begin_line(0x21d)
	.dwattr $C$DW$49, DW_AT_TI_begin_column(0x0c)
	.dwattr $C$DW$49, DW_AT_TI_max_frame_size(-8)
	.dwpsn	file "C:/ti/Workspace/PLC_certificate/Software/uC-LIB/lib_str.c",line 543,column 1,is_stmt,address _Str_Cat,isa 0

	.dwfde $C$DW$CIE, _Str_Cat
$C$DW$50	.dwtag  DW_TAG_formal_parameter
	.dwattr $C$DW$50, DW_AT_name("pstr_dest")
	.dwattr $C$DW$50, DW_AT_TI_symbol_name("_pstr_dest")
	.dwattr $C$DW$50, DW_AT_type(*$C$DW$T$38)
	.dwattr $C$DW$50, DW_AT_location[DW_OP_reg12]

$C$DW$51	.dwtag  DW_TAG_formal_parameter
	.dwattr $C$DW$51, DW_AT_name("pstr_cat")
	.dwattr $C$DW$51, DW_AT_TI_symbol_name("_pstr_cat")
	.dwattr $C$DW$51, DW_AT_type(*$C$DW$T$28)
	.dwattr $C$DW$51, DW_AT_location[DW_OP_reg14]


;***************************************************************
;* FNAME: _Str_Cat                      FR SIZE:   6           *
;*                                                             *
;* FUNCTION ENVIRONMENT                                        *
;*                                                             *
;* FUNCTION PROPERTIES                                         *
;*                            0 Parameter,  6 Auto,  0 SOE     *
;***************************************************************

_Str_Cat:
	.dwcfi	cfa_offset, -2
	.dwcfi	save_reg_to_mem, 26, 0
        ADDB      SP,#6                 ; [CPU_ARAU] 
	.dwcfi	cfa_offset, -8
$C$DW$52	.dwtag  DW_TAG_variable
	.dwattr $C$DW$52, DW_AT_name("pstr_dest")
	.dwattr $C$DW$52, DW_AT_TI_symbol_name("_pstr_dest")
	.dwattr $C$DW$52, DW_AT_type(*$C$DW$T$38)
	.dwattr $C$DW$52, DW_AT_location[DW_OP_breg20 -2]

$C$DW$53	.dwtag  DW_TAG_variable
	.dwattr $C$DW$53, DW_AT_name("pstr_cat")
	.dwattr $C$DW$53, DW_AT_TI_symbol_name("_pstr_cat")
	.dwattr $C$DW$53, DW_AT_type(*$C$DW$T$28)
	.dwattr $C$DW$53, DW_AT_location[DW_OP_breg20 -4]

$C$DW$54	.dwtag  DW_TAG_variable
	.dwattr $C$DW$54, DW_AT_name("pstr_rtn")
	.dwattr $C$DW$54, DW_AT_TI_symbol_name("_pstr_rtn")
	.dwattr $C$DW$54, DW_AT_type(*$C$DW$T$38)
	.dwattr $C$DW$54, DW_AT_location[DW_OP_breg20 -6]

        MOVL      *-SP[4],XAR5          ; [CPU_ALU] |543| 
        MOVL      *-SP[2],XAR4          ; [CPU_ALU] |543| 
	.dwpsn	file "C:/ti/Workspace/PLC_certificate/Software/uC-LIB/lib_str.c",line 547,column 5,is_stmt,isa 0
        MOVL      XAR6,#65535           ; [CPU_ARAU] |547| 
        MOVL      ACC,XAR6              ; [CPU_ALU] |547| 
$C$DW$55	.dwtag  DW_TAG_TI_branch
	.dwattr $C$DW$55, DW_AT_low_pc(0x00)
	.dwattr $C$DW$55, DW_AT_name("_Str_Cat_N")
	.dwattr $C$DW$55, DW_AT_TI_call

        LCR       #_Str_Cat_N           ; [CPU_ALU] |547| 
        ; call occurs [#_Str_Cat_N] ; [] |547| 
        MOVL      *-SP[6],XAR4          ; [CPU_ALU] |547| 
	.dwpsn	file "C:/ti/Workspace/PLC_certificate/Software/uC-LIB/lib_str.c",line 551,column 5,is_stmt,isa 0
	.dwpsn	file "C:/ti/Workspace/PLC_certificate/Software/uC-LIB/lib_str.c",line 552,column 1,is_stmt,isa 0
        SUBB      SP,#6                 ; [CPU_ARAU] 
	.dwcfi	cfa_offset, -2
$C$DW$56	.dwtag  DW_TAG_TI_branch
	.dwattr $C$DW$56, DW_AT_low_pc(0x00)
	.dwattr $C$DW$56, DW_AT_TI_return

        LRETR     ; [CPU_ALU] 
        ; return occurs ; [] 
	.dwattr $C$DW$49, DW_AT_TI_end_file("C:/ti/Workspace/PLC_certificate/Software/uC-LIB/lib_str.c")
	.dwattr $C$DW$49, DW_AT_TI_end_line(0x228)
	.dwattr $C$DW$49, DW_AT_TI_end_column(0x01)
	.dwendentry
	.dwendtag $C$DW$49

	.sect	".text"
	.clink
	.global	_Str_Cat_N

$C$DW$57	.dwtag  DW_TAG_subprogram
	.dwattr $C$DW$57, DW_AT_name("Str_Cat_N")
	.dwattr $C$DW$57, DW_AT_low_pc(_Str_Cat_N)
	.dwattr $C$DW$57, DW_AT_high_pc(0x00)
	.dwattr $C$DW$57, DW_AT_TI_symbol_name("_Str_Cat_N")
	.dwattr $C$DW$57, DW_AT_external
	.dwattr $C$DW$57, DW_AT_type(*$C$DW$T$38)
	.dwattr $C$DW$57, DW_AT_TI_begin_file("C:/ti/Workspace/PLC_certificate/Software/uC-LIB/lib_str.c")
	.dwattr $C$DW$57, DW_AT_TI_begin_line(0x26f)
	.dwattr $C$DW$57, DW_AT_TI_begin_column(0x0c)
	.dwattr $C$DW$57, DW_AT_TI_max_frame_size(-14)
	.dwpsn	file "C:/ti/Workspace/PLC_certificate/Software/uC-LIB/lib_str.c",line 626,column 1,is_stmt,address _Str_Cat_N,isa 0

	.dwfde $C$DW$CIE, _Str_Cat_N
$C$DW$58	.dwtag  DW_TAG_formal_parameter
	.dwattr $C$DW$58, DW_AT_name("pstr_dest")
	.dwattr $C$DW$58, DW_AT_TI_symbol_name("_pstr_dest")
	.dwattr $C$DW$58, DW_AT_type(*$C$DW$T$38)
	.dwattr $C$DW$58, DW_AT_location[DW_OP_reg12]

$C$DW$59	.dwtag  DW_TAG_formal_parameter
	.dwattr $C$DW$59, DW_AT_name("pstr_cat")
	.dwattr $C$DW$59, DW_AT_TI_symbol_name("_pstr_cat")
	.dwattr $C$DW$59, DW_AT_type(*$C$DW$T$28)
	.dwattr $C$DW$59, DW_AT_location[DW_OP_reg14]

$C$DW$60	.dwtag  DW_TAG_formal_parameter
	.dwattr $C$DW$60, DW_AT_name("len_max")
	.dwattr $C$DW$60, DW_AT_TI_symbol_name("_len_max")
	.dwattr $C$DW$60, DW_AT_type(*$C$DW$T$32)
	.dwattr $C$DW$60, DW_AT_location[DW_OP_reg0]


;***************************************************************
;* FNAME: _Str_Cat_N                    FR SIZE:  12           *
;*                                                             *
;* FUNCTION ENVIRONMENT                                        *
;*                                                             *
;* FUNCTION PROPERTIES                                         *
;*                            0 Parameter, 12 Auto,  0 SOE     *
;***************************************************************

_Str_Cat_N:
	.dwcfi	cfa_offset, -2
	.dwcfi	save_reg_to_mem, 26, 0
        ADDB      SP,#12                ; [CPU_ARAU] 
	.dwcfi	cfa_offset, -14
$C$DW$61	.dwtag  DW_TAG_variable
	.dwattr $C$DW$61, DW_AT_name("pstr_dest")
	.dwattr $C$DW$61, DW_AT_TI_symbol_name("_pstr_dest")
	.dwattr $C$DW$61, DW_AT_type(*$C$DW$T$38)
	.dwattr $C$DW$61, DW_AT_location[DW_OP_breg20 -2]

$C$DW$62	.dwtag  DW_TAG_variable
	.dwattr $C$DW$62, DW_AT_name("pstr_cat")
	.dwattr $C$DW$62, DW_AT_TI_symbol_name("_pstr_cat")
	.dwattr $C$DW$62, DW_AT_type(*$C$DW$T$28)
	.dwattr $C$DW$62, DW_AT_location[DW_OP_breg20 -4]

$C$DW$63	.dwtag  DW_TAG_variable
	.dwattr $C$DW$63, DW_AT_name("len_max")
	.dwattr $C$DW$63, DW_AT_TI_symbol_name("_len_max")
	.dwattr $C$DW$63, DW_AT_type(*$C$DW$T$32)
	.dwattr $C$DW$63, DW_AT_location[DW_OP_breg20 -6]

$C$DW$64	.dwtag  DW_TAG_variable
	.dwattr $C$DW$64, DW_AT_name("pstr_cat_dest")
	.dwattr $C$DW$64, DW_AT_TI_symbol_name("_pstr_cat_dest")
	.dwattr $C$DW$64, DW_AT_type(*$C$DW$T$38)
	.dwattr $C$DW$64, DW_AT_location[DW_OP_breg20 -8]

$C$DW$65	.dwtag  DW_TAG_variable
	.dwattr $C$DW$65, DW_AT_name("pstr_cat_src")
	.dwattr $C$DW$65, DW_AT_TI_symbol_name("_pstr_cat_src")
	.dwattr $C$DW$65, DW_AT_type(*$C$DW$T$28)
	.dwattr $C$DW$65, DW_AT_location[DW_OP_breg20 -10]

$C$DW$66	.dwtag  DW_TAG_variable
	.dwattr $C$DW$66, DW_AT_name("len_cat")
	.dwattr $C$DW$66, DW_AT_TI_symbol_name("_len_cat")
	.dwattr $C$DW$66, DW_AT_type(*$C$DW$T$32)
	.dwattr $C$DW$66, DW_AT_location[DW_OP_breg20 -12]

        MOVL      *-SP[6],ACC           ; [CPU_ALU] |626| 
        MOVL      *-SP[4],XAR5          ; [CPU_ALU] |626| 
        MOVL      *-SP[2],XAR4          ; [CPU_ALU] |626| 
	.dwpsn	file "C:/ti/Workspace/PLC_certificate/Software/uC-LIB/lib_str.c",line 632,column 5,is_stmt,isa 0
        MOVL      ACC,*-SP[2]           ; [CPU_ALU] |632| 
        B         $C$L13,NEQ            ; [CPU_ALU] |632| 
        ; branchcc occurs ; [] |632| 
	.dwpsn	file "C:/ti/Workspace/PLC_certificate/Software/uC-LIB/lib_str.c",line 633,column 9,is_stmt,isa 0
        MOVB      XAR4,#0               ; [CPU_ALU] |633| 
        B         $C$L24,UNC            ; [CPU_ALU] |633| 
        ; branch occurs ; [] |633| 
$C$L13:    
	.dwpsn	file "C:/ti/Workspace/PLC_certificate/Software/uC-LIB/lib_str.c",line 635,column 5,is_stmt,isa 0
        MOVL      ACC,*-SP[4]           ; [CPU_ALU] |635| 
        B         $C$L14,NEQ            ; [CPU_ALU] |635| 
        ; branchcc occurs ; [] |635| 
	.dwpsn	file "C:/ti/Workspace/PLC_certificate/Software/uC-LIB/lib_str.c",line 636,column 9,is_stmt,isa 0
        MOVB      XAR4,#0               ; [CPU_ALU] |636| 
        B         $C$L24,UNC            ; [CPU_ALU] |636| 
        ; branch occurs ; [] |636| 
$C$L14:    
	.dwpsn	file "C:/ti/Workspace/PLC_certificate/Software/uC-LIB/lib_str.c",line 639,column 5,is_stmt,isa 0
        MOVL      ACC,*-SP[6]           ; [CPU_ALU] |639| 
        B         $C$L24,EQ             ; [CPU_ALU] |639| 
        ; branchcc occurs ; [] |639| 
	.dwpsn	file "C:/ti/Workspace/PLC_certificate/Software/uC-LIB/lib_str.c",line 640,column 9,is_stmt,isa 0
	.dwpsn	file "C:/ti/Workspace/PLC_certificate/Software/uC-LIB/lib_str.c",line 644,column 5,is_stmt,isa 0
        MOVL      ACC,*-SP[2]           ; [CPU_ALU] |644| 
        MOVL      *-SP[8],ACC           ; [CPU_ALU] |644| 
	.dwpsn	file "C:/ti/Workspace/PLC_certificate/Software/uC-LIB/lib_str.c",line 645,column 5,is_stmt,isa 0
        B         $C$L16,UNC            ; [CPU_ALU] |645| 
        ; branch occurs ; [] |645| 
$C$L15:    
	.dwpsn	file "C:/ti/Workspace/PLC_certificate/Software/uC-LIB/lib_str.c",line 647,column 9,is_stmt,isa 0
        MOVB      ACC,#1                ; [CPU_ALU] |647| 
        ADDL      ACC,*-SP[8]           ; [CPU_ALU] |647| 
        MOVL      *-SP[8],ACC           ; [CPU_ALU] |647| 
$C$L16:    
	.dwpsn	file "C:/ti/Workspace/PLC_certificate/Software/uC-LIB/lib_str.c",line 645,column 12,is_stmt,isa 0
        MOVL      ACC,*-SP[8]           ; [CPU_ALU] |645| 
        B         $C$L17,EQ             ; [CPU_ALU] |645| 
        ; branchcc occurs ; [] |645| 
        MOVL      XAR4,*-SP[8]          ; [CPU_ALU] |645| 
        MOV       AL,*+XAR4[0]          ; [CPU_ALU] |645| 
        B         $C$L15,NEQ            ; [CPU_ALU] |645| 
        ; branchcc occurs ; [] |645| 
$C$L17:    
	.dwpsn	file "C:/ti/Workspace/PLC_certificate/Software/uC-LIB/lib_str.c",line 649,column 5,is_stmt,isa 0
        MOVL      ACC,*-SP[8]           ; [CPU_ALU] |649| 
        B         $C$L18,NEQ            ; [CPU_ALU] |649| 
        ; branchcc occurs ; [] |649| 
	.dwpsn	file "C:/ti/Workspace/PLC_certificate/Software/uC-LIB/lib_str.c",line 650,column 9,is_stmt,isa 0
        MOVB      XAR4,#0               ; [CPU_ALU] |650| 
        B         $C$L24,UNC            ; [CPU_ALU] |650| 
        ; branch occurs ; [] |650| 
$C$L18:    
	.dwpsn	file "C:/ti/Workspace/PLC_certificate/Software/uC-LIB/lib_str.c",line 653,column 5,is_stmt,isa 0
        MOVL      ACC,*-SP[4]           ; [CPU_ALU] |653| 
        MOVL      *-SP[10],ACC          ; [CPU_ALU] |653| 
	.dwpsn	file "C:/ti/Workspace/PLC_certificate/Software/uC-LIB/lib_str.c",line 654,column 5,is_stmt,isa 0
        MOVB      ACC,#0                ; [CPU_ALU] |654| 
        MOVL      *-SP[12],ACC          ; [CPU_ALU] |654| 
	.dwpsn	file "C:/ti/Workspace/PLC_certificate/Software/uC-LIB/lib_str.c",line 656,column 5,is_stmt,isa 0
        B         $C$L20,UNC            ; [CPU_ALU] |656| 
        ; branch occurs ; [] |656| 
$C$L19:    
	.dwpsn	file "C:/ti/Workspace/PLC_certificate/Software/uC-LIB/lib_str.c",line 660,column 8,is_stmt,isa 0
        MOVL      XAR7,*-SP[10]         ; [CPU_ALU] |660| 
        MOVL      XAR4,*-SP[8]          ; [CPU_ALU] |660| 
        MOV       AL,*+XAR7[0]          ; [CPU_ALU] |660| 
        MOV       *+XAR4[0],AL          ; [CPU_ALU] |660| 
	.dwpsn	file "C:/ti/Workspace/PLC_certificate/Software/uC-LIB/lib_str.c",line 661,column 9,is_stmt,isa 0
        MOVB      ACC,#1                ; [CPU_ALU] |661| 
        ADDL      ACC,*-SP[8]           ; [CPU_ALU] |661| 
        MOVL      *-SP[8],ACC           ; [CPU_ALU] |661| 
	.dwpsn	file "C:/ti/Workspace/PLC_certificate/Software/uC-LIB/lib_str.c",line 662,column 9,is_stmt,isa 0
        MOVB      ACC,#1                ; [CPU_ALU] |662| 
        ADDL      ACC,*-SP[10]          ; [CPU_ALU] |662| 
        MOVL      *-SP[10],ACC          ; [CPU_ALU] |662| 
	.dwpsn	file "C:/ti/Workspace/PLC_certificate/Software/uC-LIB/lib_str.c",line 663,column 9,is_stmt,isa 0
        MOVB      ACC,#1                ; [CPU_ALU] |663| 
        ADDL      ACC,*-SP[12]          ; [CPU_ALU] |663| 
        MOVL      *-SP[12],ACC          ; [CPU_ALU] |663| 
$C$L20:    
	.dwpsn	file "C:/ti/Workspace/PLC_certificate/Software/uC-LIB/lib_str.c",line 656,column 12,is_stmt,isa 0
        MOVL      ACC,*-SP[8]           ; [CPU_ALU] |656| 
        B         $C$L21,EQ             ; [CPU_ALU] |656| 
        ; branchcc occurs ; [] |656| 
        MOVL      ACC,*-SP[10]          ; [CPU_ALU] |656| 
        B         $C$L21,EQ             ; [CPU_ALU] |656| 
        ; branchcc occurs ; [] |656| 
        MOVL      XAR4,*-SP[10]         ; [CPU_ALU] |656| 
        MOV       AL,*+XAR4[0]          ; [CPU_ALU] |656| 
        B         $C$L21,EQ             ; [CPU_ALU] |656| 
        ; branchcc occurs ; [] |656| 
        MOVL      ACC,*-SP[6]           ; [CPU_ALU] |656| 
        CMPL      ACC,*-SP[12]          ; [CPU_ALU] |656| 
        B         $C$L19,HI             ; [CPU_ALU] |656| 
        ; branchcc occurs ; [] |656| 
$C$L21:    
	.dwpsn	file "C:/ti/Workspace/PLC_certificate/Software/uC-LIB/lib_str.c",line 666,column 5,is_stmt,isa 0
        MOVL      ACC,*-SP[8]           ; [CPU_ALU] |666| 
        B         $C$L22,EQ             ; [CPU_ALU] |666| 
        ; branchcc occurs ; [] |666| 
        MOVL      ACC,*-SP[10]          ; [CPU_ALU] |666| 
        B         $C$L23,NEQ            ; [CPU_ALU] |666| 
        ; branchcc occurs ; [] |666| 
$C$L22:    
	.dwpsn	file "C:/ti/Workspace/PLC_certificate/Software/uC-LIB/lib_str.c",line 668,column 10,is_stmt,isa 0
        MOVB      XAR4,#0               ; [CPU_ALU] |668| 
        B         $C$L24,UNC            ; [CPU_ALU] |668| 
        ; branch occurs ; [] |668| 
$C$L23:    
	.dwpsn	file "C:/ti/Workspace/PLC_certificate/Software/uC-LIB/lib_str.c",line 671,column 4,is_stmt,isa 0
        MOVL      XAR4,*-SP[8]          ; [CPU_ALU] |671| 
        MOV       *+XAR4[0],#0          ; [CPU_ALU] |671| 
	.dwpsn	file "C:/ti/Workspace/PLC_certificate/Software/uC-LIB/lib_str.c",line 674,column 5,is_stmt,isa 0
        MOVL      XAR4,*-SP[2]          ; [CPU_ALU] |674| 
$C$L24:    
	.dwpsn	file "C:/ti/Workspace/PLC_certificate/Software/uC-LIB/lib_str.c",line 675,column 1,is_stmt,isa 0
        SUBB      SP,#12                ; [CPU_ARAU] 
	.dwcfi	cfa_offset, -2
$C$DW$67	.dwtag  DW_TAG_TI_branch
	.dwattr $C$DW$67, DW_AT_low_pc(0x00)
	.dwattr $C$DW$67, DW_AT_TI_return

        LRETR     ; [CPU_ALU] 
        ; return occurs ; [] 
	.dwattr $C$DW$57, DW_AT_TI_end_file("C:/ti/Workspace/PLC_certificate/Software/uC-LIB/lib_str.c")
	.dwattr $C$DW$57, DW_AT_TI_end_line(0x2a3)
	.dwattr $C$DW$57, DW_AT_TI_end_column(0x01)
	.dwendentry
	.dwendtag $C$DW$57

	.sect	".text"
	.clink
	.global	_Str_Cmp

$C$DW$68	.dwtag  DW_TAG_subprogram
	.dwattr $C$DW$68, DW_AT_name("Str_Cmp")
	.dwattr $C$DW$68, DW_AT_low_pc(_Str_Cmp)
	.dwattr $C$DW$68, DW_AT_high_pc(0x00)
	.dwattr $C$DW$68, DW_AT_TI_symbol_name("_Str_Cmp")
	.dwattr $C$DW$68, DW_AT_external
	.dwattr $C$DW$68, DW_AT_type(*$C$DW$T$26)
	.dwattr $C$DW$68, DW_AT_TI_begin_file("C:/ti/Workspace/PLC_certificate/Software/uC-LIB/lib_str.c")
	.dwattr $C$DW$68, DW_AT_TI_begin_line(0x2f1)
	.dwattr $C$DW$68, DW_AT_TI_begin_column(0x0d)
	.dwattr $C$DW$68, DW_AT_TI_max_frame_size(-8)
	.dwpsn	file "C:/ti/Workspace/PLC_certificate/Software/uC-LIB/lib_str.c",line 755,column 1,is_stmt,address _Str_Cmp,isa 0

	.dwfde $C$DW$CIE, _Str_Cmp
$C$DW$69	.dwtag  DW_TAG_formal_parameter
	.dwattr $C$DW$69, DW_AT_name("p1_str")
	.dwattr $C$DW$69, DW_AT_TI_symbol_name("_p1_str")
	.dwattr $C$DW$69, DW_AT_type(*$C$DW$T$28)
	.dwattr $C$DW$69, DW_AT_location[DW_OP_reg12]

$C$DW$70	.dwtag  DW_TAG_formal_parameter
	.dwattr $C$DW$70, DW_AT_name("p2_str")
	.dwattr $C$DW$70, DW_AT_TI_symbol_name("_p2_str")
	.dwattr $C$DW$70, DW_AT_type(*$C$DW$T$28)
	.dwattr $C$DW$70, DW_AT_location[DW_OP_reg14]


;***************************************************************
;* FNAME: _Str_Cmp                      FR SIZE:   6           *
;*                                                             *
;* FUNCTION ENVIRONMENT                                        *
;*                                                             *
;* FUNCTION PROPERTIES                                         *
;*                            0 Parameter,  5 Auto,  0 SOE     *
;***************************************************************

_Str_Cmp:
	.dwcfi	cfa_offset, -2
	.dwcfi	save_reg_to_mem, 26, 0
        ADDB      SP,#6                 ; [CPU_ARAU] 
	.dwcfi	cfa_offset, -8
$C$DW$71	.dwtag  DW_TAG_variable
	.dwattr $C$DW$71, DW_AT_name("p1_str")
	.dwattr $C$DW$71, DW_AT_TI_symbol_name("_p1_str")
	.dwattr $C$DW$71, DW_AT_type(*$C$DW$T$28)
	.dwattr $C$DW$71, DW_AT_location[DW_OP_breg20 -2]

$C$DW$72	.dwtag  DW_TAG_variable
	.dwattr $C$DW$72, DW_AT_name("p2_str")
	.dwattr $C$DW$72, DW_AT_TI_symbol_name("_p2_str")
	.dwattr $C$DW$72, DW_AT_type(*$C$DW$T$28)
	.dwattr $C$DW$72, DW_AT_location[DW_OP_breg20 -4]

$C$DW$73	.dwtag  DW_TAG_variable
	.dwattr $C$DW$73, DW_AT_name("cmp_val")
	.dwattr $C$DW$73, DW_AT_TI_symbol_name("_cmp_val")
	.dwattr $C$DW$73, DW_AT_type(*$C$DW$T$26)
	.dwattr $C$DW$73, DW_AT_location[DW_OP_breg20 -5]

        MOVL      *-SP[4],XAR5          ; [CPU_ALU] |755| 
        MOVL      *-SP[2],XAR4          ; [CPU_ALU] |755| 
	.dwpsn	file "C:/ti/Workspace/PLC_certificate/Software/uC-LIB/lib_str.c",line 759,column 5,is_stmt,isa 0
        MOVL      XAR6,#65535           ; [CPU_ARAU] |759| 
        MOVL      ACC,XAR6              ; [CPU_ALU] |759| 
$C$DW$74	.dwtag  DW_TAG_TI_branch
	.dwattr $C$DW$74, DW_AT_low_pc(0x00)
	.dwattr $C$DW$74, DW_AT_name("_Str_Cmp_N")
	.dwattr $C$DW$74, DW_AT_TI_call

        LCR       #_Str_Cmp_N           ; [CPU_ALU] |759| 
        ; call occurs [#_Str_Cmp_N] ; [] |759| 
        MOV       *-SP[5],AL            ; [CPU_ALU] |759| 
	.dwpsn	file "C:/ti/Workspace/PLC_certificate/Software/uC-LIB/lib_str.c",line 763,column 5,is_stmt,isa 0
	.dwpsn	file "C:/ti/Workspace/PLC_certificate/Software/uC-LIB/lib_str.c",line 764,column 1,is_stmt,isa 0
        SUBB      SP,#6                 ; [CPU_ARAU] 
	.dwcfi	cfa_offset, -2
$C$DW$75	.dwtag  DW_TAG_TI_branch
	.dwattr $C$DW$75, DW_AT_low_pc(0x00)
	.dwattr $C$DW$75, DW_AT_TI_return

        LRETR     ; [CPU_ALU] 
        ; return occurs ; [] 
	.dwattr $C$DW$68, DW_AT_TI_end_file("C:/ti/Workspace/PLC_certificate/Software/uC-LIB/lib_str.c")
	.dwattr $C$DW$68, DW_AT_TI_end_line(0x2fc)
	.dwattr $C$DW$68, DW_AT_TI_end_column(0x01)
	.dwendentry
	.dwendtag $C$DW$68

	.sect	".text"
	.clink
	.global	_Str_Cmp_N

$C$DW$76	.dwtag  DW_TAG_subprogram
	.dwattr $C$DW$76, DW_AT_name("Str_Cmp_N")
	.dwattr $C$DW$76, DW_AT_low_pc(_Str_Cmp_N)
	.dwattr $C$DW$76, DW_AT_high_pc(0x00)
	.dwattr $C$DW$76, DW_AT_TI_symbol_name("_Str_Cmp_N")
	.dwattr $C$DW$76, DW_AT_external
	.dwattr $C$DW$76, DW_AT_type(*$C$DW$T$26)
	.dwattr $C$DW$76, DW_AT_TI_begin_file("C:/ti/Workspace/PLC_certificate/Software/uC-LIB/lib_str.c")
	.dwattr $C$DW$76, DW_AT_TI_begin_line(0x356)
	.dwattr $C$DW$76, DW_AT_TI_begin_column(0x0d)
	.dwattr $C$DW$76, DW_AT_TI_max_frame_size(-20)
	.dwpsn	file "C:/ti/Workspace/PLC_certificate/Software/uC-LIB/lib_str.c",line 857,column 1,is_stmt,address _Str_Cmp_N,isa 0

	.dwfde $C$DW$CIE, _Str_Cmp_N
$C$DW$77	.dwtag  DW_TAG_formal_parameter
	.dwattr $C$DW$77, DW_AT_name("p1_str")
	.dwattr $C$DW$77, DW_AT_TI_symbol_name("_p1_str")
	.dwattr $C$DW$77, DW_AT_type(*$C$DW$T$28)
	.dwattr $C$DW$77, DW_AT_location[DW_OP_reg12]

$C$DW$78	.dwtag  DW_TAG_formal_parameter
	.dwattr $C$DW$78, DW_AT_name("p2_str")
	.dwattr $C$DW$78, DW_AT_TI_symbol_name("_p2_str")
	.dwattr $C$DW$78, DW_AT_type(*$C$DW$T$28)
	.dwattr $C$DW$78, DW_AT_location[DW_OP_reg14]

$C$DW$79	.dwtag  DW_TAG_formal_parameter
	.dwattr $C$DW$79, DW_AT_name("len_max")
	.dwattr $C$DW$79, DW_AT_TI_symbol_name("_len_max")
	.dwattr $C$DW$79, DW_AT_type(*$C$DW$T$32)
	.dwattr $C$DW$79, DW_AT_location[DW_OP_reg0]


;***************************************************************
;* FNAME: _Str_Cmp_N                    FR SIZE:  18           *
;*                                                             *
;* FUNCTION ENVIRONMENT                                        *
;*                                                             *
;* FUNCTION PROPERTIES                                         *
;*                            0 Parameter, 17 Auto,  0 SOE     *
;***************************************************************

_Str_Cmp_N:
	.dwcfi	cfa_offset, -2
	.dwcfi	save_reg_to_mem, 26, 0
        ADDB      SP,#18                ; [CPU_ARAU] 
	.dwcfi	cfa_offset, -20
$C$DW$80	.dwtag  DW_TAG_variable
	.dwattr $C$DW$80, DW_AT_name("p1_str")
	.dwattr $C$DW$80, DW_AT_TI_symbol_name("_p1_str")
	.dwattr $C$DW$80, DW_AT_type(*$C$DW$T$28)
	.dwattr $C$DW$80, DW_AT_location[DW_OP_breg20 -2]

$C$DW$81	.dwtag  DW_TAG_variable
	.dwattr $C$DW$81, DW_AT_name("p2_str")
	.dwattr $C$DW$81, DW_AT_TI_symbol_name("_p2_str")
	.dwattr $C$DW$81, DW_AT_type(*$C$DW$T$28)
	.dwattr $C$DW$81, DW_AT_location[DW_OP_breg20 -4]

$C$DW$82	.dwtag  DW_TAG_variable
	.dwattr $C$DW$82, DW_AT_name("len_max")
	.dwattr $C$DW$82, DW_AT_TI_symbol_name("_len_max")
	.dwattr $C$DW$82, DW_AT_type(*$C$DW$T$32)
	.dwattr $C$DW$82, DW_AT_location[DW_OP_breg20 -6]

$C$DW$83	.dwtag  DW_TAG_variable
	.dwattr $C$DW$83, DW_AT_name("p1_str_cmp")
	.dwattr $C$DW$83, DW_AT_TI_symbol_name("_p1_str_cmp")
	.dwattr $C$DW$83, DW_AT_type(*$C$DW$T$28)
	.dwattr $C$DW$83, DW_AT_location[DW_OP_breg20 -8]

$C$DW$84	.dwtag  DW_TAG_variable
	.dwattr $C$DW$84, DW_AT_name("p2_str_cmp")
	.dwattr $C$DW$84, DW_AT_TI_symbol_name("_p2_str_cmp")
	.dwattr $C$DW$84, DW_AT_type(*$C$DW$T$28)
	.dwattr $C$DW$84, DW_AT_location[DW_OP_breg20 -10]

$C$DW$85	.dwtag  DW_TAG_variable
	.dwattr $C$DW$85, DW_AT_name("p1_str_cmp_next")
	.dwattr $C$DW$85, DW_AT_TI_symbol_name("_p1_str_cmp_next")
	.dwattr $C$DW$85, DW_AT_type(*$C$DW$T$28)
	.dwattr $C$DW$85, DW_AT_location[DW_OP_breg20 -12]

$C$DW$86	.dwtag  DW_TAG_variable
	.dwattr $C$DW$86, DW_AT_name("p2_str_cmp_next")
	.dwattr $C$DW$86, DW_AT_TI_symbol_name("_p2_str_cmp_next")
	.dwattr $C$DW$86, DW_AT_type(*$C$DW$T$28)
	.dwattr $C$DW$86, DW_AT_location[DW_OP_breg20 -14]

$C$DW$87	.dwtag  DW_TAG_variable
	.dwattr $C$DW$87, DW_AT_name("cmp_len")
	.dwattr $C$DW$87, DW_AT_TI_symbol_name("_cmp_len")
	.dwattr $C$DW$87, DW_AT_type(*$C$DW$T$32)
	.dwattr $C$DW$87, DW_AT_location[DW_OP_breg20 -16]

$C$DW$88	.dwtag  DW_TAG_variable
	.dwattr $C$DW$88, DW_AT_name("cmp_val")
	.dwattr $C$DW$88, DW_AT_TI_symbol_name("_cmp_val")
	.dwattr $C$DW$88, DW_AT_type(*$C$DW$T$26)
	.dwattr $C$DW$88, DW_AT_location[DW_OP_breg20 -17]

        MOVL      *-SP[6],ACC           ; [CPU_ALU] |857| 
        MOVL      *-SP[4],XAR5          ; [CPU_ALU] |857| 
        MOVL      *-SP[2],XAR4          ; [CPU_ALU] |857| 
	.dwpsn	file "C:/ti/Workspace/PLC_certificate/Software/uC-LIB/lib_str.c",line 866,column 5,is_stmt,isa 0
        MOVL      ACC,*-SP[6]           ; [CPU_ALU] |866| 
        B         $C$L25,NEQ            ; [CPU_ALU] |866| 
        ; branchcc occurs ; [] |866| 
	.dwpsn	file "C:/ti/Workspace/PLC_certificate/Software/uC-LIB/lib_str.c",line 867,column 9,is_stmt,isa 0
        MOVB      AL,#0                 ; [CPU_ALU] |867| 
        B         $C$L38,UNC            ; [CPU_ALU] |867| 
        ; branch occurs ; [] |867| 
$C$L25:    
	.dwpsn	file "C:/ti/Workspace/PLC_certificate/Software/uC-LIB/lib_str.c",line 870,column 5,is_stmt,isa 0
        MOVL      ACC,*-SP[2]           ; [CPU_ALU] |870| 
        B         $C$L27,NEQ            ; [CPU_ALU] |870| 
        ; branchcc occurs ; [] |870| 
	.dwpsn	file "C:/ti/Workspace/PLC_certificate/Software/uC-LIB/lib_str.c",line 871,column 9,is_stmt,isa 0
        MOVL      ACC,*-SP[4]           ; [CPU_ALU] |871| 
        B         $C$L26,NEQ            ; [CPU_ALU] |871| 
        ; branchcc occurs ; [] |871| 
	.dwpsn	file "C:/ti/Workspace/PLC_certificate/Software/uC-LIB/lib_str.c",line 872,column 13,is_stmt,isa 0
        MOVB      AL,#0                 ; [CPU_ALU] |872| 
        B         $C$L38,UNC            ; [CPU_ALU] |872| 
        ; branch occurs ; [] |872| 
$C$L26:    
	.dwpsn	file "C:/ti/Workspace/PLC_certificate/Software/uC-LIB/lib_str.c",line 874,column 9,is_stmt,isa 0
        MOVL      XAR4,*-SP[4]          ; [CPU_ALU] |874| 
        MOV       AL,*+XAR4[0]          ; [CPU_ALU] |874| 
        NEG       AL                    ; [CPU_ALU] |874| 
        MOV       *-SP[17],AL           ; [CPU_ALU] |874| 
	.dwpsn	file "C:/ti/Workspace/PLC_certificate/Software/uC-LIB/lib_str.c",line 875,column 9,is_stmt,isa 0
        B         $C$L38,UNC            ; [CPU_ALU] |875| 
        ; branch occurs ; [] |875| 
$C$L27:    
	.dwpsn	file "C:/ti/Workspace/PLC_certificate/Software/uC-LIB/lib_str.c",line 877,column 5,is_stmt,isa 0
        MOVL      ACC,*-SP[4]           ; [CPU_ALU] |877| 
        B         $C$L28,NEQ            ; [CPU_ALU] |877| 
        ; branchcc occurs ; [] |877| 
	.dwpsn	file "C:/ti/Workspace/PLC_certificate/Software/uC-LIB/lib_str.c",line 878,column 9,is_stmt,isa 0
        MOVL      XAR7,*-SP[2]          ; [CPU_ALU] |878| 
        MOV       AL,*+XAR7[0]          ; [CPU_ALU] |878| 
        MOV       *-SP[17],AL           ; [CPU_ALU] |878| 
	.dwpsn	file "C:/ti/Workspace/PLC_certificate/Software/uC-LIB/lib_str.c",line 879,column 9,is_stmt,isa 0
        B         $C$L38,UNC            ; [CPU_ALU] |879| 
        ; branch occurs ; [] |879| 
$C$L28:    
	.dwpsn	file "C:/ti/Workspace/PLC_certificate/Software/uC-LIB/lib_str.c",line 883,column 5,is_stmt,isa 0
        MOVL      ACC,*-SP[2]           ; [CPU_ALU] |883| 
        MOVL      *-SP[8],ACC           ; [CPU_ALU] |883| 
	.dwpsn	file "C:/ti/Workspace/PLC_certificate/Software/uC-LIB/lib_str.c",line 884,column 5,is_stmt,isa 0
        MOVL      ACC,*-SP[4]           ; [CPU_ALU] |884| 
        MOVL      *-SP[10],ACC          ; [CPU_ALU] |884| 
	.dwpsn	file "C:/ti/Workspace/PLC_certificate/Software/uC-LIB/lib_str.c",line 885,column 5,is_stmt,isa 0
        MOVL      ACC,*-SP[8]           ; [CPU_ALU] |885| 
        MOVL      *-SP[12],ACC          ; [CPU_ALU] |885| 
	.dwpsn	file "C:/ti/Workspace/PLC_certificate/Software/uC-LIB/lib_str.c",line 886,column 5,is_stmt,isa 0
        MOVL      ACC,*-SP[10]          ; [CPU_ALU] |886| 
        MOVL      *-SP[14],ACC          ; [CPU_ALU] |886| 
	.dwpsn	file "C:/ti/Workspace/PLC_certificate/Software/uC-LIB/lib_str.c",line 887,column 5,is_stmt,isa 0
        MOVB      ACC,#1                ; [CPU_ALU] |887| 
        ADDL      ACC,*-SP[12]          ; [CPU_ALU] |887| 
        MOVL      *-SP[12],ACC          ; [CPU_ALU] |887| 
	.dwpsn	file "C:/ti/Workspace/PLC_certificate/Software/uC-LIB/lib_str.c",line 888,column 5,is_stmt,isa 0
        MOVB      ACC,#1                ; [CPU_ALU] |888| 
        ADDL      ACC,*-SP[14]          ; [CPU_ALU] |888| 
        MOVL      *-SP[14],ACC          ; [CPU_ALU] |888| 
	.dwpsn	file "C:/ti/Workspace/PLC_certificate/Software/uC-LIB/lib_str.c",line 889,column 5,is_stmt,isa 0
        MOVB      ACC,#0                ; [CPU_ALU] |889| 
        MOVL      *-SP[16],ACC          ; [CPU_ALU] |889| 
	.dwpsn	file "C:/ti/Workspace/PLC_certificate/Software/uC-LIB/lib_str.c",line 891,column 5,is_stmt,isa 0
        B         $C$L30,UNC            ; [CPU_ALU] |891| 
        ; branch occurs ; [] |891| 
$C$L29:    
	.dwpsn	file "C:/ti/Workspace/PLC_certificate/Software/uC-LIB/lib_str.c",line 896,column 9,is_stmt,isa 0
        MOVB      ACC,#1                ; [CPU_ALU] |896| 
        ADDL      ACC,*-SP[8]           ; [CPU_ALU] |896| 
        MOVL      *-SP[8],ACC           ; [CPU_ALU] |896| 
	.dwpsn	file "C:/ti/Workspace/PLC_certificate/Software/uC-LIB/lib_str.c",line 897,column 9,is_stmt,isa 0
        MOVB      ACC,#1                ; [CPU_ALU] |897| 
        ADDL      ACC,*-SP[10]          ; [CPU_ALU] |897| 
        MOVL      *-SP[10],ACC          ; [CPU_ALU] |897| 
	.dwpsn	file "C:/ti/Workspace/PLC_certificate/Software/uC-LIB/lib_str.c",line 898,column 9,is_stmt,isa 0
        MOVB      ACC,#1                ; [CPU_ALU] |898| 
        ADDL      ACC,*-SP[12]          ; [CPU_ALU] |898| 
        MOVL      *-SP[12],ACC          ; [CPU_ALU] |898| 
	.dwpsn	file "C:/ti/Workspace/PLC_certificate/Software/uC-LIB/lib_str.c",line 899,column 9,is_stmt,isa 0
        MOVB      ACC,#1                ; [CPU_ALU] |899| 
        ADDL      ACC,*-SP[14]          ; [CPU_ALU] |899| 
        MOVL      *-SP[14],ACC          ; [CPU_ALU] |899| 
	.dwpsn	file "C:/ti/Workspace/PLC_certificate/Software/uC-LIB/lib_str.c",line 900,column 9,is_stmt,isa 0
        MOVB      ACC,#1                ; [CPU_ALU] |900| 
        ADDL      ACC,*-SP[16]          ; [CPU_ALU] |900| 
        MOVL      *-SP[16],ACC          ; [CPU_ALU] |900| 
$C$L30:    
	.dwpsn	file "C:/ti/Workspace/PLC_certificate/Software/uC-LIB/lib_str.c",line 891,column 12,is_stmt,isa 0
        MOVL      XAR4,*-SP[10]         ; [CPU_ALU] |891| 
        MOV       AL,*+XAR4[0]          ; [CPU_ALU] |891| 
        MOVL      XAR4,*-SP[8]          ; [CPU_ALU] |891| 
        CMP       AL,*+XAR4[0]          ; [CPU_ALU] |891| 
        B         $C$L31,NEQ            ; [CPU_ALU] |891| 
        ; branchcc occurs ; [] |891| 
        MOV       AL,*+XAR4[0]          ; [CPU_ALU] |891| 
        B         $C$L31,EQ             ; [CPU_ALU] |891| 
        ; branchcc occurs ; [] |891| 
        MOVL      ACC,*-SP[12]          ; [CPU_ALU] |891| 
        B         $C$L31,EQ             ; [CPU_ALU] |891| 
        ; branchcc occurs ; [] |891| 
        MOVL      ACC,*-SP[14]          ; [CPU_ALU] |891| 
        B         $C$L31,EQ             ; [CPU_ALU] |891| 
        ; branchcc occurs ; [] |891| 
        MOVL      ACC,*-SP[6]           ; [CPU_ALU] |891| 
        CMPL      ACC,*-SP[16]          ; [CPU_ALU] |891| 
        B         $C$L29,HI             ; [CPU_ALU] |891| 
        ; branchcc occurs ; [] |891| 
$C$L31:    
	.dwpsn	file "C:/ti/Workspace/PLC_certificate/Software/uC-LIB/lib_str.c",line 904,column 5,is_stmt,isa 0
        MOVL      ACC,*-SP[6]           ; [CPU_ALU] |904| 
        CMPL      ACC,*-SP[16]          ; [CPU_ALU] |904| 
        B         $C$L32,NEQ            ; [CPU_ALU] |904| 
        ; branchcc occurs ; [] |904| 
	.dwpsn	file "C:/ti/Workspace/PLC_certificate/Software/uC-LIB/lib_str.c",line 905,column 9,is_stmt,isa 0
        MOVB      AL,#0                 ; [CPU_ALU] |905| 
        B         $C$L38,UNC            ; [CPU_ALU] |905| 
        ; branch occurs ; [] |905| 
$C$L32:    
	.dwpsn	file "C:/ti/Workspace/PLC_certificate/Software/uC-LIB/lib_str.c",line 908,column 5,is_stmt,isa 0
        MOVL      XAR4,*-SP[10]         ; [CPU_ALU] |908| 
        MOV       AL,*+XAR4[0]          ; [CPU_ALU] |908| 
        MOVL      XAR4,*-SP[8]          ; [CPU_ALU] |908| 
        CMP       AL,*+XAR4[0]          ; [CPU_ALU] |908| 
        B         $C$L33,EQ             ; [CPU_ALU] |908| 
        ; branchcc occurs ; [] |908| 
	.dwpsn	file "C:/ti/Workspace/PLC_certificate/Software/uC-LIB/lib_str.c",line 910,column 10,is_stmt,isa 0
        MOVL      XAR5,*-SP[8]          ; [CPU_ALU] |910| 
        MOVL      XAR4,*-SP[10]         ; [CPU_ALU] |910| 
        MOV       AL,*+XAR5[0]          ; [CPU_ALU] |910| 
        SUB       AL,*+XAR4[0]          ; [CPU_ALU] |910| 
        MOV       *-SP[17],AL           ; [CPU_ALU] |910| 
        B         $C$L37,UNC            ; [CPU_ALU] 
        ; branch occurs ; [] 
$C$L33:    
	.dwpsn	file "C:/ti/Workspace/PLC_certificate/Software/uC-LIB/lib_str.c",line 912,column 12,is_stmt,isa 0
        MOV       AL,*+XAR4[0]          ; [CPU_ALU] |912| 
        B         $C$L34,NEQ            ; [CPU_ALU] |912| 
        ; branchcc occurs ; [] |912| 
	.dwpsn	file "C:/ti/Workspace/PLC_certificate/Software/uC-LIB/lib_str.c",line 913,column 10,is_stmt,isa 0
        MOV       *-SP[17],#0           ; [CPU_ALU] |913| 
        B         $C$L37,UNC            ; [CPU_ALU] 
        ; branch occurs ; [] 
$C$L34:    
	.dwpsn	file "C:/ti/Workspace/PLC_certificate/Software/uC-LIB/lib_str.c",line 916,column 9,is_stmt,isa 0
        MOVL      ACC,*-SP[12]          ; [CPU_ALU] |916| 
        B         $C$L36,NEQ            ; [CPU_ALU] |916| 
        ; branchcc occurs ; [] |916| 
	.dwpsn	file "C:/ti/Workspace/PLC_certificate/Software/uC-LIB/lib_str.c",line 917,column 13,is_stmt,isa 0
        MOVL      ACC,*-SP[14]          ; [CPU_ALU] |917| 
        B         $C$L35,NEQ            ; [CPU_ALU] |917| 
        ; branchcc occurs ; [] |917| 
	.dwpsn	file "C:/ti/Workspace/PLC_certificate/Software/uC-LIB/lib_str.c",line 918,column 17,is_stmt,isa 0
        MOV       *-SP[17],#0           ; [CPU_ALU] |918| 
        B         $C$L37,UNC            ; [CPU_ALU] 
        ; branch occurs ; [] 
$C$L35:    
	.dwpsn	file "C:/ti/Workspace/PLC_certificate/Software/uC-LIB/lib_str.c",line 921,column 17,is_stmt,isa 0
        MOVL      XAR4,*-SP[14]         ; [CPU_ALU] |921| 
        MOV       AL,*+XAR4[0]          ; [CPU_ALU] |921| 
        NEG       AL                    ; [CPU_ALU] |921| 
        MOV       *-SP[17],AL           ; [CPU_ALU] |921| 
        B         $C$L37,UNC            ; [CPU_ALU] 
        ; branch occurs ; [] 
$C$L36:    
	.dwpsn	file "C:/ti/Workspace/PLC_certificate/Software/uC-LIB/lib_str.c",line 924,column 13,is_stmt,isa 0
        MOVL      XAR7,*-SP[12]         ; [CPU_ALU] |924| 
        MOV       AL,*+XAR7[0]          ; [CPU_ALU] |924| 
        MOV       *-SP[17],AL           ; [CPU_ALU] |924| 
$C$L37:    
	.dwpsn	file "C:/ti/Workspace/PLC_certificate/Software/uC-LIB/lib_str.c",line 929,column 5,is_stmt,isa 0
        MOV       AL,*-SP[17]           ; [CPU_ALU] |929| 
$C$L38:    
	.dwpsn	file "C:/ti/Workspace/PLC_certificate/Software/uC-LIB/lib_str.c",line 930,column 1,is_stmt,isa 0
        SUBB      SP,#18                ; [CPU_ARAU] 
	.dwcfi	cfa_offset, -2
$C$DW$89	.dwtag  DW_TAG_TI_branch
	.dwattr $C$DW$89, DW_AT_low_pc(0x00)
	.dwattr $C$DW$89, DW_AT_TI_return

        LRETR     ; [CPU_ALU] 
        ; return occurs ; [] 
	.dwattr $C$DW$76, DW_AT_TI_end_file("C:/ti/Workspace/PLC_certificate/Software/uC-LIB/lib_str.c")
	.dwattr $C$DW$76, DW_AT_TI_end_line(0x3a2)
	.dwattr $C$DW$76, DW_AT_TI_end_column(0x01)
	.dwendentry
	.dwendtag $C$DW$76

	.sect	".text"
	.clink
	.global	_Str_CmpIgnoreCase

$C$DW$90	.dwtag  DW_TAG_subprogram
	.dwattr $C$DW$90, DW_AT_name("Str_CmpIgnoreCase")
	.dwattr $C$DW$90, DW_AT_low_pc(_Str_CmpIgnoreCase)
	.dwattr $C$DW$90, DW_AT_high_pc(0x00)
	.dwattr $C$DW$90, DW_AT_TI_symbol_name("_Str_CmpIgnoreCase")
	.dwattr $C$DW$90, DW_AT_external
	.dwattr $C$DW$90, DW_AT_type(*$C$DW$T$26)
	.dwattr $C$DW$90, DW_AT_TI_begin_file("C:/ti/Workspace/PLC_certificate/Software/uC-LIB/lib_str.c")
	.dwattr $C$DW$90, DW_AT_TI_begin_line(0x3fa)
	.dwattr $C$DW$90, DW_AT_TI_begin_column(0x0d)
	.dwattr $C$DW$90, DW_AT_TI_max_frame_size(-8)
	.dwpsn	file "C:/ti/Workspace/PLC_certificate/Software/uC-LIB/lib_str.c",line 1020,column 1,is_stmt,address _Str_CmpIgnoreCase,isa 0

	.dwfde $C$DW$CIE, _Str_CmpIgnoreCase
$C$DW$91	.dwtag  DW_TAG_formal_parameter
	.dwattr $C$DW$91, DW_AT_name("p1_str")
	.dwattr $C$DW$91, DW_AT_TI_symbol_name("_p1_str")
	.dwattr $C$DW$91, DW_AT_type(*$C$DW$T$28)
	.dwattr $C$DW$91, DW_AT_location[DW_OP_reg12]

$C$DW$92	.dwtag  DW_TAG_formal_parameter
	.dwattr $C$DW$92, DW_AT_name("p2_str")
	.dwattr $C$DW$92, DW_AT_TI_symbol_name("_p2_str")
	.dwattr $C$DW$92, DW_AT_type(*$C$DW$T$28)
	.dwattr $C$DW$92, DW_AT_location[DW_OP_reg14]


;***************************************************************
;* FNAME: _Str_CmpIgnoreCase            FR SIZE:   6           *
;*                                                             *
;* FUNCTION ENVIRONMENT                                        *
;*                                                             *
;* FUNCTION PROPERTIES                                         *
;*                            0 Parameter,  5 Auto,  0 SOE     *
;***************************************************************

_Str_CmpIgnoreCase:
	.dwcfi	cfa_offset, -2
	.dwcfi	save_reg_to_mem, 26, 0
        ADDB      SP,#6                 ; [CPU_ARAU] 
	.dwcfi	cfa_offset, -8
$C$DW$93	.dwtag  DW_TAG_variable
	.dwattr $C$DW$93, DW_AT_name("p1_str")
	.dwattr $C$DW$93, DW_AT_TI_symbol_name("_p1_str")
	.dwattr $C$DW$93, DW_AT_type(*$C$DW$T$28)
	.dwattr $C$DW$93, DW_AT_location[DW_OP_breg20 -2]

$C$DW$94	.dwtag  DW_TAG_variable
	.dwattr $C$DW$94, DW_AT_name("p2_str")
	.dwattr $C$DW$94, DW_AT_TI_symbol_name("_p2_str")
	.dwattr $C$DW$94, DW_AT_type(*$C$DW$T$28)
	.dwattr $C$DW$94, DW_AT_location[DW_OP_breg20 -4]

$C$DW$95	.dwtag  DW_TAG_variable
	.dwattr $C$DW$95, DW_AT_name("cmp_val")
	.dwattr $C$DW$95, DW_AT_TI_symbol_name("_cmp_val")
	.dwattr $C$DW$95, DW_AT_type(*$C$DW$T$26)
	.dwattr $C$DW$95, DW_AT_location[DW_OP_breg20 -5]

        MOVL      *-SP[4],XAR5          ; [CPU_ALU] |1020| 
        MOVL      *-SP[2],XAR4          ; [CPU_ALU] |1020| 
	.dwpsn	file "C:/ti/Workspace/PLC_certificate/Software/uC-LIB/lib_str.c",line 1024,column 5,is_stmt,isa 0
        MOVL      XAR6,#65535           ; [CPU_ARAU] |1024| 
        MOVL      ACC,XAR6              ; [CPU_ALU] |1024| 
$C$DW$96	.dwtag  DW_TAG_TI_branch
	.dwattr $C$DW$96, DW_AT_low_pc(0x00)
	.dwattr $C$DW$96, DW_AT_name("_Str_CmpIgnoreCase_N")
	.dwattr $C$DW$96, DW_AT_TI_call

        LCR       #_Str_CmpIgnoreCase_N ; [CPU_ALU] |1024| 
        ; call occurs [#_Str_CmpIgnoreCase_N] ; [] |1024| 
        MOV       *-SP[5],AL            ; [CPU_ALU] |1024| 
	.dwpsn	file "C:/ti/Workspace/PLC_certificate/Software/uC-LIB/lib_str.c",line 1028,column 5,is_stmt,isa 0
	.dwpsn	file "C:/ti/Workspace/PLC_certificate/Software/uC-LIB/lib_str.c",line 1029,column 1,is_stmt,isa 0
        SUBB      SP,#6                 ; [CPU_ARAU] 
	.dwcfi	cfa_offset, -2
$C$DW$97	.dwtag  DW_TAG_TI_branch
	.dwattr $C$DW$97, DW_AT_low_pc(0x00)
	.dwattr $C$DW$97, DW_AT_TI_return

        LRETR     ; [CPU_ALU] 
        ; return occurs ; [] 
	.dwattr $C$DW$90, DW_AT_TI_end_file("C:/ti/Workspace/PLC_certificate/Software/uC-LIB/lib_str.c")
	.dwattr $C$DW$90, DW_AT_TI_end_line(0x405)
	.dwattr $C$DW$90, DW_AT_TI_end_column(0x01)
	.dwendentry
	.dwendtag $C$DW$90

	.sect	".text"
	.clink
	.global	_Str_CmpIgnoreCase_N

$C$DW$98	.dwtag  DW_TAG_subprogram
	.dwattr $C$DW$98, DW_AT_name("Str_CmpIgnoreCase_N")
	.dwattr $C$DW$98, DW_AT_low_pc(_Str_CmpIgnoreCase_N)
	.dwattr $C$DW$98, DW_AT_high_pc(0x00)
	.dwattr $C$DW$98, DW_AT_TI_symbol_name("_Str_CmpIgnoreCase_N")
	.dwattr $C$DW$98, DW_AT_external
	.dwattr $C$DW$98, DW_AT_type(*$C$DW$T$26)
	.dwattr $C$DW$98, DW_AT_TI_begin_file("C:/ti/Workspace/PLC_certificate/Software/uC-LIB/lib_str.c")
	.dwattr $C$DW$98, DW_AT_TI_begin_line(0x469)
	.dwattr $C$DW$98, DW_AT_TI_begin_column(0x0d)
	.dwattr $C$DW$98, DW_AT_TI_max_frame_size(-22)
	.dwpsn	file "C:/ti/Workspace/PLC_certificate/Software/uC-LIB/lib_str.c",line 1132,column 1,is_stmt,address _Str_CmpIgnoreCase_N,isa 0

	.dwfde $C$DW$CIE, _Str_CmpIgnoreCase_N
$C$DW$99	.dwtag  DW_TAG_formal_parameter
	.dwattr $C$DW$99, DW_AT_name("p1_str")
	.dwattr $C$DW$99, DW_AT_TI_symbol_name("_p1_str")
	.dwattr $C$DW$99, DW_AT_type(*$C$DW$T$28)
	.dwattr $C$DW$99, DW_AT_location[DW_OP_reg12]

$C$DW$100	.dwtag  DW_TAG_formal_parameter
	.dwattr $C$DW$100, DW_AT_name("p2_str")
	.dwattr $C$DW$100, DW_AT_TI_symbol_name("_p2_str")
	.dwattr $C$DW$100, DW_AT_type(*$C$DW$T$28)
	.dwattr $C$DW$100, DW_AT_location[DW_OP_reg14]

$C$DW$101	.dwtag  DW_TAG_formal_parameter
	.dwattr $C$DW$101, DW_AT_name("len_max")
	.dwattr $C$DW$101, DW_AT_TI_symbol_name("_len_max")
	.dwattr $C$DW$101, DW_AT_type(*$C$DW$T$32)
	.dwattr $C$DW$101, DW_AT_location[DW_OP_reg0]


;***************************************************************
;* FNAME: _Str_CmpIgnoreCase_N          FR SIZE:  20           *
;*                                                             *
;* FUNCTION ENVIRONMENT                                        *
;*                                                             *
;* FUNCTION PROPERTIES                                         *
;*                            0 Parameter, 19 Auto,  0 SOE     *
;***************************************************************

_Str_CmpIgnoreCase_N:
	.dwcfi	cfa_offset, -2
	.dwcfi	save_reg_to_mem, 26, 0
        ADDB      SP,#20                ; [CPU_ARAU] 
	.dwcfi	cfa_offset, -22
$C$DW$102	.dwtag  DW_TAG_variable
	.dwattr $C$DW$102, DW_AT_name("p1_str")
	.dwattr $C$DW$102, DW_AT_TI_symbol_name("_p1_str")
	.dwattr $C$DW$102, DW_AT_type(*$C$DW$T$28)
	.dwattr $C$DW$102, DW_AT_location[DW_OP_breg20 -2]

$C$DW$103	.dwtag  DW_TAG_variable
	.dwattr $C$DW$103, DW_AT_name("p2_str")
	.dwattr $C$DW$103, DW_AT_TI_symbol_name("_p2_str")
	.dwattr $C$DW$103, DW_AT_type(*$C$DW$T$28)
	.dwattr $C$DW$103, DW_AT_location[DW_OP_breg20 -4]

$C$DW$104	.dwtag  DW_TAG_variable
	.dwattr $C$DW$104, DW_AT_name("len_max")
	.dwattr $C$DW$104, DW_AT_TI_symbol_name("_len_max")
	.dwattr $C$DW$104, DW_AT_type(*$C$DW$T$32)
	.dwattr $C$DW$104, DW_AT_location[DW_OP_breg20 -6]

$C$DW$105	.dwtag  DW_TAG_variable
	.dwattr $C$DW$105, DW_AT_name("p1_str_cmp")
	.dwattr $C$DW$105, DW_AT_TI_symbol_name("_p1_str_cmp")
	.dwattr $C$DW$105, DW_AT_type(*$C$DW$T$28)
	.dwattr $C$DW$105, DW_AT_location[DW_OP_breg20 -8]

$C$DW$106	.dwtag  DW_TAG_variable
	.dwattr $C$DW$106, DW_AT_name("p2_str_cmp")
	.dwattr $C$DW$106, DW_AT_TI_symbol_name("_p2_str_cmp")
	.dwattr $C$DW$106, DW_AT_type(*$C$DW$T$28)
	.dwattr $C$DW$106, DW_AT_location[DW_OP_breg20 -10]

$C$DW$107	.dwtag  DW_TAG_variable
	.dwattr $C$DW$107, DW_AT_name("p1_str_cmp_next")
	.dwattr $C$DW$107, DW_AT_TI_symbol_name("_p1_str_cmp_next")
	.dwattr $C$DW$107, DW_AT_type(*$C$DW$T$28)
	.dwattr $C$DW$107, DW_AT_location[DW_OP_breg20 -12]

$C$DW$108	.dwtag  DW_TAG_variable
	.dwattr $C$DW$108, DW_AT_name("p2_str_cmp_next")
	.dwattr $C$DW$108, DW_AT_TI_symbol_name("_p2_str_cmp_next")
	.dwattr $C$DW$108, DW_AT_type(*$C$DW$T$28)
	.dwattr $C$DW$108, DW_AT_location[DW_OP_breg20 -14]

$C$DW$109	.dwtag  DW_TAG_variable
	.dwattr $C$DW$109, DW_AT_name("cmp_len")
	.dwattr $C$DW$109, DW_AT_TI_symbol_name("_cmp_len")
	.dwattr $C$DW$109, DW_AT_type(*$C$DW$T$32)
	.dwattr $C$DW$109, DW_AT_location[DW_OP_breg20 -16]

$C$DW$110	.dwtag  DW_TAG_variable
	.dwattr $C$DW$110, DW_AT_name("char_1")
	.dwattr $C$DW$110, DW_AT_TI_symbol_name("_char_1")
	.dwattr $C$DW$110, DW_AT_type(*$C$DW$T$21)
	.dwattr $C$DW$110, DW_AT_location[DW_OP_breg20 -17]

$C$DW$111	.dwtag  DW_TAG_variable
	.dwattr $C$DW$111, DW_AT_name("char_2")
	.dwattr $C$DW$111, DW_AT_TI_symbol_name("_char_2")
	.dwattr $C$DW$111, DW_AT_type(*$C$DW$T$21)
	.dwattr $C$DW$111, DW_AT_location[DW_OP_breg20 -18]

$C$DW$112	.dwtag  DW_TAG_variable
	.dwattr $C$DW$112, DW_AT_name("cmp_val")
	.dwattr $C$DW$112, DW_AT_TI_symbol_name("_cmp_val")
	.dwattr $C$DW$112, DW_AT_type(*$C$DW$T$26)
	.dwattr $C$DW$112, DW_AT_location[DW_OP_breg20 -19]

        MOVL      *-SP[6],ACC           ; [CPU_ALU] |1132| 
        MOVL      *-SP[4],XAR5          ; [CPU_ALU] |1132| 
        MOVL      *-SP[2],XAR4          ; [CPU_ALU] |1132| 
	.dwpsn	file "C:/ti/Workspace/PLC_certificate/Software/uC-LIB/lib_str.c",line 1143,column 5,is_stmt,isa 0
        MOVL      ACC,*-SP[6]           ; [CPU_ALU] |1143| 
        B         $C$L39,NEQ            ; [CPU_ALU] |1143| 
        ; branchcc occurs ; [] |1143| 
	.dwpsn	file "C:/ti/Workspace/PLC_certificate/Software/uC-LIB/lib_str.c",line 1144,column 9,is_stmt,isa 0
        MOVB      AL,#0                 ; [CPU_ALU] |1144| 
        B         $C$L52,UNC            ; [CPU_ALU] |1144| 
        ; branch occurs ; [] |1144| 
$C$L39:    
	.dwpsn	file "C:/ti/Workspace/PLC_certificate/Software/uC-LIB/lib_str.c",line 1147,column 5,is_stmt,isa 0
        MOVL      ACC,*-SP[2]           ; [CPU_ALU] |1147| 
        B         $C$L41,NEQ            ; [CPU_ALU] |1147| 
        ; branchcc occurs ; [] |1147| 
	.dwpsn	file "C:/ti/Workspace/PLC_certificate/Software/uC-LIB/lib_str.c",line 1148,column 9,is_stmt,isa 0
        MOVL      ACC,*-SP[4]           ; [CPU_ALU] |1148| 
        B         $C$L40,NEQ            ; [CPU_ALU] |1148| 
        ; branchcc occurs ; [] |1148| 
	.dwpsn	file "C:/ti/Workspace/PLC_certificate/Software/uC-LIB/lib_str.c",line 1149,column 13,is_stmt,isa 0
        MOVB      AL,#0                 ; [CPU_ALU] |1149| 
        B         $C$L52,UNC            ; [CPU_ALU] |1149| 
        ; branch occurs ; [] |1149| 
$C$L40:    
	.dwpsn	file "C:/ti/Workspace/PLC_certificate/Software/uC-LIB/lib_str.c",line 1151,column 9,is_stmt,isa 0
        MOVL      XAR4,*-SP[4]          ; [CPU_ALU] |1151| 
        MOV       AL,*+XAR4[0]          ; [CPU_ALU] |1151| 
$C$DW$113	.dwtag  DW_TAG_TI_branch
	.dwattr $C$DW$113, DW_AT_low_pc(0x00)
	.dwattr $C$DW$113, DW_AT_name("_ASCII_ToLower")
	.dwattr $C$DW$113, DW_AT_TI_call

        LCR       #_ASCII_ToLower       ; [CPU_ALU] |1151| 
        ; call occurs [#_ASCII_ToLower] ; [] |1151| 
        MOV       *-SP[18],AL           ; [CPU_ALU] |1151| 
	.dwpsn	file "C:/ti/Workspace/PLC_certificate/Software/uC-LIB/lib_str.c",line 1152,column 9,is_stmt,isa 0
        NEG       AL                    ; [CPU_ALU] |1152| 
        MOV       *-SP[19],AL           ; [CPU_ALU] |1152| 
	.dwpsn	file "C:/ti/Workspace/PLC_certificate/Software/uC-LIB/lib_str.c",line 1153,column 9,is_stmt,isa 0
        B         $C$L52,UNC            ; [CPU_ALU] |1153| 
        ; branch occurs ; [] |1153| 
$C$L41:    
	.dwpsn	file "C:/ti/Workspace/PLC_certificate/Software/uC-LIB/lib_str.c",line 1155,column 5,is_stmt,isa 0
        MOVL      ACC,*-SP[4]           ; [CPU_ALU] |1155| 
        B         $C$L42,NEQ            ; [CPU_ALU] |1155| 
        ; branchcc occurs ; [] |1155| 
	.dwpsn	file "C:/ti/Workspace/PLC_certificate/Software/uC-LIB/lib_str.c",line 1156,column 9,is_stmt,isa 0
        MOV       AL,*+XAR4[0]          ; [CPU_ALU] |1156| 
$C$DW$114	.dwtag  DW_TAG_TI_branch
	.dwattr $C$DW$114, DW_AT_low_pc(0x00)
	.dwattr $C$DW$114, DW_AT_name("_ASCII_ToLower")
	.dwattr $C$DW$114, DW_AT_TI_call

        LCR       #_ASCII_ToLower       ; [CPU_ALU] |1156| 
        ; call occurs [#_ASCII_ToLower] ; [] |1156| 
        MOV       *-SP[17],AL           ; [CPU_ALU] |1156| 
	.dwpsn	file "C:/ti/Workspace/PLC_certificate/Software/uC-LIB/lib_str.c",line 1157,column 9,is_stmt,isa 0
        MOV       *-SP[19],AL           ; [CPU_ALU] |1157| 
	.dwpsn	file "C:/ti/Workspace/PLC_certificate/Software/uC-LIB/lib_str.c",line 1158,column 9,is_stmt,isa 0
        B         $C$L52,UNC            ; [CPU_ALU] |1158| 
        ; branch occurs ; [] |1158| 
$C$L42:    
	.dwpsn	file "C:/ti/Workspace/PLC_certificate/Software/uC-LIB/lib_str.c",line 1162,column 5,is_stmt,isa 0
        MOVL      ACC,*-SP[2]           ; [CPU_ALU] |1162| 
        MOVL      *-SP[8],ACC           ; [CPU_ALU] |1162| 
	.dwpsn	file "C:/ti/Workspace/PLC_certificate/Software/uC-LIB/lib_str.c",line 1163,column 5,is_stmt,isa 0
        MOVL      ACC,*-SP[4]           ; [CPU_ALU] |1163| 
        MOVL      *-SP[10],ACC          ; [CPU_ALU] |1163| 
	.dwpsn	file "C:/ti/Workspace/PLC_certificate/Software/uC-LIB/lib_str.c",line 1164,column 5,is_stmt,isa 0
        MOVL      ACC,*-SP[8]           ; [CPU_ALU] |1164| 
        MOVL      *-SP[12],ACC          ; [CPU_ALU] |1164| 
	.dwpsn	file "C:/ti/Workspace/PLC_certificate/Software/uC-LIB/lib_str.c",line 1165,column 5,is_stmt,isa 0
        MOVL      ACC,*-SP[10]          ; [CPU_ALU] |1165| 
        MOVL      *-SP[14],ACC          ; [CPU_ALU] |1165| 
	.dwpsn	file "C:/ti/Workspace/PLC_certificate/Software/uC-LIB/lib_str.c",line 1166,column 5,is_stmt,isa 0
        MOVB      ACC,#1                ; [CPU_ALU] |1166| 
        ADDL      ACC,*-SP[12]          ; [CPU_ALU] |1166| 
        MOVL      *-SP[12],ACC          ; [CPU_ALU] |1166| 
	.dwpsn	file "C:/ti/Workspace/PLC_certificate/Software/uC-LIB/lib_str.c",line 1167,column 5,is_stmt,isa 0
        MOVB      ACC,#1                ; [CPU_ALU] |1167| 
        ADDL      ACC,*-SP[14]          ; [CPU_ALU] |1167| 
        MOVL      *-SP[14],ACC          ; [CPU_ALU] |1167| 
	.dwpsn	file "C:/ti/Workspace/PLC_certificate/Software/uC-LIB/lib_str.c",line 1168,column 5,is_stmt,isa 0
        MOV       AL,*+XAR4[0]          ; [CPU_ALU] |1168| 
$C$DW$115	.dwtag  DW_TAG_TI_branch
	.dwattr $C$DW$115, DW_AT_low_pc(0x00)
	.dwattr $C$DW$115, DW_AT_name("_ASCII_ToLower")
	.dwattr $C$DW$115, DW_AT_TI_call

        LCR       #_ASCII_ToLower       ; [CPU_ALU] |1168| 
        ; call occurs [#_ASCII_ToLower] ; [] |1168| 
        MOV       *-SP[17],AL           ; [CPU_ALU] |1168| 
	.dwpsn	file "C:/ti/Workspace/PLC_certificate/Software/uC-LIB/lib_str.c",line 1169,column 5,is_stmt,isa 0
        MOVL      XAR4,*-SP[10]         ; [CPU_ALU] |1169| 
        MOV       AL,*+XAR4[0]          ; [CPU_ALU] |1169| 
$C$DW$116	.dwtag  DW_TAG_TI_branch
	.dwattr $C$DW$116, DW_AT_low_pc(0x00)
	.dwattr $C$DW$116, DW_AT_name("_ASCII_ToLower")
	.dwattr $C$DW$116, DW_AT_TI_call

        LCR       #_ASCII_ToLower       ; [CPU_ALU] |1169| 
        ; call occurs [#_ASCII_ToLower] ; [] |1169| 
        MOV       *-SP[18],AL           ; [CPU_ALU] |1169| 
	.dwpsn	file "C:/ti/Workspace/PLC_certificate/Software/uC-LIB/lib_str.c",line 1170,column 5,is_stmt,isa 0
        MOVB      ACC,#0                ; [CPU_ALU] |1170| 
        MOVL      *-SP[16],ACC          ; [CPU_ALU] |1170| 
	.dwpsn	file "C:/ti/Workspace/PLC_certificate/Software/uC-LIB/lib_str.c",line 1172,column 5,is_stmt,isa 0
        B         $C$L44,UNC            ; [CPU_ALU] |1172| 
        ; branch occurs ; [] |1172| 
$C$L43:    
	.dwpsn	file "C:/ti/Workspace/PLC_certificate/Software/uC-LIB/lib_str.c",line 1177,column 9,is_stmt,isa 0
        MOVB      ACC,#1                ; [CPU_ALU] |1177| 
        ADDL      ACC,*-SP[8]           ; [CPU_ALU] |1177| 
        MOVL      *-SP[8],ACC           ; [CPU_ALU] |1177| 
	.dwpsn	file "C:/ti/Workspace/PLC_certificate/Software/uC-LIB/lib_str.c",line 1178,column 9,is_stmt,isa 0
        MOVB      ACC,#1                ; [CPU_ALU] |1178| 
        ADDL      ACC,*-SP[10]          ; [CPU_ALU] |1178| 
        MOVL      *-SP[10],ACC          ; [CPU_ALU] |1178| 
	.dwpsn	file "C:/ti/Workspace/PLC_certificate/Software/uC-LIB/lib_str.c",line 1179,column 9,is_stmt,isa 0
        MOVB      ACC,#1                ; [CPU_ALU] |1179| 
        ADDL      ACC,*-SP[12]          ; [CPU_ALU] |1179| 
        MOVL      *-SP[12],ACC          ; [CPU_ALU] |1179| 
	.dwpsn	file "C:/ti/Workspace/PLC_certificate/Software/uC-LIB/lib_str.c",line 1180,column 9,is_stmt,isa 0
        MOVB      ACC,#1                ; [CPU_ALU] |1180| 
        ADDL      ACC,*-SP[14]          ; [CPU_ALU] |1180| 
        MOVL      *-SP[14],ACC          ; [CPU_ALU] |1180| 
	.dwpsn	file "C:/ti/Workspace/PLC_certificate/Software/uC-LIB/lib_str.c",line 1181,column 9,is_stmt,isa 0
        MOVB      ACC,#1                ; [CPU_ALU] |1181| 
        ADDL      ACC,*-SP[16]          ; [CPU_ALU] |1181| 
        MOVL      *-SP[16],ACC          ; [CPU_ALU] |1181| 
	.dwpsn	file "C:/ti/Workspace/PLC_certificate/Software/uC-LIB/lib_str.c",line 1182,column 9,is_stmt,isa 0
        MOVL      XAR4,*-SP[8]          ; [CPU_ALU] |1182| 
        MOV       AL,*+XAR4[0]          ; [CPU_ALU] |1182| 
$C$DW$117	.dwtag  DW_TAG_TI_branch
	.dwattr $C$DW$117, DW_AT_low_pc(0x00)
	.dwattr $C$DW$117, DW_AT_name("_ASCII_ToLower")
	.dwattr $C$DW$117, DW_AT_TI_call

        LCR       #_ASCII_ToLower       ; [CPU_ALU] |1182| 
        ; call occurs [#_ASCII_ToLower] ; [] |1182| 
        MOV       *-SP[17],AL           ; [CPU_ALU] |1182| 
	.dwpsn	file "C:/ti/Workspace/PLC_certificate/Software/uC-LIB/lib_str.c",line 1183,column 9,is_stmt,isa 0
        MOVL      XAR4,*-SP[10]         ; [CPU_ALU] |1183| 
        MOV       AL,*+XAR4[0]          ; [CPU_ALU] |1183| 
$C$DW$118	.dwtag  DW_TAG_TI_branch
	.dwattr $C$DW$118, DW_AT_low_pc(0x00)
	.dwattr $C$DW$118, DW_AT_name("_ASCII_ToLower")
	.dwattr $C$DW$118, DW_AT_TI_call

        LCR       #_ASCII_ToLower       ; [CPU_ALU] |1183| 
        ; call occurs [#_ASCII_ToLower] ; [] |1183| 
        MOV       *-SP[18],AL           ; [CPU_ALU] |1183| 
$C$L44:    
	.dwpsn	file "C:/ti/Workspace/PLC_certificate/Software/uC-LIB/lib_str.c",line 1172,column 12,is_stmt,isa 0
        MOV       AL,*-SP[18]           ; [CPU_ALU] |1172| 
        CMP       AL,*-SP[17]           ; [CPU_ALU] |1172| 
        B         $C$L45,NEQ            ; [CPU_ALU] |1172| 
        ; branchcc occurs ; [] |1172| 
        MOVL      XAR4,*-SP[8]          ; [CPU_ALU] |1172| 
        MOV       AL,*+XAR4[0]          ; [CPU_ALU] |1172| 
        B         $C$L45,EQ             ; [CPU_ALU] |1172| 
        ; branchcc occurs ; [] |1172| 
        MOVL      ACC,*-SP[12]          ; [CPU_ALU] |1172| 
        B         $C$L45,EQ             ; [CPU_ALU] |1172| 
        ; branchcc occurs ; [] |1172| 
        MOVL      ACC,*-SP[14]          ; [CPU_ALU] |1172| 
        B         $C$L45,EQ             ; [CPU_ALU] |1172| 
        ; branchcc occurs ; [] |1172| 
        MOVL      ACC,*-SP[6]           ; [CPU_ALU] |1172| 
        CMPL      ACC,*-SP[16]          ; [CPU_ALU] |1172| 
        B         $C$L43,HI             ; [CPU_ALU] |1172| 
        ; branchcc occurs ; [] |1172| 
$C$L45:    
	.dwpsn	file "C:/ti/Workspace/PLC_certificate/Software/uC-LIB/lib_str.c",line 1187,column 5,is_stmt,isa 0
        MOVL      ACC,*-SP[6]           ; [CPU_ALU] |1187| 
        CMPL      ACC,*-SP[16]          ; [CPU_ALU] |1187| 
        B         $C$L46,NEQ            ; [CPU_ALU] |1187| 
        ; branchcc occurs ; [] |1187| 
	.dwpsn	file "C:/ti/Workspace/PLC_certificate/Software/uC-LIB/lib_str.c",line 1188,column 9,is_stmt,isa 0
        MOVB      AL,#0                 ; [CPU_ALU] |1188| 
        B         $C$L52,UNC            ; [CPU_ALU] |1188| 
        ; branch occurs ; [] |1188| 
$C$L46:    
	.dwpsn	file "C:/ti/Workspace/PLC_certificate/Software/uC-LIB/lib_str.c",line 1191,column 5,is_stmt,isa 0
        MOV       AL,*-SP[18]           ; [CPU_ALU] |1191| 
        CMP       AL,*-SP[17]           ; [CPU_ALU] |1191| 
        B         $C$L47,EQ             ; [CPU_ALU] |1191| 
        ; branchcc occurs ; [] |1191| 
	.dwpsn	file "C:/ti/Workspace/PLC_certificate/Software/uC-LIB/lib_str.c",line 1193,column 10,is_stmt,isa 0
        MOV       AL,*-SP[17]           ; [CPU_ALU] |1193| 
        SUB       AL,*-SP[18]           ; [CPU_ALU] |1193| 
        MOV       *-SP[19],AL           ; [CPU_ALU] |1193| 
        B         $C$L51,UNC            ; [CPU_ALU] 
        ; branch occurs ; [] 
$C$L47:    
	.dwpsn	file "C:/ti/Workspace/PLC_certificate/Software/uC-LIB/lib_str.c",line 1195,column 12,is_stmt,isa 0
        MOV       AL,*-SP[17]           ; [CPU_ALU] |1195| 
        B         $C$L48,NEQ            ; [CPU_ALU] |1195| 
        ; branchcc occurs ; [] |1195| 
	.dwpsn	file "C:/ti/Workspace/PLC_certificate/Software/uC-LIB/lib_str.c",line 1196,column 10,is_stmt,isa 0
        MOV       *-SP[19],#0           ; [CPU_ALU] |1196| 
        B         $C$L51,UNC            ; [CPU_ALU] 
        ; branch occurs ; [] 
$C$L48:    
	.dwpsn	file "C:/ti/Workspace/PLC_certificate/Software/uC-LIB/lib_str.c",line 1199,column 9,is_stmt,isa 0
        MOVL      ACC,*-SP[12]          ; [CPU_ALU] |1199| 
        B         $C$L50,NEQ            ; [CPU_ALU] |1199| 
        ; branchcc occurs ; [] |1199| 
	.dwpsn	file "C:/ti/Workspace/PLC_certificate/Software/uC-LIB/lib_str.c",line 1200,column 13,is_stmt,isa 0
        MOVL      ACC,*-SP[14]          ; [CPU_ALU] |1200| 
        B         $C$L49,NEQ            ; [CPU_ALU] |1200| 
        ; branchcc occurs ; [] |1200| 
	.dwpsn	file "C:/ti/Workspace/PLC_certificate/Software/uC-LIB/lib_str.c",line 1201,column 17,is_stmt,isa 0
        MOV       *-SP[19],#0           ; [CPU_ALU] |1201| 
        B         $C$L51,UNC            ; [CPU_ALU] 
        ; branch occurs ; [] 
$C$L49:    
	.dwpsn	file "C:/ti/Workspace/PLC_certificate/Software/uC-LIB/lib_str.c",line 1203,column 17,is_stmt,isa 0
        MOVL      XAR4,*-SP[14]         ; [CPU_ALU] |1203| 
        MOV       AL,*+XAR4[0]          ; [CPU_ALU] |1203| 
$C$DW$119	.dwtag  DW_TAG_TI_branch
	.dwattr $C$DW$119, DW_AT_low_pc(0x00)
	.dwattr $C$DW$119, DW_AT_name("_ASCII_ToLower")
	.dwattr $C$DW$119, DW_AT_TI_call

        LCR       #_ASCII_ToLower       ; [CPU_ALU] |1203| 
        ; call occurs [#_ASCII_ToLower] ; [] |1203| 
        MOV       *-SP[18],AL           ; [CPU_ALU] |1203| 
	.dwpsn	file "C:/ti/Workspace/PLC_certificate/Software/uC-LIB/lib_str.c",line 1205,column 17,is_stmt,isa 0
        NEG       AL                    ; [CPU_ALU] |1205| 
        MOV       *-SP[19],AL           ; [CPU_ALU] |1205| 
        B         $C$L51,UNC            ; [CPU_ALU] 
        ; branch occurs ; [] 
$C$L50:    
	.dwpsn	file "C:/ti/Workspace/PLC_certificate/Software/uC-LIB/lib_str.c",line 1208,column 13,is_stmt,isa 0
        MOVL      XAR4,*-SP[12]         ; [CPU_ALU] |1208| 
        MOV       AL,*+XAR4[0]          ; [CPU_ALU] |1208| 
$C$DW$120	.dwtag  DW_TAG_TI_branch
	.dwattr $C$DW$120, DW_AT_low_pc(0x00)
	.dwattr $C$DW$120, DW_AT_name("_ASCII_ToLower")
	.dwattr $C$DW$120, DW_AT_TI_call

        LCR       #_ASCII_ToLower       ; [CPU_ALU] |1208| 
        ; call occurs [#_ASCII_ToLower] ; [] |1208| 
        MOV       *-SP[17],AL           ; [CPU_ALU] |1208| 
	.dwpsn	file "C:/ti/Workspace/PLC_certificate/Software/uC-LIB/lib_str.c",line 1209,column 13,is_stmt,isa 0
        MOV       *-SP[19],AL           ; [CPU_ALU] |1209| 
$C$L51:    
	.dwpsn	file "C:/ti/Workspace/PLC_certificate/Software/uC-LIB/lib_str.c",line 1214,column 5,is_stmt,isa 0
        MOV       AL,*-SP[19]           ; [CPU_ALU] |1214| 
$C$L52:    
	.dwpsn	file "C:/ti/Workspace/PLC_certificate/Software/uC-LIB/lib_str.c",line 1215,column 1,is_stmt,isa 0
        SUBB      SP,#20                ; [CPU_ARAU] 
	.dwcfi	cfa_offset, -2
$C$DW$121	.dwtag  DW_TAG_TI_branch
	.dwattr $C$DW$121, DW_AT_low_pc(0x00)
	.dwattr $C$DW$121, DW_AT_TI_return

        LRETR     ; [CPU_ALU] 
        ; return occurs ; [] 
	.dwattr $C$DW$98, DW_AT_TI_end_file("C:/ti/Workspace/PLC_certificate/Software/uC-LIB/lib_str.c")
	.dwattr $C$DW$98, DW_AT_TI_end_line(0x4bf)
	.dwattr $C$DW$98, DW_AT_TI_end_column(0x01)
	.dwendentry
	.dwendtag $C$DW$98

	.sect	".text"
	.clink
	.global	_Str_Char

$C$DW$122	.dwtag  DW_TAG_subprogram
	.dwattr $C$DW$122, DW_AT_name("Str_Char")
	.dwattr $C$DW$122, DW_AT_low_pc(_Str_Char)
	.dwattr $C$DW$122, DW_AT_high_pc(0x00)
	.dwattr $C$DW$122, DW_AT_TI_symbol_name("_Str_Char")
	.dwattr $C$DW$122, DW_AT_external
	.dwattr $C$DW$122, DW_AT_type(*$C$DW$T$38)
	.dwattr $C$DW$122, DW_AT_TI_begin_file("C:/ti/Workspace/PLC_certificate/Software/uC-LIB/lib_str.c")
	.dwattr $C$DW$122, DW_AT_TI_begin_line(0x4f6)
	.dwattr $C$DW$122, DW_AT_TI_begin_column(0x0c)
	.dwattr $C$DW$122, DW_AT_TI_max_frame_size(-8)
	.dwpsn	file "C:/ti/Workspace/PLC_certificate/Software/uC-LIB/lib_str.c",line 1272,column 1,is_stmt,address _Str_Char,isa 0

	.dwfde $C$DW$CIE, _Str_Char
$C$DW$123	.dwtag  DW_TAG_formal_parameter
	.dwattr $C$DW$123, DW_AT_name("pstr")
	.dwattr $C$DW$123, DW_AT_TI_symbol_name("_pstr")
	.dwattr $C$DW$123, DW_AT_type(*$C$DW$T$28)
	.dwattr $C$DW$123, DW_AT_location[DW_OP_reg12]

$C$DW$124	.dwtag  DW_TAG_formal_parameter
	.dwattr $C$DW$124, DW_AT_name("srch_char")
	.dwattr $C$DW$124, DW_AT_TI_symbol_name("_srch_char")
	.dwattr $C$DW$124, DW_AT_type(*$C$DW$T$21)
	.dwattr $C$DW$124, DW_AT_location[DW_OP_reg0]


;***************************************************************
;* FNAME: _Str_Char                     FR SIZE:   6           *
;*                                                             *
;* FUNCTION ENVIRONMENT                                        *
;*                                                             *
;* FUNCTION PROPERTIES                                         *
;*                            0 Parameter,  5 Auto,  0 SOE     *
;***************************************************************

_Str_Char:
	.dwcfi	cfa_offset, -2
	.dwcfi	save_reg_to_mem, 26, 0
        ADDB      SP,#6                 ; [CPU_ARAU] 
	.dwcfi	cfa_offset, -8
$C$DW$125	.dwtag  DW_TAG_variable
	.dwattr $C$DW$125, DW_AT_name("pstr")
	.dwattr $C$DW$125, DW_AT_TI_symbol_name("_pstr")
	.dwattr $C$DW$125, DW_AT_type(*$C$DW$T$28)
	.dwattr $C$DW$125, DW_AT_location[DW_OP_breg20 -2]

$C$DW$126	.dwtag  DW_TAG_variable
	.dwattr $C$DW$126, DW_AT_name("pstr_rtn")
	.dwattr $C$DW$126, DW_AT_TI_symbol_name("_pstr_rtn")
	.dwattr $C$DW$126, DW_AT_type(*$C$DW$T$38)
	.dwattr $C$DW$126, DW_AT_location[DW_OP_breg20 -4]

$C$DW$127	.dwtag  DW_TAG_variable
	.dwattr $C$DW$127, DW_AT_name("srch_char")
	.dwattr $C$DW$127, DW_AT_TI_symbol_name("_srch_char")
	.dwattr $C$DW$127, DW_AT_type(*$C$DW$T$21)
	.dwattr $C$DW$127, DW_AT_location[DW_OP_breg20 -5]

        MOV       *-SP[5],AL            ; [CPU_ALU] |1272| 
        MOVL      *-SP[2],XAR4          ; [CPU_ALU] |1272| 
	.dwpsn	file "C:/ti/Workspace/PLC_certificate/Software/uC-LIB/lib_str.c",line 1276,column 5,is_stmt,isa 0
        MOVL      XAR5,#65535           ; [CPU_ARAU] |1276| 
        MOVL      ACC,XAR5              ; [CPU_ALU] |1276| 
        MOVZ      AR5,*-SP[5]           ; [CPU_ALU] |1276| 
$C$DW$128	.dwtag  DW_TAG_TI_branch
	.dwattr $C$DW$128, DW_AT_low_pc(0x00)
	.dwattr $C$DW$128, DW_AT_name("_Str_Char_N")
	.dwattr $C$DW$128, DW_AT_TI_call

        LCR       #_Str_Char_N          ; [CPU_ALU] |1276| 
        ; call occurs [#_Str_Char_N] ; [] |1276| 
        MOVL      *-SP[4],XAR4          ; [CPU_ALU] |1276| 
	.dwpsn	file "C:/ti/Workspace/PLC_certificate/Software/uC-LIB/lib_str.c",line 1280,column 5,is_stmt,isa 0
	.dwpsn	file "C:/ti/Workspace/PLC_certificate/Software/uC-LIB/lib_str.c",line 1281,column 1,is_stmt,isa 0
        SUBB      SP,#6                 ; [CPU_ARAU] 
	.dwcfi	cfa_offset, -2
$C$DW$129	.dwtag  DW_TAG_TI_branch
	.dwattr $C$DW$129, DW_AT_low_pc(0x00)
	.dwattr $C$DW$129, DW_AT_TI_return

        LRETR     ; [CPU_ALU] 
        ; return occurs ; [] 
	.dwattr $C$DW$122, DW_AT_TI_end_file("C:/ti/Workspace/PLC_certificate/Software/uC-LIB/lib_str.c")
	.dwattr $C$DW$122, DW_AT_TI_end_line(0x501)
	.dwattr $C$DW$122, DW_AT_TI_end_column(0x01)
	.dwendentry
	.dwendtag $C$DW$122

	.sect	".text"
	.clink
	.global	_Str_Char_N

$C$DW$130	.dwtag  DW_TAG_subprogram
	.dwattr $C$DW$130, DW_AT_name("Str_Char_N")
	.dwattr $C$DW$130, DW_AT_low_pc(_Str_Char_N)
	.dwattr $C$DW$130, DW_AT_high_pc(0x00)
	.dwattr $C$DW$130, DW_AT_TI_symbol_name("_Str_Char_N")
	.dwattr $C$DW$130, DW_AT_external
	.dwattr $C$DW$130, DW_AT_type(*$C$DW$T$38)
	.dwattr $C$DW$130, DW_AT_TI_begin_file("C:/ti/Workspace/PLC_certificate/Software/uC-LIB/lib_str.c")
	.dwattr $C$DW$130, DW_AT_TI_begin_line(0x546)
	.dwattr $C$DW$130, DW_AT_TI_begin_column(0x0c)
	.dwattr $C$DW$130, DW_AT_TI_max_frame_size(-12)
	.dwpsn	file "C:/ti/Workspace/PLC_certificate/Software/uC-LIB/lib_str.c",line 1353,column 1,is_stmt,address _Str_Char_N,isa 0

	.dwfde $C$DW$CIE, _Str_Char_N
$C$DW$131	.dwtag  DW_TAG_formal_parameter
	.dwattr $C$DW$131, DW_AT_name("pstr")
	.dwattr $C$DW$131, DW_AT_TI_symbol_name("_pstr")
	.dwattr $C$DW$131, DW_AT_type(*$C$DW$T$28)
	.dwattr $C$DW$131, DW_AT_location[DW_OP_reg12]

$C$DW$132	.dwtag  DW_TAG_formal_parameter
	.dwattr $C$DW$132, DW_AT_name("len_max")
	.dwattr $C$DW$132, DW_AT_TI_symbol_name("_len_max")
	.dwattr $C$DW$132, DW_AT_type(*$C$DW$T$32)
	.dwattr $C$DW$132, DW_AT_location[DW_OP_reg0]

$C$DW$133	.dwtag  DW_TAG_formal_parameter
	.dwattr $C$DW$133, DW_AT_name("srch_char")
	.dwattr $C$DW$133, DW_AT_TI_symbol_name("_srch_char")
	.dwattr $C$DW$133, DW_AT_type(*$C$DW$T$21)
	.dwattr $C$DW$133, DW_AT_location[DW_OP_reg14]


;***************************************************************
;* FNAME: _Str_Char_N                   FR SIZE:  10           *
;*                                                             *
;* FUNCTION ENVIRONMENT                                        *
;*                                                             *
;* FUNCTION PROPERTIES                                         *
;*                            0 Parameter,  9 Auto,  0 SOE     *
;***************************************************************

_Str_Char_N:
	.dwcfi	cfa_offset, -2
	.dwcfi	save_reg_to_mem, 26, 0
        ADDB      SP,#10                ; [CPU_ARAU] 
	.dwcfi	cfa_offset, -12
$C$DW$134	.dwtag  DW_TAG_variable
	.dwattr $C$DW$134, DW_AT_name("pstr")
	.dwattr $C$DW$134, DW_AT_TI_symbol_name("_pstr")
	.dwattr $C$DW$134, DW_AT_type(*$C$DW$T$28)
	.dwattr $C$DW$134, DW_AT_location[DW_OP_breg20 -2]

$C$DW$135	.dwtag  DW_TAG_variable
	.dwattr $C$DW$135, DW_AT_name("len_max")
	.dwattr $C$DW$135, DW_AT_TI_symbol_name("_len_max")
	.dwattr $C$DW$135, DW_AT_type(*$C$DW$T$32)
	.dwattr $C$DW$135, DW_AT_location[DW_OP_breg20 -4]

$C$DW$136	.dwtag  DW_TAG_variable
	.dwattr $C$DW$136, DW_AT_name("pstr_char")
	.dwattr $C$DW$136, DW_AT_TI_symbol_name("_pstr_char")
	.dwattr $C$DW$136, DW_AT_type(*$C$DW$T$28)
	.dwattr $C$DW$136, DW_AT_location[DW_OP_breg20 -6]

$C$DW$137	.dwtag  DW_TAG_variable
	.dwattr $C$DW$137, DW_AT_name("len_srch")
	.dwattr $C$DW$137, DW_AT_TI_symbol_name("_len_srch")
	.dwattr $C$DW$137, DW_AT_type(*$C$DW$T$32)
	.dwattr $C$DW$137, DW_AT_location[DW_OP_breg20 -8]

$C$DW$138	.dwtag  DW_TAG_variable
	.dwattr $C$DW$138, DW_AT_name("srch_char")
	.dwattr $C$DW$138, DW_AT_TI_symbol_name("_srch_char")
	.dwattr $C$DW$138, DW_AT_type(*$C$DW$T$21)
	.dwattr $C$DW$138, DW_AT_location[DW_OP_breg20 -9]

        MOV       *-SP[9],AR5           ; [CPU_ALU] |1353| 
        MOVL      *-SP[4],ACC           ; [CPU_ALU] |1353| 
        MOVL      *-SP[2],XAR4          ; [CPU_ALU] |1353| 
	.dwpsn	file "C:/ti/Workspace/PLC_certificate/Software/uC-LIB/lib_str.c",line 1358,column 5,is_stmt,isa 0
        MOVL      ACC,*-SP[2]           ; [CPU_ALU] |1358| 
        B         $C$L53,NEQ            ; [CPU_ALU] |1358| 
        ; branchcc occurs ; [] |1358| 
	.dwpsn	file "C:/ti/Workspace/PLC_certificate/Software/uC-LIB/lib_str.c",line 1359,column 9,is_stmt,isa 0
        MOVB      XAR4,#0               ; [CPU_ALU] |1359| 
        B         $C$L61,UNC            ; [CPU_ALU] |1359| 
        ; branch occurs ; [] |1359| 
$C$L53:    
	.dwpsn	file "C:/ti/Workspace/PLC_certificate/Software/uC-LIB/lib_str.c",line 1362,column 5,is_stmt,isa 0
        MOVL      ACC,*-SP[4]           ; [CPU_ALU] |1362| 
        B         $C$L54,NEQ            ; [CPU_ALU] |1362| 
        ; branchcc occurs ; [] |1362| 
	.dwpsn	file "C:/ti/Workspace/PLC_certificate/Software/uC-LIB/lib_str.c",line 1363,column 9,is_stmt,isa 0
        MOVB      XAR4,#0               ; [CPU_ALU] |1363| 
        B         $C$L61,UNC            ; [CPU_ALU] |1363| 
        ; branch occurs ; [] |1363| 
$C$L54:    
	.dwpsn	file "C:/ti/Workspace/PLC_certificate/Software/uC-LIB/lib_str.c",line 1367,column 5,is_stmt,isa 0
        MOVL      ACC,*-SP[2]           ; [CPU_ALU] |1367| 
        MOVL      *-SP[6],ACC           ; [CPU_ALU] |1367| 
	.dwpsn	file "C:/ti/Workspace/PLC_certificate/Software/uC-LIB/lib_str.c",line 1368,column 5,is_stmt,isa 0
        MOVB      ACC,#0                ; [CPU_ALU] |1368| 
        MOVL      *-SP[8],ACC           ; [CPU_ALU] |1368| 
	.dwpsn	file "C:/ti/Workspace/PLC_certificate/Software/uC-LIB/lib_str.c",line 1370,column 5,is_stmt,isa 0
        B         $C$L56,UNC            ; [CPU_ALU] |1370| 
        ; branch occurs ; [] |1370| 
$C$L55:    
	.dwpsn	file "C:/ti/Workspace/PLC_certificate/Software/uC-LIB/lib_str.c",line 1374,column 9,is_stmt,isa 0
        MOVB      ACC,#1                ; [CPU_ALU] |1374| 
        ADDL      ACC,*-SP[6]           ; [CPU_ALU] |1374| 
        MOVL      *-SP[6],ACC           ; [CPU_ALU] |1374| 
	.dwpsn	file "C:/ti/Workspace/PLC_certificate/Software/uC-LIB/lib_str.c",line 1375,column 9,is_stmt,isa 0
        MOVB      ACC,#1                ; [CPU_ALU] |1375| 
        ADDL      ACC,*-SP[8]           ; [CPU_ALU] |1375| 
        MOVL      *-SP[8],ACC           ; [CPU_ALU] |1375| 
$C$L56:    
	.dwpsn	file "C:/ti/Workspace/PLC_certificate/Software/uC-LIB/lib_str.c",line 1370,column 12,is_stmt,isa 0
        MOVL      ACC,*-SP[6]           ; [CPU_ALU] |1370| 
        B         $C$L57,EQ             ; [CPU_ALU] |1370| 
        ; branchcc occurs ; [] |1370| 
        MOVL      XAR4,*-SP[6]          ; [CPU_ALU] |1370| 
        MOV       AL,*+XAR4[0]          ; [CPU_ALU] |1370| 
        B         $C$L57,EQ             ; [CPU_ALU] |1370| 
        ; branchcc occurs ; [] |1370| 
        MOV       AL,*-SP[9]            ; [CPU_ALU] |1370| 
        CMP       AL,*+XAR4[0]          ; [CPU_ALU] |1370| 
        B         $C$L57,EQ             ; [CPU_ALU] |1370| 
        ; branchcc occurs ; [] |1370| 
        MOVL      ACC,*-SP[4]           ; [CPU_ALU] |1370| 
        CMPL      ACC,*-SP[8]           ; [CPU_ALU] |1370| 
        B         $C$L55,HI             ; [CPU_ALU] |1370| 
        ; branchcc occurs ; [] |1370| 
$C$L57:    
	.dwpsn	file "C:/ti/Workspace/PLC_certificate/Software/uC-LIB/lib_str.c",line 1379,column 5,is_stmt,isa 0
        MOVL      ACC,*-SP[6]           ; [CPU_ALU] |1379| 
        B         $C$L58,NEQ            ; [CPU_ALU] |1379| 
        ; branchcc occurs ; [] |1379| 
	.dwpsn	file "C:/ti/Workspace/PLC_certificate/Software/uC-LIB/lib_str.c",line 1380,column 9,is_stmt,isa 0
        MOVB      XAR4,#0               ; [CPU_ALU] |1380| 
        B         $C$L61,UNC            ; [CPU_ALU] |1380| 
        ; branch occurs ; [] |1380| 
$C$L58:    
	.dwpsn	file "C:/ti/Workspace/PLC_certificate/Software/uC-LIB/lib_str.c",line 1383,column 5,is_stmt,isa 0
        MOVL      ACC,*-SP[4]           ; [CPU_ALU] |1383| 
        CMPL      ACC,*-SP[8]           ; [CPU_ALU] |1383| 
        B         $C$L59,HI             ; [CPU_ALU] |1383| 
        ; branchcc occurs ; [] |1383| 
	.dwpsn	file "C:/ti/Workspace/PLC_certificate/Software/uC-LIB/lib_str.c",line 1384,column 9,is_stmt,isa 0
        MOVB      XAR4,#0               ; [CPU_ALU] |1384| 
        B         $C$L61,UNC            ; [CPU_ALU] |1384| 
        ; branch occurs ; [] |1384| 
$C$L59:    
	.dwpsn	file "C:/ti/Workspace/PLC_certificate/Software/uC-LIB/lib_str.c",line 1387,column 5,is_stmt,isa 0
        MOVL      XAR4,*-SP[6]          ; [CPU_ALU] |1387| 
        MOV       AL,*-SP[9]            ; [CPU_ALU] |1387| 
        CMP       AL,*+XAR4[0]          ; [CPU_ALU] |1387| 
        B         $C$L60,EQ             ; [CPU_ALU] |1387| 
        ; branchcc occurs ; [] |1387| 
	.dwpsn	file "C:/ti/Workspace/PLC_certificate/Software/uC-LIB/lib_str.c",line 1388,column 10,is_stmt,isa 0
        MOVB      XAR4,#0               ; [CPU_ALU] |1388| 
        B         $C$L61,UNC            ; [CPU_ALU] |1388| 
        ; branch occurs ; [] |1388| 
$C$L60:    
	.dwpsn	file "C:/ti/Workspace/PLC_certificate/Software/uC-LIB/lib_str.c",line 1392,column 5,is_stmt,isa 0
$C$L61:    
	.dwpsn	file "C:/ti/Workspace/PLC_certificate/Software/uC-LIB/lib_str.c",line 1393,column 1,is_stmt,isa 0
        SUBB      SP,#10                ; [CPU_ARAU] 
	.dwcfi	cfa_offset, -2
$C$DW$139	.dwtag  DW_TAG_TI_branch
	.dwattr $C$DW$139, DW_AT_low_pc(0x00)
	.dwattr $C$DW$139, DW_AT_TI_return

        LRETR     ; [CPU_ALU] 
        ; return occurs ; [] 
	.dwattr $C$DW$130, DW_AT_TI_end_file("C:/ti/Workspace/PLC_certificate/Software/uC-LIB/lib_str.c")
	.dwattr $C$DW$130, DW_AT_TI_end_line(0x571)
	.dwattr $C$DW$130, DW_AT_TI_end_column(0x01)
	.dwendentry
	.dwendtag $C$DW$130

	.sect	".text"
	.clink
	.global	_Str_Char_Last

$C$DW$140	.dwtag  DW_TAG_subprogram
	.dwattr $C$DW$140, DW_AT_name("Str_Char_Last")
	.dwattr $C$DW$140, DW_AT_low_pc(_Str_Char_Last)
	.dwattr $C$DW$140, DW_AT_high_pc(0x00)
	.dwattr $C$DW$140, DW_AT_TI_symbol_name("_Str_Char_Last")
	.dwattr $C$DW$140, DW_AT_external
	.dwattr $C$DW$140, DW_AT_type(*$C$DW$T$38)
	.dwattr $C$DW$140, DW_AT_TI_begin_file("C:/ti/Workspace/PLC_certificate/Software/uC-LIB/lib_str.c")
	.dwattr $C$DW$140, DW_AT_TI_begin_line(0x5a7)
	.dwattr $C$DW$140, DW_AT_TI_begin_column(0x0c)
	.dwattr $C$DW$140, DW_AT_TI_max_frame_size(-8)
	.dwpsn	file "C:/ti/Workspace/PLC_certificate/Software/uC-LIB/lib_str.c",line 1449,column 1,is_stmt,address _Str_Char_Last,isa 0

	.dwfde $C$DW$CIE, _Str_Char_Last
$C$DW$141	.dwtag  DW_TAG_formal_parameter
	.dwattr $C$DW$141, DW_AT_name("pstr")
	.dwattr $C$DW$141, DW_AT_TI_symbol_name("_pstr")
	.dwattr $C$DW$141, DW_AT_type(*$C$DW$T$28)
	.dwattr $C$DW$141, DW_AT_location[DW_OP_reg12]

$C$DW$142	.dwtag  DW_TAG_formal_parameter
	.dwattr $C$DW$142, DW_AT_name("srch_char")
	.dwattr $C$DW$142, DW_AT_TI_symbol_name("_srch_char")
	.dwattr $C$DW$142, DW_AT_type(*$C$DW$T$21)
	.dwattr $C$DW$142, DW_AT_location[DW_OP_reg0]


;***************************************************************
;* FNAME: _Str_Char_Last                FR SIZE:   6           *
;*                                                             *
;* FUNCTION ENVIRONMENT                                        *
;*                                                             *
;* FUNCTION PROPERTIES                                         *
;*                            0 Parameter,  5 Auto,  0 SOE     *
;***************************************************************

_Str_Char_Last:
	.dwcfi	cfa_offset, -2
	.dwcfi	save_reg_to_mem, 26, 0
        ADDB      SP,#6                 ; [CPU_ARAU] 
	.dwcfi	cfa_offset, -8
$C$DW$143	.dwtag  DW_TAG_variable
	.dwattr $C$DW$143, DW_AT_name("pstr")
	.dwattr $C$DW$143, DW_AT_TI_symbol_name("_pstr")
	.dwattr $C$DW$143, DW_AT_type(*$C$DW$T$28)
	.dwattr $C$DW$143, DW_AT_location[DW_OP_breg20 -2]

$C$DW$144	.dwtag  DW_TAG_variable
	.dwattr $C$DW$144, DW_AT_name("pstr_rtn")
	.dwattr $C$DW$144, DW_AT_TI_symbol_name("_pstr_rtn")
	.dwattr $C$DW$144, DW_AT_type(*$C$DW$T$38)
	.dwattr $C$DW$144, DW_AT_location[DW_OP_breg20 -4]

$C$DW$145	.dwtag  DW_TAG_variable
	.dwattr $C$DW$145, DW_AT_name("srch_char")
	.dwattr $C$DW$145, DW_AT_TI_symbol_name("_srch_char")
	.dwattr $C$DW$145, DW_AT_type(*$C$DW$T$21)
	.dwattr $C$DW$145, DW_AT_location[DW_OP_breg20 -5]

        MOV       *-SP[5],AL            ; [CPU_ALU] |1449| 
        MOVL      *-SP[2],XAR4          ; [CPU_ALU] |1449| 
	.dwpsn	file "C:/ti/Workspace/PLC_certificate/Software/uC-LIB/lib_str.c",line 1453,column 5,is_stmt,isa 0
        MOVL      XAR5,#65535           ; [CPU_ARAU] |1453| 
        MOVL      ACC,XAR5              ; [CPU_ALU] |1453| 
        MOVZ      AR5,*-SP[5]           ; [CPU_ALU] |1453| 
$C$DW$146	.dwtag  DW_TAG_TI_branch
	.dwattr $C$DW$146, DW_AT_low_pc(0x00)
	.dwattr $C$DW$146, DW_AT_name("_Str_Char_Last_N")
	.dwattr $C$DW$146, DW_AT_TI_call

        LCR       #_Str_Char_Last_N     ; [CPU_ALU] |1453| 
        ; call occurs [#_Str_Char_Last_N] ; [] |1453| 
        MOVL      *-SP[4],XAR4          ; [CPU_ALU] |1453| 
	.dwpsn	file "C:/ti/Workspace/PLC_certificate/Software/uC-LIB/lib_str.c",line 1457,column 5,is_stmt,isa 0
	.dwpsn	file "C:/ti/Workspace/PLC_certificate/Software/uC-LIB/lib_str.c",line 1458,column 1,is_stmt,isa 0
        SUBB      SP,#6                 ; [CPU_ARAU] 
	.dwcfi	cfa_offset, -2
$C$DW$147	.dwtag  DW_TAG_TI_branch
	.dwattr $C$DW$147, DW_AT_low_pc(0x00)
	.dwattr $C$DW$147, DW_AT_TI_return

        LRETR     ; [CPU_ALU] 
        ; return occurs ; [] 
	.dwattr $C$DW$140, DW_AT_TI_end_file("C:/ti/Workspace/PLC_certificate/Software/uC-LIB/lib_str.c")
	.dwattr $C$DW$140, DW_AT_TI_end_line(0x5b2)
	.dwattr $C$DW$140, DW_AT_TI_end_column(0x01)
	.dwendentry
	.dwendtag $C$DW$140

	.sect	".text"
	.clink
	.global	_Str_Char_Last_N

$C$DW$148	.dwtag  DW_TAG_subprogram
	.dwattr $C$DW$148, DW_AT_name("Str_Char_Last_N")
	.dwattr $C$DW$148, DW_AT_low_pc(_Str_Char_Last_N)
	.dwattr $C$DW$148, DW_AT_high_pc(0x00)
	.dwattr $C$DW$148, DW_AT_TI_symbol_name("_Str_Char_Last_N")
	.dwattr $C$DW$148, DW_AT_external
	.dwattr $C$DW$148, DW_AT_type(*$C$DW$T$38)
	.dwattr $C$DW$148, DW_AT_TI_begin_file("C:/ti/Workspace/PLC_certificate/Software/uC-LIB/lib_str.c")
	.dwattr $C$DW$148, DW_AT_TI_begin_line(0x5f9)
	.dwattr $C$DW$148, DW_AT_TI_begin_column(0x0c)
	.dwattr $C$DW$148, DW_AT_TI_max_frame_size(-14)
	.dwpsn	file "C:/ti/Workspace/PLC_certificate/Software/uC-LIB/lib_str.c",line 1532,column 1,is_stmt,address _Str_Char_Last_N,isa 0

	.dwfde $C$DW$CIE, _Str_Char_Last_N
$C$DW$149	.dwtag  DW_TAG_formal_parameter
	.dwattr $C$DW$149, DW_AT_name("pstr")
	.dwattr $C$DW$149, DW_AT_TI_symbol_name("_pstr")
	.dwattr $C$DW$149, DW_AT_type(*$C$DW$T$28)
	.dwattr $C$DW$149, DW_AT_location[DW_OP_reg12]

$C$DW$150	.dwtag  DW_TAG_formal_parameter
	.dwattr $C$DW$150, DW_AT_name("len_max")
	.dwattr $C$DW$150, DW_AT_TI_symbol_name("_len_max")
	.dwattr $C$DW$150, DW_AT_type(*$C$DW$T$32)
	.dwattr $C$DW$150, DW_AT_location[DW_OP_reg0]

$C$DW$151	.dwtag  DW_TAG_formal_parameter
	.dwattr $C$DW$151, DW_AT_name("srch_char")
	.dwattr $C$DW$151, DW_AT_TI_symbol_name("_srch_char")
	.dwattr $C$DW$151, DW_AT_type(*$C$DW$T$21)
	.dwattr $C$DW$151, DW_AT_location[DW_OP_reg14]


;***************************************************************
;* FNAME: _Str_Char_Last_N              FR SIZE:  12           *
;*                                                             *
;* FUNCTION ENVIRONMENT                                        *
;*                                                             *
;* FUNCTION PROPERTIES                                         *
;*                            0 Parameter, 11 Auto,  0 SOE     *
;***************************************************************

_Str_Char_Last_N:
	.dwcfi	cfa_offset, -2
	.dwcfi	save_reg_to_mem, 26, 0
        ADDB      SP,#12                ; [CPU_ARAU] 
	.dwcfi	cfa_offset, -14
$C$DW$152	.dwtag  DW_TAG_variable
	.dwattr $C$DW$152, DW_AT_name("pstr")
	.dwattr $C$DW$152, DW_AT_TI_symbol_name("_pstr")
	.dwattr $C$DW$152, DW_AT_type(*$C$DW$T$28)
	.dwattr $C$DW$152, DW_AT_location[DW_OP_breg20 -2]

$C$DW$153	.dwtag  DW_TAG_variable
	.dwattr $C$DW$153, DW_AT_name("len_max")
	.dwattr $C$DW$153, DW_AT_TI_symbol_name("_len_max")
	.dwattr $C$DW$153, DW_AT_type(*$C$DW$T$32)
	.dwattr $C$DW$153, DW_AT_location[DW_OP_breg20 -4]

$C$DW$154	.dwtag  DW_TAG_variable
	.dwattr $C$DW$154, DW_AT_name("pstr_char")
	.dwattr $C$DW$154, DW_AT_TI_symbol_name("_pstr_char")
	.dwattr $C$DW$154, DW_AT_type(*$C$DW$T$28)
	.dwattr $C$DW$154, DW_AT_location[DW_OP_breg20 -6]

$C$DW$155	.dwtag  DW_TAG_variable
	.dwattr $C$DW$155, DW_AT_name("str_len_max")
	.dwattr $C$DW$155, DW_AT_TI_symbol_name("_str_len_max")
	.dwattr $C$DW$155, DW_AT_type(*$C$DW$T$32)
	.dwattr $C$DW$155, DW_AT_location[DW_OP_breg20 -8]

$C$DW$156	.dwtag  DW_TAG_variable
	.dwattr $C$DW$156, DW_AT_name("str_len")
	.dwattr $C$DW$156, DW_AT_TI_symbol_name("_str_len")
	.dwattr $C$DW$156, DW_AT_type(*$C$DW$T$32)
	.dwattr $C$DW$156, DW_AT_location[DW_OP_breg20 -10]

$C$DW$157	.dwtag  DW_TAG_variable
	.dwattr $C$DW$157, DW_AT_name("srch_char")
	.dwattr $C$DW$157, DW_AT_TI_symbol_name("_srch_char")
	.dwattr $C$DW$157, DW_AT_type(*$C$DW$T$21)
	.dwattr $C$DW$157, DW_AT_location[DW_OP_breg20 -11]

        MOV       *-SP[11],AR5          ; [CPU_ALU] |1532| 
        MOVL      *-SP[4],ACC           ; [CPU_ALU] |1532| 
        MOVL      *-SP[2],XAR4          ; [CPU_ALU] |1532| 
	.dwpsn	file "C:/ti/Workspace/PLC_certificate/Software/uC-LIB/lib_str.c",line 1538,column 5,is_stmt,isa 0
        MOVL      ACC,*-SP[2]           ; [CPU_ALU] |1538| 
        B         $C$L62,NEQ            ; [CPU_ALU] |1538| 
        ; branchcc occurs ; [] |1538| 
	.dwpsn	file "C:/ti/Workspace/PLC_certificate/Software/uC-LIB/lib_str.c",line 1539,column 9,is_stmt,isa 0
        MOVB      XAR4,#0               ; [CPU_ALU] |1539| 
        B         $C$L68,UNC            ; [CPU_ALU] |1539| 
        ; branch occurs ; [] |1539| 
$C$L62:    
	.dwpsn	file "C:/ti/Workspace/PLC_certificate/Software/uC-LIB/lib_str.c",line 1542,column 5,is_stmt,isa 0
        MOVL      ACC,*-SP[4]           ; [CPU_ALU] |1542| 
        B         $C$L63,NEQ            ; [CPU_ALU] |1542| 
        ; branchcc occurs ; [] |1542| 
	.dwpsn	file "C:/ti/Workspace/PLC_certificate/Software/uC-LIB/lib_str.c",line 1543,column 9,is_stmt,isa 0
        MOVB      XAR4,#0               ; [CPU_ALU] |1543| 
        B         $C$L68,UNC            ; [CPU_ALU] |1543| 
        ; branch occurs ; [] |1543| 
$C$L63:    
	.dwpsn	file "C:/ti/Workspace/PLC_certificate/Software/uC-LIB/lib_str.c",line 1547,column 5,is_stmt,isa 0
        MOVL      ACC,*-SP[2]           ; [CPU_ALU] |1547| 
        MOVL      *-SP[6],ACC           ; [CPU_ALU] |1547| 
	.dwpsn	file "C:/ti/Workspace/PLC_certificate/Software/uC-LIB/lib_str.c",line 1548,column 6,is_stmt,isa 0
        MOVL      ACC,*-SP[4]           ; [CPU_ALU] |1548| 
        SUBB      ACC,#1                ; [CPU_ALU] |1548| 
        MOVL      *-SP[8],ACC           ; [CPU_ALU] |1548| 
	.dwpsn	file "C:/ti/Workspace/PLC_certificate/Software/uC-LIB/lib_str.c",line 1549,column 6,is_stmt,isa 0
$C$DW$158	.dwtag  DW_TAG_TI_branch
	.dwattr $C$DW$158, DW_AT_low_pc(0x00)
	.dwattr $C$DW$158, DW_AT_name("_Str_Len_N")
	.dwattr $C$DW$158, DW_AT_TI_call

        LCR       #_Str_Len_N           ; [CPU_ALU] |1549| 
        ; call occurs [#_Str_Len_N] ; [] |1549| 
        MOVL      *-SP[10],ACC          ; [CPU_ALU] |1549| 
	.dwpsn	file "C:/ti/Workspace/PLC_certificate/Software/uC-LIB/lib_str.c",line 1550,column 5,is_stmt,isa 0
        MOVL      ACC,*-SP[10]          ; [CPU_ALU] |1550| 
        ADDL      ACC,*-SP[6]           ; [CPU_ALU] |1550| 
        MOVL      *-SP[6],ACC           ; [CPU_ALU] |1550| 
	.dwpsn	file "C:/ti/Workspace/PLC_certificate/Software/uC-LIB/lib_str.c",line 1552,column 5,is_stmt,isa 0
        MOVL      ACC,*-SP[6]           ; [CPU_ALU] |1552| 
        B         $C$L65,NEQ            ; [CPU_ALU] |1552| 
        ; branchcc occurs ; [] |1552| 
	.dwpsn	file "C:/ti/Workspace/PLC_certificate/Software/uC-LIB/lib_str.c",line 1553,column 9,is_stmt,isa 0
        MOVB      XAR4,#0               ; [CPU_ALU] |1553| 
        B         $C$L68,UNC            ; [CPU_ALU] |1553| 
        ; branch occurs ; [] |1553| 
$C$L64:    
	.dwpsn	file "C:/ti/Workspace/PLC_certificate/Software/uC-LIB/lib_str.c",line 1558,column 9,is_stmt,isa 0
        MOVB      ACC,#1                ; [CPU_ALU] |1558| 
        SUBL      *-SP[6],ACC           ; [CPU_ALU] |1558| 
$C$L65:    
	.dwpsn	file "C:/ti/Workspace/PLC_certificate/Software/uC-LIB/lib_str.c",line 1556,column 12,is_stmt,isa 0
        MOVL      ACC,*-SP[2]           ; [CPU_ALU] |1556| 
        CMPL      ACC,*-SP[6]           ; [CPU_ALU] |1556| 
        B         $C$L66,EQ             ; [CPU_ALU] |1556| 
        ; branchcc occurs ; [] |1556| 
        MOVL      XAR4,*-SP[6]          ; [CPU_ALU] |1556| 
        MOV       AL,*-SP[11]           ; [CPU_ALU] |1556| 
        CMP       AL,*+XAR4[0]          ; [CPU_ALU] |1556| 
        B         $C$L64,NEQ            ; [CPU_ALU] |1556| 
        ; branchcc occurs ; [] |1556| 
$C$L66:    
	.dwpsn	file "C:/ti/Workspace/PLC_certificate/Software/uC-LIB/lib_str.c",line 1562,column 5,is_stmt,isa 0
        MOVL      XAR4,*-SP[6]          ; [CPU_ALU] |1562| 
        MOV       AL,*-SP[11]           ; [CPU_ALU] |1562| 
        CMP       AL,*+XAR4[0]          ; [CPU_ALU] |1562| 
        B         $C$L67,EQ             ; [CPU_ALU] |1562| 
        ; branchcc occurs ; [] |1562| 
	.dwpsn	file "C:/ti/Workspace/PLC_certificate/Software/uC-LIB/lib_str.c",line 1563,column 10,is_stmt,isa 0
        MOVB      XAR4,#0               ; [CPU_ALU] |1563| 
        B         $C$L68,UNC            ; [CPU_ALU] |1563| 
        ; branch occurs ; [] |1563| 
$C$L67:    
	.dwpsn	file "C:/ti/Workspace/PLC_certificate/Software/uC-LIB/lib_str.c",line 1567,column 5,is_stmt,isa 0
$C$L68:    
	.dwpsn	file "C:/ti/Workspace/PLC_certificate/Software/uC-LIB/lib_str.c",line 1568,column 1,is_stmt,isa 0
        SUBB      SP,#12                ; [CPU_ARAU] 
	.dwcfi	cfa_offset, -2
$C$DW$159	.dwtag  DW_TAG_TI_branch
	.dwattr $C$DW$159, DW_AT_low_pc(0x00)
	.dwattr $C$DW$159, DW_AT_TI_return

        LRETR     ; [CPU_ALU] 
        ; return occurs ; [] 
	.dwattr $C$DW$148, DW_AT_TI_end_file("C:/ti/Workspace/PLC_certificate/Software/uC-LIB/lib_str.c")
	.dwattr $C$DW$148, DW_AT_TI_end_line(0x620)
	.dwattr $C$DW$148, DW_AT_TI_end_column(0x01)
	.dwendentry
	.dwendtag $C$DW$148

	.sect	".text"
	.clink
	.global	_Str_Char_Replace

$C$DW$160	.dwtag  DW_TAG_subprogram
	.dwattr $C$DW$160, DW_AT_name("Str_Char_Replace")
	.dwattr $C$DW$160, DW_AT_low_pc(_Str_Char_Replace)
	.dwattr $C$DW$160, DW_AT_high_pc(0x00)
	.dwattr $C$DW$160, DW_AT_TI_symbol_name("_Str_Char_Replace")
	.dwattr $C$DW$160, DW_AT_external
	.dwattr $C$DW$160, DW_AT_type(*$C$DW$T$38)
	.dwattr $C$DW$160, DW_AT_TI_begin_file("C:/ti/Workspace/PLC_certificate/Software/uC-LIB/lib_str.c")
	.dwattr $C$DW$160, DW_AT_TI_begin_line(0x648)
	.dwattr $C$DW$160, DW_AT_TI_begin_column(0x0c)
	.dwattr $C$DW$160, DW_AT_TI_max_frame_size(-10)
	.dwpsn	file "C:/ti/Workspace/PLC_certificate/Software/uC-LIB/lib_str.c",line 1611,column 1,is_stmt,address _Str_Char_Replace,isa 0

	.dwfde $C$DW$CIE, _Str_Char_Replace
$C$DW$161	.dwtag  DW_TAG_formal_parameter
	.dwattr $C$DW$161, DW_AT_name("pstr")
	.dwattr $C$DW$161, DW_AT_TI_symbol_name("_pstr")
	.dwattr $C$DW$161, DW_AT_type(*$C$DW$T$38)
	.dwattr $C$DW$161, DW_AT_location[DW_OP_reg12]

$C$DW$162	.dwtag  DW_TAG_formal_parameter
	.dwattr $C$DW$162, DW_AT_name("char_srch")
	.dwattr $C$DW$162, DW_AT_TI_symbol_name("_char_srch")
	.dwattr $C$DW$162, DW_AT_type(*$C$DW$T$21)
	.dwattr $C$DW$162, DW_AT_location[DW_OP_reg0]

$C$DW$163	.dwtag  DW_TAG_formal_parameter
	.dwattr $C$DW$163, DW_AT_name("char_replace")
	.dwattr $C$DW$163, DW_AT_TI_symbol_name("_char_replace")
	.dwattr $C$DW$163, DW_AT_type(*$C$DW$T$21)
	.dwattr $C$DW$163, DW_AT_location[DW_OP_reg1]


;***************************************************************
;* FNAME: _Str_Char_Replace             FR SIZE:   8           *
;*                                                             *
;* FUNCTION ENVIRONMENT                                        *
;*                                                             *
;* FUNCTION PROPERTIES                                         *
;*                            1 Parameter,  7 Auto,  0 SOE     *
;***************************************************************

_Str_Char_Replace:
	.dwcfi	cfa_offset, -2
	.dwcfi	save_reg_to_mem, 26, 0
        ADDB      SP,#8                 ; [CPU_ARAU] 
	.dwcfi	cfa_offset, -10
$C$DW$164	.dwtag  DW_TAG_variable
	.dwattr $C$DW$164, DW_AT_name("pstr")
	.dwattr $C$DW$164, DW_AT_TI_symbol_name("_pstr")
	.dwattr $C$DW$164, DW_AT_type(*$C$DW$T$38)
	.dwattr $C$DW$164, DW_AT_location[DW_OP_breg20 -4]

$C$DW$165	.dwtag  DW_TAG_variable
	.dwattr $C$DW$165, DW_AT_name("pstr_rtn")
	.dwattr $C$DW$165, DW_AT_TI_symbol_name("_pstr_rtn")
	.dwattr $C$DW$165, DW_AT_type(*$C$DW$T$38)
	.dwattr $C$DW$165, DW_AT_location[DW_OP_breg20 -6]

$C$DW$166	.dwtag  DW_TAG_variable
	.dwattr $C$DW$166, DW_AT_name("char_srch")
	.dwattr $C$DW$166, DW_AT_TI_symbol_name("_char_srch")
	.dwattr $C$DW$166, DW_AT_type(*$C$DW$T$21)
	.dwattr $C$DW$166, DW_AT_location[DW_OP_breg20 -7]

$C$DW$167	.dwtag  DW_TAG_variable
	.dwattr $C$DW$167, DW_AT_name("char_replace")
	.dwattr $C$DW$167, DW_AT_TI_symbol_name("_char_replace")
	.dwattr $C$DW$167, DW_AT_type(*$C$DW$T$21)
	.dwattr $C$DW$167, DW_AT_location[DW_OP_breg20 -8]

        MOV       *-SP[8],AH            ; [CPU_ALU] |1611| 
        MOV       *-SP[7],AL            ; [CPU_ALU] |1611| 
        MOVL      *-SP[4],XAR4          ; [CPU_ALU] |1611| 
	.dwpsn	file "C:/ti/Workspace/PLC_certificate/Software/uC-LIB/lib_str.c",line 1615,column 5,is_stmt,isa 0
        MOVL      XAR6,#65535           ; [CPU_ARAU] |1615| 
        MOV       AL,*-SP[8]            ; [CPU_ALU] |1615| 
        MOV       *-SP[1],AL            ; [CPU_ALU] |1615| 
        MOVZ      AR5,*-SP[7]           ; [CPU_ALU] |1615| 
        MOVL      XAR4,*-SP[4]          ; [CPU_ALU] |1615| 
        MOVL      ACC,XAR6              ; [CPU_ALU] |1615| 
$C$DW$168	.dwtag  DW_TAG_TI_branch
	.dwattr $C$DW$168, DW_AT_low_pc(0x00)
	.dwattr $C$DW$168, DW_AT_name("_Str_Char_Replace_N")
	.dwattr $C$DW$168, DW_AT_TI_call

        LCR       #_Str_Char_Replace_N  ; [CPU_ALU] |1615| 
        ; call occurs [#_Str_Char_Replace_N] ; [] |1615| 
        MOVL      *-SP[6],XAR4          ; [CPU_ALU] |1615| 
	.dwpsn	file "C:/ti/Workspace/PLC_certificate/Software/uC-LIB/lib_str.c",line 1620,column 5,is_stmt,isa 0
	.dwpsn	file "C:/ti/Workspace/PLC_certificate/Software/uC-LIB/lib_str.c",line 1621,column 1,is_stmt,isa 0
        SUBB      SP,#8                 ; [CPU_ARAU] 
	.dwcfi	cfa_offset, -2
$C$DW$169	.dwtag  DW_TAG_TI_branch
	.dwattr $C$DW$169, DW_AT_low_pc(0x00)
	.dwattr $C$DW$169, DW_AT_TI_return

        LRETR     ; [CPU_ALU] 
        ; return occurs ; [] 
	.dwattr $C$DW$160, DW_AT_TI_end_file("C:/ti/Workspace/PLC_certificate/Software/uC-LIB/lib_str.c")
	.dwattr $C$DW$160, DW_AT_TI_end_line(0x655)
	.dwattr $C$DW$160, DW_AT_TI_end_column(0x01)
	.dwendentry
	.dwendtag $C$DW$160

	.sect	".text"
	.clink
	.global	_Str_Char_Replace_N

$C$DW$170	.dwtag  DW_TAG_subprogram
	.dwattr $C$DW$170, DW_AT_name("Str_Char_Replace_N")
	.dwattr $C$DW$170, DW_AT_low_pc(_Str_Char_Replace_N)
	.dwattr $C$DW$170, DW_AT_high_pc(0x00)
	.dwattr $C$DW$170, DW_AT_TI_symbol_name("_Str_Char_Replace_N")
	.dwattr $C$DW$170, DW_AT_external
	.dwattr $C$DW$170, DW_AT_type(*$C$DW$T$38)
	.dwattr $C$DW$170, DW_AT_TI_begin_file("C:/ti/Workspace/PLC_certificate/Software/uC-LIB/lib_str.c")
	.dwattr $C$DW$170, DW_AT_TI_begin_line(0x686)
	.dwattr $C$DW$170, DW_AT_TI_begin_column(0x0c)
	.dwattr $C$DW$170, DW_AT_TI_max_frame_size(-12)
	.dwpsn	file "C:/ti/Workspace/PLC_certificate/Software/uC-LIB/lib_str.c",line 1674,column 1,is_stmt,address _Str_Char_Replace_N,isa 0

	.dwfde $C$DW$CIE, _Str_Char_Replace_N
$C$DW$171	.dwtag  DW_TAG_formal_parameter
	.dwattr $C$DW$171, DW_AT_name("pstr")
	.dwattr $C$DW$171, DW_AT_TI_symbol_name("_pstr")
	.dwattr $C$DW$171, DW_AT_type(*$C$DW$T$38)
	.dwattr $C$DW$171, DW_AT_location[DW_OP_reg12]

$C$DW$172	.dwtag  DW_TAG_formal_parameter
	.dwattr $C$DW$172, DW_AT_name("char_srch")
	.dwattr $C$DW$172, DW_AT_TI_symbol_name("_char_srch")
	.dwattr $C$DW$172, DW_AT_type(*$C$DW$T$21)
	.dwattr $C$DW$172, DW_AT_location[DW_OP_reg14]

$C$DW$173	.dwtag  DW_TAG_formal_parameter
	.dwattr $C$DW$173, DW_AT_name("char_replace")
	.dwattr $C$DW$173, DW_AT_TI_symbol_name("_char_replace")
	.dwattr $C$DW$173, DW_AT_type(*$C$DW$T$21)
	.dwattr $C$DW$173, DW_AT_location[DW_OP_breg20 -13]

$C$DW$174	.dwtag  DW_TAG_formal_parameter
	.dwattr $C$DW$174, DW_AT_name("len_max")
	.dwattr $C$DW$174, DW_AT_TI_symbol_name("_len_max")
	.dwattr $C$DW$174, DW_AT_type(*$C$DW$T$32)
	.dwattr $C$DW$174, DW_AT_location[DW_OP_reg0]


;***************************************************************
;* FNAME: _Str_Char_Replace_N           FR SIZE:  10           *
;*                                                             *
;* FUNCTION ENVIRONMENT                                        *
;*                                                             *
;* FUNCTION PROPERTIES                                         *
;*                            0 Parameter,  9 Auto,  0 SOE     *
;***************************************************************

_Str_Char_Replace_N:
	.dwcfi	cfa_offset, -2
	.dwcfi	save_reg_to_mem, 26, 0
        ADDB      SP,#10                ; [CPU_ARAU] 
	.dwcfi	cfa_offset, -12
$C$DW$175	.dwtag  DW_TAG_variable
	.dwattr $C$DW$175, DW_AT_name("pstr")
	.dwattr $C$DW$175, DW_AT_TI_symbol_name("_pstr")
	.dwattr $C$DW$175, DW_AT_type(*$C$DW$T$38)
	.dwattr $C$DW$175, DW_AT_location[DW_OP_breg20 -2]

$C$DW$176	.dwtag  DW_TAG_variable
	.dwattr $C$DW$176, DW_AT_name("len_max")
	.dwattr $C$DW$176, DW_AT_TI_symbol_name("_len_max")
	.dwattr $C$DW$176, DW_AT_type(*$C$DW$T$32)
	.dwattr $C$DW$176, DW_AT_location[DW_OP_breg20 -4]

$C$DW$177	.dwtag  DW_TAG_variable
	.dwattr $C$DW$177, DW_AT_name("pstr_char")
	.dwattr $C$DW$177, DW_AT_TI_symbol_name("_pstr_char")
	.dwattr $C$DW$177, DW_AT_type(*$C$DW$T$38)
	.dwattr $C$DW$177, DW_AT_location[DW_OP_breg20 -6]

$C$DW$178	.dwtag  DW_TAG_variable
	.dwattr $C$DW$178, DW_AT_name("len")
	.dwattr $C$DW$178, DW_AT_TI_symbol_name("_len")
	.dwattr $C$DW$178, DW_AT_type(*$C$DW$T$32)
	.dwattr $C$DW$178, DW_AT_location[DW_OP_breg20 -8]

$C$DW$179	.dwtag  DW_TAG_variable
	.dwattr $C$DW$179, DW_AT_name("char_srch")
	.dwattr $C$DW$179, DW_AT_TI_symbol_name("_char_srch")
	.dwattr $C$DW$179, DW_AT_type(*$C$DW$T$21)
	.dwattr $C$DW$179, DW_AT_location[DW_OP_breg20 -9]

        MOVL      *-SP[4],ACC           ; [CPU_ALU] |1674| 
        MOV       *-SP[9],AR5           ; [CPU_ALU] |1674| 
        MOVL      *-SP[2],XAR4          ; [CPU_ALU] |1674| 
	.dwpsn	file "C:/ti/Workspace/PLC_certificate/Software/uC-LIB/lib_str.c",line 1679,column 5,is_stmt,isa 0
        MOVL      ACC,*-SP[2]           ; [CPU_ALU] |1679| 
        B         $C$L69,NEQ            ; [CPU_ALU] |1679| 
        ; branchcc occurs ; [] |1679| 
	.dwpsn	file "C:/ti/Workspace/PLC_certificate/Software/uC-LIB/lib_str.c",line 1680,column 9,is_stmt,isa 0
        MOVB      XAR4,#0               ; [CPU_ALU] |1680| 
        B         $C$L75,UNC            ; [CPU_ALU] |1680| 
        ; branch occurs ; [] |1680| 
$C$L69:    
	.dwpsn	file "C:/ti/Workspace/PLC_certificate/Software/uC-LIB/lib_str.c",line 1683,column 5,is_stmt,isa 0
        MOVL      ACC,*-SP[4]           ; [CPU_ALU] |1683| 
        B         $C$L70,NEQ            ; [CPU_ALU] |1683| 
        ; branchcc occurs ; [] |1683| 
	.dwpsn	file "C:/ti/Workspace/PLC_certificate/Software/uC-LIB/lib_str.c",line 1684,column 9,is_stmt,isa 0
        MOVB      XAR4,#0               ; [CPU_ALU] |1684| 
        B         $C$L75,UNC            ; [CPU_ALU] |1684| 
        ; branch occurs ; [] |1684| 
$C$L70:    
	.dwpsn	file "C:/ti/Workspace/PLC_certificate/Software/uC-LIB/lib_str.c",line 1687,column 5,is_stmt,isa 0
        MOVL      ACC,*-SP[2]           ; [CPU_ALU] |1687| 
        MOVL      *-SP[6],ACC           ; [CPU_ALU] |1687| 
	.dwpsn	file "C:/ti/Workspace/PLC_certificate/Software/uC-LIB/lib_str.c",line 1688,column 5,is_stmt,isa 0
        MOVL      ACC,*-SP[4]           ; [CPU_ALU] |1688| 
        MOVL      *-SP[8],ACC           ; [CPU_ALU] |1688| 
	.dwpsn	file "C:/ti/Workspace/PLC_certificate/Software/uC-LIB/lib_str.c",line 1690,column 5,is_stmt,isa 0
        B         $C$L73,UNC            ; [CPU_ALU] |1690| 
        ; branch occurs ; [] |1690| 
$C$L71:    
	.dwpsn	file "C:/ti/Workspace/PLC_certificate/Software/uC-LIB/lib_str.c",line 1694,column 9,is_stmt,isa 0
        MOV       AL,*-SP[9]            ; [CPU_ALU] |1694| 
        CMP       AL,*+XAR4[0]          ; [CPU_ALU] |1694| 
        B         $C$L72,NEQ            ; [CPU_ALU] |1694| 
        ; branchcc occurs ; [] |1694| 
	.dwpsn	file "C:/ti/Workspace/PLC_certificate/Software/uC-LIB/lib_str.c",line 1695,column 13,is_stmt,isa 0
        MOVL      XAR7,*-SP[6]          ; [CPU_ALU] |1695| 
        MOV       AL,*-SP[13]           ; [CPU_ALU] |1695| 
        MOV       *+XAR7[0],AL          ; [CPU_ALU] |1695| 
$C$L72:    
	.dwpsn	file "C:/ti/Workspace/PLC_certificate/Software/uC-LIB/lib_str.c",line 1698,column 9,is_stmt,isa 0
        MOVB      ACC,#1                ; [CPU_ALU] |1698| 
        ADDL      ACC,*-SP[6]           ; [CPU_ALU] |1698| 
        MOVL      *-SP[6],ACC           ; [CPU_ALU] |1698| 
	.dwpsn	file "C:/ti/Workspace/PLC_certificate/Software/uC-LIB/lib_str.c",line 1699,column 9,is_stmt,isa 0
        MOVB      ACC,#1                ; [CPU_ALU] |1699| 
        SUBL      *-SP[8],ACC           ; [CPU_ALU] |1699| 
$C$L73:    
	.dwpsn	file "C:/ti/Workspace/PLC_certificate/Software/uC-LIB/lib_str.c",line 1690,column 12,is_stmt,isa 0
        MOVL      ACC,*-SP[6]           ; [CPU_ALU] |1690| 
        B         $C$L74,EQ             ; [CPU_ALU] |1690| 
        ; branchcc occurs ; [] |1690| 
        MOVL      XAR4,*-SP[6]          ; [CPU_ALU] |1690| 
        MOV       AL,*+XAR4[0]          ; [CPU_ALU] |1690| 
        B         $C$L74,EQ             ; [CPU_ALU] |1690| 
        ; branchcc occurs ; [] |1690| 
        MOVL      ACC,*-SP[8]           ; [CPU_ALU] |1690| 
        B         $C$L71,NEQ            ; [CPU_ALU] |1690| 
        ; branchcc occurs ; [] |1690| 
$C$L74:    
	.dwpsn	file "C:/ti/Workspace/PLC_certificate/Software/uC-LIB/lib_str.c",line 1702,column 5,is_stmt,isa 0
        MOVL      XAR4,*-SP[2]          ; [CPU_ALU] |1702| 
$C$L75:    
	.dwpsn	file "C:/ti/Workspace/PLC_certificate/Software/uC-LIB/lib_str.c",line 1703,column 1,is_stmt,isa 0
        SUBB      SP,#10                ; [CPU_ARAU] 
	.dwcfi	cfa_offset, -2
$C$DW$180	.dwtag  DW_TAG_TI_branch
	.dwattr $C$DW$180, DW_AT_low_pc(0x00)
	.dwattr $C$DW$180, DW_AT_TI_return

        LRETR     ; [CPU_ALU] 
        ; return occurs ; [] 
	.dwattr $C$DW$170, DW_AT_TI_end_file("C:/ti/Workspace/PLC_certificate/Software/uC-LIB/lib_str.c")
	.dwattr $C$DW$170, DW_AT_TI_end_line(0x6a7)
	.dwattr $C$DW$170, DW_AT_TI_end_column(0x01)
	.dwendentry
	.dwendtag $C$DW$170

	.sect	".text"
	.clink
	.global	_Str_Str

$C$DW$181	.dwtag  DW_TAG_subprogram
	.dwattr $C$DW$181, DW_AT_name("Str_Str")
	.dwattr $C$DW$181, DW_AT_low_pc(_Str_Str)
	.dwattr $C$DW$181, DW_AT_high_pc(0x00)
	.dwattr $C$DW$181, DW_AT_TI_symbol_name("_Str_Str")
	.dwattr $C$DW$181, DW_AT_external
	.dwattr $C$DW$181, DW_AT_type(*$C$DW$T$38)
	.dwattr $C$DW$181, DW_AT_TI_begin_file("C:/ti/Workspace/PLC_certificate/Software/uC-LIB/lib_str.c")
	.dwattr $C$DW$181, DW_AT_TI_begin_line(0x6e6)
	.dwattr $C$DW$181, DW_AT_TI_begin_column(0x0c)
	.dwattr $C$DW$181, DW_AT_TI_max_frame_size(-8)
	.dwpsn	file "C:/ti/Workspace/PLC_certificate/Software/uC-LIB/lib_str.c",line 1768,column 1,is_stmt,address _Str_Str,isa 0

	.dwfde $C$DW$CIE, _Str_Str
$C$DW$182	.dwtag  DW_TAG_formal_parameter
	.dwattr $C$DW$182, DW_AT_name("pstr")
	.dwattr $C$DW$182, DW_AT_TI_symbol_name("_pstr")
	.dwattr $C$DW$182, DW_AT_type(*$C$DW$T$28)
	.dwattr $C$DW$182, DW_AT_location[DW_OP_reg12]

$C$DW$183	.dwtag  DW_TAG_formal_parameter
	.dwattr $C$DW$183, DW_AT_name("pstr_srch")
	.dwattr $C$DW$183, DW_AT_TI_symbol_name("_pstr_srch")
	.dwattr $C$DW$183, DW_AT_type(*$C$DW$T$28)
	.dwattr $C$DW$183, DW_AT_location[DW_OP_reg14]


;***************************************************************
;* FNAME: _Str_Str                      FR SIZE:   6           *
;*                                                             *
;* FUNCTION ENVIRONMENT                                        *
;*                                                             *
;* FUNCTION PROPERTIES                                         *
;*                            0 Parameter,  6 Auto,  0 SOE     *
;***************************************************************

_Str_Str:
	.dwcfi	cfa_offset, -2
	.dwcfi	save_reg_to_mem, 26, 0
        ADDB      SP,#6                 ; [CPU_ARAU] 
	.dwcfi	cfa_offset, -8
$C$DW$184	.dwtag  DW_TAG_variable
	.dwattr $C$DW$184, DW_AT_name("pstr")
	.dwattr $C$DW$184, DW_AT_TI_symbol_name("_pstr")
	.dwattr $C$DW$184, DW_AT_type(*$C$DW$T$28)
	.dwattr $C$DW$184, DW_AT_location[DW_OP_breg20 -2]

$C$DW$185	.dwtag  DW_TAG_variable
	.dwattr $C$DW$185, DW_AT_name("pstr_srch")
	.dwattr $C$DW$185, DW_AT_TI_symbol_name("_pstr_srch")
	.dwattr $C$DW$185, DW_AT_type(*$C$DW$T$28)
	.dwattr $C$DW$185, DW_AT_location[DW_OP_breg20 -4]

$C$DW$186	.dwtag  DW_TAG_variable
	.dwattr $C$DW$186, DW_AT_name("pstr_rtn")
	.dwattr $C$DW$186, DW_AT_TI_symbol_name("_pstr_rtn")
	.dwattr $C$DW$186, DW_AT_type(*$C$DW$T$38)
	.dwattr $C$DW$186, DW_AT_location[DW_OP_breg20 -6]

        MOVL      *-SP[4],XAR5          ; [CPU_ALU] |1768| 
        MOVL      *-SP[2],XAR4          ; [CPU_ALU] |1768| 
	.dwpsn	file "C:/ti/Workspace/PLC_certificate/Software/uC-LIB/lib_str.c",line 1772,column 5,is_stmt,isa 0
        MOVL      XAR6,#65535           ; [CPU_ARAU] |1772| 
        MOVL      ACC,XAR6              ; [CPU_ALU] |1772| 
$C$DW$187	.dwtag  DW_TAG_TI_branch
	.dwattr $C$DW$187, DW_AT_low_pc(0x00)
	.dwattr $C$DW$187, DW_AT_name("_Str_Str_N")
	.dwattr $C$DW$187, DW_AT_TI_call

        LCR       #_Str_Str_N           ; [CPU_ALU] |1772| 
        ; call occurs [#_Str_Str_N] ; [] |1772| 
        MOVL      *-SP[6],XAR4          ; [CPU_ALU] |1772| 
	.dwpsn	file "C:/ti/Workspace/PLC_certificate/Software/uC-LIB/lib_str.c",line 1776,column 5,is_stmt,isa 0
	.dwpsn	file "C:/ti/Workspace/PLC_certificate/Software/uC-LIB/lib_str.c",line 1777,column 1,is_stmt,isa 0
        SUBB      SP,#6                 ; [CPU_ARAU] 
	.dwcfi	cfa_offset, -2
$C$DW$188	.dwtag  DW_TAG_TI_branch
	.dwattr $C$DW$188, DW_AT_low_pc(0x00)
	.dwattr $C$DW$188, DW_AT_TI_return

        LRETR     ; [CPU_ALU] 
        ; return occurs ; [] 
	.dwattr $C$DW$181, DW_AT_TI_end_file("C:/ti/Workspace/PLC_certificate/Software/uC-LIB/lib_str.c")
	.dwattr $C$DW$181, DW_AT_TI_end_line(0x6f1)
	.dwattr $C$DW$181, DW_AT_TI_end_column(0x01)
	.dwendentry
	.dwendtag $C$DW$181

	.sect	".text"
	.clink
	.global	_Str_Str_N

$C$DW$189	.dwtag  DW_TAG_subprogram
	.dwattr $C$DW$189, DW_AT_name("Str_Str_N")
	.dwattr $C$DW$189, DW_AT_low_pc(_Str_Str_N)
	.dwattr $C$DW$189, DW_AT_high_pc(0x00)
	.dwattr $C$DW$189, DW_AT_TI_symbol_name("_Str_Str_N")
	.dwattr $C$DW$189, DW_AT_external
	.dwattr $C$DW$189, DW_AT_type(*$C$DW$T$38)
	.dwattr $C$DW$189, DW_AT_TI_begin_file("C:/ti/Workspace/PLC_certificate/Software/uC-LIB/lib_str.c")
	.dwattr $C$DW$189, DW_AT_TI_begin_line(0x73a)
	.dwattr $C$DW$189, DW_AT_TI_begin_column(0x0c)
	.dwattr $C$DW$189, DW_AT_TI_max_frame_size(-24)
	.dwpsn	file "C:/ti/Workspace/PLC_certificate/Software/uC-LIB/lib_str.c",line 1853,column 1,is_stmt,address _Str_Str_N,isa 0

	.dwfde $C$DW$CIE, _Str_Str_N
$C$DW$190	.dwtag  DW_TAG_formal_parameter
	.dwattr $C$DW$190, DW_AT_name("pstr")
	.dwattr $C$DW$190, DW_AT_TI_symbol_name("_pstr")
	.dwattr $C$DW$190, DW_AT_type(*$C$DW$T$28)
	.dwattr $C$DW$190, DW_AT_location[DW_OP_reg12]

$C$DW$191	.dwtag  DW_TAG_formal_parameter
	.dwattr $C$DW$191, DW_AT_name("pstr_srch")
	.dwattr $C$DW$191, DW_AT_TI_symbol_name("_pstr_srch")
	.dwattr $C$DW$191, DW_AT_type(*$C$DW$T$28)
	.dwattr $C$DW$191, DW_AT_location[DW_OP_reg14]

$C$DW$192	.dwtag  DW_TAG_formal_parameter
	.dwattr $C$DW$192, DW_AT_name("len_max")
	.dwattr $C$DW$192, DW_AT_TI_symbol_name("_len_max")
	.dwattr $C$DW$192, DW_AT_type(*$C$DW$T$32)
	.dwattr $C$DW$192, DW_AT_location[DW_OP_reg0]


;***************************************************************
;* FNAME: _Str_Str_N                    FR SIZE:  22           *
;*                                                             *
;* FUNCTION ENVIRONMENT                                        *
;*                                                             *
;* FUNCTION PROPERTIES                                         *
;*                            0 Parameter, 22 Auto,  0 SOE     *
;***************************************************************

_Str_Str_N:
	.dwcfi	cfa_offset, -2
	.dwcfi	save_reg_to_mem, 26, 0
        ADDB      SP,#22                ; [CPU_ARAU] 
	.dwcfi	cfa_offset, -24
$C$DW$193	.dwtag  DW_TAG_variable
	.dwattr $C$DW$193, DW_AT_name("pstr")
	.dwattr $C$DW$193, DW_AT_TI_symbol_name("_pstr")
	.dwattr $C$DW$193, DW_AT_type(*$C$DW$T$28)
	.dwattr $C$DW$193, DW_AT_location[DW_OP_breg20 -2]

$C$DW$194	.dwtag  DW_TAG_variable
	.dwattr $C$DW$194, DW_AT_name("pstr_srch")
	.dwattr $C$DW$194, DW_AT_TI_symbol_name("_pstr_srch")
	.dwattr $C$DW$194, DW_AT_type(*$C$DW$T$28)
	.dwattr $C$DW$194, DW_AT_location[DW_OP_breg20 -4]

$C$DW$195	.dwtag  DW_TAG_variable
	.dwattr $C$DW$195, DW_AT_name("len_max")
	.dwattr $C$DW$195, DW_AT_TI_symbol_name("_len_max")
	.dwattr $C$DW$195, DW_AT_type(*$C$DW$T$32)
	.dwattr $C$DW$195, DW_AT_location[DW_OP_breg20 -6]

$C$DW$196	.dwtag  DW_TAG_variable
	.dwattr $C$DW$196, DW_AT_name("str_len")
	.dwattr $C$DW$196, DW_AT_TI_symbol_name("_str_len")
	.dwattr $C$DW$196, DW_AT_type(*$C$DW$T$32)
	.dwattr $C$DW$196, DW_AT_location[DW_OP_breg20 -8]

$C$DW$197	.dwtag  DW_TAG_variable
	.dwattr $C$DW$197, DW_AT_name("str_len_srch")
	.dwattr $C$DW$197, DW_AT_TI_symbol_name("_str_len_srch")
	.dwattr $C$DW$197, DW_AT_type(*$C$DW$T$32)
	.dwattr $C$DW$197, DW_AT_location[DW_OP_breg20 -10]

$C$DW$198	.dwtag  DW_TAG_variable
	.dwattr $C$DW$198, DW_AT_name("len_max_srch")
	.dwattr $C$DW$198, DW_AT_TI_symbol_name("_len_max_srch")
	.dwattr $C$DW$198, DW_AT_type(*$C$DW$T$32)
	.dwattr $C$DW$198, DW_AT_location[DW_OP_breg20 -12]

$C$DW$199	.dwtag  DW_TAG_variable
	.dwattr $C$DW$199, DW_AT_name("srch_len")
	.dwattr $C$DW$199, DW_AT_TI_symbol_name("_srch_len")
	.dwattr $C$DW$199, DW_AT_type(*$C$DW$T$32)
	.dwattr $C$DW$199, DW_AT_location[DW_OP_breg20 -14]

$C$DW$200	.dwtag  DW_TAG_variable
	.dwattr $C$DW$200, DW_AT_name("srch_ix")
	.dwattr $C$DW$200, DW_AT_TI_symbol_name("_srch_ix")
	.dwattr $C$DW$200, DW_AT_type(*$C$DW$T$32)
	.dwattr $C$DW$200, DW_AT_location[DW_OP_breg20 -16]

$C$DW$201	.dwtag  DW_TAG_variable
	.dwattr $C$DW$201, DW_AT_name("pstr_str")
	.dwattr $C$DW$201, DW_AT_TI_symbol_name("_pstr_str")
	.dwattr $C$DW$201, DW_AT_type(*$C$DW$T$28)
	.dwattr $C$DW$201, DW_AT_location[DW_OP_breg20 -18]

$C$DW$202	.dwtag  DW_TAG_variable
	.dwattr $C$DW$202, DW_AT_name("pstr_srch_ix")
	.dwattr $C$DW$202, DW_AT_TI_symbol_name("_pstr_srch_ix")
	.dwattr $C$DW$202, DW_AT_type(*$C$DW$T$28)
	.dwattr $C$DW$202, DW_AT_location[DW_OP_breg20 -20]

$C$DW$203	.dwtag  DW_TAG_variable
	.dwattr $C$DW$203, DW_AT_name("srch_done")
	.dwattr $C$DW$203, DW_AT_TI_symbol_name("_srch_done")
	.dwattr $C$DW$203, DW_AT_type(*$C$DW$T$19)
	.dwattr $C$DW$203, DW_AT_location[DW_OP_breg20 -21]

$C$DW$204	.dwtag  DW_TAG_variable
	.dwattr $C$DW$204, DW_AT_name("srch_cmp")
	.dwattr $C$DW$204, DW_AT_TI_symbol_name("_srch_cmp")
	.dwattr $C$DW$204, DW_AT_type(*$C$DW$T$26)
	.dwattr $C$DW$204, DW_AT_location[DW_OP_breg20 -22]

        MOVL      *-SP[6],ACC           ; [CPU_ALU] |1853| 
        MOVL      *-SP[4],XAR5          ; [CPU_ALU] |1853| 
        MOVL      *-SP[2],XAR4          ; [CPU_ALU] |1853| 
	.dwpsn	file "C:/ti/Workspace/PLC_certificate/Software/uC-LIB/lib_str.c",line 1865,column 5,is_stmt,isa 0
        MOVL      ACC,*-SP[2]           ; [CPU_ALU] |1865| 
        B         $C$L76,NEQ            ; [CPU_ALU] |1865| 
        ; branchcc occurs ; [] |1865| 
	.dwpsn	file "C:/ti/Workspace/PLC_certificate/Software/uC-LIB/lib_str.c",line 1866,column 9,is_stmt,isa 0
        MOVB      XAR4,#0               ; [CPU_ALU] |1866| 
        B         $C$L89,UNC            ; [CPU_ALU] |1866| 
        ; branch occurs ; [] |1866| 
$C$L76:    
	.dwpsn	file "C:/ti/Workspace/PLC_certificate/Software/uC-LIB/lib_str.c",line 1868,column 5,is_stmt,isa 0
        MOVL      ACC,*-SP[4]           ; [CPU_ALU] |1868| 
        B         $C$L77,NEQ            ; [CPU_ALU] |1868| 
        ; branchcc occurs ; [] |1868| 
	.dwpsn	file "C:/ti/Workspace/PLC_certificate/Software/uC-LIB/lib_str.c",line 1869,column 9,is_stmt,isa 0
        MOVB      XAR4,#0               ; [CPU_ALU] |1869| 
        B         $C$L89,UNC            ; [CPU_ALU] |1869| 
        ; branch occurs ; [] |1869| 
$C$L77:    
	.dwpsn	file "C:/ti/Workspace/PLC_certificate/Software/uC-LIB/lib_str.c",line 1872,column 5,is_stmt,isa 0
        MOVL      ACC,*-SP[6]           ; [CPU_ALU] |1872| 
        B         $C$L78,NEQ            ; [CPU_ALU] |1872| 
        ; branchcc occurs ; [] |1872| 
	.dwpsn	file "C:/ti/Workspace/PLC_certificate/Software/uC-LIB/lib_str.c",line 1873,column 9,is_stmt,isa 0
        MOVB      XAR4,#0               ; [CPU_ALU] |1873| 
        B         $C$L89,UNC            ; [CPU_ALU] |1873| 
        ; branch occurs ; [] |1873| 
$C$L78:    
	.dwpsn	file "C:/ti/Workspace/PLC_certificate/Software/uC-LIB/lib_str.c",line 1877,column 5,is_stmt,isa 0
        MOVL      XAR4,#65535           ; [CPU_ARAU] |1877| 
        MOVL      ACC,XAR4              ; [CPU_ALU] |1877| 
        CMPL      ACC,*-SP[6]           ; [CPU_ALU] |1877| 
        B         $C$L79,LOS            ; [CPU_ALU] |1877| 
        ; branchcc occurs ; [] |1877| 
        MOVB      ACC,#1                ; [CPU_ALU] |1877| 
        ADDL      ACC,*-SP[6]           ; [CPU_ALU] |1877| 
        MOVL      XAR4,ACC              ; [CPU_ALU] |1877| 
$C$L79:    
        MOVL      *-SP[12],XAR4         ; [CPU_ALU] |1877| 
	.dwpsn	file "C:/ti/Workspace/PLC_certificate/Software/uC-LIB/lib_str.c",line 1880,column 5,is_stmt,isa 0
        MOVL      ACC,*-SP[6]           ; [CPU_ALU] |1880| 
        MOVL      XAR4,*-SP[2]          ; [CPU_ALU] |1880| 
$C$DW$205	.dwtag  DW_TAG_TI_branch
	.dwattr $C$DW$205, DW_AT_low_pc(0x00)
	.dwattr $C$DW$205, DW_AT_name("_Str_Len_N")
	.dwattr $C$DW$205, DW_AT_TI_call

        LCR       #_Str_Len_N           ; [CPU_ALU] |1880| 
        ; call occurs [#_Str_Len_N] ; [] |1880| 
        MOVL      *-SP[8],ACC           ; [CPU_ALU] |1880| 
	.dwpsn	file "C:/ti/Workspace/PLC_certificate/Software/uC-LIB/lib_str.c",line 1881,column 5,is_stmt,isa 0
        MOVL      XAR4,*-SP[4]          ; [CPU_ALU] |1881| 
        MOVL      ACC,*-SP[12]          ; [CPU_ALU] |1881| 
$C$DW$206	.dwtag  DW_TAG_TI_branch
	.dwattr $C$DW$206, DW_AT_low_pc(0x00)
	.dwattr $C$DW$206, DW_AT_name("_Str_Len_N")
	.dwattr $C$DW$206, DW_AT_TI_call

        LCR       #_Str_Len_N           ; [CPU_ALU] |1881| 
        ; call occurs [#_Str_Len_N] ; [] |1881| 
        MOVL      *-SP[10],ACC          ; [CPU_ALU] |1881| 
	.dwpsn	file "C:/ti/Workspace/PLC_certificate/Software/uC-LIB/lib_str.c",line 1882,column 5,is_stmt,isa 0
        MOVL      ACC,*-SP[10]          ; [CPU_ALU] |1882| 
        B         $C$L80,NEQ            ; [CPU_ALU] |1882| 
        ; branchcc occurs ; [] |1882| 
	.dwpsn	file "C:/ti/Workspace/PLC_certificate/Software/uC-LIB/lib_str.c",line 1883,column 9,is_stmt,isa 0
        MOVL      XAR4,*-SP[2]          ; [CPU_ALU] |1883| 
        B         $C$L89,UNC            ; [CPU_ALU] |1883| 
        ; branch occurs ; [] |1883| 
$C$L80:    
	.dwpsn	file "C:/ti/Workspace/PLC_certificate/Software/uC-LIB/lib_str.c",line 1885,column 5,is_stmt,isa 0
        MOVL      ACC,*-SP[8]           ; [CPU_ALU] |1885| 
        CMPL      ACC,*-SP[10]          ; [CPU_ALU] |1885| 
        B         $C$L81,HIS            ; [CPU_ALU] |1885| 
        ; branchcc occurs ; [] |1885| 
	.dwpsn	file "C:/ti/Workspace/PLC_certificate/Software/uC-LIB/lib_str.c",line 1886,column 9,is_stmt,isa 0
        MOVB      XAR4,#0               ; [CPU_ALU] |1886| 
        B         $C$L89,UNC            ; [CPU_ALU] |1886| 
        ; branch occurs ; [] |1886| 
$C$L81:    
	.dwpsn	file "C:/ti/Workspace/PLC_certificate/Software/uC-LIB/lib_str.c",line 1889,column 5,is_stmt,isa 0
        MOVL      ACC,*-SP[8]           ; [CPU_ALU] |1889| 
        ADDL      ACC,*-SP[2]           ; [CPU_ALU] |1889| 
        MOVL      *-SP[18],ACC          ; [CPU_ALU] |1889| 
	.dwpsn	file "C:/ti/Workspace/PLC_certificate/Software/uC-LIB/lib_str.c",line 1890,column 5,is_stmt,isa 0
        MOVL      ACC,*-SP[18]          ; [CPU_ALU] |1890| 
        B         $C$L82,NEQ            ; [CPU_ALU] |1890| 
        ; branchcc occurs ; [] |1890| 
	.dwpsn	file "C:/ti/Workspace/PLC_certificate/Software/uC-LIB/lib_str.c",line 1891,column 9,is_stmt,isa 0
        MOVB      XAR4,#0               ; [CPU_ALU] |1891| 
        B         $C$L89,UNC            ; [CPU_ALU] |1891| 
        ; branch occurs ; [] |1891| 
$C$L82:    
	.dwpsn	file "C:/ti/Workspace/PLC_certificate/Software/uC-LIB/lib_str.c",line 1893,column 5,is_stmt,isa 0
        MOVL      ACC,*-SP[10]          ; [CPU_ALU] |1893| 
        ADDL      ACC,*-SP[4]           ; [CPU_ALU] |1893| 
        MOVL      *-SP[18],ACC          ; [CPU_ALU] |1893| 
	.dwpsn	file "C:/ti/Workspace/PLC_certificate/Software/uC-LIB/lib_str.c",line 1894,column 5,is_stmt,isa 0
        MOVL      ACC,*-SP[18]          ; [CPU_ALU] |1894| 
        B         $C$L83,NEQ            ; [CPU_ALU] |1894| 
        ; branchcc occurs ; [] |1894| 
	.dwpsn	file "C:/ti/Workspace/PLC_certificate/Software/uC-LIB/lib_str.c",line 1895,column 9,is_stmt,isa 0
        MOVB      XAR4,#0               ; [CPU_ALU] |1895| 
        B         $C$L89,UNC            ; [CPU_ALU] |1895| 
        ; branch occurs ; [] |1895| 
$C$L83:    
	.dwpsn	file "C:/ti/Workspace/PLC_certificate/Software/uC-LIB/lib_str.c",line 1899,column 5,is_stmt,isa 0
        MOVL      ACC,*-SP[8]           ; [CPU_ALU] |1899| 
        SUBL      ACC,*-SP[10]          ; [CPU_ALU] |1899| 
        MOVL      *-SP[14],ACC          ; [CPU_ALU] |1899| 
	.dwpsn	file "C:/ti/Workspace/PLC_certificate/Software/uC-LIB/lib_str.c",line 1900,column 5,is_stmt,isa 0
        MOVB      ACC,#0                ; [CPU_ALU] |1900| 
        MOVL      *-SP[16],ACC          ; [CPU_ALU] |1900| 
	.dwpsn	file "C:/ti/Workspace/PLC_certificate/Software/uC-LIB/lib_str.c",line 1901,column 5,is_stmt,isa 0
        MOV       *-SP[21],#0           ; [CPU_ALU] |1901| 
$C$L84:    
	.dwpsn	file "C:/ti/Workspace/PLC_certificate/Software/uC-LIB/lib_str.c",line 1904,column 9,is_stmt,isa 0
        MOVL      ACC,*-SP[16]          ; [CPU_ALU] |1904| 
        ADDL      ACC,*-SP[2]           ; [CPU_ALU] |1904| 
        MOVL      *-SP[20],ACC          ; [CPU_ALU] |1904| 
	.dwpsn	file "C:/ti/Workspace/PLC_certificate/Software/uC-LIB/lib_str.c",line 1905,column 9,is_stmt,isa 0
        MOVL      XAR5,*-SP[4]          ; [CPU_ALU] |1905| 
        MOVL      XAR4,*-SP[20]         ; [CPU_ALU] |1905| 
        MOVL      ACC,*-SP[10]          ; [CPU_ALU] |1905| 
$C$DW$207	.dwtag  DW_TAG_TI_branch
	.dwattr $C$DW$207, DW_AT_low_pc(0x00)
	.dwattr $C$DW$207, DW_AT_name("_Str_Cmp_N")
	.dwattr $C$DW$207, DW_AT_TI_call

        LCR       #_Str_Cmp_N           ; [CPU_ALU] |1905| 
        ; call occurs [#_Str_Cmp_N] ; [] |1905| 
        MOV       *-SP[22],AL           ; [CPU_ALU] |1905| 
	.dwpsn	file "C:/ti/Workspace/PLC_certificate/Software/uC-LIB/lib_str.c",line 1906,column 9,is_stmt,isa 0
        CMPB      AL,#0                 ; [CPU_ALU] |1906| 
        B         $C$L85,NEQ            ; [CPU_ALU] |1906| 
        ; branchcc occurs ; [] |1906| 
        MOVB      AL,#1                 ; [CPU_ALU] |1906| 
        B         $C$L86,UNC            ; [CPU_ALU] |1906| 
        ; branch occurs ; [] |1906| 
$C$L85:    
        MOVB      AL,#0                 ; [CPU_ALU] |1906| 
$C$L86:    
        MOV       *-SP[21],AL           ; [CPU_ALU] |1906| 
	.dwpsn	file "C:/ti/Workspace/PLC_certificate/Software/uC-LIB/lib_str.c",line 1907,column 9,is_stmt,isa 0
        MOVB      ACC,#1                ; [CPU_ALU] |1907| 
        ADDL      ACC,*-SP[16]          ; [CPU_ALU] |1907| 
        MOVL      *-SP[16],ACC          ; [CPU_ALU] |1907| 
	.dwpsn	file "C:/ti/Workspace/PLC_certificate/Software/uC-LIB/lib_str.c",line 1908,column 14,is_stmt,isa 0
        MOV       AL,*-SP[21]           ; [CPU_ALU] |1908| 
        B         $C$L87,NEQ            ; [CPU_ALU] |1908| 
        ; branchcc occurs ; [] |1908| 
        MOVL      ACC,*-SP[14]          ; [CPU_ALU] |1908| 
        CMPL      ACC,*-SP[16]          ; [CPU_ALU] |1908| 
        B         $C$L84,HIS            ; [CPU_ALU] |1908| 
        ; branchcc occurs ; [] |1908| 
$C$L87:    
	.dwpsn	file "C:/ti/Workspace/PLC_certificate/Software/uC-LIB/lib_str.c",line 1911,column 5,is_stmt,isa 0
        MOV       AL,*-SP[22]           ; [CPU_ALU] |1911| 
        B         $C$L88,EQ             ; [CPU_ALU] |1911| 
        ; branchcc occurs ; [] |1911| 
	.dwpsn	file "C:/ti/Workspace/PLC_certificate/Software/uC-LIB/lib_str.c",line 1912,column 9,is_stmt,isa 0
        MOVB      XAR4,#0               ; [CPU_ALU] |1912| 
        B         $C$L89,UNC            ; [CPU_ALU] |1912| 
        ; branch occurs ; [] |1912| 
$C$L88:    
	.dwpsn	file "C:/ti/Workspace/PLC_certificate/Software/uC-LIB/lib_str.c",line 1915,column 5,is_stmt,isa 0
        MOVL      XAR4,*-SP[20]         ; [CPU_ALU] |1915| 
$C$L89:    
	.dwpsn	file "C:/ti/Workspace/PLC_certificate/Software/uC-LIB/lib_str.c",line 1916,column 1,is_stmt,isa 0
        SUBB      SP,#22                ; [CPU_ARAU] 
	.dwcfi	cfa_offset, -2
$C$DW$208	.dwtag  DW_TAG_TI_branch
	.dwattr $C$DW$208, DW_AT_low_pc(0x00)
	.dwattr $C$DW$208, DW_AT_TI_return

        LRETR     ; [CPU_ALU] 
        ; return occurs ; [] 
	.dwattr $C$DW$189, DW_AT_TI_end_file("C:/ti/Workspace/PLC_certificate/Software/uC-LIB/lib_str.c")
	.dwattr $C$DW$189, DW_AT_TI_end_line(0x77c)
	.dwattr $C$DW$189, DW_AT_TI_end_column(0x01)
	.dwendentry
	.dwendtag $C$DW$189

	.sect	".text"
	.clink
	.global	_Str_FmtNbr_Int32U

$C$DW$209	.dwtag  DW_TAG_subprogram
	.dwattr $C$DW$209, DW_AT_name("Str_FmtNbr_Int32U")
	.dwattr $C$DW$209, DW_AT_low_pc(_Str_FmtNbr_Int32U)
	.dwattr $C$DW$209, DW_AT_high_pc(0x00)
	.dwattr $C$DW$209, DW_AT_TI_symbol_name("_Str_FmtNbr_Int32U")
	.dwattr $C$DW$209, DW_AT_external
	.dwattr $C$DW$209, DW_AT_type(*$C$DW$T$38)
	.dwattr $C$DW$209, DW_AT_TI_begin_file("C:/ti/Workspace/PLC_certificate/Software/uC-LIB/lib_str.c")
	.dwattr $C$DW$209, DW_AT_TI_begin_line(0x7fb)
	.dwattr $C$DW$209, DW_AT_TI_begin_column(0x0c)
	.dwattr $C$DW$209, DW_AT_TI_max_frame_size(-16)
	.dwpsn	file "C:/ti/Workspace/PLC_certificate/Software/uC-LIB/lib_str.c",line 2050,column 1,is_stmt,address _Str_FmtNbr_Int32U,isa 0

	.dwfde $C$DW$CIE, _Str_FmtNbr_Int32U
$C$DW$210	.dwtag  DW_TAG_formal_parameter
	.dwattr $C$DW$210, DW_AT_name("nbr")
	.dwattr $C$DW$210, DW_AT_TI_symbol_name("_nbr")
	.dwattr $C$DW$210, DW_AT_type(*$C$DW$T$30)
	.dwattr $C$DW$210, DW_AT_location[DW_OP_reg0]

$C$DW$211	.dwtag  DW_TAG_formal_parameter
	.dwattr $C$DW$211, DW_AT_name("nbr_dig")
	.dwattr $C$DW$211, DW_AT_TI_symbol_name("_nbr_dig")
	.dwattr $C$DW$211, DW_AT_type(*$C$DW$T$25)
	.dwattr $C$DW$211, DW_AT_location[DW_OP_reg14]

$C$DW$212	.dwtag  DW_TAG_formal_parameter
	.dwattr $C$DW$212, DW_AT_name("nbr_base")
	.dwattr $C$DW$212, DW_AT_TI_symbol_name("_nbr_base")
	.dwattr $C$DW$212, DW_AT_type(*$C$DW$T$25)
	.dwattr $C$DW$212, DW_AT_location[DW_OP_breg20 -17]

$C$DW$213	.dwtag  DW_TAG_formal_parameter
	.dwattr $C$DW$213, DW_AT_name("lead_char")
	.dwattr $C$DW$213, DW_AT_TI_symbol_name("_lead_char")
	.dwattr $C$DW$213, DW_AT_type(*$C$DW$T$21)
	.dwattr $C$DW$213, DW_AT_location[DW_OP_breg20 -18]

$C$DW$214	.dwtag  DW_TAG_formal_parameter
	.dwattr $C$DW$214, DW_AT_name("lower_case")
	.dwattr $C$DW$214, DW_AT_TI_symbol_name("_lower_case")
	.dwattr $C$DW$214, DW_AT_type(*$C$DW$T$19)
	.dwattr $C$DW$214, DW_AT_location[DW_OP_breg20 -19]

$C$DW$215	.dwtag  DW_TAG_formal_parameter
	.dwattr $C$DW$215, DW_AT_name("nul")
	.dwattr $C$DW$215, DW_AT_TI_symbol_name("_nul")
	.dwattr $C$DW$215, DW_AT_type(*$C$DW$T$19)
	.dwattr $C$DW$215, DW_AT_location[DW_OP_breg20 -20]

$C$DW$216	.dwtag  DW_TAG_formal_parameter
	.dwattr $C$DW$216, DW_AT_name("pstr")
	.dwattr $C$DW$216, DW_AT_TI_symbol_name("_pstr")
	.dwattr $C$DW$216, DW_AT_type(*$C$DW$T$38)
	.dwattr $C$DW$216, DW_AT_location[DW_OP_reg12]


;***************************************************************
;* FNAME: _Str_FmtNbr_Int32U            FR SIZE:  14           *
;*                                                             *
;* FUNCTION ENVIRONMENT                                        *
;*                                                             *
;* FUNCTION PROPERTIES                                         *
;*                            5 Parameter,  8 Auto,  0 SOE     *
;***************************************************************

_Str_FmtNbr_Int32U:
	.dwcfi	cfa_offset, -2
	.dwcfi	save_reg_to_mem, 26, 0
        ADDB      SP,#14                ; [CPU_ARAU] 
	.dwcfi	cfa_offset, -16
$C$DW$217	.dwtag  DW_TAG_variable
	.dwattr $C$DW$217, DW_AT_name("nbr")
	.dwattr $C$DW$217, DW_AT_TI_symbol_name("_nbr")
	.dwattr $C$DW$217, DW_AT_type(*$C$DW$T$30)
	.dwattr $C$DW$217, DW_AT_location[DW_OP_breg20 -8]

$C$DW$218	.dwtag  DW_TAG_variable
	.dwattr $C$DW$218, DW_AT_name("pstr")
	.dwattr $C$DW$218, DW_AT_TI_symbol_name("_pstr")
	.dwattr $C$DW$218, DW_AT_type(*$C$DW$T$38)
	.dwattr $C$DW$218, DW_AT_location[DW_OP_breg20 -10]

$C$DW$219	.dwtag  DW_TAG_variable
	.dwattr $C$DW$219, DW_AT_name("pstr_fmt")
	.dwattr $C$DW$219, DW_AT_TI_symbol_name("_pstr_fmt")
	.dwattr $C$DW$219, DW_AT_type(*$C$DW$T$38)
	.dwattr $C$DW$219, DW_AT_location[DW_OP_breg20 -12]

$C$DW$220	.dwtag  DW_TAG_variable
	.dwattr $C$DW$220, DW_AT_name("nbr_dig")
	.dwattr $C$DW$220, DW_AT_TI_symbol_name("_nbr_dig")
	.dwattr $C$DW$220, DW_AT_type(*$C$DW$T$25)
	.dwattr $C$DW$220, DW_AT_location[DW_OP_breg20 -13]

        MOVL      *-SP[10],XAR4         ; [CPU_ALU] |2050| 
        MOV       *-SP[13],AR5          ; [CPU_ALU] |2050| 
        MOVL      *-SP[8],ACC           ; [CPU_ALU] |2050| 
	.dwpsn	file "C:/ti/Workspace/PLC_certificate/Software/uC-LIB/lib_str.c",line 2054,column 5,is_stmt,isa 0
        MOV       AL,*-SP[17]           ; [CPU_ALU] |2054| 
        MOV       *-SP[1],AL            ; [CPU_ALU] |2054| 
        MOV       AL,*-SP[18]           ; [CPU_ALU] |2054| 
        MOV       *-SP[2],#0            ; [CPU_ALU] |2054| 
        MOV       *-SP[3],AL            ; [CPU_ALU] |2054| 
        MOV       AL,*-SP[19]           ; [CPU_ALU] |2054| 
        MOV       *-SP[4],AL            ; [CPU_ALU] |2054| 
        MOV       AL,*-SP[20]           ; [CPU_ALU] |2054| 
        MOV       *-SP[5],AL            ; [CPU_ALU] |2054| 
        MOVZ      AR5,*-SP[13]          ; [CPU_ALU] |2054| 
        MOVL      XAR4,*-SP[10]         ; [CPU_ALU] |2054| 
        MOVL      ACC,*-SP[8]           ; [CPU_ALU] |2054| 
$C$DW$221	.dwtag  DW_TAG_TI_branch
	.dwattr $C$DW$221, DW_AT_low_pc(0x00)
	.dwattr $C$DW$221, DW_AT_name("_Str_FmtNbr_Int32")
	.dwattr $C$DW$221, DW_AT_TI_call

        LCR       #_Str_FmtNbr_Int32    ; [CPU_ALU] |2054| 
        ; call occurs [#_Str_FmtNbr_Int32] ; [] |2054| 
        MOVL      *-SP[12],XAR4         ; [CPU_ALU] |2054| 
	.dwpsn	file "C:/ti/Workspace/PLC_certificate/Software/uC-LIB/lib_str.c",line 2063,column 5,is_stmt,isa 0
	.dwpsn	file "C:/ti/Workspace/PLC_certificate/Software/uC-LIB/lib_str.c",line 2064,column 1,is_stmt,isa 0
        SUBB      SP,#14                ; [CPU_ARAU] 
	.dwcfi	cfa_offset, -2
$C$DW$222	.dwtag  DW_TAG_TI_branch
	.dwattr $C$DW$222, DW_AT_low_pc(0x00)
	.dwattr $C$DW$222, DW_AT_TI_return

        LRETR     ; [CPU_ALU] 
        ; return occurs ; [] 
	.dwattr $C$DW$209, DW_AT_TI_end_file("C:/ti/Workspace/PLC_certificate/Software/uC-LIB/lib_str.c")
	.dwattr $C$DW$209, DW_AT_TI_end_line(0x810)
	.dwattr $C$DW$209, DW_AT_TI_end_column(0x01)
	.dwendentry
	.dwendtag $C$DW$209

	.sect	".text"
	.clink
	.global	_Str_FmtNbr_Int32S

$C$DW$223	.dwtag  DW_TAG_subprogram
	.dwattr $C$DW$223, DW_AT_name("Str_FmtNbr_Int32S")
	.dwattr $C$DW$223, DW_AT_low_pc(_Str_FmtNbr_Int32S)
	.dwattr $C$DW$223, DW_AT_high_pc(0x00)
	.dwattr $C$DW$223, DW_AT_TI_symbol_name("_Str_FmtNbr_Int32S")
	.dwattr $C$DW$223, DW_AT_external
	.dwattr $C$DW$223, DW_AT_type(*$C$DW$T$38)
	.dwattr $C$DW$223, DW_AT_TI_begin_file("C:/ti/Workspace/PLC_certificate/Software/uC-LIB/lib_str.c")
	.dwattr $C$DW$223, DW_AT_TI_begin_line(0x8d3)
	.dwattr $C$DW$223, DW_AT_TI_begin_column(0x0c)
	.dwattr $C$DW$223, DW_AT_TI_max_frame_size(-18)
	.dwpsn	file "C:/ti/Workspace/PLC_certificate/Software/uC-LIB/lib_str.c",line 2266,column 1,is_stmt,address _Str_FmtNbr_Int32S,isa 0

	.dwfde $C$DW$CIE, _Str_FmtNbr_Int32S
$C$DW$224	.dwtag  DW_TAG_formal_parameter
	.dwattr $C$DW$224, DW_AT_name("nbr")
	.dwattr $C$DW$224, DW_AT_TI_symbol_name("_nbr")
	.dwattr $C$DW$224, DW_AT_type(*$C$DW$T$37)
	.dwattr $C$DW$224, DW_AT_location[DW_OP_reg0]

$C$DW$225	.dwtag  DW_TAG_formal_parameter
	.dwattr $C$DW$225, DW_AT_name("nbr_dig")
	.dwattr $C$DW$225, DW_AT_TI_symbol_name("_nbr_dig")
	.dwattr $C$DW$225, DW_AT_type(*$C$DW$T$25)
	.dwattr $C$DW$225, DW_AT_location[DW_OP_reg14]

$C$DW$226	.dwtag  DW_TAG_formal_parameter
	.dwattr $C$DW$226, DW_AT_name("nbr_base")
	.dwattr $C$DW$226, DW_AT_TI_symbol_name("_nbr_base")
	.dwattr $C$DW$226, DW_AT_type(*$C$DW$T$25)
	.dwattr $C$DW$226, DW_AT_location[DW_OP_breg20 -19]

$C$DW$227	.dwtag  DW_TAG_formal_parameter
	.dwattr $C$DW$227, DW_AT_name("lead_char")
	.dwattr $C$DW$227, DW_AT_TI_symbol_name("_lead_char")
	.dwattr $C$DW$227, DW_AT_type(*$C$DW$T$21)
	.dwattr $C$DW$227, DW_AT_location[DW_OP_breg20 -20]

$C$DW$228	.dwtag  DW_TAG_formal_parameter
	.dwattr $C$DW$228, DW_AT_name("lower_case")
	.dwattr $C$DW$228, DW_AT_TI_symbol_name("_lower_case")
	.dwattr $C$DW$228, DW_AT_type(*$C$DW$T$19)
	.dwattr $C$DW$228, DW_AT_location[DW_OP_breg20 -21]

$C$DW$229	.dwtag  DW_TAG_formal_parameter
	.dwattr $C$DW$229, DW_AT_name("nul")
	.dwattr $C$DW$229, DW_AT_TI_symbol_name("_nul")
	.dwattr $C$DW$229, DW_AT_type(*$C$DW$T$19)
	.dwattr $C$DW$229, DW_AT_location[DW_OP_breg20 -22]

$C$DW$230	.dwtag  DW_TAG_formal_parameter
	.dwattr $C$DW$230, DW_AT_name("pstr")
	.dwattr $C$DW$230, DW_AT_TI_symbol_name("_pstr")
	.dwattr $C$DW$230, DW_AT_type(*$C$DW$T$38)
	.dwattr $C$DW$230, DW_AT_location[DW_OP_reg12]


;***************************************************************
;* FNAME: _Str_FmtNbr_Int32S            FR SIZE:  16           *
;*                                                             *
;* FUNCTION ENVIRONMENT                                        *
;*                                                             *
;* FUNCTION PROPERTIES                                         *
;*                            5 Parameter, 11 Auto,  0 SOE     *
;***************************************************************

_Str_FmtNbr_Int32S:
	.dwcfi	cfa_offset, -2
	.dwcfi	save_reg_to_mem, 26, 0
        ADDB      SP,#16                ; [CPU_ARAU] 
	.dwcfi	cfa_offset, -18
$C$DW$231	.dwtag  DW_TAG_variable
	.dwattr $C$DW$231, DW_AT_name("nbr")
	.dwattr $C$DW$231, DW_AT_TI_symbol_name("_nbr")
	.dwattr $C$DW$231, DW_AT_type(*$C$DW$T$37)
	.dwattr $C$DW$231, DW_AT_location[DW_OP_breg20 -8]

$C$DW$232	.dwtag  DW_TAG_variable
	.dwattr $C$DW$232, DW_AT_name("pstr")
	.dwattr $C$DW$232, DW_AT_TI_symbol_name("_pstr")
	.dwattr $C$DW$232, DW_AT_type(*$C$DW$T$38)
	.dwattr $C$DW$232, DW_AT_location[DW_OP_breg20 -10]

$C$DW$233	.dwtag  DW_TAG_variable
	.dwattr $C$DW$233, DW_AT_name("pstr_fmt")
	.dwattr $C$DW$233, DW_AT_TI_symbol_name("_pstr_fmt")
	.dwattr $C$DW$233, DW_AT_type(*$C$DW$T$38)
	.dwattr $C$DW$233, DW_AT_location[DW_OP_breg20 -12]

$C$DW$234	.dwtag  DW_TAG_variable
	.dwattr $C$DW$234, DW_AT_name("nbr_fmt")
	.dwattr $C$DW$234, DW_AT_TI_symbol_name("_nbr_fmt")
	.dwattr $C$DW$234, DW_AT_type(*$C$DW$T$37)
	.dwattr $C$DW$234, DW_AT_location[DW_OP_breg20 -14]

$C$DW$235	.dwtag  DW_TAG_variable
	.dwattr $C$DW$235, DW_AT_name("nbr_dig")
	.dwattr $C$DW$235, DW_AT_TI_symbol_name("_nbr_dig")
	.dwattr $C$DW$235, DW_AT_type(*$C$DW$T$25)
	.dwattr $C$DW$235, DW_AT_location[DW_OP_breg20 -15]

$C$DW$236	.dwtag  DW_TAG_variable
	.dwattr $C$DW$236, DW_AT_name("nbr_neg")
	.dwattr $C$DW$236, DW_AT_TI_symbol_name("_nbr_neg")
	.dwattr $C$DW$236, DW_AT_type(*$C$DW$T$19)
	.dwattr $C$DW$236, DW_AT_location[DW_OP_breg20 -16]

        MOVL      *-SP[10],XAR4         ; [CPU_ALU] |2266| 
        MOV       *-SP[15],AR5          ; [CPU_ALU] |2266| 
        MOVL      *-SP[8],ACC           ; [CPU_ALU] |2266| 
	.dwpsn	file "C:/ti/Workspace/PLC_certificate/Software/uC-LIB/lib_str.c",line 2272,column 5,is_stmt,isa 0
        MOVL      ACC,*-SP[8]           ; [CPU_ALU] |2272| 
        B         $C$L90,GEQ            ; [CPU_ALU] |2272| 
        ; branchcc occurs ; [] |2272| 
	.dwpsn	file "C:/ti/Workspace/PLC_certificate/Software/uC-LIB/lib_str.c",line 2273,column 9,is_stmt,isa 0
        MOVL      ACC,*-SP[8]           ; [CPU_ALU] |2273| 
        NEG       ACC                   ; [CPU_ALU] |2273| 
        MOVL      *-SP[14],ACC          ; [CPU_ALU] |2273| 
	.dwpsn	file "C:/ti/Workspace/PLC_certificate/Software/uC-LIB/lib_str.c",line 2274,column 9,is_stmt,isa 0
        MOVB      *-SP[16],#1,UNC       ; [CPU_ALU] |2274| 
        B         $C$L91,UNC            ; [CPU_ALU] 
        ; branch occurs ; [] 
$C$L90:    
	.dwpsn	file "C:/ti/Workspace/PLC_certificate/Software/uC-LIB/lib_str.c",line 2276,column 9,is_stmt,isa 0
        MOVL      ACC,*-SP[8]           ; [CPU_ALU] |2276| 
        MOVL      *-SP[14],ACC          ; [CPU_ALU] |2276| 
	.dwpsn	file "C:/ti/Workspace/PLC_certificate/Software/uC-LIB/lib_str.c",line 2277,column 9,is_stmt,isa 0
        MOV       *-SP[16],#0           ; [CPU_ALU] |2277| 
$C$L91:    
	.dwpsn	file "C:/ti/Workspace/PLC_certificate/Software/uC-LIB/lib_str.c",line 2280,column 5,is_stmt,isa 0
        MOV       AL,*-SP[19]           ; [CPU_ALU] |2280| 
        MOV       *-SP[1],AL            ; [CPU_ALU] |2280| 
        MOV       AL,*-SP[16]           ; [CPU_ALU] |2280| 
        MOV       *-SP[2],AL            ; [CPU_ALU] |2280| 
        MOV       AL,*-SP[20]           ; [CPU_ALU] |2280| 
        MOV       *-SP[3],AL            ; [CPU_ALU] |2280| 
        MOV       AL,*-SP[21]           ; [CPU_ALU] |2280| 
        MOV       *-SP[4],AL            ; [CPU_ALU] |2280| 
        MOV       AL,*-SP[22]           ; [CPU_ALU] |2280| 
        MOV       *-SP[5],AL            ; [CPU_ALU] |2280| 
        MOVZ      AR5,*-SP[15]          ; [CPU_ALU] |2280| 
        MOVL      XAR4,*-SP[10]         ; [CPU_ALU] |2280| 
        MOVL      ACC,*-SP[14]          ; [CPU_ALU] |2280| 
$C$DW$237	.dwtag  DW_TAG_TI_branch
	.dwattr $C$DW$237, DW_AT_low_pc(0x00)
	.dwattr $C$DW$237, DW_AT_name("_Str_FmtNbr_Int32")
	.dwattr $C$DW$237, DW_AT_TI_call

        LCR       #_Str_FmtNbr_Int32    ; [CPU_ALU] |2280| 
        ; call occurs [#_Str_FmtNbr_Int32] ; [] |2280| 
        MOVL      *-SP[12],XAR4         ; [CPU_ALU] |2280| 
	.dwpsn	file "C:/ti/Workspace/PLC_certificate/Software/uC-LIB/lib_str.c",line 2289,column 5,is_stmt,isa 0
	.dwpsn	file "C:/ti/Workspace/PLC_certificate/Software/uC-LIB/lib_str.c",line 2290,column 1,is_stmt,isa 0
        SUBB      SP,#16                ; [CPU_ARAU] 
	.dwcfi	cfa_offset, -2
$C$DW$238	.dwtag  DW_TAG_TI_branch
	.dwattr $C$DW$238, DW_AT_low_pc(0x00)
	.dwattr $C$DW$238, DW_AT_TI_return

        LRETR     ; [CPU_ALU] 
        ; return occurs ; [] 
	.dwattr $C$DW$223, DW_AT_TI_end_file("C:/ti/Workspace/PLC_certificate/Software/uC-LIB/lib_str.c")
	.dwattr $C$DW$223, DW_AT_TI_end_line(0x8f2)
	.dwattr $C$DW$223, DW_AT_TI_end_column(0x01)
	.dwendentry
	.dwendtag $C$DW$223

	.sect	".text"
	.clink
	.global	_Str_ParseNbr_Int32U

$C$DW$239	.dwtag  DW_TAG_subprogram
	.dwattr $C$DW$239, DW_AT_name("Str_ParseNbr_Int32U")
	.dwattr $C$DW$239, DW_AT_low_pc(_Str_ParseNbr_Int32U)
	.dwattr $C$DW$239, DW_AT_high_pc(0x00)
	.dwattr $C$DW$239, DW_AT_TI_symbol_name("_Str_ParseNbr_Int32U")
	.dwattr $C$DW$239, DW_AT_external
	.dwattr $C$DW$239, DW_AT_type(*$C$DW$T$30)
	.dwattr $C$DW$239, DW_AT_TI_begin_file("C:/ti/Workspace/PLC_certificate/Software/uC-LIB/lib_str.c")
	.dwattr $C$DW$239, DW_AT_TI_begin_line(0xba1)
	.dwattr $C$DW$239, DW_AT_TI_begin_column(0x0d)
	.dwattr $C$DW$239, DW_AT_TI_max_frame_size(-12)
	.dwpsn	file "C:/ti/Workspace/PLC_certificate/Software/uC-LIB/lib_str.c",line 2980,column 1,is_stmt,address _Str_ParseNbr_Int32U,isa 0

	.dwfde $C$DW$CIE, _Str_ParseNbr_Int32U
$C$DW$240	.dwtag  DW_TAG_formal_parameter
	.dwattr $C$DW$240, DW_AT_name("pstr")
	.dwattr $C$DW$240, DW_AT_TI_symbol_name("_pstr")
	.dwattr $C$DW$240, DW_AT_type(*$C$DW$T$28)
	.dwattr $C$DW$240, DW_AT_location[DW_OP_reg12]

$C$DW$241	.dwtag  DW_TAG_formal_parameter
	.dwattr $C$DW$241, DW_AT_name("pstr_next")
	.dwattr $C$DW$241, DW_AT_TI_symbol_name("_pstr_next")
	.dwattr $C$DW$241, DW_AT_type(*$C$DW$T$39)
	.dwattr $C$DW$241, DW_AT_location[DW_OP_reg14]

$C$DW$242	.dwtag  DW_TAG_formal_parameter
	.dwattr $C$DW$242, DW_AT_name("nbr_base")
	.dwattr $C$DW$242, DW_AT_TI_symbol_name("_nbr_base")
	.dwattr $C$DW$242, DW_AT_type(*$C$DW$T$25)
	.dwattr $C$DW$242, DW_AT_location[DW_OP_reg0]


;***************************************************************
;* FNAME: _Str_ParseNbr_Int32U          FR SIZE:  10           *
;*                                                             *
;* FUNCTION ENVIRONMENT                                        *
;*                                                             *
;* FUNCTION PROPERTIES                                         *
;*                            2 Parameter,  7 Auto,  0 SOE     *
;***************************************************************

_Str_ParseNbr_Int32U:
	.dwcfi	cfa_offset, -2
	.dwcfi	save_reg_to_mem, 26, 0
        ADDB      SP,#10                ; [CPU_ARAU] 
	.dwcfi	cfa_offset, -12
$C$DW$243	.dwtag  DW_TAG_variable
	.dwattr $C$DW$243, DW_AT_name("pstr")
	.dwattr $C$DW$243, DW_AT_TI_symbol_name("_pstr")
	.dwattr $C$DW$243, DW_AT_type(*$C$DW$T$28)
	.dwattr $C$DW$243, DW_AT_location[DW_OP_breg20 -4]

$C$DW$244	.dwtag  DW_TAG_variable
	.dwattr $C$DW$244, DW_AT_name("pstr_next")
	.dwattr $C$DW$244, DW_AT_TI_symbol_name("_pstr_next")
	.dwattr $C$DW$244, DW_AT_type(*$C$DW$T$39)
	.dwattr $C$DW$244, DW_AT_location[DW_OP_breg20 -6]

$C$DW$245	.dwtag  DW_TAG_variable
	.dwattr $C$DW$245, DW_AT_name("nbr")
	.dwattr $C$DW$245, DW_AT_TI_symbol_name("_nbr")
	.dwattr $C$DW$245, DW_AT_type(*$C$DW$T$30)
	.dwattr $C$DW$245, DW_AT_location[DW_OP_breg20 -8]

$C$DW$246	.dwtag  DW_TAG_variable
	.dwattr $C$DW$246, DW_AT_name("nbr_base")
	.dwattr $C$DW$246, DW_AT_TI_symbol_name("_nbr_base")
	.dwattr $C$DW$246, DW_AT_type(*$C$DW$T$25)
	.dwattr $C$DW$246, DW_AT_location[DW_OP_breg20 -9]

        MOV       *-SP[9],AL            ; [CPU_ALU] |2980| 
        MOVL      *-SP[6],XAR5          ; [CPU_ALU] |2980| 
        MOVL      *-SP[4],XAR4          ; [CPU_ALU] |2980| 
	.dwpsn	file "C:/ti/Workspace/PLC_certificate/Software/uC-LIB/lib_str.c",line 2984,column 5,is_stmt,isa 0
        MOVB      ACC,#0                ; [CPU_ALU] |2984| 
        MOVL      *-SP[2],ACC           ; [CPU_ALU] |2984| 
        MOVB      AH,#0                 ; [CPU_ALU] |2984| 
        MOVL      XAR4,*-SP[4]          ; [CPU_ALU] |2984| 
        MOVL      XAR5,*-SP[6]          ; [CPU_ALU] |2984| 
        MOV       AL,*-SP[9]            ; [CPU_ALU] |2984| 
$C$DW$247	.dwtag  DW_TAG_TI_branch
	.dwattr $C$DW$247, DW_AT_low_pc(0x00)
	.dwattr $C$DW$247, DW_AT_name("_Str_ParseNbr_Int32")
	.dwattr $C$DW$247, DW_AT_TI_call

        LCR       #_Str_ParseNbr_Int32  ; [CPU_ALU] |2984| 
        ; call occurs [#_Str_ParseNbr_Int32] ; [] |2984| 
        MOVL      *-SP[8],ACC           ; [CPU_ALU] |2984| 
	.dwpsn	file "C:/ti/Workspace/PLC_certificate/Software/uC-LIB/lib_str.c",line 2990,column 5,is_stmt,isa 0
	.dwpsn	file "C:/ti/Workspace/PLC_certificate/Software/uC-LIB/lib_str.c",line 2991,column 1,is_stmt,isa 0
        SUBB      SP,#10                ; [CPU_ARAU] 
	.dwcfi	cfa_offset, -2
$C$DW$248	.dwtag  DW_TAG_TI_branch
	.dwattr $C$DW$248, DW_AT_low_pc(0x00)
	.dwattr $C$DW$248, DW_AT_TI_return

        LRETR     ; [CPU_ALU] 
        ; return occurs ; [] 
	.dwattr $C$DW$239, DW_AT_TI_end_file("C:/ti/Workspace/PLC_certificate/Software/uC-LIB/lib_str.c")
	.dwattr $C$DW$239, DW_AT_TI_end_line(0xbaf)
	.dwattr $C$DW$239, DW_AT_TI_end_column(0x01)
	.dwendentry
	.dwendtag $C$DW$239

	.sect	".text"
	.clink
	.global	_Str_ParseNbr_Int32S

$C$DW$249	.dwtag  DW_TAG_subprogram
	.dwattr $C$DW$249, DW_AT_name("Str_ParseNbr_Int32S")
	.dwattr $C$DW$249, DW_AT_low_pc(_Str_ParseNbr_Int32S)
	.dwattr $C$DW$249, DW_AT_high_pc(0x00)
	.dwattr $C$DW$249, DW_AT_TI_symbol_name("_Str_ParseNbr_Int32S")
	.dwattr $C$DW$249, DW_AT_external
	.dwattr $C$DW$249, DW_AT_type(*$C$DW$T$37)
	.dwattr $C$DW$249, DW_AT_TI_begin_file("C:/ti/Workspace/PLC_certificate/Software/uC-LIB/lib_str.c")
	.dwattr $C$DW$249, DW_AT_TI_begin_line(0xc79)
	.dwattr $C$DW$249, DW_AT_TI_begin_column(0x0d)
	.dwattr $C$DW$249, DW_AT_TI_max_frame_size(-14)
	.dwpsn	file "C:/ti/Workspace/PLC_certificate/Software/uC-LIB/lib_str.c",line 3196,column 1,is_stmt,address _Str_ParseNbr_Int32S,isa 0

	.dwfde $C$DW$CIE, _Str_ParseNbr_Int32S
$C$DW$250	.dwtag  DW_TAG_formal_parameter
	.dwattr $C$DW$250, DW_AT_name("pstr")
	.dwattr $C$DW$250, DW_AT_TI_symbol_name("_pstr")
	.dwattr $C$DW$250, DW_AT_type(*$C$DW$T$28)
	.dwattr $C$DW$250, DW_AT_location[DW_OP_reg12]

$C$DW$251	.dwtag  DW_TAG_formal_parameter
	.dwattr $C$DW$251, DW_AT_name("pstr_next")
	.dwattr $C$DW$251, DW_AT_TI_symbol_name("_pstr_next")
	.dwattr $C$DW$251, DW_AT_type(*$C$DW$T$39)
	.dwattr $C$DW$251, DW_AT_location[DW_OP_reg14]

$C$DW$252	.dwtag  DW_TAG_formal_parameter
	.dwattr $C$DW$252, DW_AT_name("nbr_base")
	.dwattr $C$DW$252, DW_AT_TI_symbol_name("_nbr_base")
	.dwattr $C$DW$252, DW_AT_type(*$C$DW$T$25)
	.dwattr $C$DW$252, DW_AT_location[DW_OP_reg0]


;***************************************************************
;* FNAME: _Str_ParseNbr_Int32S          FR SIZE:  12           *
;*                                                             *
;* FUNCTION ENVIRONMENT                                        *
;*                                                             *
;* FUNCTION PROPERTIES                                         *
;*                            2 Parameter, 10 Auto,  0 SOE     *
;***************************************************************

_Str_ParseNbr_Int32S:
	.dwcfi	cfa_offset, -2
	.dwcfi	save_reg_to_mem, 26, 0
        ADDB      SP,#12                ; [CPU_ARAU] 
	.dwcfi	cfa_offset, -14
$C$DW$253	.dwtag  DW_TAG_variable
	.dwattr $C$DW$253, DW_AT_name("pstr")
	.dwattr $C$DW$253, DW_AT_TI_symbol_name("_pstr")
	.dwattr $C$DW$253, DW_AT_type(*$C$DW$T$28)
	.dwattr $C$DW$253, DW_AT_location[DW_OP_breg20 -4]

$C$DW$254	.dwtag  DW_TAG_variable
	.dwattr $C$DW$254, DW_AT_name("pstr_next")
	.dwattr $C$DW$254, DW_AT_TI_symbol_name("_pstr_next")
	.dwattr $C$DW$254, DW_AT_type(*$C$DW$T$39)
	.dwattr $C$DW$254, DW_AT_location[DW_OP_breg20 -6]

$C$DW$255	.dwtag  DW_TAG_variable
	.dwattr $C$DW$255, DW_AT_name("nbr")
	.dwattr $C$DW$255, DW_AT_TI_symbol_name("_nbr")
	.dwattr $C$DW$255, DW_AT_type(*$C$DW$T$37)
	.dwattr $C$DW$255, DW_AT_location[DW_OP_breg20 -8]

$C$DW$256	.dwtag  DW_TAG_variable
	.dwattr $C$DW$256, DW_AT_name("nbr_abs")
	.dwattr $C$DW$256, DW_AT_TI_symbol_name("_nbr_abs")
	.dwattr $C$DW$256, DW_AT_type(*$C$DW$T$30)
	.dwattr $C$DW$256, DW_AT_location[DW_OP_breg20 -10]

$C$DW$257	.dwtag  DW_TAG_variable
	.dwattr $C$DW$257, DW_AT_name("nbr_base")
	.dwattr $C$DW$257, DW_AT_TI_symbol_name("_nbr_base")
	.dwattr $C$DW$257, DW_AT_type(*$C$DW$T$25)
	.dwattr $C$DW$257, DW_AT_location[DW_OP_breg20 -11]

$C$DW$258	.dwtag  DW_TAG_variable
	.dwattr $C$DW$258, DW_AT_name("nbr_neg")
	.dwattr $C$DW$258, DW_AT_TI_symbol_name("_nbr_neg")
	.dwattr $C$DW$258, DW_AT_type(*$C$DW$T$19)
	.dwattr $C$DW$258, DW_AT_location[DW_OP_breg20 -12]

        MOV       *-SP[11],AL           ; [CPU_ALU] |3196| 
        MOVL      *-SP[6],XAR5          ; [CPU_ALU] |3196| 
        MOVL      *-SP[4],XAR4          ; [CPU_ALU] |3196| 
	.dwpsn	file "C:/ti/Workspace/PLC_certificate/Software/uC-LIB/lib_str.c",line 3202,column 5,is_stmt,isa 0
        MOVZ      AR4,SP                ; [CPU_ALU] |3202| 
        SUBB      XAR4,#12              ; [CPU_ARAU] |3202| 
        MOVU      ACC,AR4               ; [CPU_ALU] |3202| 
        MOVL      *-SP[2],ACC           ; [CPU_ALU] |3202| 
        MOVB      AH,#1                 ; [CPU_ALU] |3202| 
        MOVL      XAR5,*-SP[6]          ; [CPU_ALU] |3202| 
        MOVL      XAR4,*-SP[4]          ; [CPU_ALU] |3202| 
        MOV       AL,*-SP[11]           ; [CPU_ALU] |3202| 
$C$DW$259	.dwtag  DW_TAG_TI_branch
	.dwattr $C$DW$259, DW_AT_low_pc(0x00)
	.dwattr $C$DW$259, DW_AT_name("_Str_ParseNbr_Int32")
	.dwattr $C$DW$259, DW_AT_TI_call

        LCR       #_Str_ParseNbr_Int32  ; [CPU_ALU] |3202| 
        ; call occurs [#_Str_ParseNbr_Int32] ; [] |3202| 
        MOVL      *-SP[10],ACC          ; [CPU_ALU] |3202| 
	.dwpsn	file "C:/ti/Workspace/PLC_certificate/Software/uC-LIB/lib_str.c",line 3208,column 5,is_stmt,isa 0
        MOV       AL,*-SP[12]           ; [CPU_ALU] |3208| 
        B         $C$L93,NEQ            ; [CPU_ALU] |3208| 
        ; branchcc occurs ; [] |3208| 
	.dwpsn	file "C:/ti/Workspace/PLC_certificate/Software/uC-LIB/lib_str.c",line 3209,column 9,is_stmt,isa 0
        MOV       AL,#65535             ; [CPU_ALU] |3209| 
        MOV       AH,#32767             ; [CPU_ALU] |3209| 
        CMPL      ACC,*-SP[10]          ; [CPU_ALU] |3209| 
        B         $C$L92,LO             ; [CPU_ALU] |3209| 
        ; branchcc occurs ; [] |3209| 
        MOVL      ACC,*-SP[10]          ; [CPU_ALU] |3209| 
$C$L92:    
        MOVL      *-SP[8],ACC           ; [CPU_ALU] |3209| 
        B         $C$L96,UNC            ; [CPU_ALU] 
        ; branch occurs ; [] 
$C$L93:    
	.dwpsn	file "C:/ti/Workspace/PLC_certificate/Software/uC-LIB/lib_str.c",line 3212,column 9,is_stmt,isa 0
        MOV       AL,#65535             ; [CPU_ALU] |3212| 
        MOV       AH,#32767             ; [CPU_ALU] |3212| 
        CMPL      ACC,*-SP[10]          ; [CPU_ALU] |3212| 
        B         $C$L94,HIS            ; [CPU_ALU] |3212| 
        ; branchcc occurs ; [] |3212| 
        MOVB      AL,#0                 ; [CPU_ALU] |3212| 
        MOV       AH,#32768             ; [CPU_ALU] |3212| 
        B         $C$L95,UNC            ; [CPU_ALU] |3212| 
        ; branch occurs ; [] |3212| 
$C$L94:    
        MOVL      ACC,*-SP[10]          ; [CPU_ALU] |3212| 
        NEG       ACC                   ; [CPU_ALU] |3212| 
$C$L95:    
        MOVL      *-SP[8],ACC           ; [CPU_ALU] |3212| 
$C$L96:    
	.dwpsn	file "C:/ti/Workspace/PLC_certificate/Software/uC-LIB/lib_str.c",line 3216,column 5,is_stmt,isa 0
	.dwpsn	file "C:/ti/Workspace/PLC_certificate/Software/uC-LIB/lib_str.c",line 3217,column 1,is_stmt,isa 0
        SUBB      SP,#12                ; [CPU_ARAU] 
	.dwcfi	cfa_offset, -2
$C$DW$260	.dwtag  DW_TAG_TI_branch
	.dwattr $C$DW$260, DW_AT_low_pc(0x00)
	.dwattr $C$DW$260, DW_AT_TI_return

        LRETR     ; [CPU_ALU] 
        ; return occurs ; [] 
	.dwattr $C$DW$249, DW_AT_TI_end_file("C:/ti/Workspace/PLC_certificate/Software/uC-LIB/lib_str.c")
	.dwattr $C$DW$249, DW_AT_TI_end_line(0xc91)
	.dwattr $C$DW$249, DW_AT_TI_end_column(0x01)
	.dwendentry
	.dwendtag $C$DW$249

	.sect	".text"
	.clink

$C$DW$261	.dwtag  DW_TAG_subprogram
	.dwattr $C$DW$261, DW_AT_name("Str_FmtNbr_Int32")
	.dwattr $C$DW$261, DW_AT_low_pc(_Str_FmtNbr_Int32)
	.dwattr $C$DW$261, DW_AT_high_pc(0x00)
	.dwattr $C$DW$261, DW_AT_TI_symbol_name("_Str_FmtNbr_Int32")
	.dwattr $C$DW$261, DW_AT_type(*$C$DW$T$38)
	.dwattr $C$DW$261, DW_AT_TI_begin_file("C:/ti/Workspace/PLC_certificate/Software/uC-LIB/lib_str.c")
	.dwattr $C$DW$261, DW_AT_TI_begin_line(0xd78)
	.dwattr $C$DW$261, DW_AT_TI_begin_column(0x14)
	.dwattr $C$DW$261, DW_AT_TI_max_frame_size(-28)
	.dwpsn	file "C:/ti/Workspace/PLC_certificate/Software/uC-LIB/lib_str.c",line 3456,column 1,is_stmt,address _Str_FmtNbr_Int32,isa 0

	.dwfde $C$DW$CIE, _Str_FmtNbr_Int32
$C$DW$262	.dwtag  DW_TAG_formal_parameter
	.dwattr $C$DW$262, DW_AT_name("nbr")
	.dwattr $C$DW$262, DW_AT_TI_symbol_name("_nbr")
	.dwattr $C$DW$262, DW_AT_type(*$C$DW$T$30)
	.dwattr $C$DW$262, DW_AT_location[DW_OP_reg0]

$C$DW$263	.dwtag  DW_TAG_formal_parameter
	.dwattr $C$DW$263, DW_AT_name("nbr_dig")
	.dwattr $C$DW$263, DW_AT_TI_symbol_name("_nbr_dig")
	.dwattr $C$DW$263, DW_AT_type(*$C$DW$T$25)
	.dwattr $C$DW$263, DW_AT_location[DW_OP_reg14]

$C$DW$264	.dwtag  DW_TAG_formal_parameter
	.dwattr $C$DW$264, DW_AT_name("nbr_base")
	.dwattr $C$DW$264, DW_AT_TI_symbol_name("_nbr_base")
	.dwattr $C$DW$264, DW_AT_type(*$C$DW$T$25)
	.dwattr $C$DW$264, DW_AT_location[DW_OP_breg20 -29]

$C$DW$265	.dwtag  DW_TAG_formal_parameter
	.dwattr $C$DW$265, DW_AT_name("nbr_neg")
	.dwattr $C$DW$265, DW_AT_TI_symbol_name("_nbr_neg")
	.dwattr $C$DW$265, DW_AT_type(*$C$DW$T$19)
	.dwattr $C$DW$265, DW_AT_location[DW_OP_breg20 -30]

$C$DW$266	.dwtag  DW_TAG_formal_parameter
	.dwattr $C$DW$266, DW_AT_name("lead_char")
	.dwattr $C$DW$266, DW_AT_TI_symbol_name("_lead_char")
	.dwattr $C$DW$266, DW_AT_type(*$C$DW$T$21)
	.dwattr $C$DW$266, DW_AT_location[DW_OP_breg20 -31]

$C$DW$267	.dwtag  DW_TAG_formal_parameter
	.dwattr $C$DW$267, DW_AT_name("lower_case")
	.dwattr $C$DW$267, DW_AT_TI_symbol_name("_lower_case")
	.dwattr $C$DW$267, DW_AT_type(*$C$DW$T$19)
	.dwattr $C$DW$267, DW_AT_location[DW_OP_breg20 -32]

$C$DW$268	.dwtag  DW_TAG_formal_parameter
	.dwattr $C$DW$268, DW_AT_name("nul")
	.dwattr $C$DW$268, DW_AT_TI_symbol_name("_nul")
	.dwattr $C$DW$268, DW_AT_type(*$C$DW$T$19)
	.dwattr $C$DW$268, DW_AT_location[DW_OP_breg20 -33]

$C$DW$269	.dwtag  DW_TAG_formal_parameter
	.dwattr $C$DW$269, DW_AT_name("pstr")
	.dwattr $C$DW$269, DW_AT_TI_symbol_name("_pstr")
	.dwattr $C$DW$269, DW_AT_type(*$C$DW$T$38)
	.dwattr $C$DW$269, DW_AT_location[DW_OP_reg12]


;***************************************************************
;* FNAME: _Str_FmtNbr_Int32             FR SIZE:  26           *
;*                                                             *
;* FUNCTION ENVIRONMENT                                        *
;*                                                             *
;* FUNCTION PROPERTIES                                         *
;*                            0 Parameter, 25 Auto,  0 SOE     *
;***************************************************************

_Str_FmtNbr_Int32:
	.dwcfi	cfa_offset, -2
	.dwcfi	save_reg_to_mem, 26, 0
        ADDB      SP,#26                ; [CPU_ARAU] 
	.dwcfi	cfa_offset, -28
$C$DW$270	.dwtag  DW_TAG_variable
	.dwattr $C$DW$270, DW_AT_name("nbr")
	.dwattr $C$DW$270, DW_AT_TI_symbol_name("_nbr")
	.dwattr $C$DW$270, DW_AT_type(*$C$DW$T$30)
	.dwattr $C$DW$270, DW_AT_location[DW_OP_breg20 -2]

$C$DW$271	.dwtag  DW_TAG_variable
	.dwattr $C$DW$271, DW_AT_name("pstr")
	.dwattr $C$DW$271, DW_AT_TI_symbol_name("_pstr")
	.dwattr $C$DW$271, DW_AT_type(*$C$DW$T$38)
	.dwattr $C$DW$271, DW_AT_location[DW_OP_breg20 -4]

$C$DW$272	.dwtag  DW_TAG_variable
	.dwattr $C$DW$272, DW_AT_name("pstr_fmt")
	.dwattr $C$DW$272, DW_AT_TI_symbol_name("_pstr_fmt")
	.dwattr $C$DW$272, DW_AT_type(*$C$DW$T$38)
	.dwattr $C$DW$272, DW_AT_location[DW_OP_breg20 -6]

$C$DW$273	.dwtag  DW_TAG_variable
	.dwattr $C$DW$273, DW_AT_name("nbr_fmt")
	.dwattr $C$DW$273, DW_AT_TI_symbol_name("_nbr_fmt")
	.dwattr $C$DW$273, DW_AT_type(*$C$DW$T$30)
	.dwattr $C$DW$273, DW_AT_location[DW_OP_breg20 -8]

$C$DW$274	.dwtag  DW_TAG_variable
	.dwattr $C$DW$274, DW_AT_name("nbr_log")
	.dwattr $C$DW$274, DW_AT_TI_symbol_name("_nbr_log")
	.dwattr $C$DW$274, DW_AT_type(*$C$DW$T$30)
	.dwattr $C$DW$274, DW_AT_location[DW_OP_breg20 -10]

$C$DW$275	.dwtag  DW_TAG_variable
	.dwattr $C$DW$275, DW_AT_name("nbr_dig")
	.dwattr $C$DW$275, DW_AT_TI_symbol_name("_nbr_dig")
	.dwattr $C$DW$275, DW_AT_type(*$C$DW$T$25)
	.dwattr $C$DW$275, DW_AT_location[DW_OP_breg20 -11]

$C$DW$276	.dwtag  DW_TAG_variable
	.dwattr $C$DW$276, DW_AT_name("i")
	.dwattr $C$DW$276, DW_AT_TI_symbol_name("_i")
	.dwattr $C$DW$276, DW_AT_type(*$C$DW$T$36)
	.dwattr $C$DW$276, DW_AT_location[DW_OP_breg20 -12]

$C$DW$277	.dwtag  DW_TAG_variable
	.dwattr $C$DW$277, DW_AT_name("nbr_dig_max")
	.dwattr $C$DW$277, DW_AT_TI_symbol_name("_nbr_dig_max")
	.dwattr $C$DW$277, DW_AT_type(*$C$DW$T$25)
	.dwattr $C$DW$277, DW_AT_location[DW_OP_breg20 -13]

$C$DW$278	.dwtag  DW_TAG_variable
	.dwattr $C$DW$278, DW_AT_name("nbr_dig_min")
	.dwattr $C$DW$278, DW_AT_TI_symbol_name("_nbr_dig_min")
	.dwattr $C$DW$278, DW_AT_type(*$C$DW$T$25)
	.dwattr $C$DW$278, DW_AT_location[DW_OP_breg20 -14]

$C$DW$279	.dwtag  DW_TAG_variable
	.dwattr $C$DW$279, DW_AT_name("nbr_dig_fmtd")
	.dwattr $C$DW$279, DW_AT_TI_symbol_name("_nbr_dig_fmtd")
	.dwattr $C$DW$279, DW_AT_type(*$C$DW$T$25)
	.dwattr $C$DW$279, DW_AT_location[DW_OP_breg20 -15]

$C$DW$280	.dwtag  DW_TAG_variable
	.dwattr $C$DW$280, DW_AT_name("nbr_neg_sign")
	.dwattr $C$DW$280, DW_AT_TI_symbol_name("_nbr_neg_sign")
	.dwattr $C$DW$280, DW_AT_type(*$C$DW$T$25)
	.dwattr $C$DW$280, DW_AT_location[DW_OP_breg20 -16]

$C$DW$281	.dwtag  DW_TAG_variable
	.dwattr $C$DW$281, DW_AT_name("nbr_lead_char")
	.dwattr $C$DW$281, DW_AT_TI_symbol_name("_nbr_lead_char")
	.dwattr $C$DW$281, DW_AT_type(*$C$DW$T$25)
	.dwattr $C$DW$281, DW_AT_location[DW_OP_breg20 -17]

$C$DW$282	.dwtag  DW_TAG_variable
	.dwattr $C$DW$282, DW_AT_name("dig_val")
	.dwattr $C$DW$282, DW_AT_TI_symbol_name("_dig_val")
	.dwattr $C$DW$282, DW_AT_type(*$C$DW$T$25)
	.dwattr $C$DW$282, DW_AT_location[DW_OP_breg20 -18]

$C$DW$283	.dwtag  DW_TAG_variable
	.dwattr $C$DW$283, DW_AT_name("lead_char_delta_0")
	.dwattr $C$DW$283, DW_AT_TI_symbol_name("_lead_char_delta_0")
	.dwattr $C$DW$283, DW_AT_type(*$C$DW$T$25)
	.dwattr $C$DW$283, DW_AT_location[DW_OP_breg20 -19]

$C$DW$284	.dwtag  DW_TAG_variable
	.dwattr $C$DW$284, DW_AT_name("lead_char_delta_a")
	.dwattr $C$DW$284, DW_AT_TI_symbol_name("_lead_char_delta_a")
	.dwattr $C$DW$284, DW_AT_type(*$C$DW$T$25)
	.dwattr $C$DW$284, DW_AT_location[DW_OP_breg20 -20]

$C$DW$285	.dwtag  DW_TAG_variable
	.dwattr $C$DW$285, DW_AT_name("lead_char_dig")
	.dwattr $C$DW$285, DW_AT_TI_symbol_name("_lead_char_dig")
	.dwattr $C$DW$285, DW_AT_type(*$C$DW$T$19)
	.dwattr $C$DW$285, DW_AT_location[DW_OP_breg20 -21]

$C$DW$286	.dwtag  DW_TAG_variable
	.dwattr $C$DW$286, DW_AT_name("lead_char_0")
	.dwattr $C$DW$286, DW_AT_TI_symbol_name("_lead_char_0")
	.dwattr $C$DW$286, DW_AT_type(*$C$DW$T$19)
	.dwattr $C$DW$286, DW_AT_location[DW_OP_breg20 -22]

$C$DW$287	.dwtag  DW_TAG_variable
	.dwattr $C$DW$287, DW_AT_name("fmt_invalid")
	.dwattr $C$DW$287, DW_AT_TI_symbol_name("_fmt_invalid")
	.dwattr $C$DW$287, DW_AT_type(*$C$DW$T$19)
	.dwattr $C$DW$287, DW_AT_location[DW_OP_breg20 -23]

$C$DW$288	.dwtag  DW_TAG_variable
	.dwattr $C$DW$288, DW_AT_name("print_char")
	.dwattr $C$DW$288, DW_AT_TI_symbol_name("_print_char")
	.dwattr $C$DW$288, DW_AT_type(*$C$DW$T$19)
	.dwattr $C$DW$288, DW_AT_location[DW_OP_breg20 -24]

$C$DW$289	.dwtag  DW_TAG_variable
	.dwattr $C$DW$289, DW_AT_name("nbr_neg_fmtd")
	.dwattr $C$DW$289, DW_AT_TI_symbol_name("_nbr_neg_fmtd")
	.dwattr $C$DW$289, DW_AT_type(*$C$DW$T$19)
	.dwattr $C$DW$289, DW_AT_location[DW_OP_breg20 -25]

        MOVL      *-SP[4],XAR4          ; [CPU_ALU] |3456| 
        MOV       *-SP[11],AR5          ; [CPU_ALU] |3456| 
        MOVL      *-SP[2],ACC           ; [CPU_ALU] |3456| 
	.dwpsn	file "C:/ti/Workspace/PLC_certificate/Software/uC-LIB/lib_str.c",line 3477,column 5,is_stmt,isa 0
        MOVL      ACC,*-SP[4]           ; [CPU_ALU] |3477| 
        B         $C$L97,NEQ            ; [CPU_ALU] |3477| 
        ; branchcc occurs ; [] |3477| 
	.dwpsn	file "C:/ti/Workspace/PLC_certificate/Software/uC-LIB/lib_str.c",line 3478,column 9,is_stmt,isa 0
        MOVB      XAR4,#0               ; [CPU_ALU] |3478| 
        B         $C$L135,UNC           ; [CPU_ALU] |3478| 
        ; branch occurs ; [] |3478| 
$C$L97:    
	.dwpsn	file "C:/ti/Workspace/PLC_certificate/Software/uC-LIB/lib_str.c",line 3481,column 5,is_stmt,isa 0
        MOV       *-SP[23],#0           ; [CPU_ALU] |3481| 
	.dwpsn	file "C:/ti/Workspace/PLC_certificate/Software/uC-LIB/lib_str.c",line 3482,column 5,is_stmt,isa 0
        MOV       *-SP[22],#0           ; [CPU_ALU] |3482| 
	.dwpsn	file "C:/ti/Workspace/PLC_certificate/Software/uC-LIB/lib_str.c",line 3484,column 5,is_stmt,isa 0
        MOV       AL,*-SP[11]           ; [CPU_ALU] |3484| 
        B         $C$L98,NEQ            ; [CPU_ALU] |3484| 
        ; branchcc occurs ; [] |3484| 
	.dwpsn	file "C:/ti/Workspace/PLC_certificate/Software/uC-LIB/lib_str.c",line 3485,column 9,is_stmt,isa 0
        MOVB      *-SP[23],#1,UNC       ; [CPU_ALU] |3485| 
$C$L98:    
	.dwpsn	file "C:/ti/Workspace/PLC_certificate/Software/uC-LIB/lib_str.c",line 3488,column 5,is_stmt,isa 0
        MOV       AL,*-SP[29]           ; [CPU_ALU] |3488| 
        CMPB      AL,#2                 ; [CPU_ALU] |3488| 
        B         $C$L99,LO             ; [CPU_ALU] |3488| 
        ; branchcc occurs ; [] |3488| 
        CMPB      AL,#36                ; [CPU_ALU] |3488| 
        B         $C$L100,LOS           ; [CPU_ALU] |3488| 
        ; branchcc occurs ; [] |3488| 
$C$L99:    
	.dwpsn	file "C:/ti/Workspace/PLC_certificate/Software/uC-LIB/lib_str.c",line 3490,column 9,is_stmt,isa 0
        MOVB      *-SP[23],#1,UNC       ; [CPU_ALU] |3490| 
$C$L100:    
	.dwpsn	file "C:/ti/Workspace/PLC_certificate/Software/uC-LIB/lib_str.c",line 3493,column 5,is_stmt,isa 0
        MOV       AL,*-SP[31]           ; [CPU_ALU] |3493| 
        B         $C$L108,EQ            ; [CPU_ALU] |3493| 
        ; branchcc occurs ; [] |3493| 
	.dwpsn	file "C:/ti/Workspace/PLC_certificate/Software/uC-LIB/lib_str.c",line 3494,column 9,is_stmt,isa 0
$C$DW$290	.dwtag  DW_TAG_TI_branch
	.dwattr $C$DW$290, DW_AT_low_pc(0x00)
	.dwattr $C$DW$290, DW_AT_name("_ASCII_IsPrint")
	.dwattr $C$DW$290, DW_AT_TI_call

        LCR       #_ASCII_IsPrint       ; [CPU_ALU] |3494| 
        ; call occurs [#_ASCII_IsPrint] ; [] |3494| 
        MOV       *-SP[24],AL           ; [CPU_ALU] |3494| 
	.dwpsn	file "C:/ti/Workspace/PLC_certificate/Software/uC-LIB/lib_str.c",line 3495,column 9,is_stmt,isa 0
        CMPB      AL,#1                 ; [CPU_ALU] |3495| 
        B         $C$L101,EQ            ; [CPU_ALU] |3495| 
        ; branchcc occurs ; [] |3495| 
	.dwpsn	file "C:/ti/Workspace/PLC_certificate/Software/uC-LIB/lib_str.c",line 3496,column 13,is_stmt,isa 0
        MOVB      *-SP[23],#1,UNC       ; [CPU_ALU] |3496| 
        B         $C$L108,UNC           ; [CPU_ALU] 
        ; branch occurs ; [] 
$C$L101:    
	.dwpsn	file "C:/ti/Workspace/PLC_certificate/Software/uC-LIB/lib_str.c",line 3498,column 16,is_stmt,isa 0
        MOV       AL,*-SP[31]           ; [CPU_ALU] |3498| 
        CMPB      AL,#48                ; [CPU_ALU] |3498| 
        B         $C$L108,EQ            ; [CPU_ALU] |3498| 
        ; branchcc occurs ; [] |3498| 
	.dwpsn	file "C:/ti/Workspace/PLC_certificate/Software/uC-LIB/lib_str.c",line 3499,column 13,is_stmt,isa 0
        ADDB      AL,#-48               ; [CPU_ALU] |3499| 
        MOV       *-SP[19],AL           ; [CPU_ALU] |3499| 
	.dwpsn	file "C:/ti/Workspace/PLC_certificate/Software/uC-LIB/lib_str.c",line 3500,column 13,is_stmt,isa 0
        MOV       AL,*-SP[32]           ; [CPU_ALU] |3500| 
        CMPB      AL,#1                 ; [CPU_ALU] |3500| 
        B         $C$L102,EQ            ; [CPU_ALU] |3500| 
        ; branchcc occurs ; [] |3500| 
	.dwpsn	file "C:/ti/Workspace/PLC_certificate/Software/uC-LIB/lib_str.c",line 3501,column 17,is_stmt,isa 0
        MOV       AL,*-SP[31]           ; [CPU_ALU] |3501| 
        ADDB      AL,#-65               ; [CPU_ALU] |3501| 
        MOV       *-SP[20],AL           ; [CPU_ALU] |3501| 
        B         $C$L103,UNC           ; [CPU_ALU] 
        ; branch occurs ; [] 
$C$L102:    
	.dwpsn	file "C:/ti/Workspace/PLC_certificate/Software/uC-LIB/lib_str.c",line 3503,column 17,is_stmt,isa 0
        MOV       AL,*-SP[31]           ; [CPU_ALU] |3503| 
        ADDB      AL,#-97               ; [CPU_ALU] |3503| 
        MOV       *-SP[20],AL           ; [CPU_ALU] |3503| 
$C$L103:    
	.dwpsn	file "C:/ti/Workspace/PLC_certificate/Software/uC-LIB/lib_str.c",line 3506,column 13,is_stmt,isa 0
        MOV       AL,*-SP[29]           ; [CPU_ALU] |3506| 
        CMPB      AL,#10                ; [CPU_ALU] |3506| 
        B         $C$L104,HI            ; [CPU_ALU] |3506| 
        ; branchcc occurs ; [] |3506| 
        CMP       AL,*-SP[19]           ; [CPU_ALU] |3506| 
        B         $C$L105,HI            ; [CPU_ALU] |3506| 
        ; branchcc occurs ; [] |3506| 
$C$L104:    
        CMPB      AL,#10                ; [CPU_ALU] |3506| 
        B         $C$L106,LOS           ; [CPU_ALU] |3506| 
        ; branchcc occurs ; [] |3506| 
        MOV       AL,*-SP[19]           ; [CPU_ALU] |3506| 
        CMPB      AL,#10                ; [CPU_ALU] |3506| 
        B         $C$L105,LO            ; [CPU_ALU] |3506| 
        ; branchcc occurs ; [] |3506| 
        MOV       AL,*-SP[29]           ; [CPU_ALU] |3506| 
        ADDB      AL,#-10               ; [CPU_ALU] |3506| 
        CMP       AL,*-SP[20]           ; [CPU_ALU] |3506| 
        B         $C$L106,LOS           ; [CPU_ALU] |3506| 
        ; branchcc occurs ; [] |3506| 
$C$L105:    
        MOVB      AL,#1                 ; [CPU_ALU] |3506| 
        B         $C$L107,UNC           ; [CPU_ALU] |3506| 
        ; branch occurs ; [] |3506| 
$C$L106:    
        MOVB      AL,#0                 ; [CPU_ALU] |3506| 
$C$L107:    
        MOV       *-SP[21],AL           ; [CPU_ALU] |3506| 
	.dwpsn	file "C:/ti/Workspace/PLC_certificate/Software/uC-LIB/lib_str.c",line 3510,column 13,is_stmt,isa 0
        CMPB      AL,#1                 ; [CPU_ALU] |3510| 
        B         $C$L108,NEQ           ; [CPU_ALU] |3510| 
        ; branchcc occurs ; [] |3510| 
	.dwpsn	file "C:/ti/Workspace/PLC_certificate/Software/uC-LIB/lib_str.c",line 3511,column 17,is_stmt,isa 0
        MOVB      *-SP[23],#1,UNC       ; [CPU_ALU] |3511| 
$C$L108:    
	.dwpsn	file "C:/ti/Workspace/PLC_certificate/Software/uC-LIB/lib_str.c",line 3518,column 5,is_stmt,isa 0
        MOVL      ACC,*-SP[4]           ; [CPU_ALU] |3518| 
        MOVL      *-SP[6],ACC           ; [CPU_ALU] |3518| 
	.dwpsn	file "C:/ti/Workspace/PLC_certificate/Software/uC-LIB/lib_str.c",line 3519,column 5,is_stmt,isa 0
        MOV       *-SP[22],#0           ; [CPU_ALU] |3519| 
	.dwpsn	file "C:/ti/Workspace/PLC_certificate/Software/uC-LIB/lib_str.c",line 3521,column 5,is_stmt,isa 0
        MOV       AL,*-SP[23]           ; [CPU_ALU] |3521| 
        B         $C$L119,NEQ           ; [CPU_ALU] |3521| 
        ; branchcc occurs ; [] |3521| 
	.dwpsn	file "C:/ti/Workspace/PLC_certificate/Software/uC-LIB/lib_str.c",line 3522,column 9,is_stmt,isa 0
        MOVL      ACC,*-SP[2]           ; [CPU_ALU] |3522| 
        MOVL      *-SP[8],ACC           ; [CPU_ALU] |3522| 
	.dwpsn	file "C:/ti/Workspace/PLC_certificate/Software/uC-LIB/lib_str.c",line 3523,column 9,is_stmt,isa 0
        MOVL      *-SP[10],ACC          ; [CPU_ALU] |3523| 
	.dwpsn	file "C:/ti/Workspace/PLC_certificate/Software/uC-LIB/lib_str.c",line 3524,column 9,is_stmt,isa 0
        MOVB      *-SP[13],#1,UNC       ; [CPU_ALU] |3524| 
	.dwpsn	file "C:/ti/Workspace/PLC_certificate/Software/uC-LIB/lib_str.c",line 3525,column 16,is_stmt,isa 0
        MOVU      ACC,*-SP[29]          ; [CPU_ALU] |3525| 
        CMPL      ACC,*-SP[10]          ; [CPU_ALU] |3525| 
        B         $C$L110,HI            ; [CPU_ALU] |3525| 
        ; branchcc occurs ; [] |3525| 
$C$L109:    
	.dwpsn	file "C:/ti/Workspace/PLC_certificate/Software/uC-LIB/lib_str.c",line 3526,column 13,is_stmt,isa 0
        INC       *-SP[13]              ; [CPU_ALU] |3526| 
	.dwpsn	file "C:/ti/Workspace/PLC_certificate/Software/uC-LIB/lib_str.c",line 3527,column 13,is_stmt,isa 0
        MOVZ      AR6,*-SP[29]          ; [CPU_ALU] |3527| 
        MOVL      P,*-SP[10]            ; [CPU_ALU] |3527| 
        MOVB      ACC,#0                ; [CPU_ALU] |3527| 
        RPT       #31
||     SUBCUL    ACC,XAR6              ; [CPU_ALU] |3527| 
        MOVL      *-SP[10],P            ; [CPU_ALU] |3527| 
	.dwpsn	file "C:/ti/Workspace/PLC_certificate/Software/uC-LIB/lib_str.c",line 3525,column 16,is_stmt,isa 0
        MOVU      ACC,*-SP[29]          ; [CPU_ALU] |3525| 
        CMPL      ACC,*-SP[10]          ; [CPU_ALU] |3525| 
        B         $C$L109,LOS           ; [CPU_ALU] |3525| 
        ; branchcc occurs ; [] |3525| 
$C$L110:    
	.dwpsn	file "C:/ti/Workspace/PLC_certificate/Software/uC-LIB/lib_str.c",line 3530,column 9,is_stmt,isa 0
        MOV       AL,*-SP[30]           ; [CPU_ALU] |3530| 
        CMPB      AL,#1                 ; [CPU_ALU] |3530| 
        B         $C$L111,NEQ           ; [CPU_ALU] |3530| 
        ; branchcc occurs ; [] |3530| 
        MOVB      AL,#1                 ; [CPU_ALU] |3530| 
        B         $C$L112,UNC           ; [CPU_ALU] |3530| 
        ; branch occurs ; [] |3530| 
$C$L111:    
        MOVB      AL,#0                 ; [CPU_ALU] |3530| 
$C$L112:    
        MOV       *-SP[16],AL           ; [CPU_ALU] |3530| 
	.dwpsn	file "C:/ti/Workspace/PLC_certificate/Software/uC-LIB/lib_str.c",line 3531,column 9,is_stmt,isa 0
        ADD       AL,*-SP[13]           ; [CPU_ALU] |3531| 
        CMP       AL,*-SP[11]           ; [CPU_ALU] |3531| 
        B         $C$L118,HI            ; [CPU_ALU] |3531| 
        ; branchcc occurs ; [] |3531| 
	.dwpsn	file "C:/ti/Workspace/PLC_certificate/Software/uC-LIB/lib_str.c",line 3532,column 13,is_stmt,isa 0
        MOV       *-SP[25],#0           ; [CPU_ALU] |3532| 
	.dwpsn	file "C:/ti/Workspace/PLC_certificate/Software/uC-LIB/lib_str.c",line 3533,column 13,is_stmt,isa 0
        MOV       AL,*-SP[11]           ; [CPU_ALU] |3533| 
        CMP       AL,*-SP[13]           ; [CPU_ALU] |3533| 
        B         $C$L113,LOS           ; [CPU_ALU] |3533| 
        ; branchcc occurs ; [] |3533| 
        MOV       AL,*-SP[13]           ; [CPU_ALU] |3533| 
$C$L113:    
        MOV       *-SP[14],AL           ; [CPU_ALU] |3533| 
	.dwpsn	file "C:/ti/Workspace/PLC_certificate/Software/uC-LIB/lib_str.c",line 3535,column 13,is_stmt,isa 0
        MOV       AL,*-SP[31]           ; [CPU_ALU] |3535| 
        B         $C$L114,EQ            ; [CPU_ALU] |3535| 
        ; branchcc occurs ; [] |3535| 
	.dwpsn	file "C:/ti/Workspace/PLC_certificate/Software/uC-LIB/lib_str.c",line 3536,column 17,is_stmt,isa 0
        MOV       AL,*-SP[11]           ; [CPU_ALU] |3536| 
        MOV       *-SP[15],AL           ; [CPU_ALU] |3536| 
	.dwpsn	file "C:/ti/Workspace/PLC_certificate/Software/uC-LIB/lib_str.c",line 3537,column 17,is_stmt,isa 0
        SUB       AL,*-SP[14]           ; [CPU_ALU] |3537| 
        SUB       AL,*-SP[16]           ; [CPU_ALU] |3537| 
        MOV       *-SP[17],AL           ; [CPU_ALU] |3537| 
        B         $C$L115,UNC           ; [CPU_ALU] 
        ; branch occurs ; [] 
$C$L114:    
	.dwpsn	file "C:/ti/Workspace/PLC_certificate/Software/uC-LIB/lib_str.c",line 3540,column 17,is_stmt,isa 0
        MOV       AL,*-SP[16]           ; [CPU_ALU] |3540| 
        ADD       AL,*-SP[14]           ; [CPU_ALU] |3540| 
        MOV       *-SP[15],AL           ; [CPU_ALU] |3540| 
	.dwpsn	file "C:/ti/Workspace/PLC_certificate/Software/uC-LIB/lib_str.c",line 3541,column 17,is_stmt,isa 0
        MOV       *-SP[17],#0           ; [CPU_ALU] |3541| 
$C$L115:    
	.dwpsn	file "C:/ti/Workspace/PLC_certificate/Software/uC-LIB/lib_str.c",line 3544,column 13,is_stmt,isa 0
        MOV       AL,*-SP[17]           ; [CPU_ALU] |3544| 
        B         $C$L119,EQ            ; [CPU_ALU] |3544| 
        ; branchcc occurs ; [] |3544| 
	.dwpsn	file "C:/ti/Workspace/PLC_certificate/Software/uC-LIB/lib_str.c",line 3545,column 17,is_stmt,isa 0
        MOV       AL,*-SP[31]           ; [CPU_ALU] |3545| 
        CMPB      AL,#48                ; [CPU_ALU] |3545| 
        B         $C$L116,NEQ           ; [CPU_ALU] |3545| 
        ; branchcc occurs ; [] |3545| 
        MOVB      AL,#1                 ; [CPU_ALU] |3545| 
        B         $C$L117,UNC           ; [CPU_ALU] |3545| 
        ; branch occurs ; [] |3545| 
$C$L116:    
        MOVB      AL,#0                 ; [CPU_ALU] |3545| 
$C$L117:    
        MOV       *-SP[22],AL           ; [CPU_ALU] |3545| 
        B         $C$L119,UNC           ; [CPU_ALU] 
        ; branch occurs ; [] 
$C$L118:    
	.dwpsn	file "C:/ti/Workspace/PLC_certificate/Software/uC-LIB/lib_str.c",line 3550,column 13,is_stmt,isa 0
        MOVB      *-SP[23],#1,UNC       ; [CPU_ALU] |3550| 
$C$L119:    
	.dwpsn	file "C:/ti/Workspace/PLC_certificate/Software/uC-LIB/lib_str.c",line 3554,column 5,is_stmt,isa 0
        MOV       AL,*-SP[23]           ; [CPU_ALU] |3554| 
        B         $C$L120,EQ            ; [CPU_ALU] |3554| 
        ; branchcc occurs ; [] |3554| 
	.dwpsn	file "C:/ti/Workspace/PLC_certificate/Software/uC-LIB/lib_str.c",line 3555,column 9,is_stmt,isa 0
        MOV       AL,*-SP[11]           ; [CPU_ALU] |3555| 
        MOV       *-SP[15],AL           ; [CPU_ALU] |3555| 
$C$L120:    
	.dwpsn	file "C:/ti/Workspace/PLC_certificate/Software/uC-LIB/lib_str.c",line 3560,column 5,is_stmt,isa 0
        MOVU      ACC,*-SP[15]          ; [CPU_ALU] |3560| 
        ADDL      ACC,*-SP[6]           ; [CPU_ALU] |3560| 
        MOVL      *-SP[6],ACC           ; [CPU_ALU] |3560| 
	.dwpsn	file "C:/ti/Workspace/PLC_certificate/Software/uC-LIB/lib_str.c",line 3562,column 5,is_stmt,isa 0
        MOV       AL,*-SP[33]           ; [CPU_ALU] |3562| 
        B         $C$L121,EQ            ; [CPU_ALU] |3562| 
        ; branchcc occurs ; [] |3562| 
	.dwpsn	file "C:/ti/Workspace/PLC_certificate/Software/uC-LIB/lib_str.c",line 3563,column 8,is_stmt,isa 0
        MOVL      XAR4,*-SP[6]          ; [CPU_ALU] |3563| 
        MOV       *+XAR4[0],#0          ; [CPU_ALU] |3563| 
$C$L121:    
	.dwpsn	file "C:/ti/Workspace/PLC_certificate/Software/uC-LIB/lib_str.c",line 3565,column 5,is_stmt,isa 0
        MOVB      ACC,#1                ; [CPU_ALU] |3565| 
        SUBL      *-SP[6],ACC           ; [CPU_ALU] |3565| 
	.dwpsn	file "C:/ti/Workspace/PLC_certificate/Software/uC-LIB/lib_str.c",line 3568,column 10,is_stmt,isa 0
        MOV       *-SP[12],#0           ; [CPU_ALU] |3568| 
        B         $C$L133,UNC           ; [CPU_ALU] |3568| 
        ; branch occurs ; [] |3568| 
$C$L122:    
	.dwpsn	file "C:/ti/Workspace/PLC_certificate/Software/uC-LIB/lib_str.c",line 3569,column 9,is_stmt,isa 0
        MOV       AL,*-SP[23]           ; [CPU_ALU] |3569| 
        B         $C$L131,NEQ           ; [CPU_ALU] |3569| 
        ; branchcc occurs ; [] |3569| 
	.dwpsn	file "C:/ti/Workspace/PLC_certificate/Software/uC-LIB/lib_str.c",line 3570,column 13,is_stmt,isa 0
        MOVL      ACC,*-SP[8]           ; [CPU_ALU] |3570| 
        B         $C$L123,NEQ           ; [CPU_ALU] |3570| 
        ; branchcc occurs ; [] |3570| 
        MOV       AL,*-SP[12]           ; [CPU_ALU] |3570| 
        B         $C$L127,NEQ           ; [CPU_ALU] |3570| 
        ; branchcc occurs ; [] |3570| 
$C$L123:    
	.dwpsn	file "C:/ti/Workspace/PLC_certificate/Software/uC-LIB/lib_str.c",line 3573,column 17,is_stmt,isa 0
        MOVZ      AR6,*-SP[29]          ; [CPU_ALU] |3573| 
        MOVL      P,*-SP[8]             ; [CPU_ALU] |3573| 
        MOVB      ACC,#0                ; [CPU_ALU] |3573| 
        RPT       #31
||     SUBCUL    ACC,XAR6              ; [CPU_ALU] |3573| 
        MOV       *-SP[18],AL           ; [CPU_ALU] |3573| 
	.dwpsn	file "C:/ti/Workspace/PLC_certificate/Software/uC-LIB/lib_str.c",line 3574,column 17,is_stmt,isa 0
        CMPB      AL,#10                ; [CPU_ALU] |3574| 
        B         $C$L124,HIS           ; [CPU_ALU] |3574| 
        ; branchcc occurs ; [] |3574| 
	.dwpsn	file "C:/ti/Workspace/PLC_certificate/Software/uC-LIB/lib_str.c",line 3575,column 20,is_stmt,isa 0
        MOVL      XAR4,*-SP[6]          ; [CPU_ALU] |3575| 
        MOVL      ACC,XAR4              ; [CPU_ALU] |3575| 
        SUBB      ACC,#1                ; [CPU_ALU] |3575| 
        MOVL      *-SP[6],ACC           ; [CPU_ALU] |3575| 
        MOV       AL,*-SP[18]           ; [CPU_ALU] |3575| 
        ADDB      AL,#48                ; [CPU_ALU] |3575| 
        MOV       *+XAR4[0],AL          ; [CPU_ALU] |3575| 
        B         $C$L126,UNC           ; [CPU_ALU] 
        ; branch occurs ; [] 
$C$L124:    
	.dwpsn	file "C:/ti/Workspace/PLC_certificate/Software/uC-LIB/lib_str.c",line 3577,column 21,is_stmt,isa 0
        MOV       AL,*-SP[32]           ; [CPU_ALU] |3577| 
        CMPB      AL,#1                 ; [CPU_ALU] |3577| 
        B         $C$L125,EQ            ; [CPU_ALU] |3577| 
        ; branchcc occurs ; [] |3577| 
	.dwpsn	file "C:/ti/Workspace/PLC_certificate/Software/uC-LIB/lib_str.c",line 3578,column 24,is_stmt,isa 0
        MOVL      XAR4,*-SP[6]          ; [CPU_ALU] |3578| 
        MOVL      ACC,XAR4              ; [CPU_ALU] |3578| 
        SUBB      ACC,#1                ; [CPU_ALU] |3578| 
        MOVL      *-SP[6],ACC           ; [CPU_ALU] |3578| 
        MOV       AL,*-SP[18]           ; [CPU_ALU] |3578| 
        ADDB      AL,#55                ; [CPU_ALU] |3578| 
        MOV       *+XAR4[0],AL          ; [CPU_ALU] |3578| 
        B         $C$L126,UNC           ; [CPU_ALU] 
        ; branch occurs ; [] 
$C$L125:    
	.dwpsn	file "C:/ti/Workspace/PLC_certificate/Software/uC-LIB/lib_str.c",line 3580,column 24,is_stmt,isa 0
        MOVL      XAR4,*-SP[6]          ; [CPU_ALU] |3580| 
        MOVL      ACC,XAR4              ; [CPU_ALU] |3580| 
        SUBB      ACC,#1                ; [CPU_ALU] |3580| 
        MOVL      *-SP[6],ACC           ; [CPU_ALU] |3580| 
        MOV       AL,*-SP[18]           ; [CPU_ALU] |3580| 
        ADDB      AL,#87                ; [CPU_ALU] |3580| 
        MOV       *+XAR4[0],AL          ; [CPU_ALU] |3580| 
$C$L126:    
	.dwpsn	file "C:/ti/Workspace/PLC_certificate/Software/uC-LIB/lib_str.c",line 3584,column 17,is_stmt,isa 0
        MOVZ      AR6,*-SP[29]          ; [CPU_ALU] |3584| 
        MOVL      P,*-SP[8]             ; [CPU_ALU] |3584| 
        MOVB      ACC,#0                ; [CPU_ALU] |3584| 
        RPT       #31
||     SUBCUL    ACC,XAR6              ; [CPU_ALU] |3584| 
        MOVL      *-SP[8],P             ; [CPU_ALU] |3584| 
        B         $C$L132,UNC           ; [CPU_ALU] 
        ; branch occurs ; [] 
$C$L127:    
	.dwpsn	file "C:/ti/Workspace/PLC_certificate/Software/uC-LIB/lib_str.c",line 3586,column 20,is_stmt,isa 0
        MOV       AL,*-SP[30]           ; [CPU_ALU] |3586| 
        CMPB      AL,#1                 ; [CPU_ALU] |3586| 
        B         $C$L130,NEQ           ; [CPU_ALU] |3586| 
        ; branchcc occurs ; [] |3586| 
        MOV       AL,*-SP[22]           ; [CPU_ALU] |3586| 
        B         $C$L128,NEQ           ; [CPU_ALU] |3586| 
        ; branchcc occurs ; [] |3586| 
        MOV       AL,*-SP[25]           ; [CPU_ALU] |3586| 
        B         $C$L129,EQ            ; [CPU_ALU] |3586| 
        ; branchcc occurs ; [] |3586| 
$C$L128:    
        MOV       AL,*-SP[22]           ; [CPU_ALU] |3586| 
        B         $C$L130,EQ            ; [CPU_ALU] |3586| 
        ; branchcc occurs ; [] |3586| 
        MOVZ      AR6,*-SP[12]          ; [CPU_ALU] |3586| 
        MOV       AL,*-SP[15]           ; [CPU_ALU] |3586| 
        ADDB      AL,#-1                ; [CPU_ALU] |3586| 
        MOVU      ACC,AL                ; [CPU_ALU] |3586| 
        CMPL      ACC,XAR6              ; [CPU_ALU] |3586| 
        B         $C$L130,NEQ           ; [CPU_ALU] |3586| 
        ; branchcc occurs ; [] |3586| 
$C$L129:    
	.dwpsn	file "C:/ti/Workspace/PLC_certificate/Software/uC-LIB/lib_str.c",line 3592,column 16,is_stmt,isa 0
        MOVL      XAR4,*-SP[6]          ; [CPU_ALU] |3592| 
        MOVL      ACC,XAR4              ; [CPU_ALU] |3592| 
        SUBB      ACC,#1                ; [CPU_ALU] |3592| 
        MOVL      *-SP[6],ACC           ; [CPU_ALU] |3592| 
        MOVB      *+XAR4[0],#45,UNC     ; [CPU_ALU] |3592| 
	.dwpsn	file "C:/ti/Workspace/PLC_certificate/Software/uC-LIB/lib_str.c",line 3593,column 17,is_stmt,isa 0
        MOVB      *-SP[25],#1,UNC       ; [CPU_ALU] |3593| 
        B         $C$L132,UNC           ; [CPU_ALU] 
        ; branch occurs ; [] 
$C$L130:    
	.dwpsn	file "C:/ti/Workspace/PLC_certificate/Software/uC-LIB/lib_str.c",line 3595,column 20,is_stmt,isa 0
        MOV       AL,*-SP[31]           ; [CPU_ALU] |3595| 
        B         $C$L132,EQ            ; [CPU_ALU] |3595| 
        ; branchcc occurs ; [] |3595| 
	.dwpsn	file "C:/ti/Workspace/PLC_certificate/Software/uC-LIB/lib_str.c",line 3596,column 16,is_stmt,isa 0
        MOVL      XAR7,*-SP[6]          ; [CPU_ALU] |3596| 
        MOVL      ACC,XAR7              ; [CPU_ALU] |3596| 
        SUBB      ACC,#1                ; [CPU_ALU] |3596| 
        MOVL      *-SP[6],ACC           ; [CPU_ALU] |3596| 
        MOV       AL,*-SP[31]           ; [CPU_ALU] |3596| 
        MOV       *+XAR7[0],AL          ; [CPU_ALU] |3596| 
        B         $C$L132,UNC           ; [CPU_ALU] 
        ; branch occurs ; [] 
$C$L131:    
	.dwpsn	file "C:/ti/Workspace/PLC_certificate/Software/uC-LIB/lib_str.c",line 3600,column 12,is_stmt,isa 0
        MOVL      XAR4,*-SP[6]          ; [CPU_ALU] |3600| 
        MOVL      ACC,XAR4              ; [CPU_ALU] |3600| 
        SUBB      ACC,#1                ; [CPU_ALU] |3600| 
        MOVL      *-SP[6],ACC           ; [CPU_ALU] |3600| 
        MOVB      *+XAR4[0],#63,UNC     ; [CPU_ALU] |3600| 
$C$L132:    
	.dwpsn	file "C:/ti/Workspace/PLC_certificate/Software/uC-LIB/lib_str.c",line 3568,column 36,is_stmt,isa 0
        INC       *-SP[12]              ; [CPU_ALU] |3568| 
$C$L133:    
	.dwpsn	file "C:/ti/Workspace/PLC_certificate/Software/uC-LIB/lib_str.c",line 3568,column 18,is_stmt,isa 0
        MOV       AL,*-SP[15]           ; [CPU_ALU] |3568| 
        CMP       AL,*-SP[12]           ; [CPU_ALU] |3568| 
        B         $C$L122,HI            ; [CPU_ALU] |3568| 
        ; branchcc occurs ; [] |3568| 
	.dwpsn	file "C:/ti/Workspace/PLC_certificate/Software/uC-LIB/lib_str.c",line 3605,column 5,is_stmt,isa 0
        MOV       AL,*-SP[23]           ; [CPU_ALU] |3605| 
        B         $C$L134,EQ            ; [CPU_ALU] |3605| 
        ; branchcc occurs ; [] |3605| 
	.dwpsn	file "C:/ti/Workspace/PLC_certificate/Software/uC-LIB/lib_str.c",line 3606,column 9,is_stmt,isa 0
        MOVB      XAR4,#0               ; [CPU_ALU] |3606| 
        B         $C$L135,UNC           ; [CPU_ALU] |3606| 
        ; branch occurs ; [] |3606| 
$C$L134:    
	.dwpsn	file "C:/ti/Workspace/PLC_certificate/Software/uC-LIB/lib_str.c",line 3610,column 5,is_stmt,isa 0
        MOVL      XAR4,*-SP[4]          ; [CPU_ALU] |3610| 
$C$L135:    
	.dwpsn	file "C:/ti/Workspace/PLC_certificate/Software/uC-LIB/lib_str.c",line 3611,column 1,is_stmt,isa 0
        SUBB      SP,#26                ; [CPU_ARAU] 
	.dwcfi	cfa_offset, -2
$C$DW$291	.dwtag  DW_TAG_TI_branch
	.dwattr $C$DW$291, DW_AT_low_pc(0x00)
	.dwattr $C$DW$291, DW_AT_TI_return

        LRETR     ; [CPU_ALU] 
        ; return occurs ; [] 
	.dwattr $C$DW$261, DW_AT_TI_end_file("C:/ti/Workspace/PLC_certificate/Software/uC-LIB/lib_str.c")
	.dwattr $C$DW$261, DW_AT_TI_end_line(0xe1b)
	.dwattr $C$DW$261, DW_AT_TI_end_column(0x01)
	.dwendentry
	.dwendtag $C$DW$261

	.sect	".text"
	.clink

$C$DW$292	.dwtag  DW_TAG_subprogram
	.dwattr $C$DW$292, DW_AT_name("Str_ParseNbr_Int32")
	.dwattr $C$DW$292, DW_AT_low_pc(_Str_ParseNbr_Int32)
	.dwattr $C$DW$292, DW_AT_high_pc(0x00)
	.dwattr $C$DW$292, DW_AT_TI_symbol_name("_Str_ParseNbr_Int32")
	.dwattr $C$DW$292, DW_AT_type(*$C$DW$T$30)
	.dwattr $C$DW$292, DW_AT_TI_begin_file("C:/ti/Workspace/PLC_certificate/Software/uC-LIB/lib_str.c")
	.dwattr $C$DW$292, DW_AT_TI_begin_line(0xf00)
	.dwattr $C$DW$292, DW_AT_TI_begin_column(0x15)
	.dwattr $C$DW$292, DW_AT_TI_max_frame_size(-28)
	.dwpsn	file "C:/ti/Workspace/PLC_certificate/Software/uC-LIB/lib_str.c",line 3845,column 1,is_stmt,address _Str_ParseNbr_Int32,isa 0

	.dwfde $C$DW$CIE, _Str_ParseNbr_Int32
$C$DW$293	.dwtag  DW_TAG_formal_parameter
	.dwattr $C$DW$293, DW_AT_name("pstr")
	.dwattr $C$DW$293, DW_AT_TI_symbol_name("_pstr")
	.dwattr $C$DW$293, DW_AT_type(*$C$DW$T$28)
	.dwattr $C$DW$293, DW_AT_location[DW_OP_reg12]

$C$DW$294	.dwtag  DW_TAG_formal_parameter
	.dwattr $C$DW$294, DW_AT_name("pstr_next")
	.dwattr $C$DW$294, DW_AT_TI_symbol_name("_pstr_next")
	.dwattr $C$DW$294, DW_AT_type(*$C$DW$T$39)
	.dwattr $C$DW$294, DW_AT_location[DW_OP_reg14]

$C$DW$295	.dwtag  DW_TAG_formal_parameter
	.dwattr $C$DW$295, DW_AT_name("nbr_base")
	.dwattr $C$DW$295, DW_AT_TI_symbol_name("_nbr_base")
	.dwattr $C$DW$295, DW_AT_type(*$C$DW$T$25)
	.dwattr $C$DW$295, DW_AT_location[DW_OP_reg0]

$C$DW$296	.dwtag  DW_TAG_formal_parameter
	.dwattr $C$DW$296, DW_AT_name("nbr_signed")
	.dwattr $C$DW$296, DW_AT_TI_symbol_name("_nbr_signed")
	.dwattr $C$DW$296, DW_AT_type(*$C$DW$T$19)
	.dwattr $C$DW$296, DW_AT_location[DW_OP_reg1]

$C$DW$297	.dwtag  DW_TAG_formal_parameter
	.dwattr $C$DW$297, DW_AT_name("pnbr_neg")
	.dwattr $C$DW$297, DW_AT_TI_symbol_name("_pnbr_neg")
	.dwattr $C$DW$297, DW_AT_type(*$C$DW$T$24)
	.dwattr $C$DW$297, DW_AT_location[DW_OP_breg20 -30]


;***************************************************************
;* FNAME: _Str_ParseNbr_Int32           FR SIZE:  26           *
;*                                                             *
;* FUNCTION ENVIRONMENT                                        *
;*                                                             *
;* FUNCTION PROPERTIES                                         *
;*                            0 Parameter, 25 Auto,  0 SOE     *
;***************************************************************

_Str_ParseNbr_Int32:
	.dwcfi	cfa_offset, -2
	.dwcfi	save_reg_to_mem, 26, 0
        ADDB      SP,#26                ; [CPU_ARAU] 
	.dwcfi	cfa_offset, -28
$C$DW$298	.dwtag  DW_TAG_variable
	.dwattr $C$DW$298, DW_AT_name("pstr")
	.dwattr $C$DW$298, DW_AT_TI_symbol_name("_pstr")
	.dwattr $C$DW$298, DW_AT_type(*$C$DW$T$28)
	.dwattr $C$DW$298, DW_AT_location[DW_OP_breg20 -2]

$C$DW$299	.dwtag  DW_TAG_variable
	.dwattr $C$DW$299, DW_AT_name("pstr_next")
	.dwattr $C$DW$299, DW_AT_TI_symbol_name("_pstr_next")
	.dwattr $C$DW$299, DW_AT_type(*$C$DW$T$39)
	.dwattr $C$DW$299, DW_AT_location[DW_OP_breg20 -4]

$C$DW$300	.dwtag  DW_TAG_variable
	.dwattr $C$DW$300, DW_AT_name("pstr_parse")
	.dwattr $C$DW$300, DW_AT_TI_symbol_name("_pstr_parse")
	.dwattr $C$DW$300, DW_AT_type(*$C$DW$T$28)
	.dwattr $C$DW$300, DW_AT_location[DW_OP_breg20 -6]

$C$DW$301	.dwtag  DW_TAG_variable
	.dwattr $C$DW$301, DW_AT_name("pstr_parse_nbr")
	.dwattr $C$DW$301, DW_AT_TI_symbol_name("_pstr_parse_nbr")
	.dwattr $C$DW$301, DW_AT_type(*$C$DW$T$28)
	.dwattr $C$DW$301, DW_AT_location[DW_OP_breg20 -8]

$C$DW$302	.dwtag  DW_TAG_variable
	.dwattr $C$DW$302, DW_AT_name("pstr_parse_unused")
	.dwattr $C$DW$302, DW_AT_TI_symbol_name("_pstr_parse_unused")
	.dwattr $C$DW$302, DW_AT_type(*$C$DW$T$38)
	.dwattr $C$DW$302, DW_AT_location[DW_OP_breg20 -10]

$C$DW$303	.dwtag  DW_TAG_variable
	.dwattr $C$DW$303, DW_AT_name("nbr")
	.dwattr $C$DW$303, DW_AT_TI_symbol_name("_nbr")
	.dwattr $C$DW$303, DW_AT_type(*$C$DW$T$30)
	.dwattr $C$DW$303, DW_AT_location[DW_OP_breg20 -12]

$C$DW$304	.dwtag  DW_TAG_variable
	.dwattr $C$DW$304, DW_AT_name("nbr_base")
	.dwattr $C$DW$304, DW_AT_TI_symbol_name("_nbr_base")
	.dwattr $C$DW$304, DW_AT_type(*$C$DW$T$25)
	.dwattr $C$DW$304, DW_AT_location[DW_OP_breg20 -13]

$C$DW$305	.dwtag  DW_TAG_variable
	.dwattr $C$DW$305, DW_AT_name("nbr_signed")
	.dwattr $C$DW$305, DW_AT_TI_symbol_name("_nbr_signed")
	.dwattr $C$DW$305, DW_AT_type(*$C$DW$T$19)
	.dwattr $C$DW$305, DW_AT_location[DW_OP_breg20 -14]

$C$DW$306	.dwtag  DW_TAG_variable
	.dwattr $C$DW$306, DW_AT_name("parse_char")
	.dwattr $C$DW$306, DW_AT_TI_symbol_name("_parse_char")
	.dwattr $C$DW$306, DW_AT_type(*$C$DW$T$21)
	.dwattr $C$DW$306, DW_AT_location[DW_OP_breg20 -15]

$C$DW$307	.dwtag  DW_TAG_variable
	.dwattr $C$DW$307, DW_AT_name("parse_dig")
	.dwattr $C$DW$307, DW_AT_TI_symbol_name("_parse_dig")
	.dwattr $C$DW$307, DW_AT_type(*$C$DW$T$25)
	.dwattr $C$DW$307, DW_AT_location[DW_OP_breg20 -16]

$C$DW$308	.dwtag  DW_TAG_variable
	.dwattr $C$DW$308, DW_AT_name("nbr_neg_unused")
	.dwattr $C$DW$308, DW_AT_TI_symbol_name("_nbr_neg_unused")
	.dwattr $C$DW$308, DW_AT_type(*$C$DW$T$19)
	.dwattr $C$DW$308, DW_AT_location[DW_OP_breg20 -17]

$C$DW$309	.dwtag  DW_TAG_variable
	.dwattr $C$DW$309, DW_AT_name("nbr_dig")
	.dwattr $C$DW$309, DW_AT_TI_symbol_name("_nbr_dig")
	.dwattr $C$DW$309, DW_AT_type(*$C$DW$T$19)
	.dwattr $C$DW$309, DW_AT_location[DW_OP_breg20 -18]

$C$DW$310	.dwtag  DW_TAG_variable
	.dwattr $C$DW$310, DW_AT_name("nbr_alpha")
	.dwattr $C$DW$310, DW_AT_TI_symbol_name("_nbr_alpha")
	.dwattr $C$DW$310, DW_AT_type(*$C$DW$T$19)
	.dwattr $C$DW$310, DW_AT_location[DW_OP_breg20 -19]

$C$DW$311	.dwtag  DW_TAG_variable
	.dwattr $C$DW$311, DW_AT_name("nbr_hex")
	.dwattr $C$DW$311, DW_AT_TI_symbol_name("_nbr_hex")
	.dwattr $C$DW$311, DW_AT_type(*$C$DW$T$19)
	.dwattr $C$DW$311, DW_AT_location[DW_OP_breg20 -20]

$C$DW$312	.dwtag  DW_TAG_variable
	.dwattr $C$DW$312, DW_AT_name("nbr_hex_lower")
	.dwattr $C$DW$312, DW_AT_TI_symbol_name("_nbr_hex_lower")
	.dwattr $C$DW$312, DW_AT_type(*$C$DW$T$19)
	.dwattr $C$DW$312, DW_AT_location[DW_OP_breg20 -21]

$C$DW$313	.dwtag  DW_TAG_variable
	.dwattr $C$DW$313, DW_AT_name("whitespace")
	.dwattr $C$DW$313, DW_AT_TI_symbol_name("_whitespace")
	.dwattr $C$DW$313, DW_AT_type(*$C$DW$T$19)
	.dwattr $C$DW$313, DW_AT_location[DW_OP_breg20 -22]

$C$DW$314	.dwtag  DW_TAG_variable
	.dwattr $C$DW$314, DW_AT_name("neg")
	.dwattr $C$DW$314, DW_AT_TI_symbol_name("_neg")
	.dwattr $C$DW$314, DW_AT_type(*$C$DW$T$19)
	.dwattr $C$DW$314, DW_AT_location[DW_OP_breg20 -23]

$C$DW$315	.dwtag  DW_TAG_variable
	.dwattr $C$DW$315, DW_AT_name("ovf")
	.dwattr $C$DW$315, DW_AT_TI_symbol_name("_ovf")
	.dwattr $C$DW$315, DW_AT_type(*$C$DW$T$19)
	.dwattr $C$DW$315, DW_AT_location[DW_OP_breg20 -24]

$C$DW$316	.dwtag  DW_TAG_variable
	.dwattr $C$DW$316, DW_AT_name("done")
	.dwattr $C$DW$316, DW_AT_TI_symbol_name("_done")
	.dwattr $C$DW$316, DW_AT_type(*$C$DW$T$19)
	.dwattr $C$DW$316, DW_AT_location[DW_OP_breg20 -25]

        MOV       *-SP[14],AH           ; [CPU_ALU] |3845| 
        MOV       *-SP[13],AL           ; [CPU_ALU] |3845| 
        MOVL      *-SP[4],XAR5          ; [CPU_ALU] |3845| 
        MOVL      *-SP[2],XAR4          ; [CPU_ALU] |3845| 
	.dwpsn	file "C:/ti/Workspace/PLC_certificate/Software/uC-LIB/lib_str.c",line 3863,column 5,is_stmt,isa 0
        MOVL      ACC,*-SP[4]           ; [CPU_ALU] |3863| 
        B         $C$L136,NEQ           ; [CPU_ALU] |3863| 
        ; branchcc occurs ; [] |3863| 
	.dwpsn	file "C:/ti/Workspace/PLC_certificate/Software/uC-LIB/lib_str.c",line 3864,column 9,is_stmt,isa 0
        MOVZ      AR4,SP                ; [CPU_ALU] |3864| 
        SUBB      XAR4,#10              ; [CPU_ARAU] |3864| 
        MOVU      ACC,AR4               ; [CPU_ALU] |3864| 
        MOVL      *-SP[4],ACC           ; [CPU_ALU] |3864| 
	.dwpsn	file "C:/ti/Workspace/PLC_certificate/Software/uC-LIB/lib_str.c",line 3865,column 8,is_stmt,isa 0
$C$L136:    
	.dwpsn	file "C:/ti/Workspace/PLC_certificate/Software/uC-LIB/lib_str.c",line 3867,column 4,is_stmt,isa 0
        MOVL      XAR4,*-SP[4]          ; [CPU_ALU] |3867| 
        MOVL      ACC,*-SP[2]           ; [CPU_ALU] |3867| 
        MOVL      *+XAR4[0],ACC         ; [CPU_ALU] |3867| 
	.dwpsn	file "C:/ti/Workspace/PLC_certificate/Software/uC-LIB/lib_str.c",line 3869,column 5,is_stmt,isa 0
        MOVL      ACC,*-SP[30]          ; [CPU_ALU] |3869| 
        B         $C$L137,NEQ           ; [CPU_ALU] |3869| 
        ; branchcc occurs ; [] |3869| 
	.dwpsn	file "C:/ti/Workspace/PLC_certificate/Software/uC-LIB/lib_str.c",line 3870,column 9,is_stmt,isa 0
        MOVZ      AR4,SP                ; [CPU_ALU] |3870| 
        SUBB      XAR4,#17              ; [CPU_ARAU] |3870| 
        MOVU      ACC,AR4               ; [CPU_ALU] |3870| 
        MOVL      *-SP[30],ACC          ; [CPU_ALU] |3870| 
	.dwpsn	file "C:/ti/Workspace/PLC_certificate/Software/uC-LIB/lib_str.c",line 3871,column 8,is_stmt,isa 0
$C$L137:    
	.dwpsn	file "C:/ti/Workspace/PLC_certificate/Software/uC-LIB/lib_str.c",line 3873,column 4,is_stmt,isa 0
        MOVL      XAR4,*-SP[30]         ; [CPU_ALU] |3873| 
        MOV       *+XAR4[0],#0          ; [CPU_ALU] |3873| 
	.dwpsn	file "C:/ti/Workspace/PLC_certificate/Software/uC-LIB/lib_str.c",line 3876,column 5,is_stmt,isa 0
        MOVL      ACC,*-SP[2]           ; [CPU_ALU] |3876| 
        B         $C$L138,NEQ           ; [CPU_ALU] |3876| 
        ; branchcc occurs ; [] |3876| 
	.dwpsn	file "C:/ti/Workspace/PLC_certificate/Software/uC-LIB/lib_str.c",line 3877,column 9,is_stmt,isa 0
        MOVB      ACC,#0                ; [CPU_ALU] |3877| 
        B         $C$L172,UNC           ; [CPU_ALU] |3877| 
        ; branch occurs ; [] |3877| 
$C$L138:    
	.dwpsn	file "C:/ti/Workspace/PLC_certificate/Software/uC-LIB/lib_str.c",line 3880,column 5,is_stmt,isa 0
        MOV       AL,*-SP[13]           ; [CPU_ALU] |3880| 
        CMPB      AL,#1                 ; [CPU_ALU] |3880| 
        B         $C$L139,EQ            ; [CPU_ALU] |3880| 
        ; branchcc occurs ; [] |3880| 
        CMPB      AL,#36                ; [CPU_ALU] |3880| 
        B         $C$L140,LOS           ; [CPU_ALU] |3880| 
        ; branchcc occurs ; [] |3880| 
$C$L139:    
	.dwpsn	file "C:/ti/Workspace/PLC_certificate/Software/uC-LIB/lib_str.c",line 3882,column 9,is_stmt,isa 0
        MOVB      ACC,#0                ; [CPU_ALU] |3882| 
        B         $C$L172,UNC           ; [CPU_ALU] |3882| 
        ; branch occurs ; [] |3882| 
$C$L140:    
	.dwpsn	file "C:/ti/Workspace/PLC_certificate/Software/uC-LIB/lib_str.c",line 3887,column 5,is_stmt,isa 0
        MOVL      ACC,*-SP[2]           ; [CPU_ALU] |3887| 
        MOVL      *-SP[6],ACC           ; [CPU_ALU] |3887| 
	.dwpsn	file "C:/ti/Workspace/PLC_certificate/Software/uC-LIB/lib_str.c",line 3889,column 5,is_stmt,isa 0
        MOVL      XAR4,*-SP[6]          ; [CPU_ALU] |3889| 
        MOV       AL,*+XAR4[0]          ; [CPU_ALU] |3889| 
$C$DW$317	.dwtag  DW_TAG_TI_branch
	.dwattr $C$DW$317, DW_AT_low_pc(0x00)
	.dwattr $C$DW$317, DW_AT_name("_ASCII_IsSpace")
	.dwattr $C$DW$317, DW_AT_TI_call

        LCR       #_ASCII_IsSpace       ; [CPU_ALU] |3889| 
        ; call occurs [#_ASCII_IsSpace] ; [] |3889| 
        MOV       *-SP[22],AL           ; [CPU_ALU] |3889| 
	.dwpsn	file "C:/ti/Workspace/PLC_certificate/Software/uC-LIB/lib_str.c",line 3890,column 12,is_stmt,isa 0
        CMPB      AL,#1                 ; [CPU_ALU] |3890| 
        B         $C$L146,NEQ           ; [CPU_ALU] |3890| 
        ; branchcc occurs ; [] |3890| 
$C$L141:    
	.dwpsn	file "C:/ti/Workspace/PLC_certificate/Software/uC-LIB/lib_str.c",line 3891,column 9,is_stmt,isa 0
        MOVB      ACC,#1                ; [CPU_ALU] |3891| 
        ADDL      ACC,*-SP[6]           ; [CPU_ALU] |3891| 
        MOVL      *-SP[6],ACC           ; [CPU_ALU] |3891| 
	.dwpsn	file "C:/ti/Workspace/PLC_certificate/Software/uC-LIB/lib_str.c",line 3892,column 9,is_stmt,isa 0
        MOVL      XAR4,*-SP[6]          ; [CPU_ALU] |3892| 
        MOV       AL,*+XAR4[0]          ; [CPU_ALU] |3892| 
$C$DW$318	.dwtag  DW_TAG_TI_branch
	.dwattr $C$DW$318, DW_AT_low_pc(0x00)
	.dwattr $C$DW$318, DW_AT_name("_ASCII_IsSpace")
	.dwattr $C$DW$318, DW_AT_TI_call

        LCR       #_ASCII_IsSpace       ; [CPU_ALU] |3892| 
        ; call occurs [#_ASCII_IsSpace] ; [] |3892| 
        MOV       *-SP[22],AL           ; [CPU_ALU] |3892| 
	.dwpsn	file "C:/ti/Workspace/PLC_certificate/Software/uC-LIB/lib_str.c",line 3890,column 12,is_stmt,isa 0
        CMPB      AL,#1                 ; [CPU_ALU] |3890| 
        B         $C$L141,EQ            ; [CPU_ALU] |3890| 
        ; branchcc occurs ; [] |3890| 
	.dwpsn	file "C:/ti/Workspace/PLC_certificate/Software/uC-LIB/lib_str.c",line 3895,column 5,is_stmt,isa 0
        B         $C$L146,UNC           ; [CPU_ALU] |3895| 
        ; branch occurs ; [] |3895| 
$C$L142:    
	.dwpsn	file "C:/ti/Workspace/PLC_certificate/Software/uC-LIB/lib_str.c",line 3897,column 14,is_stmt,isa 0
        MOVB      ACC,#1                ; [CPU_ALU] |3897| 
        ADDL      ACC,*-SP[6]           ; [CPU_ALU] |3897| 
        MOVL      *-SP[6],ACC           ; [CPU_ALU] |3897| 
	.dwpsn	file "C:/ti/Workspace/PLC_certificate/Software/uC-LIB/lib_str.c",line 3898,column 14,is_stmt,isa 0
        MOV       *-SP[23],#0           ; [CPU_ALU] |3898| 
	.dwpsn	file "C:/ti/Workspace/PLC_certificate/Software/uC-LIB/lib_str.c",line 3899,column 14,is_stmt,isa 0
        B         $C$L147,UNC           ; [CPU_ALU] |3899| 
        ; branch occurs ; [] |3899| 
$C$L143:    
	.dwpsn	file "C:/ti/Workspace/PLC_certificate/Software/uC-LIB/lib_str.c",line 3903,column 14,is_stmt,isa 0
        MOV       AL,*-SP[14]           ; [CPU_ALU] |3903| 
        CMPB      AL,#1                 ; [CPU_ALU] |3903| 
        B         $C$L144,NEQ           ; [CPU_ALU] |3903| 
        ; branchcc occurs ; [] |3903| 
	.dwpsn	file "C:/ti/Workspace/PLC_certificate/Software/uC-LIB/lib_str.c",line 3904,column 18,is_stmt,isa 0
        MOVB      ACC,#1                ; [CPU_ALU] |3904| 
        ADDL      ACC,*-SP[6]           ; [CPU_ALU] |3904| 
        MOVL      *-SP[6],ACC           ; [CPU_ALU] |3904| 
$C$L144:    
	.dwpsn	file "C:/ti/Workspace/PLC_certificate/Software/uC-LIB/lib_str.c",line 3906,column 14,is_stmt,isa 0
        MOVB      *-SP[23],#1,UNC       ; [CPU_ALU] |3906| 
	.dwpsn	file "C:/ti/Workspace/PLC_certificate/Software/uC-LIB/lib_str.c",line 3907,column 14,is_stmt,isa 0
        B         $C$L147,UNC           ; [CPU_ALU] |3907| 
        ; branch occurs ; [] |3907| 
$C$L145:    
	.dwpsn	file "C:/ti/Workspace/PLC_certificate/Software/uC-LIB/lib_str.c",line 3911,column 14,is_stmt,isa 0
        MOV       *-SP[23],#0           ; [CPU_ALU] |3911| 
	.dwpsn	file "C:/ti/Workspace/PLC_certificate/Software/uC-LIB/lib_str.c",line 3912,column 14,is_stmt,isa 0
        B         $C$L147,UNC           ; [CPU_ALU] |3912| 
        ; branch occurs ; [] |3912| 
$C$L146:    
	.dwpsn	file "C:/ti/Workspace/PLC_certificate/Software/uC-LIB/lib_str.c",line 3895,column 5,is_stmt,isa 0
        MOVL      XAR4,*-SP[6]          ; [CPU_ALU] |3895| 
        MOV       AL,*+XAR4[0]          ; [CPU_ALU] |3895| 
        CMPB      AL,#43                ; [CPU_ALU] |3895| 
        B         $C$L142,EQ            ; [CPU_ALU] |3895| 
        ; branchcc occurs ; [] |3895| 
        CMPB      AL,#45                ; [CPU_ALU] |3895| 
        B         $C$L143,EQ            ; [CPU_ALU] |3895| 
        ; branchcc occurs ; [] |3895| 
        B         $C$L145,UNC           ; [CPU_ALU] |3895| 
        ; branch occurs ; [] |3895| 
$C$L147:    
	.dwpsn	file "C:/ti/Workspace/PLC_certificate/Software/uC-LIB/lib_str.c",line 3917,column 5,is_stmt,isa 0
        MOVL      ACC,*-SP[6]           ; [CPU_ALU] |3917| 
        MOVL      *-SP[8],ACC           ; [CPU_ALU] |3917| 
	.dwpsn	file "C:/ti/Workspace/PLC_certificate/Software/uC-LIB/lib_str.c",line 3919,column 5,is_stmt,isa 0
        B         $C$L157,UNC           ; [CPU_ALU] |3919| 
        ; branch occurs ; [] |3919| 
$C$L148:    
	.dwpsn	file "C:/ti/Workspace/PLC_certificate/Software/uC-LIB/lib_str.c",line 3921,column 14,is_stmt,isa 0
        MOVL      XAR4,*-SP[6]          ; [CPU_ALU] |3921| 
        MOV       AL,*+XAR4[0]          ; [CPU_ALU] |3921| 
        CMPB      AL,#48                ; [CPU_ALU] |3921| 
        B         $C$L152,NEQ           ; [CPU_ALU] |3921| 
        ; branchcc occurs ; [] |3921| 
	.dwpsn	file "C:/ti/Workspace/PLC_certificate/Software/uC-LIB/lib_str.c",line 3922,column 19,is_stmt,isa 0
        MOVB      ACC,#1                ; [CPU_ALU] |3922| 
        ADDL      ACC,*-SP[6]           ; [CPU_ALU] |3922| 
        MOVL      *-SP[6],ACC           ; [CPU_ALU] |3922| 
	.dwpsn	file "C:/ti/Workspace/PLC_certificate/Software/uC-LIB/lib_str.c",line 3923,column 19,is_stmt,isa 0
        B         $C$L151,UNC           ; [CPU_ALU] |3923| 
        ; branch occurs ; [] |3923| 
$C$L149:    
	.dwpsn	file "C:/ti/Workspace/PLC_certificate/Software/uC-LIB/lib_str.c",line 3926,column 28,is_stmt,isa 0
        MOVB      *-SP[13],#16,UNC      ; [CPU_ALU] |3926| 
	.dwpsn	file "C:/ti/Workspace/PLC_certificate/Software/uC-LIB/lib_str.c",line 3927,column 28,is_stmt,isa 0
        MOV       AL,*+XAR4[1]          ; [CPU_ALU] |3927| 
        MOV       *-SP[15],AL           ; [CPU_ALU] |3927| 
	.dwpsn	file "C:/ti/Workspace/PLC_certificate/Software/uC-LIB/lib_str.c",line 3928,column 28,is_stmt,isa 0
$C$DW$319	.dwtag  DW_TAG_TI_branch
	.dwattr $C$DW$319, DW_AT_low_pc(0x00)
	.dwattr $C$DW$319, DW_AT_name("_ASCII_IsDigHex")
	.dwattr $C$DW$319, DW_AT_TI_call

        LCR       #_ASCII_IsDigHex      ; [CPU_ALU] |3928| 
        ; call occurs [#_ASCII_IsDigHex] ; [] |3928| 
        MOV       *-SP[20],AL           ; [CPU_ALU] |3928| 
	.dwpsn	file "C:/ti/Workspace/PLC_certificate/Software/uC-LIB/lib_str.c",line 3929,column 28,is_stmt,isa 0
        CMPB      AL,#1                 ; [CPU_ALU] |3929| 
        B         $C$L158,NEQ           ; [CPU_ALU] |3929| 
        ; branchcc occurs ; [] |3929| 
	.dwpsn	file "C:/ti/Workspace/PLC_certificate/Software/uC-LIB/lib_str.c",line 3930,column 32,is_stmt,isa 0
        MOVB      ACC,#1                ; [CPU_ALU] |3930| 
        ADDL      ACC,*-SP[6]           ; [CPU_ALU] |3930| 
        MOVL      *-SP[6],ACC           ; [CPU_ALU] |3930| 
	.dwpsn	file "C:/ti/Workspace/PLC_certificate/Software/uC-LIB/lib_str.c",line 3932,column 28,is_stmt,isa 0
        B         $C$L158,UNC           ; [CPU_ALU] |3932| 
        ; branch occurs ; [] |3932| 
$C$L150:    
	.dwpsn	file "C:/ti/Workspace/PLC_certificate/Software/uC-LIB/lib_str.c",line 3936,column 28,is_stmt,isa 0
        MOVB      *-SP[13],#8,UNC       ; [CPU_ALU] |3936| 
	.dwpsn	file "C:/ti/Workspace/PLC_certificate/Software/uC-LIB/lib_str.c",line 3937,column 28,is_stmt,isa 0
        B         $C$L158,UNC           ; [CPU_ALU] |3937| 
        ; branch occurs ; [] |3937| 
$C$L151:    
	.dwpsn	file "C:/ti/Workspace/PLC_certificate/Software/uC-LIB/lib_str.c",line 3923,column 19,is_stmt,isa 0
        MOVL      XAR4,*-SP[6]          ; [CPU_ALU] |3923| 
        MOV       AL,*+XAR4[0]          ; [CPU_ALU] |3923| 
        CMPB      AL,#88                ; [CPU_ALU] |3923| 
        B         $C$L149,EQ            ; [CPU_ALU] |3923| 
        ; branchcc occurs ; [] |3923| 
        CMPB      AL,#120               ; [CPU_ALU] |3923| 
        B         $C$L149,EQ            ; [CPU_ALU] |3923| 
        ; branchcc occurs ; [] |3923| 
        B         $C$L150,UNC           ; [CPU_ALU] |3923| 
        ; branch occurs ; [] |3923| 
$C$L152:    
	.dwpsn	file "C:/ti/Workspace/PLC_certificate/Software/uC-LIB/lib_str.c",line 3941,column 18,is_stmt,isa 0
        MOVB      *-SP[13],#10,UNC      ; [CPU_ALU] |3941| 
	.dwpsn	file "C:/ti/Workspace/PLC_certificate/Software/uC-LIB/lib_str.c",line 3943,column 14,is_stmt,isa 0
        B         $C$L158,UNC           ; [CPU_ALU] |3943| 
        ; branch occurs ; [] |3943| 
$C$L153:    
	.dwpsn	file "C:/ti/Workspace/PLC_certificate/Software/uC-LIB/lib_str.c",line 3947,column 14,is_stmt,isa 0
        MOVL      XAR4,*-SP[6]          ; [CPU_ALU] |3947| 
        MOV       AL,*+XAR4[0]          ; [CPU_ALU] |3947| 
        CMPB      AL,#48                ; [CPU_ALU] |3947| 
        B         $C$L158,NEQ           ; [CPU_ALU] |3947| 
        ; branchcc occurs ; [] |3947| 
	.dwpsn	file "C:/ti/Workspace/PLC_certificate/Software/uC-LIB/lib_str.c",line 3948,column 19,is_stmt,isa 0
        MOVB      ACC,#1                ; [CPU_ALU] |3948| 
        ADDL      ACC,*-SP[6]           ; [CPU_ALU] |3948| 
        MOVL      *-SP[6],ACC           ; [CPU_ALU] |3948| 
	.dwpsn	file "C:/ti/Workspace/PLC_certificate/Software/uC-LIB/lib_str.c",line 3950,column 14,is_stmt,isa 0
        B         $C$L158,UNC           ; [CPU_ALU] |3950| 
        ; branch occurs ; [] |3950| 
$C$L154:    
	.dwpsn	file "C:/ti/Workspace/PLC_certificate/Software/uC-LIB/lib_str.c",line 3954,column 14,is_stmt,isa 0
        MOVL      XAR4,*-SP[6]          ; [CPU_ALU] |3954| 
        MOV       AL,*+XAR4[0]          ; [CPU_ALU] |3954| 
        CMPB      AL,#48                ; [CPU_ALU] |3954| 
        B         $C$L158,NEQ           ; [CPU_ALU] |3954| 
        ; branchcc occurs ; [] |3954| 
	.dwpsn	file "C:/ti/Workspace/PLC_certificate/Software/uC-LIB/lib_str.c",line 3955,column 19,is_stmt,isa 0
        MOVB      ACC,#1                ; [CPU_ALU] |3955| 
        ADDL      ACC,*-SP[6]           ; [CPU_ALU] |3955| 
        MOVL      *-SP[6],ACC           ; [CPU_ALU] |3955| 
	.dwpsn	file "C:/ti/Workspace/PLC_certificate/Software/uC-LIB/lib_str.c",line 3956,column 19,is_stmt,isa 0
        B         $C$L156,UNC           ; [CPU_ALU] |3956| 
        ; branch occurs ; [] |3956| 
$C$L155:    
	.dwpsn	file "C:/ti/Workspace/PLC_certificate/Software/uC-LIB/lib_str.c",line 3959,column 28,is_stmt,isa 0
        MOV       AL,*+XAR4[1]          ; [CPU_ALU] |3959| 
        MOV       *-SP[15],AL           ; [CPU_ALU] |3959| 
	.dwpsn	file "C:/ti/Workspace/PLC_certificate/Software/uC-LIB/lib_str.c",line 3960,column 28,is_stmt,isa 0
$C$DW$320	.dwtag  DW_TAG_TI_branch
	.dwattr $C$DW$320, DW_AT_low_pc(0x00)
	.dwattr $C$DW$320, DW_AT_name("_ASCII_IsDigHex")
	.dwattr $C$DW$320, DW_AT_TI_call

        LCR       #_ASCII_IsDigHex      ; [CPU_ALU] |3960| 
        ; call occurs [#_ASCII_IsDigHex] ; [] |3960| 
        MOV       *-SP[20],AL           ; [CPU_ALU] |3960| 
	.dwpsn	file "C:/ti/Workspace/PLC_certificate/Software/uC-LIB/lib_str.c",line 3961,column 28,is_stmt,isa 0
        CMPB      AL,#1                 ; [CPU_ALU] |3961| 
        B         $C$L158,NEQ           ; [CPU_ALU] |3961| 
        ; branchcc occurs ; [] |3961| 
	.dwpsn	file "C:/ti/Workspace/PLC_certificate/Software/uC-LIB/lib_str.c",line 3962,column 32,is_stmt,isa 0
        MOVB      ACC,#1                ; [CPU_ALU] |3962| 
        ADDL      ACC,*-SP[6]           ; [CPU_ALU] |3962| 
        MOVL      *-SP[6],ACC           ; [CPU_ALU] |3962| 
	.dwpsn	file "C:/ti/Workspace/PLC_certificate/Software/uC-LIB/lib_str.c",line 3964,column 28,is_stmt,isa 0
        B         $C$L158,UNC           ; [CPU_ALU] |3964| 
        ; branch occurs ; [] |3964| 
$C$L156:    
	.dwpsn	file "C:/ti/Workspace/PLC_certificate/Software/uC-LIB/lib_str.c",line 3956,column 19,is_stmt,isa 0
        MOVL      XAR4,*-SP[6]          ; [CPU_ALU] |3956| 
        MOV       AL,*+XAR4[0]          ; [CPU_ALU] |3956| 
        CMPB      AL,#88                ; [CPU_ALU] |3956| 
        B         $C$L155,EQ            ; [CPU_ALU] |3956| 
        ; branchcc occurs ; [] |3956| 
        CMPB      AL,#120               ; [CPU_ALU] |3956| 
        B         $C$L155,EQ            ; [CPU_ALU] |3956| 
        ; branchcc occurs ; [] |3956| 
        B         $C$L158,UNC           ; [CPU_ALU] |3956| 
        ; branch occurs ; [] |3956| 
$C$L157:    
	.dwpsn	file "C:/ti/Workspace/PLC_certificate/Software/uC-LIB/lib_str.c",line 3919,column 5,is_stmt,isa 0
        MOV       AL,*-SP[13]           ; [CPU_ALU] |3919| 
        B         $C$L148,EQ            ; [CPU_ALU] |3919| 
        ; branchcc occurs ; [] |3919| 
        CMPB      AL,#8                 ; [CPU_ALU] |3919| 
        B         $C$L153,EQ            ; [CPU_ALU] |3919| 
        ; branchcc occurs ; [] |3919| 
        CMPB      AL,#16                ; [CPU_ALU] |3919| 
        B         $C$L154,EQ            ; [CPU_ALU] |3919| 
        ; branchcc occurs ; [] |3919| 
$C$L158:    
	.dwpsn	file "C:/ti/Workspace/PLC_certificate/Software/uC-LIB/lib_str.c",line 3980,column 5,is_stmt,isa 0
        MOVB      ACC,#0                ; [CPU_ALU] |3980| 
        MOVL      *-SP[12],ACC          ; [CPU_ALU] |3980| 
	.dwpsn	file "C:/ti/Workspace/PLC_certificate/Software/uC-LIB/lib_str.c",line 3981,column 5,is_stmt,isa 0
        MOV       *-SP[24],#0           ; [CPU_ALU] |3981| 
	.dwpsn	file "C:/ti/Workspace/PLC_certificate/Software/uC-LIB/lib_str.c",line 3982,column 5,is_stmt,isa 0
        MOV       *-SP[25],#0           ; [CPU_ALU] |3982| 
	.dwpsn	file "C:/ti/Workspace/PLC_certificate/Software/uC-LIB/lib_str.c",line 3984,column 12,is_stmt,isa 0
        MOV       AL,*-SP[25]           ; [CPU_ALU] |3984| 
        B         $C$L168,NEQ           ; [CPU_ALU] |3984| 
        ; branchcc occurs ; [] |3984| 
$C$L159:    
	.dwpsn	file "C:/ti/Workspace/PLC_certificate/Software/uC-LIB/lib_str.c",line 3985,column 9,is_stmt,isa 0
        MOVL      XAR7,*-SP[6]          ; [CPU_ALU] |3985| 
        MOV       AL,*+XAR7[0]          ; [CPU_ALU] |3985| 
        MOV       *-SP[15],AL           ; [CPU_ALU] |3985| 
	.dwpsn	file "C:/ti/Workspace/PLC_certificate/Software/uC-LIB/lib_str.c",line 3986,column 9,is_stmt,isa 0
$C$DW$321	.dwtag  DW_TAG_TI_branch
	.dwattr $C$DW$321, DW_AT_low_pc(0x00)
	.dwattr $C$DW$321, DW_AT_name("_ASCII_IsAlphaNum")
	.dwattr $C$DW$321, DW_AT_TI_call

        LCR       #_ASCII_IsAlphaNum    ; [CPU_ALU] |3986| 
        ; call occurs [#_ASCII_IsAlphaNum] ; [] |3986| 
        MOV       *-SP[19],AL           ; [CPU_ALU] |3986| 
	.dwpsn	file "C:/ti/Workspace/PLC_certificate/Software/uC-LIB/lib_str.c",line 3987,column 9,is_stmt,isa 0
        CMPB      AL,#1                 ; [CPU_ALU] |3987| 
        B         $C$L166,NEQ           ; [CPU_ALU] |3987| 
        ; branchcc occurs ; [] |3987| 
	.dwpsn	file "C:/ti/Workspace/PLC_certificate/Software/uC-LIB/lib_str.c",line 3989,column 13,is_stmt,isa 0
        MOV       AL,*-SP[15]           ; [CPU_ALU] |3989| 
$C$DW$322	.dwtag  DW_TAG_TI_branch
	.dwattr $C$DW$322, DW_AT_low_pc(0x00)
	.dwattr $C$DW$322, DW_AT_name("_ASCII_IsDig")
	.dwattr $C$DW$322, DW_AT_TI_call

        LCR       #_ASCII_IsDig         ; [CPU_ALU] |3989| 
        ; call occurs [#_ASCII_IsDig] ; [] |3989| 
        MOV       *-SP[18],AL           ; [CPU_ALU] |3989| 
	.dwpsn	file "C:/ti/Workspace/PLC_certificate/Software/uC-LIB/lib_str.c",line 3990,column 13,is_stmt,isa 0
        CMPB      AL,#1                 ; [CPU_ALU] |3990| 
        B         $C$L160,NEQ           ; [CPU_ALU] |3990| 
        ; branchcc occurs ; [] |3990| 
	.dwpsn	file "C:/ti/Workspace/PLC_certificate/Software/uC-LIB/lib_str.c",line 3991,column 17,is_stmt,isa 0
        MOV       AL,*-SP[15]           ; [CPU_ALU] |3991| 
        ADDB      AL,#-48               ; [CPU_ALU] |3991| 
        MOV       *-SP[16],AL           ; [CPU_ALU] |3991| 
        B         $C$L162,UNC           ; [CPU_ALU] 
        ; branch occurs ; [] 
$C$L160:    
	.dwpsn	file "C:/ti/Workspace/PLC_certificate/Software/uC-LIB/lib_str.c",line 3993,column 17,is_stmt,isa 0
        MOV       AL,*-SP[15]           ; [CPU_ALU] |3993| 
$C$DW$323	.dwtag  DW_TAG_TI_branch
	.dwattr $C$DW$323, DW_AT_low_pc(0x00)
	.dwattr $C$DW$323, DW_AT_name("_ASCII_IsLower")
	.dwattr $C$DW$323, DW_AT_TI_call

        LCR       #_ASCII_IsLower       ; [CPU_ALU] |3993| 
        ; call occurs [#_ASCII_IsLower] ; [] |3993| 
        MOV       *-SP[21],AL           ; [CPU_ALU] |3993| 
	.dwpsn	file "C:/ti/Workspace/PLC_certificate/Software/uC-LIB/lib_str.c",line 3994,column 17,is_stmt,isa 0
        CMPB      AL,#1                 ; [CPU_ALU] |3994| 
        B         $C$L161,NEQ           ; [CPU_ALU] |3994| 
        ; branchcc occurs ; [] |3994| 
	.dwpsn	file "C:/ti/Workspace/PLC_certificate/Software/uC-LIB/lib_str.c",line 3995,column 21,is_stmt,isa 0
        MOV       AL,*-SP[15]           ; [CPU_ALU] |3995| 
        ADDB      AL,#-97               ; [CPU_ALU] |3995| 
        ADDB      AL,#10                ; [CPU_ALU] |3995| 
        MOV       *-SP[16],AL           ; [CPU_ALU] |3995| 
        B         $C$L162,UNC           ; [CPU_ALU] 
        ; branch occurs ; [] 
$C$L161:    
	.dwpsn	file "C:/ti/Workspace/PLC_certificate/Software/uC-LIB/lib_str.c",line 3997,column 21,is_stmt,isa 0
        MOV       AL,*-SP[15]           ; [CPU_ALU] |3997| 
        ADDB      AL,#-65               ; [CPU_ALU] |3997| 
        ADDB      AL,#10                ; [CPU_ALU] |3997| 
        MOV       *-SP[16],AL           ; [CPU_ALU] |3997| 
$C$L162:    
	.dwpsn	file "C:/ti/Workspace/PLC_certificate/Software/uC-LIB/lib_str.c",line 4001,column 13,is_stmt,isa 0
        MOV       AL,*-SP[13]           ; [CPU_ALU] |4001| 
        CMP       AL,*-SP[16]           ; [CPU_ALU] |4001| 
        B         $C$L165,LOS           ; [CPU_ALU] |4001| 
        ; branchcc occurs ; [] |4001| 
	.dwpsn	file "C:/ti/Workspace/PLC_certificate/Software/uC-LIB/lib_str.c",line 4002,column 17,is_stmt,isa 0
        MOV       AL,*-SP[24]           ; [CPU_ALU] |4002| 
        B         $C$L164,NEQ           ; [CPU_ALU] |4002| 
        ; branchcc occurs ; [] |4002| 
	.dwpsn	file "C:/ti/Workspace/PLC_certificate/Software/uC-LIB/lib_str.c",line 4003,column 21,is_stmt,isa 0
        CLRC      SXM                   ; [CPU_ALU] 
        MOVL      XAR4,#_Str_MultOvfThTbl_Int32U ; [CPU_ARAU] |4003| 
        MOV       ACC,*-SP[13] << 1     ; [CPU_ALU] |4003| 
        ADDL      XAR4,ACC              ; [CPU_ALU] |4003| 
        MOVL      ACC,*+XAR4[0]         ; [CPU_ALU] |4003| 
        CMPL      ACC,*-SP[12]          ; [CPU_ALU] |4003| 
        B         $C$L163,LO            ; [CPU_ALU] |4003| 
        ; branchcc occurs ; [] |4003| 
	.dwpsn	file "C:/ti/Workspace/PLC_certificate/Software/uC-LIB/lib_str.c",line 4005,column 25,is_stmt,isa 0
        MOVU      ACC,*-SP[13]          ; [CPU_ALU] |4005| 
        MOVL      XT,ACC                ; [CPU_ALU] |4005| 
        IMPYXUL   P,XT,*-SP[12]         ; [CPU_ALU] |4005| 
        MOVL      *-SP[12],P            ; [CPU_ALU] |4005| 
	.dwpsn	file "C:/ti/Workspace/PLC_certificate/Software/uC-LIB/lib_str.c",line 4006,column 25,is_stmt,isa 0
        MOVU      ACC,*-SP[16]          ; [CPU_ALU] |4006| 
        ADDL      ACC,*-SP[12]          ; [CPU_ALU] |4006| 
        MOVL      *-SP[12],ACC          ; [CPU_ALU] |4006| 
	.dwpsn	file "C:/ti/Workspace/PLC_certificate/Software/uC-LIB/lib_str.c",line 4007,column 25,is_stmt,isa 0
        MOVU      ACC,*-SP[16]          ; [CPU_ALU] |4007| 
        CMPL      ACC,*-SP[12]          ; [CPU_ALU] |4007| 
        B         $C$L164,LOS           ; [CPU_ALU] |4007| 
        ; branchcc occurs ; [] |4007| 
	.dwpsn	file "C:/ti/Workspace/PLC_certificate/Software/uC-LIB/lib_str.c",line 4008,column 29,is_stmt,isa 0
        MOVB      *-SP[24],#1,UNC       ; [CPU_ALU] |4008| 
        B         $C$L164,UNC           ; [CPU_ALU] 
        ; branch occurs ; [] 
$C$L163:    
	.dwpsn	file "C:/ti/Workspace/PLC_certificate/Software/uC-LIB/lib_str.c",line 4011,column 25,is_stmt,isa 0
        MOVB      *-SP[24],#1,UNC       ; [CPU_ALU] |4011| 
$C$L164:    
	.dwpsn	file "C:/ti/Workspace/PLC_certificate/Software/uC-LIB/lib_str.c",line 4014,column 17,is_stmt,isa 0
        MOVB      ACC,#1                ; [CPU_ALU] |4014| 
        ADDL      ACC,*-SP[6]           ; [CPU_ALU] |4014| 
        MOVL      *-SP[6],ACC           ; [CPU_ALU] |4014| 
        B         $C$L167,UNC           ; [CPU_ALU] 
        ; branch occurs ; [] 
$C$L165:    
	.dwpsn	file "C:/ti/Workspace/PLC_certificate/Software/uC-LIB/lib_str.c",line 4017,column 17,is_stmt,isa 0
        MOVB      *-SP[25],#1,UNC       ; [CPU_ALU] |4017| 
        B         $C$L167,UNC           ; [CPU_ALU] 
        ; branch occurs ; [] 
$C$L166:    
	.dwpsn	file "C:/ti/Workspace/PLC_certificate/Software/uC-LIB/lib_str.c",line 4021,column 13,is_stmt,isa 0
        MOVB      *-SP[25],#1,UNC       ; [CPU_ALU] |4021| 
$C$L167:    
	.dwpsn	file "C:/ti/Workspace/PLC_certificate/Software/uC-LIB/lib_str.c",line 3984,column 12,is_stmt,isa 0
        MOV       AL,*-SP[25]           ; [CPU_ALU] |3984| 
        B         $C$L159,EQ            ; [CPU_ALU] |3984| 
        ; branchcc occurs ; [] |3984| 
$C$L168:    
	.dwpsn	file "C:/ti/Workspace/PLC_certificate/Software/uC-LIB/lib_str.c",line 4025,column 5,is_stmt,isa 0
        MOV       AL,*-SP[24]           ; [CPU_ALU] |4025| 
        CMPB      AL,#1                 ; [CPU_ALU] |4025| 
        B         $C$L169,NEQ           ; [CPU_ALU] |4025| 
        ; branchcc occurs ; [] |4025| 
	.dwpsn	file "C:/ti/Workspace/PLC_certificate/Software/uC-LIB/lib_str.c",line 4026,column 9,is_stmt,isa 0
        MOVB      ACC,#0                ; [CPU_ALU] |4026| 
        SUBB      ACC,#1                ; [CPU_ALU] |4026| 
        MOVL      *-SP[12],ACC          ; [CPU_ALU] |4026| 
$C$L169:    
	.dwpsn	file "C:/ti/Workspace/PLC_certificate/Software/uC-LIB/lib_str.c",line 4030,column 5,is_stmt,isa 0
        MOVL      ACC,*-SP[8]           ; [CPU_ALU] |4030| 
        CMPL      ACC,*-SP[6]           ; [CPU_ALU] |4030| 
        B         $C$L170,EQ            ; [CPU_ALU] |4030| 
        ; branchcc occurs ; [] |4030| 
	.dwpsn	file "C:/ti/Workspace/PLC_certificate/Software/uC-LIB/lib_str.c",line 4031,column 8,is_stmt,isa 0
        MOVL      XAR4,*-SP[4]          ; [CPU_ALU] |4031| 
        MOVL      ACC,*-SP[6]           ; [CPU_ALU] |4031| 
        MOVL      *+XAR4[0],ACC         ; [CPU_ALU] |4031| 
        B         $C$L171,UNC           ; [CPU_ALU] 
        ; branch occurs ; [] 
$C$L170:    
	.dwpsn	file "C:/ti/Workspace/PLC_certificate/Software/uC-LIB/lib_str.c",line 4033,column 8,is_stmt,isa 0
        MOVL      XAR4,*-SP[4]          ; [CPU_ALU] |4033| 
        MOVL      ACC,*-SP[2]           ; [CPU_ALU] |4033| 
        MOVL      *+XAR4[0],ACC         ; [CPU_ALU] |4033| 
$C$L171:    
	.dwpsn	file "C:/ti/Workspace/PLC_certificate/Software/uC-LIB/lib_str.c",line 4036,column 4,is_stmt,isa 0
        MOVL      XAR7,*-SP[30]         ; [CPU_ALU] |4036| 
        MOV       AL,*-SP[23]           ; [CPU_ALU] |4036| 
        MOV       *+XAR7[0],AL          ; [CPU_ALU] |4036| 
	.dwpsn	file "C:/ti/Workspace/PLC_certificate/Software/uC-LIB/lib_str.c",line 4039,column 5,is_stmt,isa 0
        MOVL      ACC,*-SP[12]          ; [CPU_ALU] |4039| 
$C$L172:    
	.dwpsn	file "C:/ti/Workspace/PLC_certificate/Software/uC-LIB/lib_str.c",line 4040,column 1,is_stmt,isa 0
        SUBB      SP,#26                ; [CPU_ARAU] 
	.dwcfi	cfa_offset, -2
$C$DW$324	.dwtag  DW_TAG_TI_branch
	.dwattr $C$DW$324, DW_AT_low_pc(0x00)
	.dwattr $C$DW$324, DW_AT_TI_return

        LRETR     ; [CPU_ALU] 
        ; return occurs ; [] 
	.dwattr $C$DW$292, DW_AT_TI_end_file("C:/ti/Workspace/PLC_certificate/Software/uC-LIB/lib_str.c")
	.dwattr $C$DW$292, DW_AT_TI_end_line(0xfc8)
	.dwattr $C$DW$292, DW_AT_TI_end_column(0x01)
	.dwendentry
	.dwendtag $C$DW$292

;**************************************************************
;* UNDEFINED EXTERNAL REFERENCES                              *
;**************************************************************
	.global	_ASCII_ToLower
	.global	_ASCII_IsPrint
	.global	_ASCII_IsSpace
	.global	_ASCII_IsDigHex
	.global	_ASCII_IsAlphaNum
	.global	_ASCII_IsDig
	.global	_ASCII_IsLower

;***************************************************************
;* TYPE INFORMATION                                            *
;***************************************************************
$C$DW$T$2	.dwtag  DW_TAG_unspecified_type
	.dwattr $C$DW$T$2, DW_AT_name("void")

$C$DW$T$4	.dwtag  DW_TAG_base_type
	.dwattr $C$DW$T$4, DW_AT_encoding(DW_ATE_boolean)
	.dwattr $C$DW$T$4, DW_AT_name("bool")
	.dwattr $C$DW$T$4, DW_AT_byte_size(0x01)

$C$DW$T$5	.dwtag  DW_TAG_base_type
	.dwattr $C$DW$T$5, DW_AT_encoding(DW_ATE_signed_char)
	.dwattr $C$DW$T$5, DW_AT_name("signed char")
	.dwattr $C$DW$T$5, DW_AT_byte_size(0x01)

$C$DW$T$6	.dwtag  DW_TAG_base_type
	.dwattr $C$DW$T$6, DW_AT_encoding(DW_ATE_unsigned_char)
	.dwattr $C$DW$T$6, DW_AT_name("unsigned char")
	.dwattr $C$DW$T$6, DW_AT_byte_size(0x01)

$C$DW$T$19	.dwtag  DW_TAG_typedef
	.dwattr $C$DW$T$19, DW_AT_name("CPU_BOOLEAN")
	.dwattr $C$DW$T$19, DW_AT_type(*$C$DW$T$6)
	.dwattr $C$DW$T$19, DW_AT_language(DW_LANG_C)

$C$DW$T$24	.dwtag  DW_TAG_pointer_type
	.dwattr $C$DW$T$24, DW_AT_type(*$C$DW$T$19)
	.dwattr $C$DW$T$24, DW_AT_address_class(0x20)

$C$DW$T$25	.dwtag  DW_TAG_typedef
	.dwattr $C$DW$T$25, DW_AT_name("CPU_INT08U")
	.dwattr $C$DW$T$25, DW_AT_type(*$C$DW$T$6)
	.dwattr $C$DW$T$25, DW_AT_language(DW_LANG_C)

$C$DW$T$7	.dwtag  DW_TAG_base_type
	.dwattr $C$DW$T$7, DW_AT_encoding(DW_ATE_signed_char)
	.dwattr $C$DW$T$7, DW_AT_name("wchar_t")
	.dwattr $C$DW$T$7, DW_AT_byte_size(0x01)

$C$DW$T$8	.dwtag  DW_TAG_base_type
	.dwattr $C$DW$T$8, DW_AT_encoding(DW_ATE_signed)
	.dwattr $C$DW$T$8, DW_AT_name("short")
	.dwattr $C$DW$T$8, DW_AT_byte_size(0x01)

$C$DW$T$26	.dwtag  DW_TAG_typedef
	.dwattr $C$DW$T$26, DW_AT_name("CPU_INT16S")
	.dwattr $C$DW$T$26, DW_AT_type(*$C$DW$T$8)
	.dwattr $C$DW$T$26, DW_AT_language(DW_LANG_C)

$C$DW$T$9	.dwtag  DW_TAG_base_type
	.dwattr $C$DW$T$9, DW_AT_encoding(DW_ATE_unsigned)
	.dwattr $C$DW$T$9, DW_AT_name("unsigned short")
	.dwattr $C$DW$T$9, DW_AT_byte_size(0x01)

$C$DW$T$35	.dwtag  DW_TAG_typedef
	.dwattr $C$DW$T$35, DW_AT_name("CPU_INT16U")
	.dwattr $C$DW$T$35, DW_AT_type(*$C$DW$T$9)
	.dwattr $C$DW$T$35, DW_AT_language(DW_LANG_C)

$C$DW$T$36	.dwtag  DW_TAG_typedef
	.dwattr $C$DW$T$36, DW_AT_name("CPU_DATA")
	.dwattr $C$DW$T$36, DW_AT_type(*$C$DW$T$35)
	.dwattr $C$DW$T$36, DW_AT_language(DW_LANG_C)

$C$DW$T$10	.dwtag  DW_TAG_base_type
	.dwattr $C$DW$T$10, DW_AT_encoding(DW_ATE_signed)
	.dwattr $C$DW$T$10, DW_AT_name("int")
	.dwattr $C$DW$T$10, DW_AT_byte_size(0x01)

$C$DW$T$11	.dwtag  DW_TAG_base_type
	.dwattr $C$DW$T$11, DW_AT_encoding(DW_ATE_unsigned)
	.dwattr $C$DW$T$11, DW_AT_name("unsigned int")
	.dwattr $C$DW$T$11, DW_AT_byte_size(0x01)

$C$DW$T$12	.dwtag  DW_TAG_base_type
	.dwattr $C$DW$T$12, DW_AT_encoding(DW_ATE_signed)
	.dwattr $C$DW$T$12, DW_AT_name("long")
	.dwattr $C$DW$T$12, DW_AT_byte_size(0x02)

$C$DW$T$37	.dwtag  DW_TAG_typedef
	.dwattr $C$DW$T$37, DW_AT_name("CPU_INT32S")
	.dwattr $C$DW$T$37, DW_AT_type(*$C$DW$T$12)
	.dwattr $C$DW$T$37, DW_AT_language(DW_LANG_C)

$C$DW$T$13	.dwtag  DW_TAG_base_type
	.dwattr $C$DW$T$13, DW_AT_encoding(DW_ATE_unsigned)
	.dwattr $C$DW$T$13, DW_AT_name("unsigned long")
	.dwattr $C$DW$T$13, DW_AT_byte_size(0x02)

$C$DW$T$30	.dwtag  DW_TAG_typedef
	.dwattr $C$DW$T$30, DW_AT_name("CPU_INT32U")
	.dwattr $C$DW$T$30, DW_AT_type(*$C$DW$T$13)
	.dwattr $C$DW$T$30, DW_AT_language(DW_LANG_C)

$C$DW$T$31	.dwtag  DW_TAG_typedef
	.dwattr $C$DW$T$31, DW_AT_name("CPU_ADDR")
	.dwattr $C$DW$T$31, DW_AT_type(*$C$DW$T$30)
	.dwattr $C$DW$T$31, DW_AT_language(DW_LANG_C)

$C$DW$T$32	.dwtag  DW_TAG_typedef
	.dwattr $C$DW$T$32, DW_AT_name("CPU_SIZE_T")
	.dwattr $C$DW$T$32, DW_AT_type(*$C$DW$T$31)
	.dwattr $C$DW$T$32, DW_AT_language(DW_LANG_C)

$C$DW$325	.dwtag  DW_TAG_TI_far_type
	.dwattr $C$DW$325, DW_AT_type(*$C$DW$T$30)

$C$DW$T$44	.dwtag  DW_TAG_const_type
	.dwattr $C$DW$T$44, DW_AT_type(*$C$DW$325)


$C$DW$T$45	.dwtag  DW_TAG_array_type
	.dwattr $C$DW$T$45, DW_AT_type(*$C$DW$T$44)
	.dwattr $C$DW$T$45, DW_AT_language(DW_LANG_C)
	.dwattr $C$DW$T$45, DW_AT_byte_size(0x4a)
$C$DW$326	.dwtag  DW_TAG_subrange_type
	.dwattr $C$DW$326, DW_AT_upper_bound(0x24)

	.dwendtag $C$DW$T$45

$C$DW$T$14	.dwtag  DW_TAG_base_type
	.dwattr $C$DW$T$14, DW_AT_encoding(DW_ATE_signed)
	.dwattr $C$DW$T$14, DW_AT_name("long long")
	.dwattr $C$DW$T$14, DW_AT_byte_size(0x04)

$C$DW$T$15	.dwtag  DW_TAG_base_type
	.dwattr $C$DW$T$15, DW_AT_encoding(DW_ATE_unsigned)
	.dwattr $C$DW$T$15, DW_AT_name("unsigned long long")
	.dwattr $C$DW$T$15, DW_AT_byte_size(0x04)

$C$DW$T$16	.dwtag  DW_TAG_base_type
	.dwattr $C$DW$T$16, DW_AT_encoding(DW_ATE_float)
	.dwattr $C$DW$T$16, DW_AT_name("float")
	.dwattr $C$DW$T$16, DW_AT_byte_size(0x02)

$C$DW$T$17	.dwtag  DW_TAG_base_type
	.dwattr $C$DW$T$17, DW_AT_encoding(DW_ATE_float)
	.dwattr $C$DW$T$17, DW_AT_name("double")
	.dwattr $C$DW$T$17, DW_AT_byte_size(0x02)

$C$DW$T$18	.dwtag  DW_TAG_base_type
	.dwattr $C$DW$T$18, DW_AT_encoding(DW_ATE_float)
	.dwattr $C$DW$T$18, DW_AT_name("long double")
	.dwattr $C$DW$T$18, DW_AT_byte_size(0x04)

$C$DW$T$21	.dwtag  DW_TAG_typedef
	.dwattr $C$DW$T$21, DW_AT_name("CPU_CHAR")
	.dwattr $C$DW$T$21, DW_AT_type(*$C$DW$T$5)
	.dwattr $C$DW$T$21, DW_AT_language(DW_LANG_C)

$C$DW$327	.dwtag  DW_TAG_TI_far_type
	.dwattr $C$DW$327, DW_AT_type(*$C$DW$T$21)

$C$DW$T$27	.dwtag  DW_TAG_const_type
	.dwattr $C$DW$T$27, DW_AT_type(*$C$DW$327)

$C$DW$T$28	.dwtag  DW_TAG_pointer_type
	.dwattr $C$DW$T$28, DW_AT_type(*$C$DW$T$27)
	.dwattr $C$DW$T$28, DW_AT_address_class(0x20)

$C$DW$T$38	.dwtag  DW_TAG_pointer_type
	.dwattr $C$DW$T$38, DW_AT_type(*$C$DW$T$21)
	.dwattr $C$DW$T$38, DW_AT_address_class(0x20)

$C$DW$T$39	.dwtag  DW_TAG_pointer_type
	.dwattr $C$DW$T$39, DW_AT_type(*$C$DW$T$38)
	.dwattr $C$DW$T$39, DW_AT_address_class(0x20)

	.dwattr $C$DW$CU, DW_AT_language(DW_LANG_C)

;***************************************************************
;* DWARF CIE ENTRIES                                           *
;***************************************************************

$C$DW$CIE	.dwcie 26
	.dwcfi	cfa_register, 20
	.dwcfi	cfa_offset, 0
	.dwcfi	same_value, 28
	.dwcfi	same_value, 6
	.dwcfi	same_value, 7
	.dwcfi	same_value, 8
	.dwcfi	same_value, 9
	.dwcfi	same_value, 10
	.dwcfi	same_value, 11
	.dwendentry

;***************************************************************
;* DWARF REGISTER MAP                                          *
;***************************************************************

$C$DW$328	.dwtag  DW_TAG_TI_assign_register
	.dwattr $C$DW$328, DW_AT_name("AL")
	.dwattr $C$DW$328, DW_AT_location[DW_OP_reg0]

$C$DW$329	.dwtag  DW_TAG_TI_assign_register
	.dwattr $C$DW$329, DW_AT_name("AH")
	.dwattr $C$DW$329, DW_AT_location[DW_OP_reg1]

$C$DW$330	.dwtag  DW_TAG_TI_assign_register
	.dwattr $C$DW$330, DW_AT_name("PL")
	.dwattr $C$DW$330, DW_AT_location[DW_OP_reg2]

$C$DW$331	.dwtag  DW_TAG_TI_assign_register
	.dwattr $C$DW$331, DW_AT_name("PH")
	.dwattr $C$DW$331, DW_AT_location[DW_OP_reg3]

$C$DW$332	.dwtag  DW_TAG_TI_assign_register
	.dwattr $C$DW$332, DW_AT_name("SP")
	.dwattr $C$DW$332, DW_AT_location[DW_OP_reg20]

$C$DW$333	.dwtag  DW_TAG_TI_assign_register
	.dwattr $C$DW$333, DW_AT_name("XT")
	.dwattr $C$DW$333, DW_AT_location[DW_OP_reg21]

$C$DW$334	.dwtag  DW_TAG_TI_assign_register
	.dwattr $C$DW$334, DW_AT_name("T")
	.dwattr $C$DW$334, DW_AT_location[DW_OP_reg22]

$C$DW$335	.dwtag  DW_TAG_TI_assign_register
	.dwattr $C$DW$335, DW_AT_name("ST0")
	.dwattr $C$DW$335, DW_AT_location[DW_OP_reg23]

$C$DW$336	.dwtag  DW_TAG_TI_assign_register
	.dwattr $C$DW$336, DW_AT_name("ST1")
	.dwattr $C$DW$336, DW_AT_location[DW_OP_reg24]

$C$DW$337	.dwtag  DW_TAG_TI_assign_register
	.dwattr $C$DW$337, DW_AT_name("PC")
	.dwattr $C$DW$337, DW_AT_location[DW_OP_reg25]

$C$DW$338	.dwtag  DW_TAG_TI_assign_register
	.dwattr $C$DW$338, DW_AT_name("RPC")
	.dwattr $C$DW$338, DW_AT_location[DW_OP_reg26]

$C$DW$339	.dwtag  DW_TAG_TI_assign_register
	.dwattr $C$DW$339, DW_AT_name("FP")
	.dwattr $C$DW$339, DW_AT_location[DW_OP_reg28]

$C$DW$340	.dwtag  DW_TAG_TI_assign_register
	.dwattr $C$DW$340, DW_AT_name("DP")
	.dwattr $C$DW$340, DW_AT_location[DW_OP_reg29]

$C$DW$341	.dwtag  DW_TAG_TI_assign_register
	.dwattr $C$DW$341, DW_AT_name("SXM")
	.dwattr $C$DW$341, DW_AT_location[DW_OP_reg30]

$C$DW$342	.dwtag  DW_TAG_TI_assign_register
	.dwattr $C$DW$342, DW_AT_name("PM")
	.dwattr $C$DW$342, DW_AT_location[DW_OP_reg31]

$C$DW$343	.dwtag  DW_TAG_TI_assign_register
	.dwattr $C$DW$343, DW_AT_name("OVM")
	.dwattr $C$DW$343, DW_AT_location[DW_OP_regx 0x20]

$C$DW$344	.dwtag  DW_TAG_TI_assign_register
	.dwattr $C$DW$344, DW_AT_name("PAGE0")
	.dwattr $C$DW$344, DW_AT_location[DW_OP_regx 0x21]

$C$DW$345	.dwtag  DW_TAG_TI_assign_register
	.dwattr $C$DW$345, DW_AT_name("AMODE")
	.dwattr $C$DW$345, DW_AT_location[DW_OP_regx 0x22]

$C$DW$346	.dwtag  DW_TAG_TI_assign_register
	.dwattr $C$DW$346, DW_AT_name("EALLOW")
	.dwattr $C$DW$346, DW_AT_location[DW_OP_regx 0x4e]

$C$DW$347	.dwtag  DW_TAG_TI_assign_register
	.dwattr $C$DW$347, DW_AT_name("INTM")
	.dwattr $C$DW$347, DW_AT_location[DW_OP_regx 0x23]

$C$DW$348	.dwtag  DW_TAG_TI_assign_register
	.dwattr $C$DW$348, DW_AT_name("IFR")
	.dwattr $C$DW$348, DW_AT_location[DW_OP_regx 0x24]

$C$DW$349	.dwtag  DW_TAG_TI_assign_register
	.dwattr $C$DW$349, DW_AT_name("IER")
	.dwattr $C$DW$349, DW_AT_location[DW_OP_regx 0x25]

$C$DW$350	.dwtag  DW_TAG_TI_assign_register
	.dwattr $C$DW$350, DW_AT_name("V")
	.dwattr $C$DW$350, DW_AT_location[DW_OP_regx 0x26]

$C$DW$351	.dwtag  DW_TAG_TI_assign_register
	.dwattr $C$DW$351, DW_AT_name("PSEUDOH")
	.dwattr $C$DW$351, DW_AT_location[DW_OP_regx 0x4c]

$C$DW$352	.dwtag  DW_TAG_TI_assign_register
	.dwattr $C$DW$352, DW_AT_name("VOL")
	.dwattr $C$DW$352, DW_AT_location[DW_OP_regx 0x4d]

$C$DW$353	.dwtag  DW_TAG_TI_assign_register
	.dwattr $C$DW$353, DW_AT_name("AR0")
	.dwattr $C$DW$353, DW_AT_location[DW_OP_reg4]

$C$DW$354	.dwtag  DW_TAG_TI_assign_register
	.dwattr $C$DW$354, DW_AT_name("XAR0")
	.dwattr $C$DW$354, DW_AT_location[DW_OP_reg5]

$C$DW$355	.dwtag  DW_TAG_TI_assign_register
	.dwattr $C$DW$355, DW_AT_name("AR1")
	.dwattr $C$DW$355, DW_AT_location[DW_OP_reg6]

$C$DW$356	.dwtag  DW_TAG_TI_assign_register
	.dwattr $C$DW$356, DW_AT_name("XAR1")
	.dwattr $C$DW$356, DW_AT_location[DW_OP_reg7]

$C$DW$357	.dwtag  DW_TAG_TI_assign_register
	.dwattr $C$DW$357, DW_AT_name("AR2")
	.dwattr $C$DW$357, DW_AT_location[DW_OP_reg8]

$C$DW$358	.dwtag  DW_TAG_TI_assign_register
	.dwattr $C$DW$358, DW_AT_name("XAR2")
	.dwattr $C$DW$358, DW_AT_location[DW_OP_reg9]

$C$DW$359	.dwtag  DW_TAG_TI_assign_register
	.dwattr $C$DW$359, DW_AT_name("AR3")
	.dwattr $C$DW$359, DW_AT_location[DW_OP_reg10]

$C$DW$360	.dwtag  DW_TAG_TI_assign_register
	.dwattr $C$DW$360, DW_AT_name("XAR3")
	.dwattr $C$DW$360, DW_AT_location[DW_OP_reg11]

$C$DW$361	.dwtag  DW_TAG_TI_assign_register
	.dwattr $C$DW$361, DW_AT_name("AR4")
	.dwattr $C$DW$361, DW_AT_location[DW_OP_reg12]

$C$DW$362	.dwtag  DW_TAG_TI_assign_register
	.dwattr $C$DW$362, DW_AT_name("XAR4")
	.dwattr $C$DW$362, DW_AT_location[DW_OP_reg13]

$C$DW$363	.dwtag  DW_TAG_TI_assign_register
	.dwattr $C$DW$363, DW_AT_name("AR5")
	.dwattr $C$DW$363, DW_AT_location[DW_OP_reg14]

$C$DW$364	.dwtag  DW_TAG_TI_assign_register
	.dwattr $C$DW$364, DW_AT_name("XAR5")
	.dwattr $C$DW$364, DW_AT_location[DW_OP_reg15]

$C$DW$365	.dwtag  DW_TAG_TI_assign_register
	.dwattr $C$DW$365, DW_AT_name("AR6")
	.dwattr $C$DW$365, DW_AT_location[DW_OP_reg16]

$C$DW$366	.dwtag  DW_TAG_TI_assign_register
	.dwattr $C$DW$366, DW_AT_name("XAR6")
	.dwattr $C$DW$366, DW_AT_location[DW_OP_reg17]

$C$DW$367	.dwtag  DW_TAG_TI_assign_register
	.dwattr $C$DW$367, DW_AT_name("AR7")
	.dwattr $C$DW$367, DW_AT_location[DW_OP_reg18]

$C$DW$368	.dwtag  DW_TAG_TI_assign_register
