TMS320C2000 Assembler PC v20.2.1 Tue Feb 16 00:15:56 2021

Copyright (c) 1996-2018 Texas Instruments Incorporated
lib_str.asm                                                          PAGE    1

       1              ;***************************************************************
       2              ;* TMS320C2000 G3 C/C++ Codegen                               PC v20.2.1.LTS *
       3              ;* Date/Time created: Tue Feb 16 00:15:56 2021                 *
       4              ;***************************************************************
       5                      .compiler_opts --abi=coffabi --diag_wrap=off --float_support=softlib --hll_source=on --mem_model:code
       6                      .asg    XAR2, FP
       7              
       8              $C$DW$CU        .dwtag  DW_TAG_compile_unit
       9                      .dwattr $C$DW$CU, DW_AT_name("C:/ti/Workspace/PLC_certificate/Software/uC-LIB/lib_str.c")
      10                      .dwattr $C$DW$CU, DW_AT_producer("TI TMS320C2000 G3 C/C++ Codegen PC v20.2.1.LTS Copyright (c) 1996-2
      11                      .dwattr $C$DW$CU, DW_AT_TI_version(0x01)
      12                      .dwattr $C$DW$CU, DW_AT_comp_dir("C:\ti\Workspace\PLC_certificate\Examples\TI\TMDSDOCK28335\OS2\CCS\D
      13              
      14              $C$DW$1 .dwtag  DW_TAG_subprogram
      15                      .dwattr $C$DW$1, DW_AT_name("ASCII_ToLower")
      16                      .dwattr $C$DW$1, DW_AT_TI_symbol_name("_ASCII_ToLower")
      17                      .dwattr $C$DW$1, DW_AT_type(*$C$DW$T$21)
      18                      .dwattr $C$DW$1, DW_AT_declaration
      19                      .dwattr $C$DW$1, DW_AT_external
      20              $C$DW$2 .dwtag  DW_TAG_formal_parameter
      21                      .dwattr $C$DW$2, DW_AT_type(*$C$DW$T$21)
      22              
      23                      .dwendtag $C$DW$1
      24              
      25              
      26              $C$DW$3 .dwtag  DW_TAG_subprogram
      27                      .dwattr $C$DW$3, DW_AT_name("ASCII_IsPrint")
      28                      .dwattr $C$DW$3, DW_AT_TI_symbol_name("_ASCII_IsPrint")
      29                      .dwattr $C$DW$3, DW_AT_type(*$C$DW$T$19)
      30                      .dwattr $C$DW$3, DW_AT_declaration
      31                      .dwattr $C$DW$3, DW_AT_external
      32              $C$DW$4 .dwtag  DW_TAG_formal_parameter
      33                      .dwattr $C$DW$4, DW_AT_type(*$C$DW$T$21)
      34              
      35                      .dwendtag $C$DW$3
      36              
      37              
      38              $C$DW$5 .dwtag  DW_TAG_subprogram
      39                      .dwattr $C$DW$5, DW_AT_name("ASCII_IsSpace")
      40                      .dwattr $C$DW$5, DW_AT_TI_symbol_name("_ASCII_IsSpace")
      41                      .dwattr $C$DW$5, DW_AT_type(*$C$DW$T$19)
      42                      .dwattr $C$DW$5, DW_AT_declaration
      43                      .dwattr $C$DW$5, DW_AT_external
      44              $C$DW$6 .dwtag  DW_TAG_formal_parameter
      45                      .dwattr $C$DW$6, DW_AT_type(*$C$DW$T$21)
      46              
      47                      .dwendtag $C$DW$5
      48              
      49              
      50              $C$DW$7 .dwtag  DW_TAG_subprogram
      51                      .dwattr $C$DW$7, DW_AT_name("ASCII_IsDigHex")
      52                      .dwattr $C$DW$7, DW_AT_TI_symbol_name("_ASCII_IsDigHex")
      53                      .dwattr $C$DW$7, DW_AT_type(*$C$DW$T$19)
      54                      .dwattr $C$DW$7, DW_AT_declaration
      55                      .dwattr $C$DW$7, DW_AT_external
TMS320C2000 Assembler PC v20.2.1 Tue Feb 16 00:15:56 2021

Copyright (c) 1996-2018 Texas Instruments Incorporated
lib_str.asm                                                          PAGE    2

      56              $C$DW$8 .dwtag  DW_TAG_formal_parameter
      57                      .dwattr $C$DW$8, DW_AT_type(*$C$DW$T$21)
      58              
      59                      .dwendtag $C$DW$7
      60              
      61              
      62              $C$DW$9 .dwtag  DW_TAG_subprogram
      63                      .dwattr $C$DW$9, DW_AT_name("ASCII_IsAlphaNum")
      64                      .dwattr $C$DW$9, DW_AT_TI_symbol_name("_ASCII_IsAlphaNum")
      65                      .dwattr $C$DW$9, DW_AT_type(*$C$DW$T$19)
      66                      .dwattr $C$DW$9, DW_AT_declaration
      67                      .dwattr $C$DW$9, DW_AT_external
      68              $C$DW$10        .dwtag  DW_TAG_formal_parameter
      69                      .dwattr $C$DW$10, DW_AT_type(*$C$DW$T$21)
      70              
      71                      .dwendtag $C$DW$9
      72              
      73              
      74              $C$DW$11        .dwtag  DW_TAG_subprogram
      75                      .dwattr $C$DW$11, DW_AT_name("ASCII_IsDig")
      76                      .dwattr $C$DW$11, DW_AT_TI_symbol_name("_ASCII_IsDig")
      77                      .dwattr $C$DW$11, DW_AT_type(*$C$DW$T$19)
      78                      .dwattr $C$DW$11, DW_AT_declaration
      79                      .dwattr $C$DW$11, DW_AT_external
      80              $C$DW$12        .dwtag  DW_TAG_formal_parameter
      81                      .dwattr $C$DW$12, DW_AT_type(*$C$DW$T$21)
      82              
      83                      .dwendtag $C$DW$11
      84              
      85              
      86              $C$DW$13        .dwtag  DW_TAG_subprogram
      87                      .dwattr $C$DW$13, DW_AT_name("ASCII_IsLower")
      88                      .dwattr $C$DW$13, DW_AT_TI_symbol_name("_ASCII_IsLower")
      89                      .dwattr $C$DW$13, DW_AT_type(*$C$DW$T$19)
      90                      .dwattr $C$DW$13, DW_AT_declaration
      91                      .dwattr $C$DW$13, DW_AT_external
      92              $C$DW$14        .dwtag  DW_TAG_formal_parameter
      93                      .dwattr $C$DW$14, DW_AT_type(*$C$DW$T$21)
      94              
      95                      .dwendtag $C$DW$13
      96              
      97 00000000               .sect   ".econst:_Str_MultOvfThTbl_Int32U"
      98                      .clink
      99                      .align  2
     100                      .elfsym _Str_MultOvfThTbl_Int32U,SYM_SIZE(74)
     101 00000000       _Str_MultOvfThTbl_Int32U:
     102 00000000 FFFF          .bits           0xffffffff,32
         00000001 FFFF 
     103                                      ; _Str_MultOvfThTbl_Int32U[0] @ 0
     104 00000002 FFFF          .bits           0xffffffff,32
         00000003 FFFF 
     105                                      ; _Str_MultOvfThTbl_Int32U[1] @ 32
     106 00000004 FFFF          .bits           0x7fffffff,32
         00000005 7FFF 
     107                                      ; _Str_MultOvfThTbl_Int32U[2] @ 64
TMS320C2000 Assembler PC v20.2.1 Tue Feb 16 00:15:56 2021

Copyright (c) 1996-2018 Texas Instruments Incorporated
lib_str.asm                                                          PAGE    3

     108 00000006 5555          .bits           0x55555555,32
         00000007 5555 
     109                                      ; _Str_MultOvfThTbl_Int32U[3] @ 96
     110 00000008 FFFF          .bits           0x3fffffff,32
         00000009 3FFF 
     111                                      ; _Str_MultOvfThTbl_Int32U[4] @ 128
     112 0000000a 3333          .bits           0x33333333,32
         0000000b 3333 
     113                                      ; _Str_MultOvfThTbl_Int32U[5] @ 160
     114 0000000c AAAA          .bits           0x2aaaaaaa,32
         0000000d 2AAA 
     115                                      ; _Str_MultOvfThTbl_Int32U[6] @ 192
     116 0000000e 4924          .bits           0x24924924,32
         0000000f 2492 
     117                                      ; _Str_MultOvfThTbl_Int32U[7] @ 224
     118 00000010 FFFF          .bits           0x1fffffff,32
         00000011 1FFF 
     119                                      ; _Str_MultOvfThTbl_Int32U[8] @ 256
     120 00000012 C71C          .bits           0x1c71c71c,32
         00000013 1C71 
     121                                      ; _Str_MultOvfThTbl_Int32U[9] @ 288
     122 00000014 9999          .bits           0x19999999,32
         00000015 1999 
     123                                      ; _Str_MultOvfThTbl_Int32U[10] @ 320
     124 00000016 D174          .bits           0x1745d174,32
         00000017 1745 
     125                                      ; _Str_MultOvfThTbl_Int32U[11] @ 352
     126 00000018 5555          .bits           0x15555555,32
         00000019 1555 
     127                                      ; _Str_MultOvfThTbl_Int32U[12] @ 384
     128 0000001a 3B13          .bits           0x13b13b13,32
         0000001b 13B1 
     129                                      ; _Str_MultOvfThTbl_Int32U[13] @ 416
     130 0000001c 2492          .bits           0x12492492,32
         0000001d 1249 
     131                                      ; _Str_MultOvfThTbl_Int32U[14] @ 448
     132 0000001e 1111          .bits           0x11111111,32
         0000001f 1111 
     133                                      ; _Str_MultOvfThTbl_Int32U[15] @ 480
     134 00000020 FFFF          .bits           0xfffffff,32
         00000021 0FFF 
     135                                      ; _Str_MultOvfThTbl_Int32U[16] @ 512
     136 00000022 0F0F          .bits           0xf0f0f0f,32
         00000023 0F0F 
     137                                      ; _Str_MultOvfThTbl_Int32U[17] @ 544
     138 00000024 E38E          .bits           0xe38e38e,32
         00000025 0E38 
     139                                      ; _Str_MultOvfThTbl_Int32U[18] @ 576
     140 00000026 435E          .bits           0xd79435e,32
         00000027 0D79 
     141                                      ; _Str_MultOvfThTbl_Int32U[19] @ 608
     142 00000028 CCCC          .bits           0xccccccc,32
         00000029 0CCC 
     143                                      ; _Str_MultOvfThTbl_Int32U[20] @ 640
     144 0000002a C30C          .bits           0xc30c30c,32
TMS320C2000 Assembler PC v20.2.1 Tue Feb 16 00:15:56 2021

Copyright (c) 1996-2018 Texas Instruments Incorporated
lib_str.asm                                                          PAGE    4

         0000002b 0C30 
     145                                      ; _Str_MultOvfThTbl_Int32U[21] @ 672
     146 0000002c E8BA          .bits           0xba2e8ba,32
         0000002d 0BA2 
     147                                      ; _Str_MultOvfThTbl_Int32U[22] @ 704
     148 0000002e 642C          .bits           0xb21642c,32
         0000002f 0B21 
     149                                      ; _Str_MultOvfThTbl_Int32U[23] @ 736
     150 00000030 AAAA          .bits           0xaaaaaaa,32
         00000031 0AAA 
     151                                      ; _Str_MultOvfThTbl_Int32U[24] @ 768
     152 00000032 70A3          .bits           0xa3d70a3,32
         00000033 0A3D 
     153                                      ; _Str_MultOvfThTbl_Int32U[25] @ 800
     154 00000034 9D89          .bits           0x9d89d89,32
         00000035 09D8 
     155                                      ; _Str_MultOvfThTbl_Int32U[26] @ 832
     156 00000036 425E          .bits           0x97b425e,32
         00000037 097B 
     157                                      ; _Str_MultOvfThTbl_Int32U[27] @ 864
     158 00000038 9249          .bits           0x9249249,32
         00000039 0924 
     159                                      ; _Str_MultOvfThTbl_Int32U[28] @ 896
     160 0000003a DCB0          .bits           0x8d3dcb0,32
         0000003b 08D3 
     161                                      ; _Str_MultOvfThTbl_Int32U[29] @ 928
     162 0000003c 8888          .bits           0x8888888,32
         0000003d 0888 
     163                                      ; _Str_MultOvfThTbl_Int32U[30] @ 960
     164 0000003e 1084          .bits           0x8421084,32
         0000003f 0842 
     165                                      ; _Str_MultOvfThTbl_Int32U[31] @ 992
     166 00000040 FFFF          .bits           0x7ffffff,32
         00000041 07FF 
     167                                      ; _Str_MultOvfThTbl_Int32U[32] @ 1024
     168 00000042 F07C          .bits           0x7c1f07c,32
         00000043 07C1 
     169                                      ; _Str_MultOvfThTbl_Int32U[33] @ 1056
     170 00000044 8787          .bits           0x7878787,32
         00000045 0787 
     171                                      ; _Str_MultOvfThTbl_Int32U[34] @ 1088
     172 00000046 7507          .bits           0x7507507,32
         00000047 0750 
     173                                      ; _Str_MultOvfThTbl_Int32U[35] @ 1120
     174 00000048 71C7          .bits           0x71c71c7,32
         00000049 071C 
     175                                      ; _Str_MultOvfThTbl_Int32U[36] @ 1152
     176              
     177              $C$DW$15        .dwtag  DW_TAG_variable
     178                      .dwattr $C$DW$15, DW_AT_name("Str_MultOvfThTbl_Int32U")
     179                      .dwattr $C$DW$15, DW_AT_TI_symbol_name("_Str_MultOvfThTbl_Int32U")
     180                      .dwattr $C$DW$15, DW_AT_type(*$C$DW$T$45)
     181                      .dwattr $C$DW$15, DW_AT_location[DW_OP_addr _Str_MultOvfThTbl_Int32U]
     182              
     183              ;       C:\ti\ccs1011\ccs\tools\compiler\ti-cgt-c2000_20.2.1.LTS\bin\ac2000.exe -@C:\\Users\\LEEKEO~1\\AppDat
TMS320C2000 Assembler PC v20.2.1 Tue Feb 16 00:15:56 2021

Copyright (c) 1996-2018 Texas Instruments Incorporated
lib_str.asm                                                          PAGE    5

     184 00000000               .sect   ".text"
     185                      .clink
     186                      .global _Str_Len
     187              
     188              $C$DW$16        .dwtag  DW_TAG_subprogram
     189                      .dwattr $C$DW$16, DW_AT_name("Str_Len")
     190                      .dwattr $C$DW$16, DW_AT_low_pc(_Str_Len)
     191                      .dwattr $C$DW$16, DW_AT_high_pc(0x00)
     192                      .dwattr $C$DW$16, DW_AT_TI_symbol_name("_Str_Len")
     193                      .dwattr $C$DW$16, DW_AT_external
     194                      .dwattr $C$DW$16, DW_AT_type(*$C$DW$T$32)
     195                      .dwattr $C$DW$16, DW_AT_TI_begin_file("C:/ti/Workspace/PLC_certificate/Software/uC-LIB/lib_str.c")
     196                      .dwattr $C$DW$16, DW_AT_TI_begin_line(0xdb)
     197                      .dwattr $C$DW$16, DW_AT_TI_begin_column(0x0d)
     198                      .dwattr $C$DW$16, DW_AT_TI_max_frame_size(-6)
     199                      .dwpsn  file "C:/ti/Workspace/PLC_certificate/Software/uC-LIB/lib_str.c",line 220,column 1,is_stmt,ad
     200              
     201                      .dwfde $C$DW$CIE, _Str_Len
     202              $C$DW$17        .dwtag  DW_TAG_formal_parameter
     203                      .dwattr $C$DW$17, DW_AT_name("pstr")
     204                      .dwattr $C$DW$17, DW_AT_TI_symbol_name("_pstr")
     205                      .dwattr $C$DW$17, DW_AT_type(*$C$DW$T$28)
     206                      .dwattr $C$DW$17, DW_AT_location[DW_OP_reg12]
     207              
     208              
     209              ;***************************************************************
     210              ;* FNAME: _Str_Len                      FR SIZE:   4           *
     211              ;*                                                             *
     212              ;* FUNCTION ENVIRONMENT                                        *
     213              ;*                                                             *
     214              ;* FUNCTION PROPERTIES                                         *
     215              ;*                            0 Parameter,  4 Auto,  0 SOE     *
     216              ;***************************************************************
     217              
     218 00000000       _Str_Len:
     219                      .dwcfi  cfa_offset, -2
     220                      .dwcfi  save_reg_to_mem, 26, 0
     221 00000000 FE04          ADDB      SP,#4                 ; [CPU_ARAU] 
     222                      .dwcfi  cfa_offset, -6
     223              $C$DW$18        .dwtag  DW_TAG_variable
     224                      .dwattr $C$DW$18, DW_AT_name("pstr")
     225                      .dwattr $C$DW$18, DW_AT_TI_symbol_name("_pstr")
     226                      .dwattr $C$DW$18, DW_AT_type(*$C$DW$T$28)
     227                      .dwattr $C$DW$18, DW_AT_location[DW_OP_breg20 -2]
     228              
     229              $C$DW$19        .dwtag  DW_TAG_variable
     230                      .dwattr $C$DW$19, DW_AT_name("len")
     231                      .dwattr $C$DW$19, DW_AT_TI_symbol_name("_len")
     232                      .dwattr $C$DW$19, DW_AT_type(*$C$DW$T$32)
     233                      .dwattr $C$DW$19, DW_AT_location[DW_OP_breg20 -4]
     234              
     235 00000001 A842          MOVL      *-SP[2],XAR4          ; [CPU_ALU] |220| 
     236                      .dwpsn  file "C:/ti/Workspace/PLC_certificate/Software/uC-LIB/lib_str.c",line 224,column 5,is_stmt,is
     237 00000002 8F40          MOVL      XAR5,#65535           ; [CPU_ARAU] |224| 
         00000003 FFFF 
TMS320C2000 Assembler PC v20.2.1 Tue Feb 16 00:15:56 2021

Copyright (c) 1996-2018 Texas Instruments Incorporated
lib_str.asm                                                          PAGE    6

     238 00000004 A0A9          MOVL      ACC,XAR5              ; [CPU_ALU] |224| 
     239              $C$DW$20        .dwtag  DW_TAG_TI_branch
     240                      .dwattr $C$DW$20, DW_AT_low_pc(0x00)
     241                      .dwattr $C$DW$20, DW_AT_name("_Str_Len_N")
     242                      .dwattr $C$DW$20, DW_AT_TI_call
     243              
     244 00000005 7640'         LCR       #_Str_Len_N           ; [CPU_ALU] |224| 
         00000006 000A 
     245                      ; call occurs [#_Str_Len_N] ; [] |224| 
     246 00000007 1E44          MOVL      *-SP[4],ACC           ; [CPU_ALU] |224| 
     247                      .dwpsn  file "C:/ti/Workspace/PLC_certificate/Software/uC-LIB/lib_str.c",line 227,column 5,is_stmt,is
     248                      .dwpsn  file "C:/ti/Workspace/PLC_certificate/Software/uC-LIB/lib_str.c",line 228,column 1,is_stmt,is
     249 00000008 FE84          SUBB      SP,#4                 ; [CPU_ARAU] 
     250                      .dwcfi  cfa_offset, -2
     251              $C$DW$21        .dwtag  DW_TAG_TI_branch
     252                      .dwattr $C$DW$21, DW_AT_low_pc(0x00)
     253                      .dwattr $C$DW$21, DW_AT_TI_return
     254              
     255 00000009 0006          LRETR     ; [CPU_ALU] 
     256                      ; return occurs ; [] 
     257                      .dwattr $C$DW$16, DW_AT_TI_end_file("C:/ti/Workspace/PLC_certificate/Software/uC-LIB/lib_str.c")
     258                      .dwattr $C$DW$16, DW_AT_TI_end_line(0xe4)
     259                      .dwattr $C$DW$16, DW_AT_TI_end_column(0x01)
     260                      .dwendentry
     261                      .dwendtag $C$DW$16
     262              
     263 0000000a               .sect   ".text"
     264                      .clink
     265                      .global _Str_Len_N
     266              
     267              $C$DW$22        .dwtag  DW_TAG_subprogram
     268                      .dwattr $C$DW$22, DW_AT_name("Str_Len_N")
     269                      .dwattr $C$DW$22, DW_AT_low_pc(_Str_Len_N)
     270                      .dwattr $C$DW$22, DW_AT_high_pc(0x00)
     271                      .dwattr $C$DW$22, DW_AT_TI_symbol_name("_Str_Len_N")
     272                      .dwattr $C$DW$22, DW_AT_external
     273                      .dwattr $C$DW$22, DW_AT_type(*$C$DW$T$32)
     274                      .dwattr $C$DW$22, DW_AT_TI_begin_file("C:/ti/Workspace/PLC_certificate/Software/uC-LIB/lib_str.c")
     275                      .dwattr $C$DW$22, DW_AT_TI_begin_line(0x116)
     276                      .dwattr $C$DW$22, DW_AT_TI_begin_column(0x0d)
     277                      .dwattr $C$DW$22, DW_AT_TI_max_frame_size(-10)
     278                      .dwpsn  file "C:/ti/Workspace/PLC_certificate/Software/uC-LIB/lib_str.c",line 280,column 1,is_stmt,ad
     279              
     280                      .dwfde $C$DW$CIE, _Str_Len_N
     281              $C$DW$23        .dwtag  DW_TAG_formal_parameter
     282                      .dwattr $C$DW$23, DW_AT_name("pstr")
     283                      .dwattr $C$DW$23, DW_AT_TI_symbol_name("_pstr")
     284                      .dwattr $C$DW$23, DW_AT_type(*$C$DW$T$28)
     285                      .dwattr $C$DW$23, DW_AT_location[DW_OP_reg12]
     286              
     287              $C$DW$24        .dwtag  DW_TAG_formal_parameter
     288                      .dwattr $C$DW$24, DW_AT_name("len_max")
     289                      .dwattr $C$DW$24, DW_AT_TI_symbol_name("_len_max")
     290                      .dwattr $C$DW$24, DW_AT_type(*$C$DW$T$32)
     291                      .dwattr $C$DW$24, DW_AT_location[DW_OP_reg0]
TMS320C2000 Assembler PC v20.2.1 Tue Feb 16 00:15:56 2021

Copyright (c) 1996-2018 Texas Instruments Incorporated
lib_str.asm                                                          PAGE    7

     292              
     293              
     294              ;***************************************************************
     295              ;* FNAME: _Str_Len_N                    FR SIZE:   8           *
     296              ;*                                                             *
     297              ;* FUNCTION ENVIRONMENT                                        *
     298              ;*                                                             *
     299              ;* FUNCTION PROPERTIES                                         *
     300              ;*                            0 Parameter,  8 Auto,  0 SOE     *
     301              ;***************************************************************
     302              
     303 0000000a       _Str_Len_N:
     304                      .dwcfi  cfa_offset, -2
     305                      .dwcfi  save_reg_to_mem, 26, 0
     306 0000000a FE08          ADDB      SP,#8                 ; [CPU_ARAU] 
     307                      .dwcfi  cfa_offset, -10
     308              $C$DW$25        .dwtag  DW_TAG_variable
     309                      .dwattr $C$DW$25, DW_AT_name("pstr")
     310                      .dwattr $C$DW$25, DW_AT_TI_symbol_name("_pstr")
     311                      .dwattr $C$DW$25, DW_AT_type(*$C$DW$T$28)
     312                      .dwattr $C$DW$25, DW_AT_location[DW_OP_breg20 -2]
     313              
     314              $C$DW$26        .dwtag  DW_TAG_variable
     315                      .dwattr $C$DW$26, DW_AT_name("len_max")
     316                      .dwattr $C$DW$26, DW_AT_TI_symbol_name("_len_max")
     317                      .dwattr $C$DW$26, DW_AT_type(*$C$DW$T$32)
     318                      .dwattr $C$DW$26, DW_AT_location[DW_OP_breg20 -4]
     319              
     320              $C$DW$27        .dwtag  DW_TAG_variable
     321                      .dwattr $C$DW$27, DW_AT_name("pstr_len")
     322                      .dwattr $C$DW$27, DW_AT_TI_symbol_name("_pstr_len")
     323                      .dwattr $C$DW$27, DW_AT_type(*$C$DW$T$28)
     324                      .dwattr $C$DW$27, DW_AT_location[DW_OP_breg20 -6]
     325              
     326              $C$DW$28        .dwtag  DW_TAG_variable
     327                      .dwattr $C$DW$28, DW_AT_name("len")
     328                      .dwattr $C$DW$28, DW_AT_TI_symbol_name("_len")
     329                      .dwattr $C$DW$28, DW_AT_type(*$C$DW$T$32)
     330                      .dwattr $C$DW$28, DW_AT_location[DW_OP_breg20 -8]
     331              
     332 0000000b 1E44          MOVL      *-SP[4],ACC           ; [CPU_ALU] |280| 
     333 0000000c A842          MOVL      *-SP[2],XAR4          ; [CPU_ALU] |280| 
     334                      .dwpsn  file "C:/ti/Workspace/PLC_certificate/Software/uC-LIB/lib_str.c",line 285,column 5,is_stmt,is
     335 0000000d 0642          MOVL      ACC,*-SP[2]           ; [CPU_ALU] |285| 
     336 0000000e 1E46          MOVL      *-SP[6],ACC           ; [CPU_ALU] |285| 
     337                      .dwpsn  file "C:/ti/Workspace/PLC_certificate/Software/uC-LIB/lib_str.c",line 286,column 5,is_stmt,is
     338 0000000f 0200          MOVB      ACC,#0                ; [CPU_ALU] |286| 
     339 00000010 1E48          MOVL      *-SP[8],ACC           ; [CPU_ALU] |286| 
     340                      .dwpsn  file "C:/ti/Workspace/PLC_certificate/Software/uC-LIB/lib_str.c",line 287,column 5,is_stmt,is
     341 00000011 6F07          B         $C$L2,UNC             ; [CPU_ALU] |287| 
     342                      ; branch occurs ; [] |287| 
     343 00000012       $C$L1:    
     344                      .dwpsn  file "C:/ti/Workspace/PLC_certificate/Software/uC-LIB/lib_str.c",line 290,column 9,is_stmt,is
     345 00000012 0201          MOVB      ACC,#1                ; [CPU_ALU] |290| 
     346 00000013 0746          ADDL      ACC,*-SP[6]           ; [CPU_ALU] |290| 
TMS320C2000 Assembler PC v20.2.1 Tue Feb 16 00:15:56 2021

Copyright (c) 1996-2018 Texas Instruments Incorporated
lib_str.asm                                                          PAGE    8

     347 00000014 1E46          MOVL      *-SP[6],ACC           ; [CPU_ALU] |290| 
     348                      .dwpsn  file "C:/ti/Workspace/PLC_certificate/Software/uC-LIB/lib_str.c",line 291,column 9,is_stmt,is
     349 00000015 0201          MOVB      ACC,#1                ; [CPU_ALU] |291| 
     350 00000016 0748          ADDL      ACC,*-SP[8]           ; [CPU_ALU] |291| 
     351 00000017 1E48          MOVL      *-SP[8],ACC           ; [CPU_ALU] |291| 
     352 00000018       $C$L2:    
     353                      .dwpsn  file "C:/ti/Workspace/PLC_certificate/Software/uC-LIB/lib_str.c",line 287,column 12,is_stmt,i
     354 00000018 0646          MOVL      ACC,*-SP[6]           ; [CPU_ALU] |287| 
     355 00000019 6107          B         $C$L3,EQ              ; [CPU_ALU] |287| 
     356                      ; branchcc occurs ; [] |287| 
     357 0000001a 8A46          MOVL      XAR4,*-SP[6]          ; [CPU_ALU] |287| 
     358 0000001b 92C4          MOV       AL,*+XAR4[0]          ; [CPU_ALU] |287| 
     359 0000001c 6104          B         $C$L3,EQ              ; [CPU_ALU] |287| 
     360                      ; branchcc occurs ; [] |287| 
     361 0000001d 0644          MOVL      ACC,*-SP[4]           ; [CPU_ALU] |287| 
     362 0000001e 0F48          CMPL      ACC,*-SP[8]           ; [CPU_ALU] |287| 
     363 0000001f 66F3          B         $C$L1,HI              ; [CPU_ALU] |287| 
     364                      ; branchcc occurs ; [] |287| 
     365 00000020       $C$L3:    
     366                      .dwpsn  file "C:/ti/Workspace/PLC_certificate/Software/uC-LIB/lib_str.c",line 294,column 5,is_stmt,is
     367 00000020 0648          MOVL      ACC,*-SP[8]           ; [CPU_ALU] |294| 
     368                      .dwpsn  file "C:/ti/Workspace/PLC_certificate/Software/uC-LIB/lib_str.c",line 295,column 1,is_stmt,is
     369 00000021 FE88          SUBB      SP,#8                 ; [CPU_ARAU] 
     370                      .dwcfi  cfa_offset, -2
     371              $C$DW$29        .dwtag  DW_TAG_TI_branch
     372                      .dwattr $C$DW$29, DW_AT_low_pc(0x00)
     373                      .dwattr $C$DW$29, DW_AT_TI_return
     374              
     375 00000022 0006          LRETR     ; [CPU_ALU] 
     376                      ; return occurs ; [] 
     377                      .dwattr $C$DW$22, DW_AT_TI_end_file("C:/ti/Workspace/PLC_certificate/Software/uC-LIB/lib_str.c")
     378                      .dwattr $C$DW$22, DW_AT_TI_end_line(0x127)
     379                      .dwattr $C$DW$22, DW_AT_TI_end_column(0x01)
     380                      .dwendentry
     381                      .dwendtag $C$DW$22
     382              
     383 00000023               .sect   ".text"
     384                      .clink
     385                      .global _Str_Copy
     386              
     387              $C$DW$30        .dwtag  DW_TAG_subprogram
     388                      .dwattr $C$DW$30, DW_AT_name("Str_Copy")
     389                      .dwattr $C$DW$30, DW_AT_low_pc(_Str_Copy)
     390                      .dwattr $C$DW$30, DW_AT_high_pc(0x00)
     391                      .dwattr $C$DW$30, DW_AT_TI_symbol_name("_Str_Copy")
     392                      .dwattr $C$DW$30, DW_AT_external
     393                      .dwattr $C$DW$30, DW_AT_type(*$C$DW$T$38)
     394                      .dwattr $C$DW$30, DW_AT_TI_begin_file("C:/ti/Workspace/PLC_certificate/Software/uC-LIB/lib_str.c")
     395                      .dwattr $C$DW$30, DW_AT_TI_begin_line(0x15e)
     396                      .dwattr $C$DW$30, DW_AT_TI_begin_column(0x0c)
     397                      .dwattr $C$DW$30, DW_AT_TI_max_frame_size(-8)
     398                      .dwpsn  file "C:/ti/Workspace/PLC_certificate/Software/uC-LIB/lib_str.c",line 352,column 1,is_stmt,ad
     399              
     400                      .dwfde $C$DW$CIE, _Str_Copy
     401              $C$DW$31        .dwtag  DW_TAG_formal_parameter
TMS320C2000 Assembler PC v20.2.1 Tue Feb 16 00:15:56 2021

Copyright (c) 1996-2018 Texas Instruments Incorporated
lib_str.asm                                                          PAGE    9

     402                      .dwattr $C$DW$31, DW_AT_name("pstr_dest")
     403                      .dwattr $C$DW$31, DW_AT_TI_symbol_name("_pstr_dest")
     404                      .dwattr $C$DW$31, DW_AT_type(*$C$DW$T$38)
     405                      .dwattr $C$DW$31, DW_AT_location[DW_OP_reg12]
     406              
     407              $C$DW$32        .dwtag  DW_TAG_formal_parameter
     408                      .dwattr $C$DW$32, DW_AT_name("pstr_src")
     409                      .dwattr $C$DW$32, DW_AT_TI_symbol_name("_pstr_src")
     410                      .dwattr $C$DW$32, DW_AT_type(*$C$DW$T$28)
     411                      .dwattr $C$DW$32, DW_AT_location[DW_OP_reg14]
     412              
     413              
     414              ;***************************************************************
     415              ;* FNAME: _Str_Copy                     FR SIZE:   6           *
     416              ;*                                                             *
     417              ;* FUNCTION ENVIRONMENT                                        *
     418              ;*                                                             *
     419              ;* FUNCTION PROPERTIES                                         *
     420              ;*                            0 Parameter,  6 Auto,  0 SOE     *
     421              ;***************************************************************
     422              
     423 00000023       _Str_Copy:
     424                      .dwcfi  cfa_offset, -2
     425                      .dwcfi  save_reg_to_mem, 26, 0
     426 00000023 FE06          ADDB      SP,#6                 ; [CPU_ARAU] 
     427                      .dwcfi  cfa_offset, -8
     428              $C$DW$33        .dwtag  DW_TAG_variable
     429                      .dwattr $C$DW$33, DW_AT_name("pstr_dest")
     430                      .dwattr $C$DW$33, DW_AT_TI_symbol_name("_pstr_dest")
     431                      .dwattr $C$DW$33, DW_AT_type(*$C$DW$T$38)
     432                      .dwattr $C$DW$33, DW_AT_location[DW_OP_breg20 -2]
     433              
     434              $C$DW$34        .dwtag  DW_TAG_variable
     435                      .dwattr $C$DW$34, DW_AT_name("pstr_src")
     436                      .dwattr $C$DW$34, DW_AT_TI_symbol_name("_pstr_src")
     437                      .dwattr $C$DW$34, DW_AT_type(*$C$DW$T$28)
     438                      .dwattr $C$DW$34, DW_AT_location[DW_OP_breg20 -4]
     439              
     440              $C$DW$35        .dwtag  DW_TAG_variable
     441                      .dwattr $C$DW$35, DW_AT_name("pstr_rtn")
     442                      .dwattr $C$DW$35, DW_AT_TI_symbol_name("_pstr_rtn")
     443                      .dwattr $C$DW$35, DW_AT_type(*$C$DW$T$38)
     444                      .dwattr $C$DW$35, DW_AT_location[DW_OP_breg20 -6]
     445              
     446 00000024 A044          MOVL      *-SP[4],XAR5          ; [CPU_ALU] |352| 
     447 00000025 A842          MOVL      *-SP[2],XAR4          ; [CPU_ALU] |352| 
     448                      .dwpsn  file "C:/ti/Workspace/PLC_certificate/Software/uC-LIB/lib_str.c",line 356,column 5,is_stmt,is
     449 00000026 7680          MOVL      XAR6,#65535           ; [CPU_ARAU] |356| 
         00000027 FFFF 
     450 00000028 06A6          MOVL      ACC,XAR6              ; [CPU_ALU] |356| 
     451              $C$DW$36        .dwtag  DW_TAG_TI_branch
     452                      .dwattr $C$DW$36, DW_AT_low_pc(0x00)
     453                      .dwattr $C$DW$36, DW_AT_name("_Str_Copy_N")
     454                      .dwattr $C$DW$36, DW_AT_TI_call
     455              
TMS320C2000 Assembler PC v20.2.1 Tue Feb 16 00:15:56 2021

Copyright (c) 1996-2018 Texas Instruments Incorporated
lib_str.asm                                                          PAGE   10

     456 00000029 7640'         LCR       #_Str_Copy_N          ; [CPU_ALU] |356| 
         0000002a 002E 
     457                      ; call occurs [#_Str_Copy_N] ; [] |356| 
     458 0000002b A846          MOVL      *-SP[6],XAR4          ; [CPU_ALU] |356| 
     459                      .dwpsn  file "C:/ti/Workspace/PLC_certificate/Software/uC-LIB/lib_str.c",line 360,column 5,is_stmt,is
     460                      .dwpsn  file "C:/ti/Workspace/PLC_certificate/Software/uC-LIB/lib_str.c",line 361,column 1,is_stmt,is
     461 0000002c FE86          SUBB      SP,#6                 ; [CPU_ARAU] 
     462                      .dwcfi  cfa_offset, -2
     463              $C$DW$37        .dwtag  DW_TAG_TI_branch
     464                      .dwattr $C$DW$37, DW_AT_low_pc(0x00)
     465                      .dwattr $C$DW$37, DW_AT_TI_return
     466              
     467 0000002d 0006          LRETR     ; [CPU_ALU] 
     468                      ; return occurs ; [] 
     469                      .dwattr $C$DW$30, DW_AT_TI_end_file("C:/ti/Workspace/PLC_certificate/Software/uC-LIB/lib_str.c")
     470                      .dwattr $C$DW$30, DW_AT_TI_end_line(0x169)
     471                      .dwattr $C$DW$30, DW_AT_TI_end_column(0x01)
     472                      .dwendentry
     473                      .dwendtag $C$DW$30
     474              
     475 0000002e               .sect   ".text"
     476                      .clink
     477                      .global _Str_Copy_N
     478              
     479              $C$DW$38        .dwtag  DW_TAG_subprogram
     480                      .dwattr $C$DW$38, DW_AT_name("Str_Copy_N")
     481                      .dwattr $C$DW$38, DW_AT_low_pc(_Str_Copy_N)
     482                      .dwattr $C$DW$38, DW_AT_high_pc(0x00)
     483                      .dwattr $C$DW$38, DW_AT_TI_symbol_name("_Str_Copy_N")
     484                      .dwattr $C$DW$38, DW_AT_external
     485                      .dwattr $C$DW$38, DW_AT_type(*$C$DW$T$38)
     486                      .dwattr $C$DW$38, DW_AT_TI_begin_file("C:/ti/Workspace/PLC_certificate/Software/uC-LIB/lib_str.c")
     487                      .dwattr $C$DW$38, DW_AT_TI_begin_line(0x1b8)
     488                      .dwattr $C$DW$38, DW_AT_TI_begin_column(0x0c)
     489                      .dwattr $C$DW$38, DW_AT_TI_max_frame_size(-14)
     490                      .dwpsn  file "C:/ti/Workspace/PLC_certificate/Software/uC-LIB/lib_str.c",line 443,column 1,is_stmt,ad
     491              
     492                      .dwfde $C$DW$CIE, _Str_Copy_N
     493              $C$DW$39        .dwtag  DW_TAG_formal_parameter
     494                      .dwattr $C$DW$39, DW_AT_name("pstr_dest")
     495                      .dwattr $C$DW$39, DW_AT_TI_symbol_name("_pstr_dest")
     496                      .dwattr $C$DW$39, DW_AT_type(*$C$DW$T$38)
     497                      .dwattr $C$DW$39, DW_AT_location[DW_OP_reg12]
     498              
     499              $C$DW$40        .dwtag  DW_TAG_formal_parameter
     500                      .dwattr $C$DW$40, DW_AT_name("pstr_src")
     501                      .dwattr $C$DW$40, DW_AT_TI_symbol_name("_pstr_src")
     502                      .dwattr $C$DW$40, DW_AT_type(*$C$DW$T$28)
     503                      .dwattr $C$DW$40, DW_AT_location[DW_OP_reg14]
     504              
     505              $C$DW$41        .dwtag  DW_TAG_formal_parameter
     506                      .dwattr $C$DW$41, DW_AT_name("len_max")
     507                      .dwattr $C$DW$41, DW_AT_TI_symbol_name("_len_max")
     508                      .dwattr $C$DW$41, DW_AT_type(*$C$DW$T$32)
     509                      .dwattr $C$DW$41, DW_AT_location[DW_OP_reg0]
TMS320C2000 Assembler PC v20.2.1 Tue Feb 16 00:15:56 2021

Copyright (c) 1996-2018 Texas Instruments Incorporated
lib_str.asm                                                          PAGE   11

     510              
     511              
     512              ;***************************************************************
     513              ;* FNAME: _Str_Copy_N                   FR SIZE:  12           *
     514              ;*                                                             *
     515              ;* FUNCTION ENVIRONMENT                                        *
     516              ;*                                                             *
     517              ;* FUNCTION PROPERTIES                                         *
     518              ;*                            0 Parameter, 12 Auto,  0 SOE     *
     519              ;***************************************************************
     520              
     521 0000002e       _Str_Copy_N:
     522                      .dwcfi  cfa_offset, -2
     523                      .dwcfi  save_reg_to_mem, 26, 0
     524 0000002e FE0C          ADDB      SP,#12                ; [CPU_ARAU] 
     525                      .dwcfi  cfa_offset, -14
     526              $C$DW$42        .dwtag  DW_TAG_variable
     527                      .dwattr $C$DW$42, DW_AT_name("pstr_dest")
     528                      .dwattr $C$DW$42, DW_AT_TI_symbol_name("_pstr_dest")
     529                      .dwattr $C$DW$42, DW_AT_type(*$C$DW$T$38)
     530                      .dwattr $C$DW$42, DW_AT_location[DW_OP_breg20 -2]
     531              
     532              $C$DW$43        .dwtag  DW_TAG_variable
     533                      .dwattr $C$DW$43, DW_AT_name("pstr_src")
     534                      .dwattr $C$DW$43, DW_AT_TI_symbol_name("_pstr_src")
     535                      .dwattr $C$DW$43, DW_AT_type(*$C$DW$T$28)
     536                      .dwattr $C$DW$43, DW_AT_location[DW_OP_breg20 -4]
     537              
     538              $C$DW$44        .dwtag  DW_TAG_variable
     539                      .dwattr $C$DW$44, DW_AT_name("len_max")
     540                      .dwattr $C$DW$44, DW_AT_TI_symbol_name("_len_max")
     541                      .dwattr $C$DW$44, DW_AT_type(*$C$DW$T$32)
     542                      .dwattr $C$DW$44, DW_AT_location[DW_OP_breg20 -6]
     543              
     544              $C$DW$45        .dwtag  DW_TAG_variable
     545                      .dwattr $C$DW$45, DW_AT_name("pstr_copy_dest")
     546                      .dwattr $C$DW$45, DW_AT_TI_symbol_name("_pstr_copy_dest")
     547                      .dwattr $C$DW$45, DW_AT_type(*$C$DW$T$38)
     548                      .dwattr $C$DW$45, DW_AT_location[DW_OP_breg20 -8]
     549              
     550              $C$DW$46        .dwtag  DW_TAG_variable
     551                      .dwattr $C$DW$46, DW_AT_name("pstr_copy_src")
     552                      .dwattr $C$DW$46, DW_AT_TI_symbol_name("_pstr_copy_src")
     553                      .dwattr $C$DW$46, DW_AT_type(*$C$DW$T$28)
     554                      .dwattr $C$DW$46, DW_AT_location[DW_OP_breg20 -10]
     555              
     556              $C$DW$47        .dwtag  DW_TAG_variable
     557                      .dwattr $C$DW$47, DW_AT_name("len_copy")
     558                      .dwattr $C$DW$47, DW_AT_TI_symbol_name("_len_copy")
     559                      .dwattr $C$DW$47, DW_AT_type(*$C$DW$T$32)
     560                      .dwattr $C$DW$47, DW_AT_location[DW_OP_breg20 -12]
     561              
     562 0000002f 1E46          MOVL      *-SP[6],ACC           ; [CPU_ALU] |443| 
     563 00000030 A044          MOVL      *-SP[4],XAR5          ; [CPU_ALU] |443| 
     564 00000031 A842          MOVL      *-SP[2],XAR4          ; [CPU_ALU] |443| 
TMS320C2000 Assembler PC v20.2.1 Tue Feb 16 00:15:56 2021

Copyright (c) 1996-2018 Texas Instruments Incorporated
lib_str.asm                                                          PAGE   12

     565                      .dwpsn  file "C:/ti/Workspace/PLC_certificate/Software/uC-LIB/lib_str.c",line 449,column 5,is_stmt,is
     566 00000032 0642          MOVL      ACC,*-SP[2]           ; [CPU_ALU] |449| 
     567 00000033 6003          B         $C$L4,NEQ             ; [CPU_ALU] |449| 
     568                      ; branchcc occurs ; [] |449| 
     569                      .dwpsn  file "C:/ti/Workspace/PLC_certificate/Software/uC-LIB/lib_str.c",line 450,column 9,is_stmt,is
     570 00000034 D400          MOVB      XAR4,#0               ; [CPU_ALU] |450| 
     571 00000035 6F2F          B         $C$L12,UNC            ; [CPU_ALU] |450| 
     572                      ; branch occurs ; [] |450| 
     573 00000036       $C$L4:    
     574                      .dwpsn  file "C:/ti/Workspace/PLC_certificate/Software/uC-LIB/lib_str.c",line 452,column 5,is_stmt,is
     575 00000036 0644          MOVL      ACC,*-SP[4]           ; [CPU_ALU] |452| 
     576 00000037 6003          B         $C$L5,NEQ             ; [CPU_ALU] |452| 
     577                      ; branchcc occurs ; [] |452| 
     578                      .dwpsn  file "C:/ti/Workspace/PLC_certificate/Software/uC-LIB/lib_str.c",line 453,column 9,is_stmt,is
     579 00000038 D400          MOVB      XAR4,#0               ; [CPU_ALU] |453| 
     580 00000039 6F2B          B         $C$L12,UNC            ; [CPU_ALU] |453| 
     581                      ; branch occurs ; [] |453| 
     582 0000003a       $C$L5:    
     583                      .dwpsn  file "C:/ti/Workspace/PLC_certificate/Software/uC-LIB/lib_str.c",line 457,column 5,is_stmt,is
     584 0000003a 0642          MOVL      ACC,*-SP[2]           ; [CPU_ALU] |457| 
     585 0000003b 1E48          MOVL      *-SP[8],ACC           ; [CPU_ALU] |457| 
     586                      .dwpsn  file "C:/ti/Workspace/PLC_certificate/Software/uC-LIB/lib_str.c",line 458,column 5,is_stmt,is
     587 0000003c 0644          MOVL      ACC,*-SP[4]           ; [CPU_ALU] |458| 
     588 0000003d 1E4A          MOVL      *-SP[10],ACC          ; [CPU_ALU] |458| 
     589                      .dwpsn  file "C:/ti/Workspace/PLC_certificate/Software/uC-LIB/lib_str.c",line 459,column 5,is_stmt,is
     590 0000003e 0200          MOVB      ACC,#0                ; [CPU_ALU] |459| 
     591 0000003f 1E4C          MOVL      *-SP[12],ACC          ; [CPU_ALU] |459| 
     592                      .dwpsn  file "C:/ti/Workspace/PLC_certificate/Software/uC-LIB/lib_str.c",line 461,column 5,is_stmt,is
     593 00000040 6F0E          B         $C$L7,UNC             ; [CPU_ALU] |461| 
     594                      ; branch occurs ; [] |461| 
     595 00000041       $C$L6:    
     596                      .dwpsn  file "C:/ti/Workspace/PLC_certificate/Software/uC-LIB/lib_str.c",line 465,column 8,is_stmt,is
     597 00000041 C54A          MOVL      XAR7,*-SP[10]         ; [CPU_ALU] |465| 
     598 00000042 8A48          MOVL      XAR4,*-SP[8]          ; [CPU_ALU] |465| 
     599 00000043 92C7          MOV       AL,*+XAR7[0]          ; [CPU_ALU] |465| 
     600 00000044 96C4          MOV       *+XAR4[0],AL          ; [CPU_ALU] |465| 
     601                      .dwpsn  file "C:/ti/Workspace/PLC_certificate/Software/uC-LIB/lib_str.c",line 466,column 9,is_stmt,is
     602 00000045 0201          MOVB      ACC,#1                ; [CPU_ALU] |466| 
     603 00000046 0748          ADDL      ACC,*-SP[8]           ; [CPU_ALU] |466| 
     604 00000047 1E48          MOVL      *-SP[8],ACC           ; [CPU_ALU] |466| 
     605                      .dwpsn  file "C:/ti/Workspace/PLC_certificate/Software/uC-LIB/lib_str.c",line 467,column 9,is_stmt,is
     606 00000048 0201          MOVB      ACC,#1                ; [CPU_ALU] |467| 
     607 00000049 074A          ADDL      ACC,*-SP[10]          ; [CPU_ALU] |467| 
     608 0000004a 1E4A          MOVL      *-SP[10],ACC          ; [CPU_ALU] |467| 
     609                      .dwpsn  file "C:/ti/Workspace/PLC_certificate/Software/uC-LIB/lib_str.c",line 468,column 9,is_stmt,is
     610 0000004b 0201          MOVB      ACC,#1                ; [CPU_ALU] |468| 
     611 0000004c 074C          ADDL      ACC,*-SP[12]          ; [CPU_ALU] |468| 
     612 0000004d 1E4C          MOVL      *-SP[12],ACC          ; [CPU_ALU] |468| 
     613 0000004e       $C$L7:    
     614                      .dwpsn  file "C:/ti/Workspace/PLC_certificate/Software/uC-LIB/lib_str.c",line 461,column 12,is_stmt,i
     615 0000004e 0648          MOVL      ACC,*-SP[8]           ; [CPU_ALU] |461| 
     616 0000004f 6109          B         $C$L8,EQ              ; [CPU_ALU] |461| 
     617                      ; branchcc occurs ; [] |461| 
     618 00000050 064A          MOVL      ACC,*-SP[10]          ; [CPU_ALU] |461| 
     619 00000051 6107          B         $C$L8,EQ              ; [CPU_ALU] |461| 
TMS320C2000 Assembler PC v20.2.1 Tue Feb 16 00:15:56 2021

Copyright (c) 1996-2018 Texas Instruments Incorporated
lib_str.asm                                                          PAGE   13

     620                      ; branchcc occurs ; [] |461| 
     621 00000052 8A4A          MOVL      XAR4,*-SP[10]         ; [CPU_ALU] |461| 
     622 00000053 92C4          MOV       AL,*+XAR4[0]          ; [CPU_ALU] |461| 
     623 00000054 6104          B         $C$L8,EQ              ; [CPU_ALU] |461| 
     624                      ; branchcc occurs ; [] |461| 
     625 00000055 0646          MOVL      ACC,*-SP[6]           ; [CPU_ALU] |461| 
     626 00000056 0F4C          CMPL      ACC,*-SP[12]          ; [CPU_ALU] |461| 
     627 00000057 66EA          B         $C$L6,HI              ; [CPU_ALU] |461| 
     628                      ; branchcc occurs ; [] |461| 
     629 00000058       $C$L8:    
     630                      .dwpsn  file "C:/ti/Workspace/PLC_certificate/Software/uC-LIB/lib_str.c",line 471,column 5,is_stmt,is
     631 00000058 0648          MOVL      ACC,*-SP[8]           ; [CPU_ALU] |471| 
     632 00000059 6103          B         $C$L9,EQ              ; [CPU_ALU] |471| 
     633                      ; branchcc occurs ; [] |471| 
     634 0000005a 064A          MOVL      ACC,*-SP[10]          ; [CPU_ALU] |471| 
     635 0000005b 6003          B         $C$L10,NEQ            ; [CPU_ALU] |471| 
     636                      ; branchcc occurs ; [] |471| 
     637 0000005c       $C$L9:    
     638                      .dwpsn  file "C:/ti/Workspace/PLC_certificate/Software/uC-LIB/lib_str.c",line 473,column 10,is_stmt,i
     639 0000005c D400          MOVB      XAR4,#0               ; [CPU_ALU] |473| 
     640 0000005d 6F07          B         $C$L12,UNC            ; [CPU_ALU] |473| 
     641                      ; branch occurs ; [] |473| 
     642 0000005e       $C$L10:    
     643                      .dwpsn  file "C:/ti/Workspace/PLC_certificate/Software/uC-LIB/lib_str.c",line 476,column 5,is_stmt,is
     644 0000005e 0646          MOVL      ACC,*-SP[6]           ; [CPU_ALU] |476| 
     645 0000005f 0F4C          CMPL      ACC,*-SP[12]          ; [CPU_ALU] |476| 
     646 00000060 6903          B         $C$L11,LOS            ; [CPU_ALU] |476| 
     647                      ; branchcc occurs ; [] |476| 
     648                      .dwpsn  file "C:/ti/Workspace/PLC_certificate/Software/uC-LIB/lib_str.c",line 477,column 8,is_stmt,is
     649 00000061 8A48          MOVL      XAR4,*-SP[8]          ; [CPU_ALU] |477| 
     650 00000062 2BC4          MOV       *+XAR4[0],#0          ; [CPU_ALU] |477| 
     651 00000063       $C$L11:    
     652                      .dwpsn  file "C:/ti/Workspace/PLC_certificate/Software/uC-LIB/lib_str.c",line 481,column 5,is_stmt,is
     653 00000063 8A42          MOVL      XAR4,*-SP[2]          ; [CPU_ALU] |481| 
     654 00000064       $C$L12:    
     655                      .dwpsn  file "C:/ti/Workspace/PLC_certificate/Software/uC-LIB/lib_str.c",line 482,column 1,is_stmt,is
     656 00000064 FE8C          SUBB      SP,#12                ; [CPU_ARAU] 
     657                      .dwcfi  cfa_offset, -2
     658              $C$DW$48        .dwtag  DW_TAG_TI_branch
     659                      .dwattr $C$DW$48, DW_AT_low_pc(0x00)
     660                      .dwattr $C$DW$48, DW_AT_TI_return
     661              
     662 00000065 0006          LRETR     ; [CPU_ALU] 
     663                      ; return occurs ; [] 
     664                      .dwattr $C$DW$38, DW_AT_TI_end_file("C:/ti/Workspace/PLC_certificate/Software/uC-LIB/lib_str.c")
     665                      .dwattr $C$DW$38, DW_AT_TI_end_line(0x1e2)
     666                      .dwattr $C$DW$38, DW_AT_TI_end_column(0x01)
     667                      .dwendentry
     668                      .dwendtag $C$DW$38
     669              
     670 00000066               .sect   ".text"
     671                      .clink
     672                      .global _Str_Cat
     673              
     674              $C$DW$49        .dwtag  DW_TAG_subprogram
TMS320C2000 Assembler PC v20.2.1 Tue Feb 16 00:15:56 2021

Copyright (c) 1996-2018 Texas Instruments Incorporated
lib_str.asm                                                          PAGE   14

     675                      .dwattr $C$DW$49, DW_AT_name("Str_Cat")
     676                      .dwattr $C$DW$49, DW_AT_low_pc(_Str_Cat)
     677                      .dwattr $C$DW$49, DW_AT_high_pc(0x00)
     678                      .dwattr $C$DW$49, DW_AT_TI_symbol_name("_Str_Cat")
     679                      .dwattr $C$DW$49, DW_AT_external
     680                      .dwattr $C$DW$49, DW_AT_type(*$C$DW$T$38)
     681                      .dwattr $C$DW$49, DW_AT_TI_begin_file("C:/ti/Workspace/PLC_certificate/Software/uC-LIB/lib_str.c")
     682                      .dwattr $C$DW$49, DW_AT_TI_begin_line(0x21d)
     683                      .dwattr $C$DW$49, DW_AT_TI_begin_column(0x0c)
     684                      .dwattr $C$DW$49, DW_AT_TI_max_frame_size(-8)
     685                      .dwpsn  file "C:/ti/Workspace/PLC_certificate/Software/uC-LIB/lib_str.c",line 543,column 1,is_stmt,ad
     686              
     687                      .dwfde $C$DW$CIE, _Str_Cat
     688              $C$DW$50        .dwtag  DW_TAG_formal_parameter
     689                      .dwattr $C$DW$50, DW_AT_name("pstr_dest")
     690                      .dwattr $C$DW$50, DW_AT_TI_symbol_name("_pstr_dest")
     691                      .dwattr $C$DW$50, DW_AT_type(*$C$DW$T$38)
     692                      .dwattr $C$DW$50, DW_AT_location[DW_OP_reg12]
     693              
     694              $C$DW$51        .dwtag  DW_TAG_formal_parameter
     695                      .dwattr $C$DW$51, DW_AT_name("pstr_cat")
     696                      .dwattr $C$DW$51, DW_AT_TI_symbol_name("_pstr_cat")
     697                      .dwattr $C$DW$51, DW_AT_type(*$C$DW$T$28)
     698                      .dwattr $C$DW$51, DW_AT_location[DW_OP_reg14]
     699              
     700              
     701              ;***************************************************************
     702              ;* FNAME: _Str_Cat                      FR SIZE:   6           *
     703              ;*                                                             *
     704              ;* FUNCTION ENVIRONMENT                                        *
     705              ;*                                                             *
     706              ;* FUNCTION PROPERTIES                                         *
     707              ;*                            0 Parameter,  6 Auto,  0 SOE     *
     708              ;***************************************************************
     709              
     710 00000066       _Str_Cat:
     711                      .dwcfi  cfa_offset, -2
     712                      .dwcfi  save_reg_to_mem, 26, 0
     713 00000066 FE06          ADDB      SP,#6                 ; [CPU_ARAU] 
     714                      .dwcfi  cfa_offset, -8
     715              $C$DW$52        .dwtag  DW_TAG_variable
     716                      .dwattr $C$DW$52, DW_AT_name("pstr_dest")
     717                      .dwattr $C$DW$52, DW_AT_TI_symbol_name("_pstr_dest")
     718                      .dwattr $C$DW$52, DW_AT_type(*$C$DW$T$38)
     719                      .dwattr $C$DW$52, DW_AT_location[DW_OP_breg20 -2]
     720              
     721              $C$DW$53        .dwtag  DW_TAG_variable
     722                      .dwattr $C$DW$53, DW_AT_name("pstr_cat")
     723                      .dwattr $C$DW$53, DW_AT_TI_symbol_name("_pstr_cat")
     724                      .dwattr $C$DW$53, DW_AT_type(*$C$DW$T$28)
     725                      .dwattr $C$DW$53, DW_AT_location[DW_OP_breg20 -4]
     726              
     727              $C$DW$54        .dwtag  DW_TAG_variable
     728                      .dwattr $C$DW$54, DW_AT_name("pstr_rtn")
     729                      .dwattr $C$DW$54, DW_AT_TI_symbol_name("_pstr_rtn")
TMS320C2000 Assembler PC v20.2.1 Tue Feb 16 00:15:56 2021

Copyright (c) 1996-2018 Texas Instruments Incorporated
lib_str.asm                                                          PAGE   15

     730                      .dwattr $C$DW$54, DW_AT_type(*$C$DW$T$38)
     731                      .dwattr $C$DW$54, DW_AT_location[DW_OP_breg20 -6]
     732              
     733 00000067 A044          MOVL      *-SP[4],XAR5          ; [CPU_ALU] |543| 
     734 00000068 A842          MOVL      *-SP[2],XAR4          ; [CPU_ALU] |543| 
     735                      .dwpsn  file "C:/ti/Workspace/PLC_certificate/Software/uC-LIB/lib_str.c",line 547,column 5,is_stmt,is
     736 00000069 7680          MOVL      XAR6,#65535           ; [CPU_ARAU] |547| 
         0000006a FFFF 
     737 0000006b 06A6          MOVL      ACC,XAR6              ; [CPU_ALU] |547| 
     738              $C$DW$55        .dwtag  DW_TAG_TI_branch
     739                      .dwattr $C$DW$55, DW_AT_low_pc(0x00)
     740                      .dwattr $C$DW$55, DW_AT_name("_Str_Cat_N")
     741                      .dwattr $C$DW$55, DW_AT_TI_call
     742              
     743 0000006c 7640'         LCR       #_Str_Cat_N           ; [CPU_ALU] |547| 
         0000006d 0071 
     744                      ; call occurs [#_Str_Cat_N] ; [] |547| 
     745 0000006e A846          MOVL      *-SP[6],XAR4          ; [CPU_ALU] |547| 
     746                      .dwpsn  file "C:/ti/Workspace/PLC_certificate/Software/uC-LIB/lib_str.c",line 551,column 5,is_stmt,is
     747                      .dwpsn  file "C:/ti/Workspace/PLC_certificate/Software/uC-LIB/lib_str.c",line 552,column 1,is_stmt,is
     748 0000006f FE86          SUBB      SP,#6                 ; [CPU_ARAU] 
     749                      .dwcfi  cfa_offset, -2
     750              $C$DW$56        .dwtag  DW_TAG_TI_branch
     751                      .dwattr $C$DW$56, DW_AT_low_pc(0x00)
     752                      .dwattr $C$DW$56, DW_AT_TI_return
     753              
     754 00000070 0006          LRETR     ; [CPU_ALU] 
     755                      ; return occurs ; [] 
     756                      .dwattr $C$DW$49, DW_AT_TI_end_file("C:/ti/Workspace/PLC_certificate/Software/uC-LIB/lib_str.c")
     757                      .dwattr $C$DW$49, DW_AT_TI_end_line(0x228)
     758                      .dwattr $C$DW$49, DW_AT_TI_end_column(0x01)
     759                      .dwendentry
     760                      .dwendtag $C$DW$49
     761              
     762 00000071               .sect   ".text"
     763                      .clink
     764                      .global _Str_Cat_N
     765              
     766              $C$DW$57        .dwtag  DW_TAG_subprogram
     767                      .dwattr $C$DW$57, DW_AT_name("Str_Cat_N")
     768                      .dwattr $C$DW$57, DW_AT_low_pc(_Str_Cat_N)
     769                      .dwattr $C$DW$57, DW_AT_high_pc(0x00)
     770                      .dwattr $C$DW$57, DW_AT_TI_symbol_name("_Str_Cat_N")
     771                      .dwattr $C$DW$57, DW_AT_external
     772                      .dwattr $C$DW$57, DW_AT_type(*$C$DW$T$38)
     773                      .dwattr $C$DW$57, DW_AT_TI_begin_file("C:/ti/Workspace/PLC_certificate/Software/uC-LIB/lib_str.c")
     774                      .dwattr $C$DW$57, DW_AT_TI_begin_line(0x26f)
     775                      .dwattr $C$DW$57, DW_AT_TI_begin_column(0x0c)
     776                      .dwattr $C$DW$57, DW_AT_TI_max_frame_size(-14)
     777                      .dwpsn  file "C:/ti/Workspace/PLC_certificate/Software/uC-LIB/lib_str.c",line 626,column 1,is_stmt,ad
     778              
     779                      .dwfde $C$DW$CIE, _Str_Cat_N
     780              $C$DW$58        .dwtag  DW_TAG_formal_parameter
     781                      .dwattr $C$DW$58, DW_AT_name("pstr_dest")
     782                      .dwattr $C$DW$58, DW_AT_TI_symbol_name("_pstr_dest")
TMS320C2000 Assembler PC v20.2.1 Tue Feb 16 00:15:56 2021

Copyright (c) 1996-2018 Texas Instruments Incorporated
lib_str.asm                                                          PAGE   16

     783                      .dwattr $C$DW$58, DW_AT_type(*$C$DW$T$38)
     784                      .dwattr $C$DW$58, DW_AT_location[DW_OP_reg12]
     785              
     786              $C$DW$59        .dwtag  DW_TAG_formal_parameter
     787                      .dwattr $C$DW$59, DW_AT_name("pstr_cat")
     788                      .dwattr $C$DW$59, DW_AT_TI_symbol_name("_pstr_cat")
     789                      .dwattr $C$DW$59, DW_AT_type(*$C$DW$T$28)
     790                      .dwattr $C$DW$59, DW_AT_location[DW_OP_reg14]
     791              
     792              $C$DW$60        .dwtag  DW_TAG_formal_parameter
     793                      .dwattr $C$DW$60, DW_AT_name("len_max")
     794                      .dwattr $C$DW$60, DW_AT_TI_symbol_name("_len_max")
     795                      .dwattr $C$DW$60, DW_AT_type(*$C$DW$T$32)
     796                      .dwattr $C$DW$60, DW_AT_location[DW_OP_reg0]
     797              
     798              
     799              ;***************************************************************
     800              ;* FNAME: _Str_Cat_N                    FR SIZE:  12           *
     801              ;*                                                             *
     802              ;* FUNCTION ENVIRONMENT                                        *
     803              ;*                                                             *
     804              ;* FUNCTION PROPERTIES                                         *
     805              ;*                            0 Parameter, 12 Auto,  0 SOE     *
     806              ;***************************************************************
     807              
     808 00000071       _Str_Cat_N:
     809                      .dwcfi  cfa_offset, -2
     810                      .dwcfi  save_reg_to_mem, 26, 0
     811 00000071 FE0C          ADDB      SP,#12                ; [CPU_ARAU] 
     812                      .dwcfi  cfa_offset, -14
     813              $C$DW$61        .dwtag  DW_TAG_variable
     814                      .dwattr $C$DW$61, DW_AT_name("pstr_dest")
     815                      .dwattr $C$DW$61, DW_AT_TI_symbol_name("_pstr_dest")
     816                      .dwattr $C$DW$61, DW_AT_type(*$C$DW$T$38)
     817                      .dwattr $C$DW$61, DW_AT_location[DW_OP_breg20 -2]
     818              
     819              $C$DW$62        .dwtag  DW_TAG_variable
     820                      .dwattr $C$DW$62, DW_AT_name("pstr_cat")
     821                      .dwattr $C$DW$62, DW_AT_TI_symbol_name("_pstr_cat")
     822                      .dwattr $C$DW$62, DW_AT_type(*$C$DW$T$28)
     823                      .dwattr $C$DW$62, DW_AT_location[DW_OP_breg20 -4]
     824              
     825              $C$DW$63        .dwtag  DW_TAG_variable
     826                      .dwattr $C$DW$63, DW_AT_name("len_max")
     827                      .dwattr $C$DW$63, DW_AT_TI_symbol_name("_len_max")
     828                      .dwattr $C$DW$63, DW_AT_type(*$C$DW$T$32)
     829                      .dwattr $C$DW$63, DW_AT_location[DW_OP_breg20 -6]
     830              
     831              $C$DW$64        .dwtag  DW_TAG_variable
     832                      .dwattr $C$DW$64, DW_AT_name("pstr_cat_dest")
     833                      .dwattr $C$DW$64, DW_AT_TI_symbol_name("_pstr_cat_dest")
     834                      .dwattr $C$DW$64, DW_AT_type(*$C$DW$T$38)
     835                      .dwattr $C$DW$64, DW_AT_location[DW_OP_breg20 -8]
     836              
     837              $C$DW$65        .dwtag  DW_TAG_variable
TMS320C2000 Assembler PC v20.2.1 Tue Feb 16 00:15:56 2021

Copyright (c) 1996-2018 Texas Instruments Incorporated
lib_str.asm                                                          PAGE   17

     838                      .dwattr $C$DW$65, DW_AT_name("pstr_cat_src")
     839                      .dwattr $C$DW$65, DW_AT_TI_symbol_name("_pstr_cat_src")
     840                      .dwattr $C$DW$65, DW_AT_type(*$C$DW$T$28)
     841                      .dwattr $C$DW$65, DW_AT_location[DW_OP_breg20 -10]
     842              
     843              $C$DW$66        .dwtag  DW_TAG_variable
     844                      .dwattr $C$DW$66, DW_AT_name("len_cat")
     845                      .dwattr $C$DW$66, DW_AT_TI_symbol_name("_len_cat")
     846                      .dwattr $C$DW$66, DW_AT_type(*$C$DW$T$32)
     847                      .dwattr $C$DW$66, DW_AT_location[DW_OP_breg20 -12]
     848              
     849 00000072 1E46          MOVL      *-SP[6],ACC           ; [CPU_ALU] |626| 
     850 00000073 A044          MOVL      *-SP[4],XAR5          ; [CPU_ALU] |626| 
     851 00000074 A842          MOVL      *-SP[2],XAR4          ; [CPU_ALU] |626| 
     852                      .dwpsn  file "C:/ti/Workspace/PLC_certificate/Software/uC-LIB/lib_str.c",line 632,column 5,is_stmt,is
     853 00000075 0642          MOVL      ACC,*-SP[2]           ; [CPU_ALU] |632| 
     854 00000076 6003          B         $C$L13,NEQ            ; [CPU_ALU] |632| 
     855                      ; branchcc occurs ; [] |632| 
     856                      .dwpsn  file "C:/ti/Workspace/PLC_certificate/Software/uC-LIB/lib_str.c",line 633,column 9,is_stmt,is
     857 00000077 D400          MOVB      XAR4,#0               ; [CPU_ALU] |633| 
     858 00000078 6F3B          B         $C$L24,UNC            ; [CPU_ALU] |633| 
     859                      ; branch occurs ; [] |633| 
     860 00000079       $C$L13:    
     861                      .dwpsn  file "C:/ti/Workspace/PLC_certificate/Software/uC-LIB/lib_str.c",line 635,column 5,is_stmt,is
     862 00000079 0644          MOVL      ACC,*-SP[4]           ; [CPU_ALU] |635| 
     863 0000007a 6003          B         $C$L14,NEQ            ; [CPU_ALU] |635| 
     864                      ; branchcc occurs ; [] |635| 
     865                      .dwpsn  file "C:/ti/Workspace/PLC_certificate/Software/uC-LIB/lib_str.c",line 636,column 9,is_stmt,is
     866 0000007b D400          MOVB      XAR4,#0               ; [CPU_ALU] |636| 
     867 0000007c 6F37          B         $C$L24,UNC            ; [CPU_ALU] |636| 
     868                      ; branch occurs ; [] |636| 
     869 0000007d       $C$L14:    
     870                      .dwpsn  file "C:/ti/Workspace/PLC_certificate/Software/uC-LIB/lib_str.c",line 639,column 5,is_stmt,is
     871 0000007d 0646          MOVL      ACC,*-SP[6]           ; [CPU_ALU] |639| 
     872 0000007e 6135          B         $C$L24,EQ             ; [CPU_ALU] |639| 
     873                      ; branchcc occurs ; [] |639| 
     874                      .dwpsn  file "C:/ti/Workspace/PLC_certificate/Software/uC-LIB/lib_str.c",line 640,column 9,is_stmt,is
     875                      .dwpsn  file "C:/ti/Workspace/PLC_certificate/Software/uC-LIB/lib_str.c",line 644,column 5,is_stmt,is
     876 0000007f 0642          MOVL      ACC,*-SP[2]           ; [CPU_ALU] |644| 
     877 00000080 1E48          MOVL      *-SP[8],ACC           ; [CPU_ALU] |644| 
     878                      .dwpsn  file "C:/ti/Workspace/PLC_certificate/Software/uC-LIB/lib_str.c",line 645,column 5,is_stmt,is
     879 00000081 6F04          B         $C$L16,UNC            ; [CPU_ALU] |645| 
     880                      ; branch occurs ; [] |645| 
     881 00000082       $C$L15:    
     882                      .dwpsn  file "C:/ti/Workspace/PLC_certificate/Software/uC-LIB/lib_str.c",line 647,column 9,is_stmt,is
     883 00000082 0201          MOVB      ACC,#1                ; [CPU_ALU] |647| 
     884 00000083 0748          ADDL      ACC,*-SP[8]           ; [CPU_ALU] |647| 
     885 00000084 1E48          MOVL      *-SP[8],ACC           ; [CPU_ALU] |647| 
     886 00000085       $C$L16:    
     887                      .dwpsn  file "C:/ti/Workspace/PLC_certificate/Software/uC-LIB/lib_str.c",line 645,column 12,is_stmt,i
     888 00000085 0648          MOVL      ACC,*-SP[8]           ; [CPU_ALU] |645| 
     889 00000086 6104          B         $C$L17,EQ             ; [CPU_ALU] |645| 
     890                      ; branchcc occurs ; [] |645| 
     891 00000087 8A48          MOVL      XAR4,*-SP[8]          ; [CPU_ALU] |645| 
     892 00000088 92C4          MOV       AL,*+XAR4[0]          ; [CPU_ALU] |645| 
TMS320C2000 Assembler PC v20.2.1 Tue Feb 16 00:15:56 2021

Copyright (c) 1996-2018 Texas Instruments Incorporated
lib_str.asm                                                          PAGE   18

     893 00000089 60F9          B         $C$L15,NEQ            ; [CPU_ALU] |645| 
     894                      ; branchcc occurs ; [] |645| 
     895 0000008a       $C$L17:    
     896                      .dwpsn  file "C:/ti/Workspace/PLC_certificate/Software/uC-LIB/lib_str.c",line 649,column 5,is_stmt,is
     897 0000008a 0648          MOVL      ACC,*-SP[8]           ; [CPU_ALU] |649| 
     898 0000008b 6003          B         $C$L18,NEQ            ; [CPU_ALU] |649| 
     899                      ; branchcc occurs ; [] |649| 
     900                      .dwpsn  file "C:/ti/Workspace/PLC_certificate/Software/uC-LIB/lib_str.c",line 650,column 9,is_stmt,is
     901 0000008c D400          MOVB      XAR4,#0               ; [CPU_ALU] |650| 
     902 0000008d 6F26          B         $C$L24,UNC            ; [CPU_ALU] |650| 
     903                      ; branch occurs ; [] |650| 
     904 0000008e       $C$L18:    
     905                      .dwpsn  file "C:/ti/Workspace/PLC_certificate/Software/uC-LIB/lib_str.c",line 653,column 5,is_stmt,is
     906 0000008e 0644          MOVL      ACC,*-SP[4]           ; [CPU_ALU] |653| 
     907 0000008f 1E4A          MOVL      *-SP[10],ACC          ; [CPU_ALU] |653| 
     908                      .dwpsn  file "C:/ti/Workspace/PLC_certificate/Software/uC-LIB/lib_str.c",line 654,column 5,is_stmt,is
     909 00000090 0200          MOVB      ACC,#0                ; [CPU_ALU] |654| 
     910 00000091 1E4C          MOVL      *-SP[12],ACC          ; [CPU_ALU] |654| 
     911                      .dwpsn  file "C:/ti/Workspace/PLC_certificate/Software/uC-LIB/lib_str.c",line 656,column 5,is_stmt,is
     912 00000092 6F0E          B         $C$L20,UNC            ; [CPU_ALU] |656| 
     913                      ; branch occurs ; [] |656| 
     914 00000093       $C$L19:    
     915                      .dwpsn  file "C:/ti/Workspace/PLC_certificate/Software/uC-LIB/lib_str.c",line 660,column 8,is_stmt,is
     916 00000093 C54A          MOVL      XAR7,*-SP[10]         ; [CPU_ALU] |660| 
     917 00000094 8A48          MOVL      XAR4,*-SP[8]          ; [CPU_ALU] |660| 
     918 00000095 92C7          MOV       AL,*+XAR7[0]          ; [CPU_ALU] |660| 
     919 00000096 96C4          MOV       *+XAR4[0],AL          ; [CPU_ALU] |660| 
     920                      .dwpsn  file "C:/ti/Workspace/PLC_certificate/Software/uC-LIB/lib_str.c",line 661,column 9,is_stmt,is
     921 00000097 0201          MOVB      ACC,#1                ; [CPU_ALU] |661| 
     922 00000098 0748          ADDL      ACC,*-SP[8]           ; [CPU_ALU] |661| 
     923 00000099 1E48          MOVL      *-SP[8],ACC           ; [CPU_ALU] |661| 
     924                      .dwpsn  file "C:/ti/Workspace/PLC_certificate/Software/uC-LIB/lib_str.c",line 662,column 9,is_stmt,is
     925 0000009a 0201          MOVB      ACC,#1                ; [CPU_ALU] |662| 
     926 0000009b 074A          ADDL      ACC,*-SP[10]          ; [CPU_ALU] |662| 
     927 0000009c 1E4A          MOVL      *-SP[10],ACC          ; [CPU_ALU] |662| 
     928                      .dwpsn  file "C:/ti/Workspace/PLC_certificate/Software/uC-LIB/lib_str.c",line 663,column 9,is_stmt,is
     929 0000009d 0201          MOVB      ACC,#1                ; [CPU_ALU] |663| 
     930 0000009e 074C          ADDL      ACC,*-SP[12]          ; [CPU_ALU] |663| 
     931 0000009f 1E4C          MOVL      *-SP[12],ACC          ; [CPU_ALU] |663| 
     932 000000a0       $C$L20:    
     933                      .dwpsn  file "C:/ti/Workspace/PLC_certificate/Software/uC-LIB/lib_str.c",line 656,column 12,is_stmt,i
     934 000000a0 0648          MOVL      ACC,*-SP[8]           ; [CPU_ALU] |656| 
     935 000000a1 6109          B         $C$L21,EQ             ; [CPU_ALU] |656| 
     936                      ; branchcc occurs ; [] |656| 
     937 000000a2 064A          MOVL      ACC,*-SP[10]          ; [CPU_ALU] |656| 
     938 000000a3 6107          B         $C$L21,EQ             ; [CPU_ALU] |656| 
     939                      ; branchcc occurs ; [] |656| 
     940 000000a4 8A4A          MOVL      XAR4,*-SP[10]         ; [CPU_ALU] |656| 
     941 000000a5 92C4          MOV       AL,*+XAR4[0]          ; [CPU_ALU] |656| 
     942 000000a6 6104          B         $C$L21,EQ             ; [CPU_ALU] |656| 
     943                      ; branchcc occurs ; [] |656| 
     944 000000a7 0646          MOVL      ACC,*-SP[6]           ; [CPU_ALU] |656| 
     945 000000a8 0F4C          CMPL      ACC,*-SP[12]          ; [CPU_ALU] |656| 
     946 000000a9 66EA          B         $C$L19,HI             ; [CPU_ALU] |656| 
     947                      ; branchcc occurs ; [] |656| 
TMS320C2000 Assembler PC v20.2.1 Tue Feb 16 00:15:56 2021

Copyright (c) 1996-2018 Texas Instruments Incorporated
lib_str.asm                                                          PAGE   19

     948 000000aa       $C$L21:    
     949                      .dwpsn  file "C:/ti/Workspace/PLC_certificate/Software/uC-LIB/lib_str.c",line 666,column 5,is_stmt,is
     950 000000aa 0648          MOVL      ACC,*-SP[8]           ; [CPU_ALU] |666| 
     951 000000ab 6103          B         $C$L22,EQ             ; [CPU_ALU] |666| 
     952                      ; branchcc occurs ; [] |666| 
     953 000000ac 064A          MOVL      ACC,*-SP[10]          ; [CPU_ALU] |666| 
     954 000000ad 6003          B         $C$L23,NEQ            ; [CPU_ALU] |666| 
     955                      ; branchcc occurs ; [] |666| 
     956 000000ae       $C$L22:    
     957                      .dwpsn  file "C:/ti/Workspace/PLC_certificate/Software/uC-LIB/lib_str.c",line 668,column 10,is_stmt,i
     958 000000ae D400          MOVB      XAR4,#0               ; [CPU_ALU] |668| 
     959 000000af 6F04          B         $C$L24,UNC            ; [CPU_ALU] |668| 
     960                      ; branch occurs ; [] |668| 
     961 000000b0       $C$L23:    
     962                      .dwpsn  file "C:/ti/Workspace/PLC_certificate/Software/uC-LIB/lib_str.c",line 671,column 4,is_stmt,is
     963 000000b0 8A48          MOVL      XAR4,*-SP[8]          ; [CPU_ALU] |671| 
     964 000000b1 2BC4          MOV       *+XAR4[0],#0          ; [CPU_ALU] |671| 
     965                      .dwpsn  file "C:/ti/Workspace/PLC_certificate/Software/uC-LIB/lib_str.c",line 674,column 5,is_stmt,is
     966 000000b2 8A42          MOVL      XAR4,*-SP[2]          ; [CPU_ALU] |674| 
     967 000000b3       $C$L24:    
     968                      .dwpsn  file "C:/ti/Workspace/PLC_certificate/Software/uC-LIB/lib_str.c",line 675,column 1,is_stmt,is
     969 000000b3 FE8C          SUBB      SP,#12                ; [CPU_ARAU] 
     970                      .dwcfi  cfa_offset, -2
     971              $C$DW$67        .dwtag  DW_TAG_TI_branch
     972                      .dwattr $C$DW$67, DW_AT_low_pc(0x00)
     973                      .dwattr $C$DW$67, DW_AT_TI_return
     974              
     975 000000b4 0006          LRETR     ; [CPU_ALU] 
     976                      ; return occurs ; [] 
     977                      .dwattr $C$DW$57, DW_AT_TI_end_file("C:/ti/Workspace/PLC_certificate/Software/uC-LIB/lib_str.c")
     978                      .dwattr $C$DW$57, DW_AT_TI_end_line(0x2a3)
     979                      .dwattr $C$DW$57, DW_AT_TI_end_column(0x01)
     980                      .dwendentry
     981                      .dwendtag $C$DW$57
     982              
     983 000000b5               .sect   ".text"
     984                      .clink
     985                      .global _Str_Cmp
     986              
     987              $C$DW$68        .dwtag  DW_TAG_subprogram
     988                      .dwattr $C$DW$68, DW_AT_name("Str_Cmp")
     989                      .dwattr $C$DW$68, DW_AT_low_pc(_Str_Cmp)
     990                      .dwattr $C$DW$68, DW_AT_high_pc(0x00)
     991                      .dwattr $C$DW$68, DW_AT_TI_symbol_name("_Str_Cmp")
     992                      .dwattr $C$DW$68, DW_AT_external
     993                      .dwattr $C$DW$68, DW_AT_type(*$C$DW$T$26)
     994                      .dwattr $C$DW$68, DW_AT_TI_begin_file("C:/ti/Workspace/PLC_certificate/Software/uC-LIB/lib_str.c")
     995                      .dwattr $C$DW$68, DW_AT_TI_begin_line(0x2f1)
     996                      .dwattr $C$DW$68, DW_AT_TI_begin_column(0x0d)
     997                      .dwattr $C$DW$68, DW_AT_TI_max_frame_size(-8)
     998                      .dwpsn  file "C:/ti/Workspace/PLC_certificate/Software/uC-LIB/lib_str.c",line 755,column 1,is_stmt,ad
     999              
    1000                      .dwfde $C$DW$CIE, _Str_Cmp
    1001              $C$DW$69        .dwtag  DW_TAG_formal_parameter
    1002                      .dwattr $C$DW$69, DW_AT_name("p1_str")
TMS320C2000 Assembler PC v20.2.1 Tue Feb 16 00:15:56 2021

Copyright (c) 1996-2018 Texas Instruments Incorporated
lib_str.asm                                                          PAGE   20

    1003                      .dwattr $C$DW$69, DW_AT_TI_symbol_name("_p1_str")
    1004                      .dwattr $C$DW$69, DW_AT_type(*$C$DW$T$28)
    1005                      .dwattr $C$DW$69, DW_AT_location[DW_OP_reg12]
    1006              
    1007              $C$DW$70        .dwtag  DW_TAG_formal_parameter
    1008                      .dwattr $C$DW$70, DW_AT_name("p2_str")
    1009                      .dwattr $C$DW$70, DW_AT_TI_symbol_name("_p2_str")
    1010                      .dwattr $C$DW$70, DW_AT_type(*$C$DW$T$28)
    1011                      .dwattr $C$DW$70, DW_AT_location[DW_OP_reg14]
    1012              
    1013              
    1014              ;***************************************************************
    1015              ;* FNAME: _Str_Cmp                      FR SIZE:   6           *
    1016              ;*                                                             *
    1017              ;* FUNCTION ENVIRONMENT                                        *
    1018              ;*                                                             *
    1019              ;* FUNCTION PROPERTIES                                         *
    1020              ;*                            0 Parameter,  5 Auto,  0 SOE     *
    1021              ;***************************************************************
    1022              
    1023 000000b5       _Str_Cmp:
    1024                      .dwcfi  cfa_offset, -2
    1025                      .dwcfi  save_reg_to_mem, 26, 0
    1026 000000b5 FE06          ADDB      SP,#6                 ; [CPU_ARAU] 
    1027                      .dwcfi  cfa_offset, -8
    1028              $C$DW$71        .dwtag  DW_TAG_variable
    1029                      .dwattr $C$DW$71, DW_AT_name("p1_str")
    1030                      .dwattr $C$DW$71, DW_AT_TI_symbol_name("_p1_str")
    1031                      .dwattr $C$DW$71, DW_AT_type(*$C$DW$T$28)
    1032                      .dwattr $C$DW$71, DW_AT_location[DW_OP_breg20 -2]
    1033              
    1034              $C$DW$72        .dwtag  DW_TAG_variable
    1035                      .dwattr $C$DW$72, DW_AT_name("p2_str")
    1036                      .dwattr $C$DW$72, DW_AT_TI_symbol_name("_p2_str")
    1037                      .dwattr $C$DW$72, DW_AT_type(*$C$DW$T$28)
    1038                      .dwattr $C$DW$72, DW_AT_location[DW_OP_breg20 -4]
    1039              
    1040              $C$DW$73        .dwtag  DW_TAG_variable
    1041                      .dwattr $C$DW$73, DW_AT_name("cmp_val")
    1042                      .dwattr $C$DW$73, DW_AT_TI_symbol_name("_cmp_val")
    1043                      .dwattr $C$DW$73, DW_AT_type(*$C$DW$T$26)
    1044                      .dwattr $C$DW$73, DW_AT_location[DW_OP_breg20 -5]
    1045              
    1046 000000b6 A044          MOVL      *-SP[4],XAR5          ; [CPU_ALU] |755| 
    1047 000000b7 A842          MOVL      *-SP[2],XAR4          ; [CPU_ALU] |755| 
    1048                      .dwpsn  file "C:/ti/Workspace/PLC_certificate/Software/uC-LIB/lib_str.c",line 759,column 5,is_stmt,is
    1049 000000b8 7680          MOVL      XAR6,#65535           ; [CPU_ARAU] |759| 
         000000b9 FFFF 
    1050 000000ba 06A6          MOVL      ACC,XAR6              ; [CPU_ALU] |759| 
    1051              $C$DW$74        .dwtag  DW_TAG_TI_branch
    1052                      .dwattr $C$DW$74, DW_AT_low_pc(0x00)
    1053                      .dwattr $C$DW$74, DW_AT_name("_Str_Cmp_N")
    1054                      .dwattr $C$DW$74, DW_AT_TI_call
    1055              
    1056 000000bb 7640'         LCR       #_Str_Cmp_N           ; [CPU_ALU] |759| 
TMS320C2000 Assembler PC v20.2.1 Tue Feb 16 00:15:56 2021

Copyright (c) 1996-2018 Texas Instruments Incorporated
lib_str.asm                                                          PAGE   21

         000000bc 00C0 
    1057                      ; call occurs [#_Str_Cmp_N] ; [] |759| 
    1058 000000bd 9645          MOV       *-SP[5],AL            ; [CPU_ALU] |759| 
    1059                      .dwpsn  file "C:/ti/Workspace/PLC_certificate/Software/uC-LIB/lib_str.c",line 763,column 5,is_stmt,is
    1060                      .dwpsn  file "C:/ti/Workspace/PLC_certificate/Software/uC-LIB/lib_str.c",line 764,column 1,is_stmt,is
    1061 000000be FE86          SUBB      SP,#6                 ; [CPU_ARAU] 
    1062                      .dwcfi  cfa_offset, -2
    1063              $C$DW$75        .dwtag  DW_TAG_TI_branch
    1064                      .dwattr $C$DW$75, DW_AT_low_pc(0x00)
    1065                      .dwattr $C$DW$75, DW_AT_TI_return
    1066              
    1067 000000bf 0006          LRETR     ; [CPU_ALU] 
    1068                      ; return occurs ; [] 
    1069                      .dwattr $C$DW$68, DW_AT_TI_end_file("C:/ti/Workspace/PLC_certificate/Software/uC-LIB/lib_str.c")
    1070                      .dwattr $C$DW$68, DW_AT_TI_end_line(0x2fc)
    1071                      .dwattr $C$DW$68, DW_AT_TI_end_column(0x01)
    1072                      .dwendentry
    1073                      .dwendtag $C$DW$68
    1074              
    1075 000000c0               .sect   ".text"
    1076                      .clink
    1077                      .global _Str_Cmp_N
    1078              
    1079              $C$DW$76        .dwtag  DW_TAG_subprogram
    1080                      .dwattr $C$DW$76, DW_AT_name("Str_Cmp_N")
    1081                      .dwattr $C$DW$76, DW_AT_low_pc(_Str_Cmp_N)
    1082                      .dwattr $C$DW$76, DW_AT_high_pc(0x00)
    1083                      .dwattr $C$DW$76, DW_AT_TI_symbol_name("_Str_Cmp_N")
    1084                      .dwattr $C$DW$76, DW_AT_external
    1085                      .dwattr $C$DW$76, DW_AT_type(*$C$DW$T$26)
    1086                      .dwattr $C$DW$76, DW_AT_TI_begin_file("C:/ti/Workspace/PLC_certificate/Software/uC-LIB/lib_str.c")
    1087                      .dwattr $C$DW$76, DW_AT_TI_begin_line(0x356)
    1088                      .dwattr $C$DW$76, DW_AT_TI_begin_column(0x0d)
    1089                      .dwattr $C$DW$76, DW_AT_TI_max_frame_size(-20)
    1090                      .dwpsn  file "C:/ti/Workspace/PLC_certificate/Software/uC-LIB/lib_str.c",line 857,column 1,is_stmt,ad
    1091              
    1092                      .dwfde $C$DW$CIE, _Str_Cmp_N
    1093              $C$DW$77        .dwtag  DW_TAG_formal_parameter
    1094                      .dwattr $C$DW$77, DW_AT_name("p1_str")
    1095                      .dwattr $C$DW$77, DW_AT_TI_symbol_name("_p1_str")
    1096                      .dwattr $C$DW$77, DW_AT_type(*$C$DW$T$28)
    1097                      .dwattr $C$DW$77, DW_AT_location[DW_OP_reg12]
    1098              
    1099              $C$DW$78        .dwtag  DW_TAG_formal_parameter
    1100                      .dwattr $C$DW$78, DW_AT_name("p2_str")
    1101                      .dwattr $C$DW$78, DW_AT_TI_symbol_name("_p2_str")
    1102                      .dwattr $C$DW$78, DW_AT_type(*$C$DW$T$28)
    1103                      .dwattr $C$DW$78, DW_AT_location[DW_OP_reg14]
    1104              
    1105              $C$DW$79        .dwtag  DW_TAG_formal_parameter
    1106                      .dwattr $C$DW$79, DW_AT_name("len_max")
    1107                      .dwattr $C$DW$79, DW_AT_TI_symbol_name("_len_max")
    1108                      .dwattr $C$DW$79, DW_AT_type(*$C$DW$T$32)
    1109                      .dwattr $C$DW$79, DW_AT_location[DW_OP_reg0]
    1110              
TMS320C2000 Assembler PC v20.2.1 Tue Feb 16 00:15:56 2021

Copyright (c) 1996-2018 Texas Instruments Incorporated
lib_str.asm                                                          PAGE   22

    1111              
    1112              ;***************************************************************
    1113              ;* FNAME: _Str_Cmp_N                    FR SIZE:  18           *
    1114              ;*                                                             *
    1115              ;* FUNCTION ENVIRONMENT                                        *
    1116              ;*                                                             *
    1117              ;* FUNCTION PROPERTIES                                         *
    1118              ;*                            0 Parameter, 17 Auto,  0 SOE     *
    1119              ;***************************************************************
    1120              
    1121 000000c0       _Str_Cmp_N:
    1122                      .dwcfi  cfa_offset, -2
    1123                      .dwcfi  save_reg_to_mem, 26, 0
    1124 000000c0 FE12          ADDB      SP,#18                ; [CPU_ARAU] 
    1125                      .dwcfi  cfa_offset, -20
    1126              $C$DW$80        .dwtag  DW_TAG_variable
    1127                      .dwattr $C$DW$80, DW_AT_name("p1_str")
    1128                      .dwattr $C$DW$80, DW_AT_TI_symbol_name("_p1_str")
    1129                      .dwattr $C$DW$80, DW_AT_type(*$C$DW$T$28)
    1130                      .dwattr $C$DW$80, DW_AT_location[DW_OP_breg20 -2]
    1131              
    1132              $C$DW$81        .dwtag  DW_TAG_variable
    1133                      .dwattr $C$DW$81, DW_AT_name("p2_str")
    1134                      .dwattr $C$DW$81, DW_AT_TI_symbol_name("_p2_str")
    1135                      .dwattr $C$DW$81, DW_AT_type(*$C$DW$T$28)
    1136                      .dwattr $C$DW$81, DW_AT_location[DW_OP_breg20 -4]
    1137              
    1138              $C$DW$82        .dwtag  DW_TAG_variable
    1139                      .dwattr $C$DW$82, DW_AT_name("len_max")
    1140                      .dwattr $C$DW$82, DW_AT_TI_symbol_name("_len_max")
    1141                      .dwattr $C$DW$82, DW_AT_type(*$C$DW$T$32)
    1142                      .dwattr $C$DW$82, DW_AT_location[DW_OP_breg20 -6]
    1143              
    1144              $C$DW$83        .dwtag  DW_TAG_variable
    1145                      .dwattr $C$DW$83, DW_AT_name("p1_str_cmp")
    1146                      .dwattr $C$DW$83, DW_AT_TI_symbol_name("_p1_str_cmp")
    1147                      .dwattr $C$DW$83, DW_AT_type(*$C$DW$T$28)
    1148                      .dwattr $C$DW$83, DW_AT_location[DW_OP_breg20 -8]
    1149              
    1150              $C$DW$84        .dwtag  DW_TAG_variable
    1151                      .dwattr $C$DW$84, DW_AT_name("p2_str_cmp")
    1152                      .dwattr $C$DW$84, DW_AT_TI_symbol_name("_p2_str_cmp")
    1153                      .dwattr $C$DW$84, DW_AT_type(*$C$DW$T$28)
    1154                      .dwattr $C$DW$84, DW_AT_location[DW_OP_breg20 -10]
    1155              
    1156              $C$DW$85        .dwtag  DW_TAG_variable
    1157                      .dwattr $C$DW$85, DW_AT_name("p1_str_cmp_next")
    1158                      .dwattr $C$DW$85, DW_AT_TI_symbol_name("_p1_str_cmp_next")
    1159                      .dwattr $C$DW$85, DW_AT_type(*$C$DW$T$28)
    1160                      .dwattr $C$DW$85, DW_AT_location[DW_OP_breg20 -12]
    1161              
    1162              $C$DW$86        .dwtag  DW_TAG_variable
    1163                      .dwattr $C$DW$86, DW_AT_name("p2_str_cmp_next")
    1164                      .dwattr $C$DW$86, DW_AT_TI_symbol_name("_p2_str_cmp_next")
    1165                      .dwattr $C$DW$86, DW_AT_type(*$C$DW$T$28)
TMS320C2000 Assembler PC v20.2.1 Tue Feb 16 00:15:56 2021

Copyright (c) 1996-2018 Texas Instruments Incorporated
lib_str.asm                                                          PAGE   23

    1166                      .dwattr $C$DW$86, DW_AT_location[DW_OP_breg20 -14]
    1167              
    1168              $C$DW$87        .dwtag  DW_TAG_variable
    1169                      .dwattr $C$DW$87, DW_AT_name("cmp_len")
    1170                      .dwattr $C$DW$87, DW_AT_TI_symbol_name("_cmp_len")
    1171                      .dwattr $C$DW$87, DW_AT_type(*$C$DW$T$32)
    1172                      .dwattr $C$DW$87, DW_AT_location[DW_OP_breg20 -16]
    1173              
    1174              $C$DW$88        .dwtag  DW_TAG_variable
    1175                      .dwattr $C$DW$88, DW_AT_name("cmp_val")
    1176                      .dwattr $C$DW$88, DW_AT_TI_symbol_name("_cmp_val")
    1177                      .dwattr $C$DW$88, DW_AT_type(*$C$DW$T$26)
    1178                      .dwattr $C$DW$88, DW_AT_location[DW_OP_breg20 -17]
    1179              
    1180 000000c1 1E46          MOVL      *-SP[6],ACC           ; [CPU_ALU] |857| 
    1181 000000c2 A044          MOVL      *-SP[4],XAR5          ; [CPU_ALU] |857| 
    1182 000000c3 A842          MOVL      *-SP[2],XAR4          ; [CPU_ALU] |857| 
    1183                      .dwpsn  file "C:/ti/Workspace/PLC_certificate/Software/uC-LIB/lib_str.c",line 866,column 5,is_stmt,is
    1184 000000c4 0646          MOVL      ACC,*-SP[6]           ; [CPU_ALU] |866| 
    1185 000000c5 6003          B         $C$L25,NEQ            ; [CPU_ALU] |866| 
    1186                      ; branchcc occurs ; [] |866| 
    1187                      .dwpsn  file "C:/ti/Workspace/PLC_certificate/Software/uC-LIB/lib_str.c",line 867,column 9,is_stmt,is
    1188 000000c6 9A00          MOVB      AL,#0                 ; [CPU_ALU] |867| 
    1189 000000c7 6F63          B         $C$L38,UNC            ; [CPU_ALU] |867| 
    1190                      ; branch occurs ; [] |867| 
    1191 000000c8       $C$L25:    
    1192                      .dwpsn  file "C:/ti/Workspace/PLC_certificate/Software/uC-LIB/lib_str.c",line 870,column 5,is_stmt,is
    1193 000000c8 0642          MOVL      ACC,*-SP[2]           ; [CPU_ALU] |870| 
    1194 000000c9 600A          B         $C$L27,NEQ            ; [CPU_ALU] |870| 
    1195                      ; branchcc occurs ; [] |870| 
    1196                      .dwpsn  file "C:/ti/Workspace/PLC_certificate/Software/uC-LIB/lib_str.c",line 871,column 9,is_stmt,is
    1197 000000ca 0644          MOVL      ACC,*-SP[4]           ; [CPU_ALU] |871| 
    1198 000000cb 6003          B         $C$L26,NEQ            ; [CPU_ALU] |871| 
    1199                      ; branchcc occurs ; [] |871| 
    1200                      .dwpsn  file "C:/ti/Workspace/PLC_certificate/Software/uC-LIB/lib_str.c",line 872,column 13,is_stmt,i
    1201 000000cc 9A00          MOVB      AL,#0                 ; [CPU_ALU] |872| 
    1202 000000cd 6F5D          B         $C$L38,UNC            ; [CPU_ALU] |872| 
    1203                      ; branch occurs ; [] |872| 
    1204 000000ce       $C$L26:    
    1205                      .dwpsn  file "C:/ti/Workspace/PLC_certificate/Software/uC-LIB/lib_str.c",line 874,column 9,is_stmt,is
    1206 000000ce 8A44          MOVL      XAR4,*-SP[4]          ; [CPU_ALU] |874| 
    1207 000000cf 92C4          MOV       AL,*+XAR4[0]          ; [CPU_ALU] |874| 
    1208 000000d0 FF5C          NEG       AL                    ; [CPU_ALU] |874| 
    1209 000000d1 9651          MOV       *-SP[17],AL           ; [CPU_ALU] |874| 
    1210                      .dwpsn  file "C:/ti/Workspace/PLC_certificate/Software/uC-LIB/lib_str.c",line 875,column 9,is_stmt,is
    1211 000000d2 6F58          B         $C$L38,UNC            ; [CPU_ALU] |875| 
    1212                      ; branch occurs ; [] |875| 
    1213 000000d3       $C$L27:    
    1214                      .dwpsn  file "C:/ti/Workspace/PLC_certificate/Software/uC-LIB/lib_str.c",line 877,column 5,is_stmt,is
    1215 000000d3 0644          MOVL      ACC,*-SP[4]           ; [CPU_ALU] |877| 
    1216 000000d4 6005          B         $C$L28,NEQ            ; [CPU_ALU] |877| 
    1217                      ; branchcc occurs ; [] |877| 
    1218                      .dwpsn  file "C:/ti/Workspace/PLC_certificate/Software/uC-LIB/lib_str.c",line 878,column 9,is_stmt,is
    1219 000000d5 C542          MOVL      XAR7,*-SP[2]          ; [CPU_ALU] |878| 
    1220 000000d6 92C7          MOV       AL,*+XAR7[0]          ; [CPU_ALU] |878| 
TMS320C2000 Assembler PC v20.2.1 Tue Feb 16 00:15:56 2021

Copyright (c) 1996-2018 Texas Instruments Incorporated
lib_str.asm                                                          PAGE   24

    1221 000000d7 9651          MOV       *-SP[17],AL           ; [CPU_ALU] |878| 
    1222                      .dwpsn  file "C:/ti/Workspace/PLC_certificate/Software/uC-LIB/lib_str.c",line 879,column 9,is_stmt,is
    1223 000000d8 6F52          B         $C$L38,UNC            ; [CPU_ALU] |879| 
    1224                      ; branch occurs ; [] |879| 
    1225 000000d9       $C$L28:    
    1226                      .dwpsn  file "C:/ti/Workspace/PLC_certificate/Software/uC-LIB/lib_str.c",line 883,column 5,is_stmt,is
    1227 000000d9 0642          MOVL      ACC,*-SP[2]           ; [CPU_ALU] |883| 
    1228 000000da 1E48          MOVL      *-SP[8],ACC           ; [CPU_ALU] |883| 
    1229                      .dwpsn  file "C:/ti/Workspace/PLC_certificate/Software/uC-LIB/lib_str.c",line 884,column 5,is_stmt,is
    1230 000000db 0644          MOVL      ACC,*-SP[4]           ; [CPU_ALU] |884| 
    1231 000000dc 1E4A          MOVL      *-SP[10],ACC          ; [CPU_ALU] |884| 
    1232                      .dwpsn  file "C:/ti/Workspace/PLC_certificate/Software/uC-LIB/lib_str.c",line 885,column 5,is_stmt,is
    1233 000000dd 0648          MOVL      ACC,*-SP[8]           ; [CPU_ALU] |885| 
    1234 000000de 1E4C          MOVL      *-SP[12],ACC          ; [CPU_ALU] |885| 
    1235                      .dwpsn  file "C:/ti/Workspace/PLC_certificate/Software/uC-LIB/lib_str.c",line 886,column 5,is_stmt,is
    1236 000000df 064A          MOVL      ACC,*-SP[10]          ; [CPU_ALU] |886| 
    1237 000000e0 1E4E          MOVL      *-SP[14],ACC          ; [CPU_ALU] |886| 
    1238                      .dwpsn  file "C:/ti/Workspace/PLC_certificate/Software/uC-LIB/lib_str.c",line 887,column 5,is_stmt,is
    1239 000000e1 0201          MOVB      ACC,#1                ; [CPU_ALU] |887| 
    1240 000000e2 074C          ADDL      ACC,*-SP[12]          ; [CPU_ALU] |887| 
    1241 000000e3 1E4C          MOVL      *-SP[12],ACC          ; [CPU_ALU] |887| 
    1242                      .dwpsn  file "C:/ti/Workspace/PLC_certificate/Software/uC-LIB/lib_str.c",line 888,column 5,is_stmt,is
    1243 000000e4 0201          MOVB      ACC,#1                ; [CPU_ALU] |888| 
    1244 000000e5 074E          ADDL      ACC,*-SP[14]          ; [CPU_ALU] |888| 
    1245 000000e6 1E4E          MOVL      *-SP[14],ACC          ; [CPU_ALU] |888| 
    1246                      .dwpsn  file "C:/ti/Workspace/PLC_certificate/Software/uC-LIB/lib_str.c",line 889,column 5,is_stmt,is
    1247 000000e7 0200          MOVB      ACC,#0                ; [CPU_ALU] |889| 
    1248 000000e8 1E50          MOVL      *-SP[16],ACC          ; [CPU_ALU] |889| 
    1249                      .dwpsn  file "C:/ti/Workspace/PLC_certificate/Software/uC-LIB/lib_str.c",line 891,column 5,is_stmt,is
    1250 000000e9 6F10          B         $C$L30,UNC            ; [CPU_ALU] |891| 
    1251                      ; branch occurs ; [] |891| 
    1252 000000ea       $C$L29:    
    1253                      .dwpsn  file "C:/ti/Workspace/PLC_certificate/Software/uC-LIB/lib_str.c",line 896,column 9,is_stmt,is
    1254 000000ea 0201          MOVB      ACC,#1                ; [CPU_ALU] |896| 
    1255 000000eb 0748          ADDL      ACC,*-SP[8]           ; [CPU_ALU] |896| 
    1256 000000ec 1E48          MOVL      *-SP[8],ACC           ; [CPU_ALU] |896| 
    1257                      .dwpsn  file "C:/ti/Workspace/PLC_certificate/Software/uC-LIB/lib_str.c",line 897,column 9,is_stmt,is
    1258 000000ed 0201          MOVB      ACC,#1                ; [CPU_ALU] |897| 
    1259 000000ee 074A          ADDL      ACC,*-SP[10]          ; [CPU_ALU] |897| 
    1260 000000ef 1E4A          MOVL      *-SP[10],ACC          ; [CPU_ALU] |897| 
    1261                      .dwpsn  file "C:/ti/Workspace/PLC_certificate/Software/uC-LIB/lib_str.c",line 898,column 9,is_stmt,is
    1262 000000f0 0201          MOVB      ACC,#1                ; [CPU_ALU] |898| 
    1263 000000f1 074C          ADDL      ACC,*-SP[12]          ; [CPU_ALU] |898| 
    1264 000000f2 1E4C          MOVL      *-SP[12],ACC          ; [CPU_ALU] |898| 
    1265                      .dwpsn  file "C:/ti/Workspace/PLC_certificate/Software/uC-LIB/lib_str.c",line 899,column 9,is_stmt,is
    1266 000000f3 0201          MOVB      ACC,#1                ; [CPU_ALU] |899| 
    1267 000000f4 074E          ADDL      ACC,*-SP[14]          ; [CPU_ALU] |899| 
    1268 000000f5 1E4E          MOVL      *-SP[14],ACC          ; [CPU_ALU] |899| 
    1269                      .dwpsn  file "C:/ti/Workspace/PLC_certificate/Software/uC-LIB/lib_str.c",line 900,column 9,is_stmt,is
    1270 000000f6 0201          MOVB      ACC,#1                ; [CPU_ALU] |900| 
    1271 000000f7 0750          ADDL      ACC,*-SP[16]          ; [CPU_ALU] |900| 
    1272 000000f8 1E50          MOVL      *-SP[16],ACC          ; [CPU_ALU] |900| 
    1273 000000f9       $C$L30:    
    1274                      .dwpsn  file "C:/ti/Workspace/PLC_certificate/Software/uC-LIB/lib_str.c",line 891,column 12,is_stmt,i
    1275 000000f9 8A4A          MOVL      XAR4,*-SP[10]         ; [CPU_ALU] |891| 
TMS320C2000 Assembler PC v20.2.1 Tue Feb 16 00:15:56 2021

Copyright (c) 1996-2018 Texas Instruments Incorporated
lib_str.asm                                                          PAGE   25

    1276 000000fa 92C4          MOV       AL,*+XAR4[0]          ; [CPU_ALU] |891| 
    1277 000000fb 8A48          MOVL      XAR4,*-SP[8]          ; [CPU_ALU] |891| 
    1278 000000fc 54C4          CMP       AL,*+XAR4[0]          ; [CPU_ALU] |891| 
    1279 000000fd 600A          B         $C$L31,NEQ            ; [CPU_ALU] |891| 
    1280                      ; branchcc occurs ; [] |891| 
    1281 000000fe 92C4          MOV       AL,*+XAR4[0]          ; [CPU_ALU] |891| 
    1282 000000ff 6108          B         $C$L31,EQ             ; [CPU_ALU] |891| 
    1283                      ; branchcc occurs ; [] |891| 
    1284 00000100 064C          MOVL      ACC,*-SP[12]          ; [CPU_ALU] |891| 
    1285 00000101 6106          B         $C$L31,EQ             ; [CPU_ALU] |891| 
    1286                      ; branchcc occurs ; [] |891| 
    1287 00000102 064E          MOVL      ACC,*-SP[14]          ; [CPU_ALU] |891| 
    1288 00000103 6104          B         $C$L31,EQ             ; [CPU_ALU] |891| 
    1289                      ; branchcc occurs ; [] |891| 
    1290 00000104 0646          MOVL      ACC,*-SP[6]           ; [CPU_ALU] |891| 
    1291 00000105 0F50          CMPL      ACC,*-SP[16]          ; [CPU_ALU] |891| 
    1292 00000106 66E4          B         $C$L29,HI             ; [CPU_ALU] |891| 
    1293                      ; branchcc occurs ; [] |891| 
    1294 00000107       $C$L31:    
    1295                      .dwpsn  file "C:/ti/Workspace/PLC_certificate/Software/uC-LIB/lib_str.c",line 904,column 5,is_stmt,is
    1296 00000107 0646          MOVL      ACC,*-SP[6]           ; [CPU_ALU] |904| 
    1297 00000108 0F50          CMPL      ACC,*-SP[16]          ; [CPU_ALU] |904| 
    1298 00000109 6003          B         $C$L32,NEQ            ; [CPU_ALU] |904| 
    1299                      ; branchcc occurs ; [] |904| 
    1300                      .dwpsn  file "C:/ti/Workspace/PLC_certificate/Software/uC-LIB/lib_str.c",line 905,column 9,is_stmt,is
    1301 0000010a 9A00          MOVB      AL,#0                 ; [CPU_ALU] |905| 
    1302 0000010b 6F1F          B         $C$L38,UNC            ; [CPU_ALU] |905| 
    1303                      ; branch occurs ; [] |905| 
    1304 0000010c       $C$L32:    
    1305                      .dwpsn  file "C:/ti/Workspace/PLC_certificate/Software/uC-LIB/lib_str.c",line 908,column 5,is_stmt,is
    1306 0000010c 8A4A          MOVL      XAR4,*-SP[10]         ; [CPU_ALU] |908| 
    1307 0000010d 92C4          MOV       AL,*+XAR4[0]          ; [CPU_ALU] |908| 
    1308 0000010e 8A48          MOVL      XAR4,*-SP[8]          ; [CPU_ALU] |908| 
    1309 0000010f 54C4          CMP       AL,*+XAR4[0]          ; [CPU_ALU] |908| 
    1310 00000110 6107          B         $C$L33,EQ             ; [CPU_ALU] |908| 
    1311                      ; branchcc occurs ; [] |908| 
    1312                      .dwpsn  file "C:/ti/Workspace/PLC_certificate/Software/uC-LIB/lib_str.c",line 910,column 10,is_stmt,i
    1313 00000111 8348          MOVL      XAR5,*-SP[8]          ; [CPU_ALU] |910| 
    1314 00000112 8A4A          MOVL      XAR4,*-SP[10]         ; [CPU_ALU] |910| 
    1315 00000113 92C5          MOV       AL,*+XAR5[0]          ; [CPU_ALU] |910| 
    1316 00000114 9EC4          SUB       AL,*+XAR4[0]          ; [CPU_ALU] |910| 
    1317 00000115 9651          MOV       *-SP[17],AL           ; [CPU_ALU] |910| 
    1318 00000116 6F13          B         $C$L37,UNC            ; [CPU_ALU] 
    1319                      ; branch occurs ; [] 
    1320 00000117       $C$L33:    
    1321                      .dwpsn  file "C:/ti/Workspace/PLC_certificate/Software/uC-LIB/lib_str.c",line 912,column 12,is_stmt,i
    1322 00000117 92C4          MOV       AL,*+XAR4[0]          ; [CPU_ALU] |912| 
    1323 00000118 6003          B         $C$L34,NEQ            ; [CPU_ALU] |912| 
    1324                      ; branchcc occurs ; [] |912| 
    1325                      .dwpsn  file "C:/ti/Workspace/PLC_certificate/Software/uC-LIB/lib_str.c",line 913,column 10,is_stmt,i
    1326 00000119 2B51          MOV       *-SP[17],#0           ; [CPU_ALU] |913| 
    1327 0000011a 6F0F          B         $C$L37,UNC            ; [CPU_ALU] 
    1328                      ; branch occurs ; [] 
    1329 0000011b       $C$L34:    
    1330                      .dwpsn  file "C:/ti/Workspace/PLC_certificate/Software/uC-LIB/lib_str.c",line 916,column 9,is_stmt,is
TMS320C2000 Assembler PC v20.2.1 Tue Feb 16 00:15:56 2021

Copyright (c) 1996-2018 Texas Instruments Incorporated
lib_str.asm                                                          PAGE   26

    1331 0000011b 064C          MOVL      ACC,*-SP[12]          ; [CPU_ALU] |916| 
    1332 0000011c 600A          B         $C$L36,NEQ            ; [CPU_ALU] |916| 
    1333                      ; branchcc occurs ; [] |916| 
    1334                      .dwpsn  file "C:/ti/Workspace/PLC_certificate/Software/uC-LIB/lib_str.c",line 917,column 13,is_stmt,i
    1335 0000011d 064E          MOVL      ACC,*-SP[14]          ; [CPU_ALU] |917| 
    1336 0000011e 6003          B         $C$L35,NEQ            ; [CPU_ALU] |917| 
    1337                      ; branchcc occurs ; [] |917| 
    1338                      .dwpsn  file "C:/ti/Workspace/PLC_certificate/Software/uC-LIB/lib_str.c",line 918,column 17,is_stmt,i
    1339 0000011f 2B51          MOV       *-SP[17],#0           ; [CPU_ALU] |918| 
    1340 00000120 6F09          B         $C$L37,UNC            ; [CPU_ALU] 
    1341                      ; branch occurs ; [] 
    1342 00000121       $C$L35:    
    1343                      .dwpsn  file "C:/ti/Workspace/PLC_certificate/Software/uC-LIB/lib_str.c",line 921,column 17,is_stmt,i
    1344 00000121 8A4E          MOVL      XAR4,*-SP[14]         ; [CPU_ALU] |921| 
    1345 00000122 92C4          MOV       AL,*+XAR4[0]          ; [CPU_ALU] |921| 
    1346 00000123 FF5C          NEG       AL                    ; [CPU_ALU] |921| 
    1347 00000124 9651          MOV       *-SP[17],AL           ; [CPU_ALU] |921| 
    1348 00000125 6F04          B         $C$L37,UNC            ; [CPU_ALU] 
    1349                      ; branch occurs ; [] 
    1350 00000126       $C$L36:    
    1351                      .dwpsn  file "C:/ti/Workspace/PLC_certificate/Software/uC-LIB/lib_str.c",line 924,column 13,is_stmt,i
    1352 00000126 C54C          MOVL      XAR7,*-SP[12]         ; [CPU_ALU] |924| 
    1353 00000127 92C7          MOV       AL,*+XAR7[0]          ; [CPU_ALU] |924| 
    1354 00000128 9651          MOV       *-SP[17],AL           ; [CPU_ALU] |924| 
    1355 00000129       $C$L37:    
    1356                      .dwpsn  file "C:/ti/Workspace/PLC_certificate/Software/uC-LIB/lib_str.c",line 929,column 5,is_stmt,is
    1357 00000129 9251          MOV       AL,*-SP[17]           ; [CPU_ALU] |929| 
    1358 0000012a       $C$L38:    
    1359                      .dwpsn  file "C:/ti/Workspace/PLC_certificate/Software/uC-LIB/lib_str.c",line 930,column 1,is_stmt,is
    1360 0000012a FE92          SUBB      SP,#18                ; [CPU_ARAU] 
    1361                      .dwcfi  cfa_offset, -2
    1362              $C$DW$89        .dwtag  DW_TAG_TI_branch
    1363                      .dwattr $C$DW$89, DW_AT_low_pc(0x00)
    1364                      .dwattr $C$DW$89, DW_AT_TI_return
    1365              
    1366 0000012b 0006          LRETR     ; [CPU_ALU] 
    1367                      ; return occurs ; [] 
    1368                      .dwattr $C$DW$76, DW_AT_TI_end_file("C:/ti/Workspace/PLC_certificate/Software/uC-LIB/lib_str.c")
    1369                      .dwattr $C$DW$76, DW_AT_TI_end_line(0x3a2)
    1370                      .dwattr $C$DW$76, DW_AT_TI_end_column(0x01)
    1371                      .dwendentry
    1372                      .dwendtag $C$DW$76
    1373              
    1374 0000012c               .sect   ".text"
    1375                      .clink
    1376                      .global _Str_CmpIgnoreCase
    1377              
    1378              $C$DW$90        .dwtag  DW_TAG_subprogram
    1379                      .dwattr $C$DW$90, DW_AT_name("Str_CmpIgnoreCase")
    1380                      .dwattr $C$DW$90, DW_AT_low_pc(_Str_CmpIgnoreCase)
    1381                      .dwattr $C$DW$90, DW_AT_high_pc(0x00)
    1382                      .dwattr $C$DW$90, DW_AT_TI_symbol_name("_Str_CmpIgnoreCase")
    1383                      .dwattr $C$DW$90, DW_AT_external
    1384                      .dwattr $C$DW$90, DW_AT_type(*$C$DW$T$26)
    1385                      .dwattr $C$DW$90, DW_AT_TI_begin_file("C:/ti/Workspace/PLC_certificate/Software/uC-LIB/lib_str.c")
TMS320C2000 Assembler PC v20.2.1 Tue Feb 16 00:15:56 2021

Copyright (c) 1996-2018 Texas Instruments Incorporated
lib_str.asm                                                          PAGE   27

    1386                      .dwattr $C$DW$90, DW_AT_TI_begin_line(0x3fa)
    1387                      .dwattr $C$DW$90, DW_AT_TI_begin_column(0x0d)
    1388                      .dwattr $C$DW$90, DW_AT_TI_max_frame_size(-8)
    1389                      .dwpsn  file "C:/ti/Workspace/PLC_certificate/Software/uC-LIB/lib_str.c",line 1020,column 1,is_stmt,a
    1390              
    1391                      .dwfde $C$DW$CIE, _Str_CmpIgnoreCase
    1392              $C$DW$91        .dwtag  DW_TAG_formal_parameter
    1393                      .dwattr $C$DW$91, DW_AT_name("p1_str")
    1394                      .dwattr $C$DW$91, DW_AT_TI_symbol_name("_p1_str")
    1395                      .dwattr $C$DW$91, DW_AT_type(*$C$DW$T$28)
    1396                      .dwattr $C$DW$91, DW_AT_location[DW_OP_reg12]
    1397              
    1398              $C$DW$92        .dwtag  DW_TAG_formal_parameter
    1399                      .dwattr $C$DW$92, DW_AT_name("p2_str")
    1400                      .dwattr $C$DW$92, DW_AT_TI_symbol_name("_p2_str")
    1401                      .dwattr $C$DW$92, DW_AT_type(*$C$DW$T$28)
    1402                      .dwattr $C$DW$92, DW_AT_location[DW_OP_reg14]
    1403              
    1404              
    1405              ;***************************************************************
    1406              ;* FNAME: _Str_CmpIgnoreCase            FR SIZE:   6           *
    1407              ;*                                                             *
    1408              ;* FUNCTION ENVIRONMENT                                        *
    1409              ;*                                                             *
    1410              ;* FUNCTION PROPERTIES                                         *
    1411              ;*                            0 Parameter,  5 Auto,  0 SOE     *
    1412              ;***************************************************************
    1413              
    1414 0000012c       _Str_CmpIgnoreCase:
    1415                      .dwcfi  cfa_offset, -2
    1416                      .dwcfi  save_reg_to_mem, 26, 0
    1417 0000012c FE06          ADDB      SP,#6                 ; [CPU_ARAU] 
    1418                      .dwcfi  cfa_offset, -8
    1419              $C$DW$93        .dwtag  DW_TAG_variable
    1420                      .dwattr $C$DW$93, DW_AT_name("p1_str")
    1421                      .dwattr $C$DW$93, DW_AT_TI_symbol_name("_p1_str")
    1422                      .dwattr $C$DW$93, DW_AT_type(*$C$DW$T$28)
    1423                      .dwattr $C$DW$93, DW_AT_location[DW_OP_breg20 -2]
    1424              
    1425              $C$DW$94        .dwtag  DW_TAG_variable
    1426                      .dwattr $C$DW$94, DW_AT_name("p2_str")
    1427                      .dwattr $C$DW$94, DW_AT_TI_symbol_name("_p2_str")
    1428                      .dwattr $C$DW$94, DW_AT_type(*$C$DW$T$28)
    1429                      .dwattr $C$DW$94, DW_AT_location[DW_OP_breg20 -4]
    1430              
    1431              $C$DW$95        .dwtag  DW_TAG_variable
    1432                      .dwattr $C$DW$95, DW_AT_name("cmp_val")
    1433                      .dwattr $C$DW$95, DW_AT_TI_symbol_name("_cmp_val")
    1434                      .dwattr $C$DW$95, DW_AT_type(*$C$DW$T$26)
    1435                      .dwattr $C$DW$95, DW_AT_location[DW_OP_breg20 -5]
    1436              
    1437 0000012d A044          MOVL      *-SP[4],XAR5          ; [CPU_ALU] |1020| 
    1438 0000012e A842          MOVL      *-SP[2],XAR4          ; [CPU_ALU] |1020| 
    1439                      .dwpsn  file "C:/ti/Workspace/PLC_certificate/Software/uC-LIB/lib_str.c",line 1024,column 5,is_stmt,i
    1440 0000012f 7680          MOVL      XAR6,#65535           ; [CPU_ARAU] |1024| 
TMS320C2000 Assembler PC v20.2.1 Tue Feb 16 00:15:56 2021

Copyright (c) 1996-2018 Texas Instruments Incorporated
lib_str.asm                                                          PAGE   28

         00000130 FFFF 
    1441 00000131 06A6          MOVL      ACC,XAR6              ; [CPU_ALU] |1024| 
    1442              $C$DW$96        .dwtag  DW_TAG_TI_branch
    1443                      .dwattr $C$DW$96, DW_AT_low_pc(0x00)
    1444                      .dwattr $C$DW$96, DW_AT_name("_Str_CmpIgnoreCase_N")
    1445                      .dwattr $C$DW$96, DW_AT_TI_call
    1446              
    1447 00000132 7640'         LCR       #_Str_CmpIgnoreCase_N ; [CPU_ALU] |1024| 
         00000133 0137 
    1448                      ; call occurs [#_Str_CmpIgnoreCase_N] ; [] |1024| 
    1449 00000134 9645          MOV       *-SP[5],AL            ; [CPU_ALU] |1024| 
    1450                      .dwpsn  file "C:/ti/Workspace/PLC_certificate/Software/uC-LIB/lib_str.c",line 1028,column 5,is_stmt,i
    1451                      .dwpsn  file "C:/ti/Workspace/PLC_certificate/Software/uC-LIB/lib_str.c",line 1029,column 1,is_stmt,i
    1452 00000135 FE86          SUBB      SP,#6                 ; [CPU_ARAU] 
    1453                      .dwcfi  cfa_offset, -2
    1454              $C$DW$97        .dwtag  DW_TAG_TI_branch
    1455                      .dwattr $C$DW$97, DW_AT_low_pc(0x00)
    1456                      .dwattr $C$DW$97, DW_AT_TI_return
    1457              
    1458 00000136 0006          LRETR     ; [CPU_ALU] 
    1459                      ; return occurs ; [] 
    1460                      .dwattr $C$DW$90, DW_AT_TI_end_file("C:/ti/Workspace/PLC_certificate/Software/uC-LIB/lib_str.c")
    1461                      .dwattr $C$DW$90, DW_AT_TI_end_line(0x405)
    1462                      .dwattr $C$DW$90, DW_AT_TI_end_column(0x01)
    1463                      .dwendentry
    1464                      .dwendtag $C$DW$90
    1465              
    1466 00000137               .sect   ".text"
    1467                      .clink
    1468                      .global _Str_CmpIgnoreCase_N
    1469              
    1470              $C$DW$98        .dwtag  DW_TAG_subprogram
    1471                      .dwattr $C$DW$98, DW_AT_name("Str_CmpIgnoreCase_N")
    1472                      .dwattr $C$DW$98, DW_AT_low_pc(_Str_CmpIgnoreCase_N)
    1473                      .dwattr $C$DW$98, DW_AT_high_pc(0x00)
    1474                      .dwattr $C$DW$98, DW_AT_TI_symbol_name("_Str_CmpIgnoreCase_N")
    1475                      .dwattr $C$DW$98, DW_AT_external
    1476                      .dwattr $C$DW$98, DW_AT_type(*$C$DW$T$26)
    1477                      .dwattr $C$DW$98, DW_AT_TI_begin_file("C:/ti/Workspace/PLC_certificate/Software/uC-LIB/lib_str.c")
    1478                      .dwattr $C$DW$98, DW_AT_TI_begin_line(0x469)
    1479                      .dwattr $C$DW$98, DW_AT_TI_begin_column(0x0d)
    1480                      .dwattr $C$DW$98, DW_AT_TI_max_frame_size(-22)
    1481                      .dwpsn  file "C:/ti/Workspace/PLC_certificate/Software/uC-LIB/lib_str.c",line 1132,column 1,is_stmt,a
    1482              
    1483                      .dwfde $C$DW$CIE, _Str_CmpIgnoreCase_N
    1484              $C$DW$99        .dwtag  DW_TAG_formal_parameter
    1485                      .dwattr $C$DW$99, DW_AT_name("p1_str")
    1486                      .dwattr $C$DW$99, DW_AT_TI_symbol_name("_p1_str")
    1487                      .dwattr $C$DW$99, DW_AT_type(*$C$DW$T$28)
    1488                      .dwattr $C$DW$99, DW_AT_location[DW_OP_reg12]
    1489              
    1490              $C$DW$100       .dwtag  DW_TAG_formal_parameter
    1491                      .dwattr $C$DW$100, DW_AT_name("p2_str")
    1492                      .dwattr $C$DW$100, DW_AT_TI_symbol_name("_p2_str")
    1493                      .dwattr $C$DW$100, DW_AT_type(*$C$DW$T$28)
TMS320C2000 Assembler PC v20.2.1 Tue Feb 16 00:15:56 2021

Copyright (c) 1996-2018 Texas Instruments Incorporated
lib_str.asm                                                          PAGE   29

    1494                      .dwattr $C$DW$100, DW_AT_location[DW_OP_reg14]
    1495              
    1496              $C$DW$101       .dwtag  DW_TAG_formal_parameter
    1497                      .dwattr $C$DW$101, DW_AT_name("len_max")
    1498                      .dwattr $C$DW$101, DW_AT_TI_symbol_name("_len_max")
    1499                      .dwattr $C$DW$101, DW_AT_type(*$C$DW$T$32)
    1500                      .dwattr $C$DW$101, DW_AT_location[DW_OP_reg0]
    1501              
    1502              
    1503              ;***************************************************************
    1504              ;* FNAME: _Str_CmpIgnoreCase_N          FR SIZE:  20           *
    1505              ;*                                                             *
    1506              ;* FUNCTION ENVIRONMENT                                        *
    1507              ;*                                                             *
    1508              ;* FUNCTION PROPERTIES                                         *
    1509              ;*                            0 Parameter, 19 Auto,  0 SOE     *
    1510              ;***************************************************************
    1511              
    1512 00000137       _Str_CmpIgnoreCase_N:
    1513                      .dwcfi  cfa_offset, -2
    1514                      .dwcfi  save_reg_to_mem, 26, 0
    1515 00000137 FE14          ADDB      SP,#20                ; [CPU_ARAU] 
    1516                      .dwcfi  cfa_offset, -22
    1517              $C$DW$102       .dwtag  DW_TAG_variable
    1518                      .dwattr $C$DW$102, DW_AT_name("p1_str")
    1519                      .dwattr $C$DW$102, DW_AT_TI_symbol_name("_p1_str")
    1520                      .dwattr $C$DW$102, DW_AT_type(*$C$DW$T$28)
    1521                      .dwattr $C$DW$102, DW_AT_location[DW_OP_breg20 -2]
    1522              
    1523              $C$DW$103       .dwtag  DW_TAG_variable
    1524                      .dwattr $C$DW$103, DW_AT_name("p2_str")
    1525                      .dwattr $C$DW$103, DW_AT_TI_symbol_name("_p2_str")
    1526                      .dwattr $C$DW$103, DW_AT_type(*$C$DW$T$28)
    1527                      .dwattr $C$DW$103, DW_AT_location[DW_OP_breg20 -4]
    1528              
    1529              $C$DW$104       .dwtag  DW_TAG_variable
    1530                      .dwattr $C$DW$104, DW_AT_name("len_max")
    1531                      .dwattr $C$DW$104, DW_AT_TI_symbol_name("_len_max")
    1532                      .dwattr $C$DW$104, DW_AT_type(*$C$DW$T$32)
    1533                      .dwattr $C$DW$104, DW_AT_location[DW_OP_breg20 -6]
    1534              
    1535              $C$DW$105       .dwtag  DW_TAG_variable
    1536                      .dwattr $C$DW$105, DW_AT_name("p1_str_cmp")
    1537                      .dwattr $C$DW$105, DW_AT_TI_symbol_name("_p1_str_cmp")
    1538                      .dwattr $C$DW$105, DW_AT_type(*$C$DW$T$28)
    1539                      .dwattr $C$DW$105, DW_AT_location[DW_OP_breg20 -8]
    1540              
    1541              $C$DW$106       .dwtag  DW_TAG_variable
    1542                      .dwattr $C$DW$106, DW_AT_name("p2_str_cmp")
    1543                      .dwattr $C$DW$106, DW_AT_TI_symbol_name("_p2_str_cmp")
    1544                      .dwattr $C$DW$106, DW_AT_type(*$C$DW$T$28)
    1545                      .dwattr $C$DW$106, DW_AT_location[DW_OP_breg20 -10]
    1546              
    1547              $C$DW$107       .dwtag  DW_TAG_variable
    1548                      .dwattr $C$DW$107, DW_AT_name("p1_str_cmp_next")
TMS320C2000 Assembler PC v20.2.1 Tue Feb 16 00:15:56 2021

Copyright (c) 1996-2018 Texas Instruments Incorporated
lib_str.asm                                                          PAGE   30

    1549                      .dwattr $C$DW$107, DW_AT_TI_symbol_name("_p1_str_cmp_next")
    1550                      .dwattr $C$DW$107, DW_AT_type(*$C$DW$T$28)
    1551                      .dwattr $C$DW$107, DW_AT_location[DW_OP_breg20 -12]
    1552              
    1553              $C$DW$108       .dwtag  DW_TAG_variable
    1554                      .dwattr $C$DW$108, DW_AT_name("p2_str_cmp_next")
    1555                      .dwattr $C$DW$108, DW_AT_TI_symbol_name("_p2_str_cmp_next")
    1556                      .dwattr $C$DW$108, DW_AT_type(*$C$DW$T$28)
    1557                      .dwattr $C$DW$108, DW_AT_location[DW_OP_breg20 -14]
    1558              
    1559              $C$DW$109       .dwtag  DW_TAG_variable
    1560                      .dwattr $C$DW$109, DW_AT_name("cmp_len")
    1561                      .dwattr $C$DW$109, DW_AT_TI_symbol_name("_cmp_len")
    1562                      .dwattr $C$DW$109, DW_AT_type(*$C$DW$T$32)
    1563                      .dwattr $C$DW$109, DW_AT_location[DW_OP_breg20 -16]
    1564              
    1565              $C$DW$110       .dwtag  DW_TAG_variable
    1566                      .dwattr $C$DW$110, DW_AT_name("char_1")
    1567                      .dwattr $C$DW$110, DW_AT_TI_symbol_name("_char_1")
    1568                      .dwattr $C$DW$110, DW_AT_type(*$C$DW$T$21)
    1569                      .dwattr $C$DW$110, DW_AT_location[DW_OP_breg20 -17]
    1570              
    1571              $C$DW$111       .dwtag  DW_TAG_variable
    1572                      .dwattr $C$DW$111, DW_AT_name("char_2")
    1573                      .dwattr $C$DW$111, DW_AT_TI_symbol_name("_char_2")
    1574                      .dwattr $C$DW$111, DW_AT_type(*$C$DW$T$21)
    1575                      .dwattr $C$DW$111, DW_AT_location[DW_OP_breg20 -18]
    1576              
    1577              $C$DW$112       .dwtag  DW_TAG_variable
    1578                      .dwattr $C$DW$112, DW_AT_name("cmp_val")
    1579                      .dwattr $C$DW$112, DW_AT_TI_symbol_name("_cmp_val")
    1580                      .dwattr $C$DW$112, DW_AT_type(*$C$DW$T$26)
    1581                      .dwattr $C$DW$112, DW_AT_location[DW_OP_breg20 -19]
    1582              
    1583 00000138 1E46          MOVL      *-SP[6],ACC           ; [CPU_ALU] |1132| 
    1584 00000139 A044          MOVL      *-SP[4],XAR5          ; [CPU_ALU] |1132| 
    1585 0000013a A842          MOVL      *-SP[2],XAR4          ; [CPU_ALU] |1132| 
    1586                      .dwpsn  file "C:/ti/Workspace/PLC_certificate/Software/uC-LIB/lib_str.c",line 1143,column 5,is_stmt,i
    1587 0000013b 0646          MOVL      ACC,*-SP[6]           ; [CPU_ALU] |1143| 
    1588 0000013c 6003          B         $C$L39,NEQ            ; [CPU_ALU] |1143| 
    1589                      ; branchcc occurs ; [] |1143| 
    1590                      .dwpsn  file "C:/ti/Workspace/PLC_certificate/Software/uC-LIB/lib_str.c",line 1144,column 9,is_stmt,i
    1591 0000013d 9A00          MOVB      AL,#0                 ; [CPU_ALU] |1144| 
    1592 0000013e 6F7C          B         $C$L52,UNC            ; [CPU_ALU] |1144| 
    1593                      ; branch occurs ; [] |1144| 
    1594 0000013f       $C$L39:    
    1595                      .dwpsn  file "C:/ti/Workspace/PLC_certificate/Software/uC-LIB/lib_str.c",line 1147,column 5,is_stmt,i
    1596 0000013f 0642          MOVL      ACC,*-SP[2]           ; [CPU_ALU] |1147| 
    1597 00000140 600D          B         $C$L41,NEQ            ; [CPU_ALU] |1147| 
    1598                      ; branchcc occurs ; [] |1147| 
    1599                      .dwpsn  file "C:/ti/Workspace/PLC_certificate/Software/uC-LIB/lib_str.c",line 1148,column 9,is_stmt,i
    1600 00000141 0644          MOVL      ACC,*-SP[4]           ; [CPU_ALU] |1148| 
    1601 00000142 6003          B         $C$L40,NEQ            ; [CPU_ALU] |1148| 
    1602                      ; branchcc occurs ; [] |1148| 
    1603                      .dwpsn  file "C:/ti/Workspace/PLC_certificate/Software/uC-LIB/lib_str.c",line 1149,column 13,is_stmt,
TMS320C2000 Assembler PC v20.2.1 Tue Feb 16 00:15:56 2021

Copyright (c) 1996-2018 Texas Instruments Incorporated
lib_str.asm                                                          PAGE   31

    1604 00000143 9A00          MOVB      AL,#0                 ; [CPU_ALU] |1149| 
    1605 00000144 6F76          B         $C$L52,UNC            ; [CPU_ALU] |1149| 
    1606                      ; branch occurs ; [] |1149| 
    1607 00000145       $C$L40:    
    1608                      .dwpsn  file "C:/ti/Workspace/PLC_certificate/Software/uC-LIB/lib_str.c",line 1151,column 9,is_stmt,i
    1609 00000145 8A44          MOVL      XAR4,*-SP[4]          ; [CPU_ALU] |1151| 
    1610 00000146 92C4          MOV       AL,*+XAR4[0]          ; [CPU_ALU] |1151| 
    1611              $C$DW$113       .dwtag  DW_TAG_TI_branch
    1612                      .dwattr $C$DW$113, DW_AT_low_pc(0x00)
    1613                      .dwattr $C$DW$113, DW_AT_name("_ASCII_ToLower")
    1614                      .dwattr $C$DW$113, DW_AT_TI_call
    1615              
    1616 00000147 7640!         LCR       #_ASCII_ToLower       ; [CPU_ALU] |1151| 
         00000148 0000 
    1617                      ; call occurs [#_ASCII_ToLower] ; [] |1151| 
    1618 00000149 9652          MOV       *-SP[18],AL           ; [CPU_ALU] |1151| 
    1619                      .dwpsn  file "C:/ti/Workspace/PLC_certificate/Software/uC-LIB/lib_str.c",line 1152,column 9,is_stmt,i
    1620 0000014a FF5C          NEG       AL                    ; [CPU_ALU] |1152| 
    1621 0000014b 9653          MOV       *-SP[19],AL           ; [CPU_ALU] |1152| 
    1622                      .dwpsn  file "C:/ti/Workspace/PLC_certificate/Software/uC-LIB/lib_str.c",line 1153,column 9,is_stmt,i
    1623 0000014c 6F6E          B         $C$L52,UNC            ; [CPU_ALU] |1153| 
    1624                      ; branch occurs ; [] |1153| 
    1625 0000014d       $C$L41:    
    1626                      .dwpsn  file "C:/ti/Workspace/PLC_certificate/Software/uC-LIB/lib_str.c",line 1155,column 5,is_stmt,i
    1627 0000014d 0644          MOVL      ACC,*-SP[4]           ; [CPU_ALU] |1155| 
    1628 0000014e 6007          B         $C$L42,NEQ            ; [CPU_ALU] |1155| 
    1629                      ; branchcc occurs ; [] |1155| 
    1630                      .dwpsn  file "C:/ti/Workspace/PLC_certificate/Software/uC-LIB/lib_str.c",line 1156,column 9,is_stmt,i
    1631 0000014f 92C4          MOV       AL,*+XAR4[0]          ; [CPU_ALU] |1156| 
    1632              $C$DW$114       .dwtag  DW_TAG_TI_branch
    1633                      .dwattr $C$DW$114, DW_AT_low_pc(0x00)
    1634                      .dwattr $C$DW$114, DW_AT_name("_ASCII_ToLower")
    1635                      .dwattr $C$DW$114, DW_AT_TI_call
    1636              
    1637 00000150 7640!         LCR       #_ASCII_ToLower       ; [CPU_ALU] |1156| 
         00000151 0000 
    1638                      ; call occurs [#_ASCII_ToLower] ; [] |1156| 
    1639 00000152 9651          MOV       *-SP[17],AL           ; [CPU_ALU] |1156| 
    1640                      .dwpsn  file "C:/ti/Workspace/PLC_certificate/Software/uC-LIB/lib_str.c",line 1157,column 9,is_stmt,i
    1641 00000153 9653          MOV       *-SP[19],AL           ; [CPU_ALU] |1157| 
    1642                      .dwpsn  file "C:/ti/Workspace/PLC_certificate/Software/uC-LIB/lib_str.c",line 1158,column 9,is_stmt,i
    1643 00000154 6F66          B         $C$L52,UNC            ; [CPU_ALU] |1158| 
    1644                      ; branch occurs ; [] |1158| 
    1645 00000155       $C$L42:    
    1646                      .dwpsn  file "C:/ti/Workspace/PLC_certificate/Software/uC-LIB/lib_str.c",line 1162,column 5,is_stmt,i
    1647 00000155 0642          MOVL      ACC,*-SP[2]           ; [CPU_ALU] |1162| 
    1648 00000156 1E48          MOVL      *-SP[8],ACC           ; [CPU_ALU] |1162| 
    1649                      .dwpsn  file "C:/ti/Workspace/PLC_certificate/Software/uC-LIB/lib_str.c",line 1163,column 5,is_stmt,i
    1650 00000157 0644          MOVL      ACC,*-SP[4]           ; [CPU_ALU] |1163| 
    1651 00000158 1E4A          MOVL      *-SP[10],ACC          ; [CPU_ALU] |1163| 
    1652                      .dwpsn  file "C:/ti/Workspace/PLC_certificate/Software/uC-LIB/lib_str.c",line 1164,column 5,is_stmt,i
    1653 00000159 0648          MOVL      ACC,*-SP[8]           ; [CPU_ALU] |1164| 
    1654 0000015a 1E4C          MOVL      *-SP[12],ACC          ; [CPU_ALU] |1164| 
    1655                      .dwpsn  file "C:/ti/Workspace/PLC_certificate/Software/uC-LIB/lib_str.c",line 1165,column 5,is_stmt,i
    1656 0000015b 064A          MOVL      ACC,*-SP[10]          ; [CPU_ALU] |1165| 
TMS320C2000 Assembler PC v20.2.1 Tue Feb 16 00:15:56 2021

Copyright (c) 1996-2018 Texas Instruments Incorporated
lib_str.asm                                                          PAGE   32

    1657 0000015c 1E4E          MOVL      *-SP[14],ACC          ; [CPU_ALU] |1165| 
    1658                      .dwpsn  file "C:/ti/Workspace/PLC_certificate/Software/uC-LIB/lib_str.c",line 1166,column 5,is_stmt,i
    1659 0000015d 0201          MOVB      ACC,#1                ; [CPU_ALU] |1166| 
    1660 0000015e 074C          ADDL      ACC,*-SP[12]          ; [CPU_ALU] |1166| 
    1661 0000015f 1E4C          MOVL      *-SP[12],ACC          ; [CPU_ALU] |1166| 
    1662                      .dwpsn  file "C:/ti/Workspace/PLC_certificate/Software/uC-LIB/lib_str.c",line 1167,column 5,is_stmt,i
    1663 00000160 0201          MOVB      ACC,#1                ; [CPU_ALU] |1167| 
    1664 00000161 074E          ADDL      ACC,*-SP[14]          ; [CPU_ALU] |1167| 
    1665 00000162 1E4E          MOVL      *-SP[14],ACC          ; [CPU_ALU] |1167| 
    1666                      .dwpsn  file "C:/ti/Workspace/PLC_certificate/Software/uC-LIB/lib_str.c",line 1168,column 5,is_stmt,i
    1667 00000163 92C4          MOV       AL,*+XAR4[0]          ; [CPU_ALU] |1168| 
    1668              $C$DW$115       .dwtag  DW_TAG_TI_branch
    1669                      .dwattr $C$DW$115, DW_AT_low_pc(0x00)
    1670                      .dwattr $C$DW$115, DW_AT_name("_ASCII_ToLower")
    1671                      .dwattr $C$DW$115, DW_AT_TI_call
    1672              
    1673 00000164 7640!         LCR       #_ASCII_ToLower       ; [CPU_ALU] |1168| 
         00000165 0000 
    1674                      ; call occurs [#_ASCII_ToLower] ; [] |1168| 
    1675 00000166 9651          MOV       *-SP[17],AL           ; [CPU_ALU] |1168| 
    1676                      .dwpsn  file "C:/ti/Workspace/PLC_certificate/Software/uC-LIB/lib_str.c",line 1169,column 5,is_stmt,i
    1677 00000167 8A4A          MOVL      XAR4,*-SP[10]         ; [CPU_ALU] |1169| 
    1678 00000168 92C4          MOV       AL,*+XAR4[0]          ; [CPU_ALU] |1169| 
    1679              $C$DW$116       .dwtag  DW_TAG_TI_branch
    1680                      .dwattr $C$DW$116, DW_AT_low_pc(0x00)
    1681                      .dwattr $C$DW$116, DW_AT_name("_ASCII_ToLower")
    1682                      .dwattr $C$DW$116, DW_AT_TI_call
    1683              
    1684 00000169 7640!         LCR       #_ASCII_ToLower       ; [CPU_ALU] |1169| 
         0000016a 0000 
    1685                      ; call occurs [#_ASCII_ToLower] ; [] |1169| 
    1686 0000016b 9652          MOV       *-SP[18],AL           ; [CPU_ALU] |1169| 
    1687                      .dwpsn  file "C:/ti/Workspace/PLC_certificate/Software/uC-LIB/lib_str.c",line 1170,column 5,is_stmt,i
    1688 0000016c 0200          MOVB      ACC,#0                ; [CPU_ALU] |1170| 
    1689 0000016d 1E50          MOVL      *-SP[16],ACC          ; [CPU_ALU] |1170| 
    1690                      .dwpsn  file "C:/ti/Workspace/PLC_certificate/Software/uC-LIB/lib_str.c",line 1172,column 5,is_stmt,i
    1691 0000016e 6F1A          B         $C$L44,UNC            ; [CPU_ALU] |1172| 
    1692                      ; branch occurs ; [] |1172| 
    1693 0000016f       $C$L43:    
    1694                      .dwpsn  file "C:/ti/Workspace/PLC_certificate/Software/uC-LIB/lib_str.c",line 1177,column 9,is_stmt,i
    1695 0000016f 0201          MOVB      ACC,#1                ; [CPU_ALU] |1177| 
    1696 00000170 0748          ADDL      ACC,*-SP[8]           ; [CPU_ALU] |1177| 
    1697 00000171 1E48          MOVL      *-SP[8],ACC           ; [CPU_ALU] |1177| 
    1698                      .dwpsn  file "C:/ti/Workspace/PLC_certificate/Software/uC-LIB/lib_str.c",line 1178,column 9,is_stmt,i
    1699 00000172 0201          MOVB      ACC,#1                ; [CPU_ALU] |1178| 
    1700 00000173 074A          ADDL      ACC,*-SP[10]          ; [CPU_ALU] |1178| 
    1701 00000174 1E4A          MOVL      *-SP[10],ACC          ; [CPU_ALU] |1178| 
    1702                      .dwpsn  file "C:/ti/Workspace/PLC_certificate/Software/uC-LIB/lib_str.c",line 1179,column 9,is_stmt,i
    1703 00000175 0201          MOVB      ACC,#1                ; [CPU_ALU] |1179| 
    1704 00000176 074C          ADDL      ACC,*-SP[12]          ; [CPU_ALU] |1179| 
    1705 00000177 1E4C          MOVL      *-SP[12],ACC          ; [CPU_ALU] |1179| 
    1706                      .dwpsn  file "C:/ti/Workspace/PLC_certificate/Software/uC-LIB/lib_str.c",line 1180,column 9,is_stmt,i
    1707 00000178 0201          MOVB      ACC,#1                ; [CPU_ALU] |1180| 
    1708 00000179 074E          ADDL      ACC,*-SP[14]          ; [CPU_ALU] |1180| 
    1709 0000017a 1E4E          MOVL      *-SP[14],ACC          ; [CPU_ALU] |1180| 
TMS320C2000 Assembler PC v20.2.1 Tue Feb 16 00:15:56 2021

Copyright (c) 1996-2018 Texas Instruments Incorporated
lib_str.asm                                                          PAGE   33

    1710                      .dwpsn  file "C:/ti/Workspace/PLC_certificate/Software/uC-LIB/lib_str.c",line 1181,column 9,is_stmt,i
    1711 0000017b 0201          MOVB      ACC,#1                ; [CPU_ALU] |1181| 
    1712 0000017c 0750          ADDL      ACC,*-SP[16]          ; [CPU_ALU] |1181| 
    1713 0000017d 1E50          MOVL      *-SP[16],ACC          ; [CPU_ALU] |1181| 
    1714                      .dwpsn  file "C:/ti/Workspace/PLC_certificate/Software/uC-LIB/lib_str.c",line 1182,column 9,is_stmt,i
    1715 0000017e 8A48          MOVL      XAR4,*-SP[8]          ; [CPU_ALU] |1182| 
    1716 0000017f 92C4          MOV       AL,*+XAR4[0]          ; [CPU_ALU] |1182| 
    1717              $C$DW$117       .dwtag  DW_TAG_TI_branch
    1718                      .dwattr $C$DW$117, DW_AT_low_pc(0x00)
    1719                      .dwattr $C$DW$117, DW_AT_name("_ASCII_ToLower")
    1720                      .dwattr $C$DW$117, DW_AT_TI_call
    1721              
    1722 00000180 7640!         LCR       #_ASCII_ToLower       ; [CPU_ALU] |1182| 
         00000181 0000 
    1723                      ; call occurs [#_ASCII_ToLower] ; [] |1182| 
    1724 00000182 9651          MOV       *-SP[17],AL           ; [CPU_ALU] |1182| 
    1725                      .dwpsn  file "C:/ti/Workspace/PLC_certificate/Software/uC-LIB/lib_str.c",line 1183,column 9,is_stmt,i
    1726 00000183 8A4A          MOVL      XAR4,*-SP[10]         ; [CPU_ALU] |1183| 
    1727 00000184 92C4          MOV       AL,*+XAR4[0]          ; [CPU_ALU] |1183| 
    1728              $C$DW$118       .dwtag  DW_TAG_TI_branch
    1729                      .dwattr $C$DW$118, DW_AT_low_pc(0x00)
    1730                      .dwattr $C$DW$118, DW_AT_name("_ASCII_ToLower")
    1731                      .dwattr $C$DW$118, DW_AT_TI_call
    1732              
    1733 00000185 7640!         LCR       #_ASCII_ToLower       ; [CPU_ALU] |1183| 
         00000186 0000 
    1734                      ; call occurs [#_ASCII_ToLower] ; [] |1183| 
    1735 00000187 9652          MOV       *-SP[18],AL           ; [CPU_ALU] |1183| 
    1736 00000188       $C$L44:    
    1737                      .dwpsn  file "C:/ti/Workspace/PLC_certificate/Software/uC-LIB/lib_str.c",line 1172,column 12,is_stmt,
    1738 00000188 9252          MOV       AL,*-SP[18]           ; [CPU_ALU] |1172| 
    1739 00000189 5451          CMP       AL,*-SP[17]           ; [CPU_ALU] |1172| 
    1740 0000018a 600B          B         $C$L45,NEQ            ; [CPU_ALU] |1172| 
    1741                      ; branchcc occurs ; [] |1172| 
    1742 0000018b 8A48          MOVL      XAR4,*-SP[8]          ; [CPU_ALU] |1172| 
    1743 0000018c 92C4          MOV       AL,*+XAR4[0]          ; [CPU_ALU] |1172| 
    1744 0000018d 6108          B         $C$L45,EQ             ; [CPU_ALU] |1172| 
    1745                      ; branchcc occurs ; [] |1172| 
    1746 0000018e 064C          MOVL      ACC,*-SP[12]          ; [CPU_ALU] |1172| 
    1747 0000018f 6106          B         $C$L45,EQ             ; [CPU_ALU] |1172| 
    1748                      ; branchcc occurs ; [] |1172| 
    1749 00000190 064E          MOVL      ACC,*-SP[14]          ; [CPU_ALU] |1172| 
    1750 00000191 6104          B         $C$L45,EQ             ; [CPU_ALU] |1172| 
    1751                      ; branchcc occurs ; [] |1172| 
    1752 00000192 0646          MOVL      ACC,*-SP[6]           ; [CPU_ALU] |1172| 
    1753 00000193 0F50          CMPL      ACC,*-SP[16]          ; [CPU_ALU] |1172| 
    1754 00000194 66DB          B         $C$L43,HI             ; [CPU_ALU] |1172| 
    1755                      ; branchcc occurs ; [] |1172| 
    1756 00000195       $C$L45:    
    1757                      .dwpsn  file "C:/ti/Workspace/PLC_certificate/Software/uC-LIB/lib_str.c",line 1187,column 5,is_stmt,i
    1758 00000195 0646          MOVL      ACC,*-SP[6]           ; [CPU_ALU] |1187| 
    1759 00000196 0F50          CMPL      ACC,*-SP[16]          ; [CPU_ALU] |1187| 
    1760 00000197 6003          B         $C$L46,NEQ            ; [CPU_ALU] |1187| 
    1761                      ; branchcc occurs ; [] |1187| 
    1762                      .dwpsn  file "C:/ti/Workspace/PLC_certificate/Software/uC-LIB/lib_str.c",line 1188,column 9,is_stmt,i
TMS320C2000 Assembler PC v20.2.1 Tue Feb 16 00:15:56 2021

Copyright (c) 1996-2018 Texas Instruments Incorporated
lib_str.asm                                                          PAGE   34

    1763 00000198 9A00          MOVB      AL,#0                 ; [CPU_ALU] |1188| 
    1764 00000199 6F21          B         $C$L52,UNC            ; [CPU_ALU] |1188| 
    1765                      ; branch occurs ; [] |1188| 
    1766 0000019a       $C$L46:    
    1767                      .dwpsn  file "C:/ti/Workspace/PLC_certificate/Software/uC-LIB/lib_str.c",line 1191,column 5,is_stmt,i
    1768 0000019a 9252          MOV       AL,*-SP[18]           ; [CPU_ALU] |1191| 
    1769 0000019b 5451          CMP       AL,*-SP[17]           ; [CPU_ALU] |1191| 
    1770 0000019c 6105          B         $C$L47,EQ             ; [CPU_ALU] |1191| 
    1771                      ; branchcc occurs ; [] |1191| 
    1772                      .dwpsn  file "C:/ti/Workspace/PLC_certificate/Software/uC-LIB/lib_str.c",line 1193,column 10,is_stmt,
    1773 0000019d 9251          MOV       AL,*-SP[17]           ; [CPU_ALU] |1193| 
    1774 0000019e 9E52          SUB       AL,*-SP[18]           ; [CPU_ALU] |1193| 
    1775 0000019f 9653          MOV       *-SP[19],AL           ; [CPU_ALU] |1193| 
    1776 000001a0 6F19          B         $C$L51,UNC            ; [CPU_ALU] 
    1777                      ; branch occurs ; [] 
    1778 000001a1       $C$L47:    
    1779                      .dwpsn  file "C:/ti/Workspace/PLC_certificate/Software/uC-LIB/lib_str.c",line 1195,column 12,is_stmt,
    1780 000001a1 9251          MOV       AL,*-SP[17]           ; [CPU_ALU] |1195| 
    1781 000001a2 6003          B         $C$L48,NEQ            ; [CPU_ALU] |1195| 
    1782                      ; branchcc occurs ; [] |1195| 
    1783                      .dwpsn  file "C:/ti/Workspace/PLC_certificate/Software/uC-LIB/lib_str.c",line 1196,column 10,is_stmt,
    1784 000001a3 2B53          MOV       *-SP[19],#0           ; [CPU_ALU] |1196| 
    1785 000001a4 6F15          B         $C$L51,UNC            ; [CPU_ALU] 
    1786                      ; branch occurs ; [] 
    1787 000001a5       $C$L48:    
    1788                      .dwpsn  file "C:/ti/Workspace/PLC_certificate/Software/uC-LIB/lib_str.c",line 1199,column 9,is_stmt,i
    1789 000001a5 064C          MOVL      ACC,*-SP[12]          ; [CPU_ALU] |1199| 
    1790 000001a6 600D          B         $C$L50,NEQ            ; [CPU_ALU] |1199| 
    1791                      ; branchcc occurs ; [] |1199| 
    1792                      .dwpsn  file "C:/ti/Workspace/PLC_certificate/Software/uC-LIB/lib_str.c",line 1200,column 13,is_stmt,
    1793 000001a7 064E          MOVL      ACC,*-SP[14]          ; [CPU_ALU] |1200| 
    1794 000001a8 6003          B         $C$L49,NEQ            ; [CPU_ALU] |1200| 
    1795                      ; branchcc occurs ; [] |1200| 
    1796                      .dwpsn  file "C:/ti/Workspace/PLC_certificate/Software/uC-LIB/lib_str.c",line 1201,column 17,is_stmt,
    1797 000001a9 2B53          MOV       *-SP[19],#0           ; [CPU_ALU] |1201| 
    1798 000001aa 6F0F          B         $C$L51,UNC            ; [CPU_ALU] 
    1799                      ; branch occurs ; [] 
    1800 000001ab       $C$L49:    
    1801                      .dwpsn  file "C:/ti/Workspace/PLC_certificate/Software/uC-LIB/lib_str.c",line 1203,column 17,is_stmt,
    1802 000001ab 8A4E          MOVL      XAR4,*-SP[14]         ; [CPU_ALU] |1203| 
    1803 000001ac 92C4          MOV       AL,*+XAR4[0]          ; [CPU_ALU] |1203| 
    1804              $C$DW$119       .dwtag  DW_TAG_TI_branch
    1805                      .dwattr $C$DW$119, DW_AT_low_pc(0x00)
    1806                      .dwattr $C$DW$119, DW_AT_name("_ASCII_ToLower")
    1807                      .dwattr $C$DW$119, DW_AT_TI_call
    1808              
    1809 000001ad 7640!         LCR       #_ASCII_ToLower       ; [CPU_ALU] |1203| 
         000001ae 0000 
    1810                      ; call occurs [#_ASCII_ToLower] ; [] |1203| 
    1811 000001af 9652          MOV       *-SP[18],AL           ; [CPU_ALU] |1203| 
    1812                      .dwpsn  file "C:/ti/Workspace/PLC_certificate/Software/uC-LIB/lib_str.c",line 1205,column 17,is_stmt,
    1813 000001b0 FF5C          NEG       AL                    ; [CPU_ALU] |1205| 
    1814 000001b1 9653          MOV       *-SP[19],AL           ; [CPU_ALU] |1205| 
    1815 000001b2 6F07          B         $C$L51,UNC            ; [CPU_ALU] 
    1816                      ; branch occurs ; [] 
TMS320C2000 Assembler PC v20.2.1 Tue Feb 16 00:15:56 2021

Copyright (c) 1996-2018 Texas Instruments Incorporated
lib_str.asm                                                          PAGE   35

    1817 000001b3       $C$L50:    
    1818                      .dwpsn  file "C:/ti/Workspace/PLC_certificate/Software/uC-LIB/lib_str.c",line 1208,column 13,is_stmt,
    1819 000001b3 8A4C          MOVL      XAR4,*-SP[12]         ; [CPU_ALU] |1208| 
    1820 000001b4 92C4          MOV       AL,*+XAR4[0]          ; [CPU_ALU] |1208| 
    1821              $C$DW$120       .dwtag  DW_TAG_TI_branch
    1822                      .dwattr $C$DW$120, DW_AT_low_pc(0x00)
    1823                      .dwattr $C$DW$120, DW_AT_name("_ASCII_ToLower")
    1824                      .dwattr $C$DW$120, DW_AT_TI_call
    1825              
    1826 000001b5 7640!         LCR       #_ASCII_ToLower       ; [CPU_ALU] |1208| 
         000001b6 0000 
    1827                      ; call occurs [#_ASCII_ToLower] ; [] |1208| 
    1828 000001b7 9651          MOV       *-SP[17],AL           ; [CPU_ALU] |1208| 
    1829                      .dwpsn  file "C:/ti/Workspace/PLC_certificate/Software/uC-LIB/lib_str.c",line 1209,column 13,is_stmt,
    1830 000001b8 9653          MOV       *-SP[19],AL           ; [CPU_ALU] |1209| 
    1831 000001b9       $C$L51:    
    1832                      .dwpsn  file "C:/ti/Workspace/PLC_certificate/Software/uC-LIB/lib_str.c",line 1214,column 5,is_stmt,i
    1833 000001b9 9253          MOV       AL,*-SP[19]           ; [CPU_ALU] |1214| 
    1834 000001ba       $C$L52:    
    1835                      .dwpsn  file "C:/ti/Workspace/PLC_certificate/Software/uC-LIB/lib_str.c",line 1215,column 1,is_stmt,i
    1836 000001ba FE94          SUBB      SP,#20                ; [CPU_ARAU] 
    1837                      .dwcfi  cfa_offset, -2
    1838              $C$DW$121       .dwtag  DW_TAG_TI_branch
    1839                      .dwattr $C$DW$121, DW_AT_low_pc(0x00)
    1840                      .dwattr $C$DW$121, DW_AT_TI_return
    1841              
    1842 000001bb 0006          LRETR     ; [CPU_ALU] 
    1843                      ; return occurs ; [] 
    1844                      .dwattr $C$DW$98, DW_AT_TI_end_file("C:/ti/Workspace/PLC_certificate/Software/uC-LIB/lib_str.c")
    1845                      .dwattr $C$DW$98, DW_AT_TI_end_line(0x4bf)
    1846                      .dwattr $C$DW$98, DW_AT_TI_end_column(0x01)
    1847                      .dwendentry
    1848                      .dwendtag $C$DW$98
    1849              
    1850 000001bc               .sect   ".text"
    1851                      .clink
    1852                      .global _Str_Char
    1853              
    1854              $C$DW$122       .dwtag  DW_TAG_subprogram
    1855                      .dwattr $C$DW$122, DW_AT_name("Str_Char")
    1856                      .dwattr $C$DW$122, DW_AT_low_pc(_Str_Char)
    1857                      .dwattr $C$DW$122, DW_AT_high_pc(0x00)
    1858                      .dwattr $C$DW$122, DW_AT_TI_symbol_name("_Str_Char")
    1859                      .dwattr $C$DW$122, DW_AT_external
    1860                      .dwattr $C$DW$122, DW_AT_type(*$C$DW$T$38)
    1861                      .dwattr $C$DW$122, DW_AT_TI_begin_file("C:/ti/Workspace/PLC_certificate/Software/uC-LIB/lib_str.c")
    1862                      .dwattr $C$DW$122, DW_AT_TI_begin_line(0x4f6)
    1863                      .dwattr $C$DW$122, DW_AT_TI_begin_column(0x0c)
    1864                      .dwattr $C$DW$122, DW_AT_TI_max_frame_size(-8)
    1865                      .dwpsn  file "C:/ti/Workspace/PLC_certificate/Software/uC-LIB/lib_str.c",line 1272,column 1,is_stmt,a
    1866              
    1867                      .dwfde $C$DW$CIE, _Str_Char
    1868              $C$DW$123       .dwtag  DW_TAG_formal_parameter
    1869                      .dwattr $C$DW$123, DW_AT_name("pstr")
    1870                      .dwattr $C$DW$123, DW_AT_TI_symbol_name("_pstr")
TMS320C2000 Assembler PC v20.2.1 Tue Feb 16 00:15:56 2021

Copyright (c) 1996-2018 Texas Instruments Incorporated
lib_str.asm                                                          PAGE   36

    1871                      .dwattr $C$DW$123, DW_AT_type(*$C$DW$T$28)
    1872                      .dwattr $C$DW$123, DW_AT_location[DW_OP_reg12]
    1873              
    1874              $C$DW$124       .dwtag  DW_TAG_formal_parameter
    1875                      .dwattr $C$DW$124, DW_AT_name("srch_char")
    1876                      .dwattr $C$DW$124, DW_AT_TI_symbol_name("_srch_char")
    1877                      .dwattr $C$DW$124, DW_AT_type(*$C$DW$T$21)
    1878                      .dwattr $C$DW$124, DW_AT_location[DW_OP_reg0]
    1879              
    1880              
    1881              ;***************************************************************
    1882              ;* FNAME: _Str_Char                     FR SIZE:   6           *
    1883              ;*                                                             *
    1884              ;* FUNCTION ENVIRONMENT                                        *
    1885              ;*                                                             *
    1886              ;* FUNCTION PROPERTIES                                         *
    1887              ;*                            0 Parameter,  5 Auto,  0 SOE     *
    1888              ;***************************************************************
    1889              
    1890 000001bc       _Str_Char:
    1891                      .dwcfi  cfa_offset, -2
    1892                      .dwcfi  save_reg_to_mem, 26, 0
    1893 000001bc FE06          ADDB      SP,#6                 ; [CPU_ARAU] 
    1894                      .dwcfi  cfa_offset, -8
    1895              $C$DW$125       .dwtag  DW_TAG_variable
    1896                      .dwattr $C$DW$125, DW_AT_name("pstr")
    1897                      .dwattr $C$DW$125, DW_AT_TI_symbol_name("_pstr")
    1898                      .dwattr $C$DW$125, DW_AT_type(*$C$DW$T$28)
    1899                      .dwattr $C$DW$125, DW_AT_location[DW_OP_breg20 -2]
    1900              
    1901              $C$DW$126       .dwtag  DW_TAG_variable
    1902                      .dwattr $C$DW$126, DW_AT_name("pstr_rtn")
    1903                      .dwattr $C$DW$126, DW_AT_TI_symbol_name("_pstr_rtn")
    1904                      .dwattr $C$DW$126, DW_AT_type(*$C$DW$T$38)
    1905                      .dwattr $C$DW$126, DW_AT_location[DW_OP_breg20 -4]
    1906              
    1907              $C$DW$127       .dwtag  DW_TAG_variable
    1908                      .dwattr $C$DW$127, DW_AT_name("srch_char")
    1909                      .dwattr $C$DW$127, DW_AT_TI_symbol_name("_srch_char")
    1910                      .dwattr $C$DW$127, DW_AT_type(*$C$DW$T$21)
    1911                      .dwattr $C$DW$127, DW_AT_location[DW_OP_breg20 -5]
    1912              
    1913 000001bd 9645          MOV       *-SP[5],AL            ; [CPU_ALU] |1272| 
    1914 000001be A842          MOVL      *-SP[2],XAR4          ; [CPU_ALU] |1272| 
    1915                      .dwpsn  file "C:/ti/Workspace/PLC_certificate/Software/uC-LIB/lib_str.c",line 1276,column 5,is_stmt,i
    1916 000001bf 8F40          MOVL      XAR5,#65535           ; [CPU_ARAU] |1276| 
         000001c0 FFFF 
    1917 000001c1 A0A9          MOVL      ACC,XAR5              ; [CPU_ALU] |1276| 
    1918 000001c2 5D45          MOVZ      AR5,*-SP[5]           ; [CPU_ALU] |1276| 
    1919              $C$DW$128       .dwtag  DW_TAG_TI_branch
    1920                      .dwattr $C$DW$128, DW_AT_low_pc(0x00)
    1921                      .dwattr $C$DW$128, DW_AT_name("_Str_Char_N")
    1922                      .dwattr $C$DW$128, DW_AT_TI_call
    1923              
    1924 000001c3 7640'         LCR       #_Str_Char_N          ; [CPU_ALU] |1276| 
TMS320C2000 Assembler PC v20.2.1 Tue Feb 16 00:15:56 2021

Copyright (c) 1996-2018 Texas Instruments Incorporated
lib_str.asm                                                          PAGE   37

         000001c4 01C8 
    1925                      ; call occurs [#_Str_Char_N] ; [] |1276| 
    1926 000001c5 A844          MOVL      *-SP[4],XAR4          ; [CPU_ALU] |1276| 
    1927                      .dwpsn  file "C:/ti/Workspace/PLC_certificate/Software/uC-LIB/lib_str.c",line 1280,column 5,is_stmt,i
    1928                      .dwpsn  file "C:/ti/Workspace/PLC_certificate/Software/uC-LIB/lib_str.c",line 1281,column 1,is_stmt,i
    1929 000001c6 FE86          SUBB      SP,#6                 ; [CPU_ARAU] 
    1930                      .dwcfi  cfa_offset, -2
    1931              $C$DW$129       .dwtag  DW_TAG_TI_branch
    1932                      .dwattr $C$DW$129, DW_AT_low_pc(0x00)
    1933                      .dwattr $C$DW$129, DW_AT_TI_return
    1934              
    1935 000001c7 0006          LRETR     ; [CPU_ALU] 
    1936                      ; return occurs ; [] 
    1937                      .dwattr $C$DW$122, DW_AT_TI_end_file("C:/ti/Workspace/PLC_certificate/Software/uC-LIB/lib_str.c")
    1938                      .dwattr $C$DW$122, DW_AT_TI_end_line(0x501)
    1939                      .dwattr $C$DW$122, DW_AT_TI_end_column(0x01)
    1940                      .dwendentry
    1941                      .dwendtag $C$DW$122
    1942              
    1943 000001c8               .sect   ".text"
    1944                      .clink
    1945                      .global _Str_Char_N
    1946              
    1947              $C$DW$130       .dwtag  DW_TAG_subprogram
    1948                      .dwattr $C$DW$130, DW_AT_name("Str_Char_N")
    1949                      .dwattr $C$DW$130, DW_AT_low_pc(_Str_Char_N)
    1950                      .dwattr $C$DW$130, DW_AT_high_pc(0x00)
    1951                      .dwattr $C$DW$130, DW_AT_TI_symbol_name("_Str_Char_N")
    1952                      .dwattr $C$DW$130, DW_AT_external
    1953                      .dwattr $C$DW$130, DW_AT_type(*$C$DW$T$38)
    1954                      .dwattr $C$DW$130, DW_AT_TI_begin_file("C:/ti/Workspace/PLC_certificate/Software/uC-LIB/lib_str.c")
    1955                      .dwattr $C$DW$130, DW_AT_TI_begin_line(0x546)
    1956                      .dwattr $C$DW$130, DW_AT_TI_begin_column(0x0c)
    1957                      .dwattr $C$DW$130, DW_AT_TI_max_frame_size(-12)
    1958                      .dwpsn  file "C:/ti/Workspace/PLC_certificate/Software/uC-LIB/lib_str.c",line 1353,column 1,is_stmt,a
    1959              
    1960                      .dwfde $C$DW$CIE, _Str_Char_N
    1961              $C$DW$131       .dwtag  DW_TAG_formal_parameter
    1962                      .dwattr $C$DW$131, DW_AT_name("pstr")
    1963                      .dwattr $C$DW$131, DW_AT_TI_symbol_name("_pstr")
    1964                      .dwattr $C$DW$131, DW_AT_type(*$C$DW$T$28)
    1965                      .dwattr $C$DW$131, DW_AT_location[DW_OP_reg12]
    1966              
    1967              $C$DW$132       .dwtag  DW_TAG_formal_parameter
    1968                      .dwattr $C$DW$132, DW_AT_name("len_max")
    1969                      .dwattr $C$DW$132, DW_AT_TI_symbol_name("_len_max")
    1970                      .dwattr $C$DW$132, DW_AT_type(*$C$DW$T$32)
    1971                      .dwattr $C$DW$132, DW_AT_location[DW_OP_reg0]
    1972              
    1973              $C$DW$133       .dwtag  DW_TAG_formal_parameter
    1974                      .dwattr $C$DW$133, DW_AT_name("srch_char")
    1975                      .dwattr $C$DW$133, DW_AT_TI_symbol_name("_srch_char")
    1976                      .dwattr $C$DW$133, DW_AT_type(*$C$DW$T$21)
    1977                      .dwattr $C$DW$133, DW_AT_location[DW_OP_reg14]
    1978              
TMS320C2000 Assembler PC v20.2.1 Tue Feb 16 00:15:56 2021

Copyright (c) 1996-2018 Texas Instruments Incorporated
lib_str.asm                                                          PAGE   38

    1979              
    1980              ;***************************************************************
    1981              ;* FNAME: _Str_Char_N                   FR SIZE:  10           *
    1982              ;*                                                             *
    1983              ;* FUNCTION ENVIRONMENT                                        *
    1984              ;*                                                             *
    1985              ;* FUNCTION PROPERTIES                                         *
    1986              ;*                            0 Parameter,  9 Auto,  0 SOE     *
    1987              ;***************************************************************
    1988              
    1989 000001c8       _Str_Char_N:
    1990                      .dwcfi  cfa_offset, -2
    1991                      .dwcfi  save_reg_to_mem, 26, 0
    1992 000001c8 FE0A          ADDB      SP,#10                ; [CPU_ARAU] 
    1993                      .dwcfi  cfa_offset, -12
    1994              $C$DW$134       .dwtag  DW_TAG_variable
    1995                      .dwattr $C$DW$134, DW_AT_name("pstr")
    1996                      .dwattr $C$DW$134, DW_AT_TI_symbol_name("_pstr")
    1997                      .dwattr $C$DW$134, DW_AT_type(*$C$DW$T$28)
    1998                      .dwattr $C$DW$134, DW_AT_location[DW_OP_breg20 -2]
    1999              
    2000              $C$DW$135       .dwtag  DW_TAG_variable
    2001                      .dwattr $C$DW$135, DW_AT_name("len_max")
    2002                      .dwattr $C$DW$135, DW_AT_TI_symbol_name("_len_max")
    2003                      .dwattr $C$DW$135, DW_AT_type(*$C$DW$T$32)
    2004                      .dwattr $C$DW$135, DW_AT_location[DW_OP_breg20 -4]
    2005              
    2006              $C$DW$136       .dwtag  DW_TAG_variable
    2007                      .dwattr $C$DW$136, DW_AT_name("pstr_char")
    2008                      .dwattr $C$DW$136, DW_AT_TI_symbol_name("_pstr_char")
    2009                      .dwattr $C$DW$136, DW_AT_type(*$C$DW$T$28)
    2010                      .dwattr $C$DW$136, DW_AT_location[DW_OP_breg20 -6]
    2011              
    2012              $C$DW$137       .dwtag  DW_TAG_variable
    2013                      .dwattr $C$DW$137, DW_AT_name("len_srch")
    2014                      .dwattr $C$DW$137, DW_AT_TI_symbol_name("_len_srch")
    2015                      .dwattr $C$DW$137, DW_AT_type(*$C$DW$T$32)
    2016                      .dwattr $C$DW$137, DW_AT_location[DW_OP_breg20 -8]
    2017              
    2018              $C$DW$138       .dwtag  DW_TAG_variable
    2019                      .dwattr $C$DW$138, DW_AT_name("srch_char")
    2020                      .dwattr $C$DW$138, DW_AT_TI_symbol_name("_srch_char")
    2021                      .dwattr $C$DW$138, DW_AT_type(*$C$DW$T$21)
    2022                      .dwattr $C$DW$138, DW_AT_location[DW_OP_breg20 -9]
    2023              
    2024 000001c9 7D49          MOV       *-SP[9],AR5           ; [CPU_ALU] |1353| 
    2025 000001ca 1E44          MOVL      *-SP[4],ACC           ; [CPU_ALU] |1353| 
    2026 000001cb A842          MOVL      *-SP[2],XAR4          ; [CPU_ALU] |1353| 
    2027                      .dwpsn  file "C:/ti/Workspace/PLC_certificate/Software/uC-LIB/lib_str.c",line 1358,column 5,is_stmt,i
    2028 000001cc 0642          MOVL      ACC,*-SP[2]           ; [CPU_ALU] |1358| 
    2029 000001cd 6003          B         $C$L53,NEQ            ; [CPU_ALU] |1358| 
    2030                      ; branchcc occurs ; [] |1358| 
    2031                      .dwpsn  file "C:/ti/Workspace/PLC_certificate/Software/uC-LIB/lib_str.c",line 1359,column 9,is_stmt,i
    2032 000001ce D400          MOVB      XAR4,#0               ; [CPU_ALU] |1359| 
    2033 000001cf 6F2A          B         $C$L61,UNC            ; [CPU_ALU] |1359| 
TMS320C2000 Assembler PC v20.2.1 Tue Feb 16 00:15:56 2021

Copyright (c) 1996-2018 Texas Instruments Incorporated
lib_str.asm                                                          PAGE   39

    2034                      ; branch occurs ; [] |1359| 
    2035 000001d0       $C$L53:    
    2036                      .dwpsn  file "C:/ti/Workspace/PLC_certificate/Software/uC-LIB/lib_str.c",line 1362,column 5,is_stmt,i
    2037 000001d0 0644          MOVL      ACC,*-SP[4]           ; [CPU_ALU] |1362| 
    2038 000001d1 6003          B         $C$L54,NEQ            ; [CPU_ALU] |1362| 
    2039                      ; branchcc occurs ; [] |1362| 
    2040                      .dwpsn  file "C:/ti/Workspace/PLC_certificate/Software/uC-LIB/lib_str.c",line 1363,column 9,is_stmt,i
    2041 000001d2 D400          MOVB      XAR4,#0               ; [CPU_ALU] |1363| 
    2042 000001d3 6F26          B         $C$L61,UNC            ; [CPU_ALU] |1363| 
    2043                      ; branch occurs ; [] |1363| 
    2044 000001d4       $C$L54:    
    2045                      .dwpsn  file "C:/ti/Workspace/PLC_certificate/Software/uC-LIB/lib_str.c",line 1367,column 5,is_stmt,i
    2046 000001d4 0642          MOVL      ACC,*-SP[2]           ; [CPU_ALU] |1367| 
    2047 000001d5 1E46          MOVL      *-SP[6],ACC           ; [CPU_ALU] |1367| 
    2048                      .dwpsn  file "C:/ti/Workspace/PLC_certificate/Software/uC-LIB/lib_str.c",line 1368,column 5,is_stmt,i
    2049 000001d6 0200          MOVB      ACC,#0                ; [CPU_ALU] |1368| 
    2050 000001d7 1E48          MOVL      *-SP[8],ACC           ; [CPU_ALU] |1368| 
    2051                      .dwpsn  file "C:/ti/Workspace/PLC_certificate/Software/uC-LIB/lib_str.c",line 1370,column 5,is_stmt,i
    2052 000001d8 6F07          B         $C$L56,UNC            ; [CPU_ALU] |1370| 
    2053                      ; branch occurs ; [] |1370| 
    2054 000001d9       $C$L55:    
    2055                      .dwpsn  file "C:/ti/Workspace/PLC_certificate/Software/uC-LIB/lib_str.c",line 1374,column 9,is_stmt,i
    2056 000001d9 0201          MOVB      ACC,#1                ; [CPU_ALU] |1374| 
    2057 000001da 0746          ADDL      ACC,*-SP[6]           ; [CPU_ALU] |1374| 
    2058 000001db 1E46          MOVL      *-SP[6],ACC           ; [CPU_ALU] |1374| 
    2059                      .dwpsn  file "C:/ti/Workspace/PLC_certificate/Software/uC-LIB/lib_str.c",line 1375,column 9,is_stmt,i
    2060 000001dc 0201          MOVB      ACC,#1                ; [CPU_ALU] |1375| 
    2061 000001dd 0748          ADDL      ACC,*-SP[8]           ; [CPU_ALU] |1375| 
    2062 000001de 1E48          MOVL      *-SP[8],ACC           ; [CPU_ALU] |1375| 
    2063 000001df       $C$L56:    
    2064                      .dwpsn  file "C:/ti/Workspace/PLC_certificate/Software/uC-LIB/lib_str.c",line 1370,column 12,is_stmt,
    2065 000001df 0646          MOVL      ACC,*-SP[6]           ; [CPU_ALU] |1370| 
    2066 000001e0 610A          B         $C$L57,EQ             ; [CPU_ALU] |1370| 
    2067                      ; branchcc occurs ; [] |1370| 
    2068 000001e1 8A46          MOVL      XAR4,*-SP[6]          ; [CPU_ALU] |1370| 
    2069 000001e2 92C4          MOV       AL,*+XAR4[0]          ; [CPU_ALU] |1370| 
    2070 000001e3 6107          B         $C$L57,EQ             ; [CPU_ALU] |1370| 
    2071                      ; branchcc occurs ; [] |1370| 
    2072 000001e4 9249          MOV       AL,*-SP[9]            ; [CPU_ALU] |1370| 
    2073 000001e5 54C4          CMP       AL,*+XAR4[0]          ; [CPU_ALU] |1370| 
    2074 000001e6 6104          B         $C$L57,EQ             ; [CPU_ALU] |1370| 
    2075                      ; branchcc occurs ; [] |1370| 
    2076 000001e7 0644          MOVL      ACC,*-SP[4]           ; [CPU_ALU] |1370| 
    2077 000001e8 0F48          CMPL      ACC,*-SP[8]           ; [CPU_ALU] |1370| 
    2078 000001e9 66F0          B         $C$L55,HI             ; [CPU_ALU] |1370| 
    2079                      ; branchcc occurs ; [] |1370| 
    2080 000001ea       $C$L57:    
    2081                      .dwpsn  file "C:/ti/Workspace/PLC_certificate/Software/uC-LIB/lib_str.c",line 1379,column 5,is_stmt,i
    2082 000001ea 0646          MOVL      ACC,*-SP[6]           ; [CPU_ALU] |1379| 
    2083 000001eb 6003          B         $C$L58,NEQ            ; [CPU_ALU] |1379| 
    2084                      ; branchcc occurs ; [] |1379| 
    2085                      .dwpsn  file "C:/ti/Workspace/PLC_certificate/Software/uC-LIB/lib_str.c",line 1380,column 9,is_stmt,i
    2086 000001ec D400          MOVB      XAR4,#0               ; [CPU_ALU] |1380| 
    2087 000001ed 6F0C          B         $C$L61,UNC            ; [CPU_ALU] |1380| 
    2088                      ; branch occurs ; [] |1380| 
TMS320C2000 Assembler PC v20.2.1 Tue Feb 16 00:15:56 2021

Copyright (c) 1996-2018 Texas Instruments Incorporated
lib_str.asm                                                          PAGE   40

    2089 000001ee       $C$L58:    
    2090                      .dwpsn  file "C:/ti/Workspace/PLC_certificate/Software/uC-LIB/lib_str.c",line 1383,column 5,is_stmt,i
    2091 000001ee 0644          MOVL      ACC,*-SP[4]           ; [CPU_ALU] |1383| 
    2092 000001ef 0F48          CMPL      ACC,*-SP[8]           ; [CPU_ALU] |1383| 
    2093 000001f0 6603          B         $C$L59,HI             ; [CPU_ALU] |1383| 
    2094                      ; branchcc occurs ; [] |1383| 
    2095                      .dwpsn  file "C:/ti/Workspace/PLC_certificate/Software/uC-LIB/lib_str.c",line 1384,column 9,is_stmt,i
    2096 000001f1 D400          MOVB      XAR4,#0               ; [CPU_ALU] |1384| 
    2097 000001f2 6F07          B         $C$L61,UNC            ; [CPU_ALU] |1384| 
    2098                      ; branch occurs ; [] |1384| 
    2099 000001f3       $C$L59:    
    2100                      .dwpsn  file "C:/ti/Workspace/PLC_certificate/Software/uC-LIB/lib_str.c",line 1387,column 5,is_stmt,i
    2101 000001f3 8A46          MOVL      XAR4,*-SP[6]          ; [CPU_ALU] |1387| 
    2102 000001f4 9249          MOV       AL,*-SP[9]            ; [CPU_ALU] |1387| 
    2103 000001f5 54C4          CMP       AL,*+XAR4[0]          ; [CPU_ALU] |1387| 
    2104 000001f6 6103          B         $C$L60,EQ             ; [CPU_ALU] |1387| 
    2105                      ; branchcc occurs ; [] |1387| 
    2106                      .dwpsn  file "C:/ti/Workspace/PLC_certificate/Software/uC-LIB/lib_str.c",line 1388,column 10,is_stmt,
    2107 000001f7 D400          MOVB      XAR4,#0               ; [CPU_ALU] |1388| 
    2108 000001f8 6F01          B         $C$L61,UNC            ; [CPU_ALU] |1388| 
    2109                      ; branch occurs ; [] |1388| 
    2110 000001f9       $C$L60:    
    2111                      .dwpsn  file "C:/ti/Workspace/PLC_certificate/Software/uC-LIB/lib_str.c",line 1392,column 5,is_stmt,i
    2112 000001f9       $C$L61:    
    2113                      .dwpsn  file "C:/ti/Workspace/PLC_certificate/Software/uC-LIB/lib_str.c",line 1393,column 1,is_stmt,i
    2114 000001f9 FE8A          SUBB      SP,#10                ; [CPU_ARAU] 
    2115                      .dwcfi  cfa_offset, -2
    2116              $C$DW$139       .dwtag  DW_TAG_TI_branch
    2117                      .dwattr $C$DW$139, DW_AT_low_pc(0x00)
    2118                      .dwattr $C$DW$139, DW_AT_TI_return
    2119              
    2120 000001fa 0006          LRETR     ; [CPU_ALU] 
    2121                      ; return occurs ; [] 
    2122                      .dwattr $C$DW$130, DW_AT_TI_end_file("C:/ti/Workspace/PLC_certificate/Software/uC-LIB/lib_str.c")
    2123                      .dwattr $C$DW$130, DW_AT_TI_end_line(0x571)
    2124                      .dwattr $C$DW$130, DW_AT_TI_end_column(0x01)
    2125                      .dwendentry
    2126                      .dwendtag $C$DW$130
    2127              
    2128 000001fb               .sect   ".text"
    2129                      .clink
    2130                      .global _Str_Char_Last
    2131              
    2132              $C$DW$140       .dwtag  DW_TAG_subprogram
    2133                      .dwattr $C$DW$140, DW_AT_name("Str_Char_Last")
    2134                      .dwattr $C$DW$140, DW_AT_low_pc(_Str_Char_Last)
    2135                      .dwattr $C$DW$140, DW_AT_high_pc(0x00)
    2136                      .dwattr $C$DW$140, DW_AT_TI_symbol_name("_Str_Char_Last")
    2137                      .dwattr $C$DW$140, DW_AT_external
    2138                      .dwattr $C$DW$140, DW_AT_type(*$C$DW$T$38)
    2139                      .dwattr $C$DW$140, DW_AT_TI_begin_file("C:/ti/Workspace/PLC_certificate/Software/uC-LIB/lib_str.c")
    2140                      .dwattr $C$DW$140, DW_AT_TI_begin_line(0x5a7)
    2141                      .dwattr $C$DW$140, DW_AT_TI_begin_column(0x0c)
    2142                      .dwattr $C$DW$140, DW_AT_TI_max_frame_size(-8)
    2143                      .dwpsn  file "C:/ti/Workspace/PLC_certificate/Software/uC-LIB/lib_str.c",line 1449,column 1,is_stmt,a
TMS320C2000 Assembler PC v20.2.1 Tue Feb 16 00:15:56 2021

Copyright (c) 1996-2018 Texas Instruments Incorporated
lib_str.asm                                                          PAGE   41

    2144              
    2145                      .dwfde $C$DW$CIE, _Str_Char_Last
    2146              $C$DW$141       .dwtag  DW_TAG_formal_parameter
    2147                      .dwattr $C$DW$141, DW_AT_name("pstr")
    2148                      .dwattr $C$DW$141, DW_AT_TI_symbol_name("_pstr")
    2149                      .dwattr $C$DW$141, DW_AT_type(*$C$DW$T$28)
    2150                      .dwattr $C$DW$141, DW_AT_location[DW_OP_reg12]
    2151              
    2152              $C$DW$142       .dwtag  DW_TAG_formal_parameter
    2153                      .dwattr $C$DW$142, DW_AT_name("srch_char")
    2154                      .dwattr $C$DW$142, DW_AT_TI_symbol_name("_srch_char")
    2155                      .dwattr $C$DW$142, DW_AT_type(*$C$DW$T$21)
    2156                      .dwattr $C$DW$142, DW_AT_location[DW_OP_reg0]
    2157              
    2158              
    2159              ;***************************************************************
    2160              ;* FNAME: _Str_Char_Last                FR SIZE:   6           *
    2161              ;*                                                             *
    2162              ;* FUNCTION ENVIRONMENT                                        *
    2163              ;*                                                             *
    2164              ;* FUNCTION PROPERTIES                                         *
    2165              ;*                            0 Parameter,  5 Auto,  0 SOE     *
    2166              ;***************************************************************
    2167              
    2168 000001fb       _Str_Char_Last:
    2169                      .dwcfi  cfa_offset, -2
    2170                      .dwcfi  save_reg_to_mem, 26, 0
    2171 000001fb FE06          ADDB      SP,#6                 ; [CPU_ARAU] 
    2172                      .dwcfi  cfa_offset, -8
    2173              $C$DW$143       .dwtag  DW_TAG_variable
    2174                      .dwattr $C$DW$143, DW_AT_name("pstr")
    2175                      .dwattr $C$DW$143, DW_AT_TI_symbol_name("_pstr")
    2176                      .dwattr $C$DW$143, DW_AT_type(*$C$DW$T$28)
    2177                      .dwattr $C$DW$143, DW_AT_location[DW_OP_breg20 -2]
    2178              
    2179              $C$DW$144       .dwtag  DW_TAG_variable
    2180                      .dwattr $C$DW$144, DW_AT_name("pstr_rtn")
    2181                      .dwattr $C$DW$144, DW_AT_TI_symbol_name("_pstr_rtn")
    2182                      .dwattr $C$DW$144, DW_AT_type(*$C$DW$T$38)
    2183                      .dwattr $C$DW$144, DW_AT_location[DW_OP_breg20 -4]
    2184              
    2185              $C$DW$145       .dwtag  DW_TAG_variable
    2186                      .dwattr $C$DW$145, DW_AT_name("srch_char")
    2187                      .dwattr $C$DW$145, DW_AT_TI_symbol_name("_srch_char")
    2188                      .dwattr $C$DW$145, DW_AT_type(*$C$DW$T$21)
    2189                      .dwattr $C$DW$145, DW_AT_location[DW_OP_breg20 -5]
    2190              
    2191 000001fc 9645          MOV       *-SP[5],AL            ; [CPU_ALU] |1449| 
    2192 000001fd A842          MOVL      *-SP[2],XAR4          ; [CPU_ALU] |1449| 
    2193                      .dwpsn  file "C:/ti/Workspace/PLC_certificate/Software/uC-LIB/lib_str.c",line 1453,column 5,is_stmt,i
    2194 000001fe 8F40          MOVL      XAR5,#65535           ; [CPU_ARAU] |1453| 
         000001ff FFFF 
    2195 00000200 A0A9          MOVL      ACC,XAR5              ; [CPU_ALU] |1453| 
    2196 00000201 5D45          MOVZ      AR5,*-SP[5]           ; [CPU_ALU] |1453| 
    2197              $C$DW$146       .dwtag  DW_TAG_TI_branch
TMS320C2000 Assembler PC v20.2.1 Tue Feb 16 00:15:56 2021

Copyright (c) 1996-2018 Texas Instruments Incorporated
lib_str.asm                                                          PAGE   42

    2198                      .dwattr $C$DW$146, DW_AT_low_pc(0x00)
    2199                      .dwattr $C$DW$146, DW_AT_name("_Str_Char_Last_N")
    2200                      .dwattr $C$DW$146, DW_AT_TI_call
    2201              
    2202 00000202 7640'         LCR       #_Str_Char_Last_N     ; [CPU_ALU] |1453| 
         00000203 0207 
    2203                      ; call occurs [#_Str_Char_Last_N] ; [] |1453| 
    2204 00000204 A844          MOVL      *-SP[4],XAR4          ; [CPU_ALU] |1453| 
    2205                      .dwpsn  file "C:/ti/Workspace/PLC_certificate/Software/uC-LIB/lib_str.c",line 1457,column 5,is_stmt,i
    2206                      .dwpsn  file "C:/ti/Workspace/PLC_certificate/Software/uC-LIB/lib_str.c",line 1458,column 1,is_stmt,i
    2207 00000205 FE86          SUBB      SP,#6                 ; [CPU_ARAU] 
    2208                      .dwcfi  cfa_offset, -2
    2209              $C$DW$147       .dwtag  DW_TAG_TI_branch
    2210                      .dwattr $C$DW$147, DW_AT_low_pc(0x00)
    2211                      .dwattr $C$DW$147, DW_AT_TI_return
    2212              
    2213 00000206 0006          LRETR     ; [CPU_ALU] 
    2214                      ; return occurs ; [] 
    2215                      .dwattr $C$DW$140, DW_AT_TI_end_file("C:/ti/Workspace/PLC_certificate/Software/uC-LIB/lib_str.c")
    2216                      .dwattr $C$DW$140, DW_AT_TI_end_line(0x5b2)
    2217                      .dwattr $C$DW$140, DW_AT_TI_end_column(0x01)
    2218                      .dwendentry
    2219                      .dwendtag $C$DW$140
    2220              
    2221 00000207               .sect   ".text"
    2222                      .clink
    2223                      .global _Str_Char_Last_N
    2224              
    2225              $C$DW$148       .dwtag  DW_TAG_subprogram
    2226                      .dwattr $C$DW$148, DW_AT_name("Str_Char_Last_N")
    2227                      .dwattr $C$DW$148, DW_AT_low_pc(_Str_Char_Last_N)
    2228                      .dwattr $C$DW$148, DW_AT_high_pc(0x00)
    2229                      .dwattr $C$DW$148, DW_AT_TI_symbol_name("_Str_Char_Last_N")
    2230                      .dwattr $C$DW$148, DW_AT_external
    2231                      .dwattr $C$DW$148, DW_AT_type(*$C$DW$T$38)
    2232                      .dwattr $C$DW$148, DW_AT_TI_begin_file("C:/ti/Workspace/PLC_certificate/Software/uC-LIB/lib_str.c")
    2233                      .dwattr $C$DW$148, DW_AT_TI_begin_line(0x5f9)
    2234                      .dwattr $C$DW$148, DW_AT_TI_begin_column(0x0c)
    2235                      .dwattr $C$DW$148, DW_AT_TI_max_frame_size(-14)
    2236                      .dwpsn  file "C:/ti/Workspace/PLC_certificate/Software/uC-LIB/lib_str.c",line 1532,column 1,is_stmt,a
    2237              
    2238                      .dwfde $C$DW$CIE, _Str_Char_Last_N
    2239              $C$DW$149       .dwtag  DW_TAG_formal_parameter
    2240                      .dwattr $C$DW$149, DW_AT_name("pstr")
    2241                      .dwattr $C$DW$149, DW_AT_TI_symbol_name("_pstr")
    2242                      .dwattr $C$DW$149, DW_AT_type(*$C$DW$T$28)
    2243                      .dwattr $C$DW$149, DW_AT_location[DW_OP_reg12]
    2244              
    2245              $C$DW$150       .dwtag  DW_TAG_formal_parameter
    2246                      .dwattr $C$DW$150, DW_AT_name("len_max")
    2247                      .dwattr $C$DW$150, DW_AT_TI_symbol_name("_len_max")
    2248                      .dwattr $C$DW$150, DW_AT_type(*$C$DW$T$32)
    2249                      .dwattr $C$DW$150, DW_AT_location[DW_OP_reg0]
    2250              
    2251              $C$DW$151       .dwtag  DW_TAG_formal_parameter
TMS320C2000 Assembler PC v20.2.1 Tue Feb 16 00:15:56 2021

Copyright (c) 1996-2018 Texas Instruments Incorporated
lib_str.asm                                                          PAGE   43

    2252                      .dwattr $C$DW$151, DW_AT_name("srch_char")
    2253                      .dwattr $C$DW$151, DW_AT_TI_symbol_name("_srch_char")
    2254                      .dwattr $C$DW$151, DW_AT_type(*$C$DW$T$21)
    2255                      .dwattr $C$DW$151, DW_AT_location[DW_OP_reg14]
    2256              
    2257              
    2258              ;***************************************************************
    2259              ;* FNAME: _Str_Char_Last_N              FR SIZE:  12           *
    2260              ;*                                                             *
    2261              ;* FUNCTION ENVIRONMENT                                        *
    2262              ;*                                                             *
    2263              ;* FUNCTION PROPERTIES                                         *
    2264              ;*                            0 Parameter, 11 Auto,  0 SOE     *
    2265              ;***************************************************************
    2266              
    2267 00000207       _Str_Char_Last_N:
    2268                      .dwcfi  cfa_offset, -2
    2269                      .dwcfi  save_reg_to_mem, 26, 0
    2270 00000207 FE0C          ADDB      SP,#12                ; [CPU_ARAU] 
    2271                      .dwcfi  cfa_offset, -14
    2272              $C$DW$152       .dwtag  DW_TAG_variable
    2273                      .dwattr $C$DW$152, DW_AT_name("pstr")
    2274                      .dwattr $C$DW$152, DW_AT_TI_symbol_name("_pstr")
    2275                      .dwattr $C$DW$152, DW_AT_type(*$C$DW$T$28)
    2276                      .dwattr $C$DW$152, DW_AT_location[DW_OP_breg20 -2]
    2277              
    2278              $C$DW$153       .dwtag  DW_TAG_variable
    2279                      .dwattr $C$DW$153, DW_AT_name("len_max")
    2280                      .dwattr $C$DW$153, DW_AT_TI_symbol_name("_len_max")
    2281                      .dwattr $C$DW$153, DW_AT_type(*$C$DW$T$32)
    2282                      .dwattr $C$DW$153, DW_AT_location[DW_OP_breg20 -4]
    2283              
    2284              $C$DW$154       .dwtag  DW_TAG_variable
    2285                      .dwattr $C$DW$154, DW_AT_name("pstr_char")
    2286                      .dwattr $C$DW$154, DW_AT_TI_symbol_name("_pstr_char")
    2287                      .dwattr $C$DW$154, DW_AT_type(*$C$DW$T$28)
    2288                      .dwattr $C$DW$154, DW_AT_location[DW_OP_breg20 -6]
    2289              
    2290              $C$DW$155       .dwtag  DW_TAG_variable
    2291                      .dwattr $C$DW$155, DW_AT_name("str_len_max")
    2292                      .dwattr $C$DW$155, DW_AT_TI_symbol_name("_str_len_max")
    2293                      .dwattr $C$DW$155, DW_AT_type(*$C$DW$T$32)
    2294                      .dwattr $C$DW$155, DW_AT_location[DW_OP_breg20 -8]
    2295              
    2296              $C$DW$156       .dwtag  DW_TAG_variable
    2297                      .dwattr $C$DW$156, DW_AT_name("str_len")
    2298                      .dwattr $C$DW$156, DW_AT_TI_symbol_name("_str_len")
    2299                      .dwattr $C$DW$156, DW_AT_type(*$C$DW$T$32)
    2300                      .dwattr $C$DW$156, DW_AT_location[DW_OP_breg20 -10]
    2301              
    2302              $C$DW$157       .dwtag  DW_TAG_variable
    2303                      .dwattr $C$DW$157, DW_AT_name("srch_char")
    2304                      .dwattr $C$DW$157, DW_AT_TI_symbol_name("_srch_char")
    2305                      .dwattr $C$DW$157, DW_AT_type(*$C$DW$T$21)
    2306                      .dwattr $C$DW$157, DW_AT_location[DW_OP_breg20 -11]
TMS320C2000 Assembler PC v20.2.1 Tue Feb 16 00:15:56 2021

Copyright (c) 1996-2018 Texas Instruments Incorporated
lib_str.asm                                                          PAGE   44

    2307              
    2308 00000208 7D4B          MOV       *-SP[11],AR5          ; [CPU_ALU] |1532| 
    2309 00000209 1E44          MOVL      *-SP[4],ACC           ; [CPU_ALU] |1532| 
    2310 0000020a A842          MOVL      *-SP[2],XAR4          ; [CPU_ALU] |1532| 
    2311                      .dwpsn  file "C:/ti/Workspace/PLC_certificate/Software/uC-LIB/lib_str.c",line 1538,column 5,is_stmt,i
    2312 0000020b 0642          MOVL      ACC,*-SP[2]           ; [CPU_ALU] |1538| 
    2313 0000020c 6003          B         $C$L62,NEQ            ; [CPU_ALU] |1538| 
    2314                      ; branchcc occurs ; [] |1538| 
    2315                      .dwpsn  file "C:/ti/Workspace/PLC_certificate/Software/uC-LIB/lib_str.c",line 1539,column 9,is_stmt,i
    2316 0000020d D400          MOVB      XAR4,#0               ; [CPU_ALU] |1539| 
    2317 0000020e 6F24          B         $C$L68,UNC            ; [CPU_ALU] |1539| 
    2318                      ; branch occurs ; [] |1539| 
    2319 0000020f       $C$L62:    
    2320                      .dwpsn  file "C:/ti/Workspace/PLC_certificate/Software/uC-LIB/lib_str.c",line 1542,column 5,is_stmt,i
    2321 0000020f 0644          MOVL      ACC,*-SP[4]           ; [CPU_ALU] |1542| 
    2322 00000210 6003          B         $C$L63,NEQ            ; [CPU_ALU] |1542| 
    2323                      ; branchcc occurs ; [] |1542| 
    2324                      .dwpsn  file "C:/ti/Workspace/PLC_certificate/Software/uC-LIB/lib_str.c",line 1543,column 9,is_stmt,i
    2325 00000211 D400          MOVB      XAR4,#0               ; [CPU_ALU] |1543| 
    2326 00000212 6F20          B         $C$L68,UNC            ; [CPU_ALU] |1543| 
    2327                      ; branch occurs ; [] |1543| 
    2328 00000213       $C$L63:    
    2329                      .dwpsn  file "C:/ti/Workspace/PLC_certificate/Software/uC-LIB/lib_str.c",line 1547,column 5,is_stmt,i
    2330 00000213 0642          MOVL      ACC,*-SP[2]           ; [CPU_ALU] |1547| 
    2331 00000214 1E46          MOVL      *-SP[6],ACC           ; [CPU_ALU] |1547| 
    2332                      .dwpsn  file "C:/ti/Workspace/PLC_certificate/Software/uC-LIB/lib_str.c",line 1548,column 6,is_stmt,i
    2333 00000215 0644          MOVL      ACC,*-SP[4]           ; [CPU_ALU] |1548| 
    2334 00000216 1901          SUBB      ACC,#1                ; [CPU_ALU] |1548| 
    2335 00000217 1E48          MOVL      *-SP[8],ACC           ; [CPU_ALU] |1548| 
    2336                      .dwpsn  file "C:/ti/Workspace/PLC_certificate/Software/uC-LIB/lib_str.c",line 1549,column 6,is_stmt,i
    2337              $C$DW$158       .dwtag  DW_TAG_TI_branch
    2338                      .dwattr $C$DW$158, DW_AT_low_pc(0x00)
    2339                      .dwattr $C$DW$158, DW_AT_name("_Str_Len_N")
    2340                      .dwattr $C$DW$158, DW_AT_TI_call
    2341              
    2342 00000218 7640'         LCR       #_Str_Len_N           ; [CPU_ALU] |1549| 
         00000219 000A 
    2343                      ; call occurs [#_Str_Len_N] ; [] |1549| 
    2344 0000021a 1E4A          MOVL      *-SP[10],ACC          ; [CPU_ALU] |1549| 
    2345                      .dwpsn  file "C:/ti/Workspace/PLC_certificate/Software/uC-LIB/lib_str.c",line 1550,column 5,is_stmt,i
    2346 0000021b 064A          MOVL      ACC,*-SP[10]          ; [CPU_ALU] |1550| 
    2347 0000021c 0746          ADDL      ACC,*-SP[6]           ; [CPU_ALU] |1550| 
    2348 0000021d 1E46          MOVL      *-SP[6],ACC           ; [CPU_ALU] |1550| 
    2349                      .dwpsn  file "C:/ti/Workspace/PLC_certificate/Software/uC-LIB/lib_str.c",line 1552,column 5,is_stmt,i
    2350 0000021e 0646          MOVL      ACC,*-SP[6]           ; [CPU_ALU] |1552| 
    2351 0000021f 6006          B         $C$L65,NEQ            ; [CPU_ALU] |1552| 
    2352                      ; branchcc occurs ; [] |1552| 
    2353                      .dwpsn  file "C:/ti/Workspace/PLC_certificate/Software/uC-LIB/lib_str.c",line 1553,column 9,is_stmt,i
    2354 00000220 D400          MOVB      XAR4,#0               ; [CPU_ALU] |1553| 
    2355 00000221 6F11          B         $C$L68,UNC            ; [CPU_ALU] |1553| 
    2356                      ; branch occurs ; [] |1553| 
    2357 00000222       $C$L64:    
    2358                      .dwpsn  file "C:/ti/Workspace/PLC_certificate/Software/uC-LIB/lib_str.c",line 1558,column 9,is_stmt,i
    2359 00000222 0201          MOVB      ACC,#1                ; [CPU_ALU] |1558| 
    2360 00000223 5641          SUBL      *-SP[6],ACC           ; [CPU_ALU] |1558| 
TMS320C2000 Assembler PC v20.2.1 Tue Feb 16 00:15:56 2021

Copyright (c) 1996-2018 Texas Instruments Incorporated
lib_str.asm                                                          PAGE   45

         00000224 0046 
    2361 00000225       $C$L65:    
    2362                      .dwpsn  file "C:/ti/Workspace/PLC_certificate/Software/uC-LIB/lib_str.c",line 1556,column 12,is_stmt,
    2363 00000225 0642          MOVL      ACC,*-SP[2]           ; [CPU_ALU] |1556| 
    2364 00000226 0F46          CMPL      ACC,*-SP[6]           ; [CPU_ALU] |1556| 
    2365 00000227 6105          B         $C$L66,EQ             ; [CPU_ALU] |1556| 
    2366                      ; branchcc occurs ; [] |1556| 
    2367 00000228 8A46          MOVL      XAR4,*-SP[6]          ; [CPU_ALU] |1556| 
    2368 00000229 924B          MOV       AL,*-SP[11]           ; [CPU_ALU] |1556| 
    2369 0000022a 54C4          CMP       AL,*+XAR4[0]          ; [CPU_ALU] |1556| 
    2370 0000022b 60F7          B         $C$L64,NEQ            ; [CPU_ALU] |1556| 
    2371                      ; branchcc occurs ; [] |1556| 
    2372 0000022c       $C$L66:    
    2373                      .dwpsn  file "C:/ti/Workspace/PLC_certificate/Software/uC-LIB/lib_str.c",line 1562,column 5,is_stmt,i
    2374 0000022c 8A46          MOVL      XAR4,*-SP[6]          ; [CPU_ALU] |1562| 
    2375 0000022d 924B          MOV       AL,*-SP[11]           ; [CPU_ALU] |1562| 
    2376 0000022e 54C4          CMP       AL,*+XAR4[0]          ; [CPU_ALU] |1562| 
    2377 0000022f 6103          B         $C$L67,EQ             ; [CPU_ALU] |1562| 
    2378                      ; branchcc occurs ; [] |1562| 
    2379                      .dwpsn  file "C:/ti/Workspace/PLC_certificate/Software/uC-LIB/lib_str.c",line 1563,column 10,is_stmt,
    2380 00000230 D400          MOVB      XAR4,#0               ; [CPU_ALU] |1563| 
    2381 00000231 6F01          B         $C$L68,UNC            ; [CPU_ALU] |1563| 
    2382                      ; branch occurs ; [] |1563| 
    2383 00000232       $C$L67:    
    2384                      .dwpsn  file "C:/ti/Workspace/PLC_certificate/Software/uC-LIB/lib_str.c",line 1567,column 5,is_stmt,i
    2385 00000232       $C$L68:    
    2386                      .dwpsn  file "C:/ti/Workspace/PLC_certificate/Software/uC-LIB/lib_str.c",line 1568,column 1,is_stmt,i
    2387 00000232 FE8C          SUBB      SP,#12                ; [CPU_ARAU] 
    2388                      .dwcfi  cfa_offset, -2
    2389              $C$DW$159       .dwtag  DW_TAG_TI_branch
    2390                      .dwattr $C$DW$159, DW_AT_low_pc(0x00)
    2391                      .dwattr $C$DW$159, DW_AT_TI_return
    2392              
    2393 00000233 0006          LRETR     ; [CPU_ALU] 
    2394                      ; return occurs ; [] 
    2395                      .dwattr $C$DW$148, DW_AT_TI_end_file("C:/ti/Workspace/PLC_certificate/Software/uC-LIB/lib_str.c")
    2396                      .dwattr $C$DW$148, DW_AT_TI_end_line(0x620)
    2397                      .dwattr $C$DW$148, DW_AT_TI_end_column(0x01)
    2398                      .dwendentry
    2399                      .dwendtag $C$DW$148
    2400              
    2401 00000234               .sect   ".text"
    2402                      .clink
    2403                      .global _Str_Char_Replace
    2404              
    2405              $C$DW$160       .dwtag  DW_TAG_subprogram
    2406                      .dwattr $C$DW$160, DW_AT_name("Str_Char_Replace")
    2407                      .dwattr $C$DW$160, DW_AT_low_pc(_Str_Char_Replace)
    2408                      .dwattr $C$DW$160, DW_AT_high_pc(0x00)
    2409                      .dwattr $C$DW$160, DW_AT_TI_symbol_name("_Str_Char_Replace")
    2410                      .dwattr $C$DW$160, DW_AT_external
    2411                      .dwattr $C$DW$160, DW_AT_type(*$C$DW$T$38)
    2412                      .dwattr $C$DW$160, DW_AT_TI_begin_file("C:/ti/Workspace/PLC_certificate/Software/uC-LIB/lib_str.c")
    2413                      .dwattr $C$DW$160, DW_AT_TI_begin_line(0x648)
    2414                      .dwattr $C$DW$160, DW_AT_TI_begin_column(0x0c)
TMS320C2000 Assembler PC v20.2.1 Tue Feb 16 00:15:56 2021

Copyright (c) 1996-2018 Texas Instruments Incorporated
lib_str.asm                                                          PAGE   46

    2415                      .dwattr $C$DW$160, DW_AT_TI_max_frame_size(-10)
    2416                      .dwpsn  file "C:/ti/Workspace/PLC_certificate/Software/uC-LIB/lib_str.c",line 1611,column 1,is_stmt,a
    2417              
    2418                      .dwfde $C$DW$CIE, _Str_Char_Replace
    2419              $C$DW$161       .dwtag  DW_TAG_formal_parameter
    2420                      .dwattr $C$DW$161, DW_AT_name("pstr")
    2421                      .dwattr $C$DW$161, DW_AT_TI_symbol_name("_pstr")
    2422                      .dwattr $C$DW$161, DW_AT_type(*$C$DW$T$38)
    2423                      .dwattr $C$DW$161, DW_AT_location[DW_OP_reg12]
    2424              
    2425              $C$DW$162       .dwtag  DW_TAG_formal_parameter
    2426                      .dwattr $C$DW$162, DW_AT_name("char_srch")
    2427                      .dwattr $C$DW$162, DW_AT_TI_symbol_name("_char_srch")
    2428                      .dwattr $C$DW$162, DW_AT_type(*$C$DW$T$21)
    2429                      .dwattr $C$DW$162, DW_AT_location[DW_OP_reg0]
    2430              
    2431              $C$DW$163       .dwtag  DW_TAG_formal_parameter
    2432                      .dwattr $C$DW$163, DW_AT_name("char_replace")
    2433                      .dwattr $C$DW$163, DW_AT_TI_symbol_name("_char_replace")
    2434                      .dwattr $C$DW$163, DW_AT_type(*$C$DW$T$21)
    2435                      .dwattr $C$DW$163, DW_AT_location[DW_OP_reg1]
    2436              
    2437              
    2438              ;***************************************************************
    2439              ;* FNAME: _Str_Char_Replace             FR SIZE:   8           *
    2440              ;*                                                             *
    2441              ;* FUNCTION ENVIRONMENT                                        *
    2442              ;*                                                             *
    2443              ;* FUNCTION PROPERTIES                                         *
    2444              ;*                            1 Parameter,  7 Auto,  0 SOE     *
    2445              ;***************************************************************
    2446              
    2447 00000234       _Str_Char_Replace:
    2448                      .dwcfi  cfa_offset, -2
    2449                      .dwcfi  save_reg_to_mem, 26, 0
    2450 00000234 FE08          ADDB      SP,#8                 ; [CPU_ARAU] 
    2451                      .dwcfi  cfa_offset, -10
    2452              $C$DW$164       .dwtag  DW_TAG_variable
    2453                      .dwattr $C$DW$164, DW_AT_name("pstr")
    2454                      .dwattr $C$DW$164, DW_AT_TI_symbol_name("_pstr")
    2455                      .dwattr $C$DW$164, DW_AT_type(*$C$DW$T$38)
    2456                      .dwattr $C$DW$164, DW_AT_location[DW_OP_breg20 -4]
    2457              
    2458              $C$DW$165       .dwtag  DW_TAG_variable
    2459                      .dwattr $C$DW$165, DW_AT_name("pstr_rtn")
    2460                      .dwattr $C$DW$165, DW_AT_TI_symbol_name("_pstr_rtn")
    2461                      .dwattr $C$DW$165, DW_AT_type(*$C$DW$T$38)
    2462                      .dwattr $C$DW$165, DW_AT_location[DW_OP_breg20 -6]
    2463              
    2464              $C$DW$166       .dwtag  DW_TAG_variable
    2465                      .dwattr $C$DW$166, DW_AT_name("char_srch")
    2466                      .dwattr $C$DW$166, DW_AT_TI_symbol_name("_char_srch")
    2467                      .dwattr $C$DW$166, DW_AT_type(*$C$DW$T$21)
    2468                      .dwattr $C$DW$166, DW_AT_location[DW_OP_breg20 -7]
    2469              
TMS320C2000 Assembler PC v20.2.1 Tue Feb 16 00:15:56 2021

Copyright (c) 1996-2018 Texas Instruments Incorporated
lib_str.asm                                                          PAGE   47

    2470              $C$DW$167       .dwtag  DW_TAG_variable
    2471                      .dwattr $C$DW$167, DW_AT_name("char_replace")
    2472                      .dwattr $C$DW$167, DW_AT_TI_symbol_name("_char_replace")
    2473                      .dwattr $C$DW$167, DW_AT_type(*$C$DW$T$21)
    2474                      .dwattr $C$DW$167, DW_AT_location[DW_OP_breg20 -8]
    2475              
    2476 00000235 9748          MOV       *-SP[8],AH            ; [CPU_ALU] |1611| 
    2477 00000236 9647          MOV       *-SP[7],AL            ; [CPU_ALU] |1611| 
    2478 00000237 A844          MOVL      *-SP[4],XAR4          ; [CPU_ALU] |1611| 
    2479                      .dwpsn  file "C:/ti/Workspace/PLC_certificate/Software/uC-LIB/lib_str.c",line 1615,column 5,is_stmt,i
    2480 00000238 7680          MOVL      XAR6,#65535           ; [CPU_ARAU] |1615| 
         00000239 FFFF 
    2481 0000023a 9248          MOV       AL,*-SP[8]            ; [CPU_ALU] |1615| 
    2482 0000023b 9641          MOV       *-SP[1],AL            ; [CPU_ALU] |1615| 
    2483 0000023c 5D47          MOVZ      AR5,*-SP[7]           ; [CPU_ALU] |1615| 
    2484 0000023d 8A44          MOVL      XAR4,*-SP[4]          ; [CPU_ALU] |1615| 
    2485 0000023e 06A6          MOVL      ACC,XAR6              ; [CPU_ALU] |1615| 
    2486              $C$DW$168       .dwtag  DW_TAG_TI_branch
    2487                      .dwattr $C$DW$168, DW_AT_low_pc(0x00)
    2488                      .dwattr $C$DW$168, DW_AT_name("_Str_Char_Replace_N")
    2489                      .dwattr $C$DW$168, DW_AT_TI_call
    2490              
    2491 0000023f 7640'         LCR       #_Str_Char_Replace_N  ; [CPU_ALU] |1615| 
         00000240 0244 
    2492                      ; call occurs [#_Str_Char_Replace_N] ; [] |1615| 
    2493 00000241 A846          MOVL      *-SP[6],XAR4          ; [CPU_ALU] |1615| 
    2494                      .dwpsn  file "C:/ti/Workspace/PLC_certificate/Software/uC-LIB/lib_str.c",line 1620,column 5,is_stmt,i
    2495                      .dwpsn  file "C:/ti/Workspace/PLC_certificate/Software/uC-LIB/lib_str.c",line 1621,column 1,is_stmt,i
    2496 00000242 FE88          SUBB      SP,#8                 ; [CPU_ARAU] 
    2497                      .dwcfi  cfa_offset, -2
    2498              $C$DW$169       .dwtag  DW_TAG_TI_branch
    2499                      .dwattr $C$DW$169, DW_AT_low_pc(0x00)
    2500                      .dwattr $C$DW$169, DW_AT_TI_return
    2501              
    2502 00000243 0006          LRETR     ; [CPU_ALU] 
    2503                      ; return occurs ; [] 
    2504                      .dwattr $C$DW$160, DW_AT_TI_end_file("C:/ti/Workspace/PLC_certificate/Software/uC-LIB/lib_str.c")
    2505                      .dwattr $C$DW$160, DW_AT_TI_end_line(0x655)
    2506                      .dwattr $C$DW$160, DW_AT_TI_end_column(0x01)
    2507                      .dwendentry
    2508                      .dwendtag $C$DW$160
    2509              
    2510 00000244               .sect   ".text"
    2511                      .clink
    2512                      .global _Str_Char_Replace_N
    2513              
    2514              $C$DW$170       .dwtag  DW_TAG_subprogram
    2515                      .dwattr $C$DW$170, DW_AT_name("Str_Char_Replace_N")
    2516                      .dwattr $C$DW$170, DW_AT_low_pc(_Str_Char_Replace_N)
    2517                      .dwattr $C$DW$170, DW_AT_high_pc(0x00)
    2518                      .dwattr $C$DW$170, DW_AT_TI_symbol_name("_Str_Char_Replace_N")
    2519                      .dwattr $C$DW$170, DW_AT_external
    2520                      .dwattr $C$DW$170, DW_AT_type(*$C$DW$T$38)
    2521                      .dwattr $C$DW$170, DW_AT_TI_begin_file("C:/ti/Workspace/PLC_certificate/Software/uC-LIB/lib_str.c")
    2522                      .dwattr $C$DW$170, DW_AT_TI_begin_line(0x686)
TMS320C2000 Assembler PC v20.2.1 Tue Feb 16 00:15:56 2021

Copyright (c) 1996-2018 Texas Instruments Incorporated
lib_str.asm                                                          PAGE   48

    2523                      .dwattr $C$DW$170, DW_AT_TI_begin_column(0x0c)
    2524                      .dwattr $C$DW$170, DW_AT_TI_max_frame_size(-12)
    2525                      .dwpsn  file "C:/ti/Workspace/PLC_certificate/Software/uC-LIB/lib_str.c",line 1674,column 1,is_stmt,a
    2526              
    2527                      .dwfde $C$DW$CIE, _Str_Char_Replace_N
    2528              $C$DW$171       .dwtag  DW_TAG_formal_parameter
    2529                      .dwattr $C$DW$171, DW_AT_name("pstr")
    2530                      .dwattr $C$DW$171, DW_AT_TI_symbol_name("_pstr")
    2531                      .dwattr $C$DW$171, DW_AT_type(*$C$DW$T$38)
    2532                      .dwattr $C$DW$171, DW_AT_location[DW_OP_reg12]
    2533              
    2534              $C$DW$172       .dwtag  DW_TAG_formal_parameter
    2535                      .dwattr $C$DW$172, DW_AT_name("char_srch")
    2536                      .dwattr $C$DW$172, DW_AT_TI_symbol_name("_char_srch")
    2537                      .dwattr $C$DW$172, DW_AT_type(*$C$DW$T$21)
    2538                      .dwattr $C$DW$172, DW_AT_location[DW_OP_reg14]
    2539              
    2540              $C$DW$173       .dwtag  DW_TAG_formal_parameter
    2541                      .dwattr $C$DW$173, DW_AT_name("char_replace")
    2542                      .dwattr $C$DW$173, DW_AT_TI_symbol_name("_char_replace")
    2543                      .dwattr $C$DW$173, DW_AT_type(*$C$DW$T$21)
    2544                      .dwattr $C$DW$173, DW_AT_location[DW_OP_breg20 -13]
    2545              
    2546              $C$DW$174       .dwtag  DW_TAG_formal_parameter
    2547                      .dwattr $C$DW$174, DW_AT_name("len_max")
    2548                      .dwattr $C$DW$174, DW_AT_TI_symbol_name("_len_max")
    2549                      .dwattr $C$DW$174, DW_AT_type(*$C$DW$T$32)
    2550                      .dwattr $C$DW$174, DW_AT_location[DW_OP_reg0]
    2551              
    2552              
    2553              ;***************************************************************
    2554              ;* FNAME: _Str_Char_Replace_N           FR SIZE:  10           *
    2555              ;*                                                             *
    2556              ;* FUNCTION ENVIRONMENT                                        *
    2557              ;*                                                             *
    2558              ;* FUNCTION PROPERTIES                                         *
    2559              ;*                            0 Parameter,  9 Auto,  0 SOE     *
    2560              ;***************************************************************
    2561              
    2562 00000244       _Str_Char_Replace_N:
    2563                      .dwcfi  cfa_offset, -2
    2564                      .dwcfi  save_reg_to_mem, 26, 0
    2565 00000244 FE0A          ADDB      SP,#10                ; [CPU_ARAU] 
    2566                      .dwcfi  cfa_offset, -12
    2567              $C$DW$175       .dwtag  DW_TAG_variable
    2568                      .dwattr $C$DW$175, DW_AT_name("pstr")
    2569                      .dwattr $C$DW$175, DW_AT_TI_symbol_name("_pstr")
    2570                      .dwattr $C$DW$175, DW_AT_type(*$C$DW$T$38)
    2571                      .dwattr $C$DW$175, DW_AT_location[DW_OP_breg20 -2]
    2572              
    2573              $C$DW$176       .dwtag  DW_TAG_variable
    2574                      .dwattr $C$DW$176, DW_AT_name("len_max")
    2575                      .dwattr $C$DW$176, DW_AT_TI_symbol_name("_len_max")
    2576                      .dwattr $C$DW$176, DW_AT_type(*$C$DW$T$32)
    2577                      .dwattr $C$DW$176, DW_AT_location[DW_OP_breg20 -4]
TMS320C2000 Assembler PC v20.2.1 Tue Feb 16 00:15:56 2021

Copyright (c) 1996-2018 Texas Instruments Incorporated
lib_str.asm                                                          PAGE   49

    2578              
    2579              $C$DW$177       .dwtag  DW_TAG_variable
    2580                      .dwattr $C$DW$177, DW_AT_name("pstr_char")
    2581                      .dwattr $C$DW$177, DW_AT_TI_symbol_name("_pstr_char")
    2582                      .dwattr $C$DW$177, DW_AT_type(*$C$DW$T$38)
    2583                      .dwattr $C$DW$177, DW_AT_location[DW_OP_breg20 -6]
    2584              
    2585              $C$DW$178       .dwtag  DW_TAG_variable
    2586                      .dwattr $C$DW$178, DW_AT_name("len")
    2587                      .dwattr $C$DW$178, DW_AT_TI_symbol_name("_len")
    2588                      .dwattr $C$DW$178, DW_AT_type(*$C$DW$T$32)
    2589                      .dwattr $C$DW$178, DW_AT_location[DW_OP_breg20 -8]
    2590              
    2591              $C$DW$179       .dwtag  DW_TAG_variable
    2592                      .dwattr $C$DW$179, DW_AT_name("char_srch")
    2593                      .dwattr $C$DW$179, DW_AT_TI_symbol_name("_char_srch")
    2594                      .dwattr $C$DW$179, DW_AT_type(*$C$DW$T$21)
    2595                      .dwattr $C$DW$179, DW_AT_location[DW_OP_breg20 -9]
    2596              
    2597 00000245 1E44          MOVL      *-SP[4],ACC           ; [CPU_ALU] |1674| 
    2598 00000246 7D49          MOV       *-SP[9],AR5           ; [CPU_ALU] |1674| 
    2599 00000247 A842          MOVL      *-SP[2],XAR4          ; [CPU_ALU] |1674| 
    2600                      .dwpsn  file "C:/ti/Workspace/PLC_certificate/Software/uC-LIB/lib_str.c",line 1679,column 5,is_stmt,i
    2601 00000248 0642          MOVL      ACC,*-SP[2]           ; [CPU_ALU] |1679| 
    2602 00000249 6003          B         $C$L69,NEQ            ; [CPU_ALU] |1679| 
    2603                      ; branchcc occurs ; [] |1679| 
    2604                      .dwpsn  file "C:/ti/Workspace/PLC_certificate/Software/uC-LIB/lib_str.c",line 1680,column 9,is_stmt,i
    2605 0000024a D400          MOVB      XAR4,#0               ; [CPU_ALU] |1680| 
    2606 0000024b 6F1E          B         $C$L75,UNC            ; [CPU_ALU] |1680| 
    2607                      ; branch occurs ; [] |1680| 
    2608 0000024c       $C$L69:    
    2609                      .dwpsn  file "C:/ti/Workspace/PLC_certificate/Software/uC-LIB/lib_str.c",line 1683,column 5,is_stmt,i
    2610 0000024c 0644          MOVL      ACC,*-SP[4]           ; [CPU_ALU] |1683| 
    2611 0000024d 6003          B         $C$L70,NEQ            ; [CPU_ALU] |1683| 
    2612                      ; branchcc occurs ; [] |1683| 
    2613                      .dwpsn  file "C:/ti/Workspace/PLC_certificate/Software/uC-LIB/lib_str.c",line 1684,column 9,is_stmt,i
    2614 0000024e D400          MOVB      XAR4,#0               ; [CPU_ALU] |1684| 
    2615 0000024f 6F1A          B         $C$L75,UNC            ; [CPU_ALU] |1684| 
    2616                      ; branch occurs ; [] |1684| 
    2617 00000250       $C$L70:    
    2618                      .dwpsn  file "C:/ti/Workspace/PLC_certificate/Software/uC-LIB/lib_str.c",line 1687,column 5,is_stmt,i
    2619 00000250 0642          MOVL      ACC,*-SP[2]           ; [CPU_ALU] |1687| 
    2620 00000251 1E46          MOVL      *-SP[6],ACC           ; [CPU_ALU] |1687| 
    2621                      .dwpsn  file "C:/ti/Workspace/PLC_certificate/Software/uC-LIB/lib_str.c",line 1688,column 5,is_stmt,i
    2622 00000252 0644          MOVL      ACC,*-SP[4]           ; [CPU_ALU] |1688| 
    2623 00000253 1E48          MOVL      *-SP[8],ACC           ; [CPU_ALU] |1688| 
    2624                      .dwpsn  file "C:/ti/Workspace/PLC_certificate/Software/uC-LIB/lib_str.c",line 1690,column 5,is_stmt,i
    2625 00000254 6F0D          B         $C$L73,UNC            ; [CPU_ALU] |1690| 
    2626                      ; branch occurs ; [] |1690| 
    2627 00000255       $C$L71:    
    2628                      .dwpsn  file "C:/ti/Workspace/PLC_certificate/Software/uC-LIB/lib_str.c",line 1694,column 9,is_stmt,i
    2629 00000255 9249          MOV       AL,*-SP[9]            ; [CPU_ALU] |1694| 
    2630 00000256 54C4          CMP       AL,*+XAR4[0]          ; [CPU_ALU] |1694| 
    2631 00000257 6004          B         $C$L72,NEQ            ; [CPU_ALU] |1694| 
    2632                      ; branchcc occurs ; [] |1694| 
TMS320C2000 Assembler PC v20.2.1 Tue Feb 16 00:15:56 2021

Copyright (c) 1996-2018 Texas Instruments Incorporated
lib_str.asm                                                          PAGE   50

    2633                      .dwpsn  file "C:/ti/Workspace/PLC_certificate/Software/uC-LIB/lib_str.c",line 1695,column 13,is_stmt,
    2634 00000258 C546          MOVL      XAR7,*-SP[6]          ; [CPU_ALU] |1695| 
    2635 00000259 924D          MOV       AL,*-SP[13]           ; [CPU_ALU] |1695| 
    2636 0000025a 96C7          MOV       *+XAR7[0],AL          ; [CPU_ALU] |1695| 
    2637 0000025b       $C$L72:    
    2638                      .dwpsn  file "C:/ti/Workspace/PLC_certificate/Software/uC-LIB/lib_str.c",line 1698,column 9,is_stmt,i
    2639 0000025b 0201          MOVB      ACC,#1                ; [CPU_ALU] |1698| 
    2640 0000025c 0746          ADDL      ACC,*-SP[6]           ; [CPU_ALU] |1698| 
    2641 0000025d 1E46          MOVL      *-SP[6],ACC           ; [CPU_ALU] |1698| 
    2642                      .dwpsn  file "C:/ti/Workspace/PLC_certificate/Software/uC-LIB/lib_str.c",line 1699,column 9,is_stmt,i
    2643 0000025e 0201          MOVB      ACC,#1                ; [CPU_ALU] |1699| 
    2644 0000025f 5641          SUBL      *-SP[8],ACC           ; [CPU_ALU] |1699| 
         00000260 0048 
    2645 00000261       $C$L73:    
    2646                      .dwpsn  file "C:/ti/Workspace/PLC_certificate/Software/uC-LIB/lib_str.c",line 1690,column 12,is_stmt,
    2647 00000261 0646          MOVL      ACC,*-SP[6]           ; [CPU_ALU] |1690| 
    2648 00000262 6106          B         $C$L74,EQ             ; [CPU_ALU] |1690| 
    2649                      ; branchcc occurs ; [] |1690| 
    2650 00000263 8A46          MOVL      XAR4,*-SP[6]          ; [CPU_ALU] |1690| 
    2651 00000264 92C4          MOV       AL,*+XAR4[0]          ; [CPU_ALU] |1690| 
    2652 00000265 6103          B         $C$L74,EQ             ; [CPU_ALU] |1690| 
    2653                      ; branchcc occurs ; [] |1690| 
    2654 00000266 0648          MOVL      ACC,*-SP[8]           ; [CPU_ALU] |1690| 
    2655 00000267 60EE          B         $C$L71,NEQ            ; [CPU_ALU] |1690| 
    2656                      ; branchcc occurs ; [] |1690| 
    2657 00000268       $C$L74:    
    2658                      .dwpsn  file "C:/ti/Workspace/PLC_certificate/Software/uC-LIB/lib_str.c",line 1702,column 5,is_stmt,i
    2659 00000268 8A42          MOVL      XAR4,*-SP[2]          ; [CPU_ALU] |1702| 
    2660 00000269       $C$L75:    
    2661                      .dwpsn  file "C:/ti/Workspace/PLC_certificate/Software/uC-LIB/lib_str.c",line 1703,column 1,is_stmt,i
    2662 00000269 FE8A          SUBB      SP,#10                ; [CPU_ARAU] 
    2663                      .dwcfi  cfa_offset, -2
    2664              $C$DW$180       .dwtag  DW_TAG_TI_branch
    2665                      .dwattr $C$DW$180, DW_AT_low_pc(0x00)
    2666                      .dwattr $C$DW$180, DW_AT_TI_return
    2667              
    2668 0000026a 0006          LRETR     ; [CPU_ALU] 
    2669                      ; return occurs ; [] 
    2670                      .dwattr $C$DW$170, DW_AT_TI_end_file("C:/ti/Workspace/PLC_certificate/Software/uC-LIB/lib_str.c")
    2671                      .dwattr $C$DW$170, DW_AT_TI_end_line(0x6a7)
    2672                      .dwattr $C$DW$170, DW_AT_TI_end_column(0x01)
    2673                      .dwendentry
    2674                      .dwendtag $C$DW$170
    2675              
    2676 0000026b               .sect   ".text"
    2677                      .clink
    2678                      .global _Str_Str
    2679              
    2680              $C$DW$181       .dwtag  DW_TAG_subprogram
    2681                      .dwattr $C$DW$181, DW_AT_name("Str_Str")
    2682                      .dwattr $C$DW$181, DW_AT_low_pc(_Str_Str)
    2683                      .dwattr $C$DW$181, DW_AT_high_pc(0x00)
    2684                      .dwattr $C$DW$181, DW_AT_TI_symbol_name("_Str_Str")
    2685                      .dwattr $C$DW$181, DW_AT_external
    2686                      .dwattr $C$DW$181, DW_AT_type(*$C$DW$T$38)
TMS320C2000 Assembler PC v20.2.1 Tue Feb 16 00:15:56 2021

Copyright (c) 1996-2018 Texas Instruments Incorporated
lib_str.asm                                                          PAGE   51

    2687                      .dwattr $C$DW$181, DW_AT_TI_begin_file("C:/ti/Workspace/PLC_certificate/Software/uC-LIB/lib_str.c")
    2688                      .dwattr $C$DW$181, DW_AT_TI_begin_line(0x6e6)
    2689                      .dwattr $C$DW$181, DW_AT_TI_begin_column(0x0c)
    2690                      .dwattr $C$DW$181, DW_AT_TI_max_frame_size(-8)
    2691                      .dwpsn  file "C:/ti/Workspace/PLC_certificate/Software/uC-LIB/lib_str.c",line 1768,column 1,is_stmt,a
    2692              
    2693                      .dwfde $C$DW$CIE, _Str_Str
    2694              $C$DW$182       .dwtag  DW_TAG_formal_parameter
    2695                      .dwattr $C$DW$182, DW_AT_name("pstr")
    2696                      .dwattr $C$DW$182, DW_AT_TI_symbol_name("_pstr")
    2697                      .dwattr $C$DW$182, DW_AT_type(*$C$DW$T$28)
    2698                      .dwattr $C$DW$182, DW_AT_location[DW_OP_reg12]
    2699              
    2700              $C$DW$183       .dwtag  DW_TAG_formal_parameter
    2701                      .dwattr $C$DW$183, DW_AT_name("pstr_srch")
    2702                      .dwattr $C$DW$183, DW_AT_TI_symbol_name("_pstr_srch")
    2703                      .dwattr $C$DW$183, DW_AT_type(*$C$DW$T$28)
    2704                      .dwattr $C$DW$183, DW_AT_location[DW_OP_reg14]
    2705              
    2706              
    2707              ;***************************************************************
    2708              ;* FNAME: _Str_Str                      FR SIZE:   6           *
    2709              ;*                                                             *
    2710              ;* FUNCTION ENVIRONMENT                                        *
    2711              ;*                                                             *
    2712              ;* FUNCTION PROPERTIES                                         *
    2713              ;*                            0 Parameter,  6 Auto,  0 SOE     *
    2714              ;***************************************************************
    2715              
    2716 0000026b       _Str_Str:
    2717                      .dwcfi  cfa_offset, -2
    2718                      .dwcfi  save_reg_to_mem, 26, 0
    2719 0000026b FE06          ADDB      SP,#6                 ; [CPU_ARAU] 
    2720                      .dwcfi  cfa_offset, -8
    2721              $C$DW$184       .dwtag  DW_TAG_variable
    2722                      .dwattr $C$DW$184, DW_AT_name("pstr")
    2723                      .dwattr $C$DW$184, DW_AT_TI_symbol_name("_pstr")
    2724                      .dwattr $C$DW$184, DW_AT_type(*$C$DW$T$28)
    2725                      .dwattr $C$DW$184, DW_AT_location[DW_OP_breg20 -2]
    2726              
    2727              $C$DW$185       .dwtag  DW_TAG_variable
    2728                      .dwattr $C$DW$185, DW_AT_name("pstr_srch")
    2729                      .dwattr $C$DW$185, DW_AT_TI_symbol_name("_pstr_srch")
    2730                      .dwattr $C$DW$185, DW_AT_type(*$C$DW$T$28)
    2731                      .dwattr $C$DW$185, DW_AT_location[DW_OP_breg20 -4]
    2732              
    2733              $C$DW$186       .dwtag  DW_TAG_variable
    2734                      .dwattr $C$DW$186, DW_AT_name("pstr_rtn")
    2735                      .dwattr $C$DW$186, DW_AT_TI_symbol_name("_pstr_rtn")
    2736                      .dwattr $C$DW$186, DW_AT_type(*$C$DW$T$38)
    2737                      .dwattr $C$DW$186, DW_AT_location[DW_OP_breg20 -6]
    2738              
    2739 0000026c A044          MOVL      *-SP[4],XAR5          ; [CPU_ALU] |1768| 
    2740 0000026d A842          MOVL      *-SP[2],XAR4          ; [CPU_ALU] |1768| 
    2741                      .dwpsn  file "C:/ti/Workspace/PLC_certificate/Software/uC-LIB/lib_str.c",line 1772,column 5,is_stmt,i
TMS320C2000 Assembler PC v20.2.1 Tue Feb 16 00:15:56 2021

Copyright (c) 1996-2018 Texas Instruments Incorporated
lib_str.asm                                                          PAGE   52

    2742 0000026e 7680          MOVL      XAR6,#65535           ; [CPU_ARAU] |1772| 
         0000026f FFFF 
    2743 00000270 06A6          MOVL      ACC,XAR6              ; [CPU_ALU] |1772| 
    2744              $C$DW$187       .dwtag  DW_TAG_TI_branch
    2745                      .dwattr $C$DW$187, DW_AT_low_pc(0x00)
    2746                      .dwattr $C$DW$187, DW_AT_name("_Str_Str_N")
    2747                      .dwattr $C$DW$187, DW_AT_TI_call
    2748              
    2749 00000271 7640'         LCR       #_Str_Str_N           ; [CPU_ALU] |1772| 
         00000272 0276 
    2750                      ; call occurs [#_Str_Str_N] ; [] |1772| 
    2751 00000273 A846          MOVL      *-SP[6],XAR4          ; [CPU_ALU] |1772| 
    2752                      .dwpsn  file "C:/ti/Workspace/PLC_certificate/Software/uC-LIB/lib_str.c",line 1776,column 5,is_stmt,i
    2753                      .dwpsn  file "C:/ti/Workspace/PLC_certificate/Software/uC-LIB/lib_str.c",line 1777,column 1,is_stmt,i
    2754 00000274 FE86          SUBB      SP,#6                 ; [CPU_ARAU] 
    2755                      .dwcfi  cfa_offset, -2
    2756              $C$DW$188       .dwtag  DW_TAG_TI_branch
    2757                      .dwattr $C$DW$188, DW_AT_low_pc(0x00)
    2758                      .dwattr $C$DW$188, DW_AT_TI_return
    2759              
    2760 00000275 0006          LRETR     ; [CPU_ALU] 
    2761                      ; return occurs ; [] 
    2762                      .dwattr $C$DW$181, DW_AT_TI_end_file("C:/ti/Workspace/PLC_certificate/Software/uC-LIB/lib_str.c")
    2763                      .dwattr $C$DW$181, DW_AT_TI_end_line(0x6f1)
    2764                      .dwattr $C$DW$181, DW_AT_TI_end_column(0x01)
    2765                      .dwendentry
    2766                      .dwendtag $C$DW$181
    2767              
    2768 00000276               .sect   ".text"
    2769                      .clink
    2770                      .global _Str_Str_N
    2771              
    2772              $C$DW$189       .dwtag  DW_TAG_subprogram
    2773                      .dwattr $C$DW$189, DW_AT_name("Str_Str_N")
    2774                      .dwattr $C$DW$189, DW_AT_low_pc(_Str_Str_N)
    2775                      .dwattr $C$DW$189, DW_AT_high_pc(0x00)
    2776                      .dwattr $C$DW$189, DW_AT_TI_symbol_name("_Str_Str_N")
    2777                      .dwattr $C$DW$189, DW_AT_external
    2778                      .dwattr $C$DW$189, DW_AT_type(*$C$DW$T$38)
    2779                      .dwattr $C$DW$189, DW_AT_TI_begin_file("C:/ti/Workspace/PLC_certificate/Software/uC-LIB/lib_str.c")
    2780                      .dwattr $C$DW$189, DW_AT_TI_begin_line(0x73a)
    2781                      .dwattr $C$DW$189, DW_AT_TI_begin_column(0x0c)
    2782                      .dwattr $C$DW$189, DW_AT_TI_max_frame_size(-24)
    2783                      .dwpsn  file "C:/ti/Workspace/PLC_certificate/Software/uC-LIB/lib_str.c",line 1853,column 1,is_stmt,a
    2784              
    2785                      .dwfde $C$DW$CIE, _Str_Str_N
    2786              $C$DW$190       .dwtag  DW_TAG_formal_parameter
    2787                      .dwattr $C$DW$190, DW_AT_name("pstr")
    2788                      .dwattr $C$DW$190, DW_AT_TI_symbol_name("_pstr")
    2789                      .dwattr $C$DW$190, DW_AT_type(*$C$DW$T$28)
    2790                      .dwattr $C$DW$190, DW_AT_location[DW_OP_reg12]
    2791              
    2792              $C$DW$191       .dwtag  DW_TAG_formal_parameter
    2793                      .dwattr $C$DW$191, DW_AT_name("pstr_srch")
    2794                      .dwattr $C$DW$191, DW_AT_TI_symbol_name("_pstr_srch")
TMS320C2000 Assembler PC v20.2.1 Tue Feb 16 00:15:56 2021

Copyright (c) 1996-2018 Texas Instruments Incorporated
lib_str.asm                                                          PAGE   53

    2795                      .dwattr $C$DW$191, DW_AT_type(*$C$DW$T$28)
    2796                      .dwattr $C$DW$191, DW_AT_location[DW_OP_reg14]
    2797              
    2798              $C$DW$192       .dwtag  DW_TAG_formal_parameter
    2799                      .dwattr $C$DW$192, DW_AT_name("len_max")
    2800                      .dwattr $C$DW$192, DW_AT_TI_symbol_name("_len_max")
    2801                      .dwattr $C$DW$192, DW_AT_type(*$C$DW$T$32)
    2802                      .dwattr $C$DW$192, DW_AT_location[DW_OP_reg0]
    2803              
    2804              
    2805              ;***************************************************************
    2806              ;* FNAME: _Str_Str_N                    FR SIZE:  22           *
    2807              ;*                                                             *
    2808              ;* FUNCTION ENVIRONMENT                                        *
    2809              ;*                                                             *
    2810              ;* FUNCTION PROPERTIES                                         *
    2811              ;*                            0 Parameter, 22 Auto,  0 SOE     *
    2812              ;***************************************************************
    2813              
    2814 00000276       _Str_Str_N:
    2815                      .dwcfi  cfa_offset, -2
    2816                      .dwcfi  save_reg_to_mem, 26, 0
    2817 00000276 FE16          ADDB      SP,#22                ; [CPU_ARAU] 
    2818                      .dwcfi  cfa_offset, -24
    2819              $C$DW$193       .dwtag  DW_TAG_variable
    2820                      .dwattr $C$DW$193, DW_AT_name("pstr")
    2821                      .dwattr $C$DW$193, DW_AT_TI_symbol_name("_pstr")
    2822                      .dwattr $C$DW$193, DW_AT_type(*$C$DW$T$28)
    2823                      .dwattr $C$DW$193, DW_AT_location[DW_OP_breg20 -2]
    2824              
    2825              $C$DW$194       .dwtag  DW_TAG_variable
    2826                      .dwattr $C$DW$194, DW_AT_name("pstr_srch")
    2827                      .dwattr $C$DW$194, DW_AT_TI_symbol_name("_pstr_srch")
    2828                      .dwattr $C$DW$194, DW_AT_type(*$C$DW$T$28)
    2829                      .dwattr $C$DW$194, DW_AT_location[DW_OP_breg20 -4]
    2830              
    2831              $C$DW$195       .dwtag  DW_TAG_variable
    2832                      .dwattr $C$DW$195, DW_AT_name("len_max")
    2833                      .dwattr $C$DW$195, DW_AT_TI_symbol_name("_len_max")
    2834                      .dwattr $C$DW$195, DW_AT_type(*$C$DW$T$32)
    2835                      .dwattr $C$DW$195, DW_AT_location[DW_OP_breg20 -6]
    2836              
    2837              $C$DW$196       .dwtag  DW_TAG_variable
    2838                      .dwattr $C$DW$196, DW_AT_name("str_len")
    2839                      .dwattr $C$DW$196, DW_AT_TI_symbol_name("_str_len")
    2840                      .dwattr $C$DW$196, DW_AT_type(*$C$DW$T$32)
    2841                      .dwattr $C$DW$196, DW_AT_location[DW_OP_breg20 -8]
    2842              
    2843              $C$DW$197       .dwtag  DW_TAG_variable
    2844                      .dwattr $C$DW$197, DW_AT_name("str_len_srch")
    2845                      .dwattr $C$DW$197, DW_AT_TI_symbol_name("_str_len_srch")
    2846                      .dwattr $C$DW$197, DW_AT_type(*$C$DW$T$32)
    2847                      .dwattr $C$DW$197, DW_AT_location[DW_OP_breg20 -10]
    2848              
    2849              $C$DW$198       .dwtag  DW_TAG_variable
TMS320C2000 Assembler PC v20.2.1 Tue Feb 16 00:15:56 2021

Copyright (c) 1996-2018 Texas Instruments Incorporated
lib_str.asm                                                          PAGE   54

    2850                      .dwattr $C$DW$198, DW_AT_name("len_max_srch")
    2851                      .dwattr $C$DW$198, DW_AT_TI_symbol_name("_len_max_srch")
    2852                      .dwattr $C$DW$198, DW_AT_type(*$C$DW$T$32)
    2853                      .dwattr $C$DW$198, DW_AT_location[DW_OP_breg20 -12]
    2854              
    2855              $C$DW$199       .dwtag  DW_TAG_variable
    2856                      .dwattr $C$DW$199, DW_AT_name("srch_len")
    2857                      .dwattr $C$DW$199, DW_AT_TI_symbol_name("_srch_len")
    2858                      .dwattr $C$DW$199, DW_AT_type(*$C$DW$T$32)
    2859                      .dwattr $C$DW$199, DW_AT_location[DW_OP_breg20 -14]
    2860              
    2861              $C$DW$200       .dwtag  DW_TAG_variable
    2862                      .dwattr $C$DW$200, DW_AT_name("srch_ix")
    2863                      .dwattr $C$DW$200, DW_AT_TI_symbol_name("_srch_ix")
    2864                      .dwattr $C$DW$200, DW_AT_type(*$C$DW$T$32)
    2865                      .dwattr $C$DW$200, DW_AT_location[DW_OP_breg20 -16]
    2866              
    2867              $C$DW$201       .dwtag  DW_TAG_variable
    2868                      .dwattr $C$DW$201, DW_AT_name("pstr_str")
    2869                      .dwattr $C$DW$201, DW_AT_TI_symbol_name("_pstr_str")
    2870                      .dwattr $C$DW$201, DW_AT_type(*$C$DW$T$28)
    2871                      .dwattr $C$DW$201, DW_AT_location[DW_OP_breg20 -18]
    2872              
    2873              $C$DW$202       .dwtag  DW_TAG_variable
    2874                      .dwattr $C$DW$202, DW_AT_name("pstr_srch_ix")
    2875                      .dwattr $C$DW$202, DW_AT_TI_symbol_name("_pstr_srch_ix")
    2876                      .dwattr $C$DW$202, DW_AT_type(*$C$DW$T$28)
    2877                      .dwattr $C$DW$202, DW_AT_location[DW_OP_breg20 -20]
    2878              
    2879              $C$DW$203       .dwtag  DW_TAG_variable
    2880                      .dwattr $C$DW$203, DW_AT_name("srch_done")
    2881                      .dwattr $C$DW$203, DW_AT_TI_symbol_name("_srch_done")
    2882                      .dwattr $C$DW$203, DW_AT_type(*$C$DW$T$19)
    2883                      .dwattr $C$DW$203, DW_AT_location[DW_OP_breg20 -21]
    2884              
    2885              $C$DW$204       .dwtag  DW_TAG_variable
    2886                      .dwattr $C$DW$204, DW_AT_name("srch_cmp")
    2887                      .dwattr $C$DW$204, DW_AT_TI_symbol_name("_srch_cmp")
    2888                      .dwattr $C$DW$204, DW_AT_type(*$C$DW$T$26)
    2889                      .dwattr $C$DW$204, DW_AT_location[DW_OP_breg20 -22]
    2890              
    2891 00000277 1E46          MOVL      *-SP[6],ACC           ; [CPU_ALU] |1853| 
    2892 00000278 A044          MOVL      *-SP[4],XAR5          ; [CPU_ALU] |1853| 
    2893 00000279 A842          MOVL      *-SP[2],XAR4          ; [CPU_ALU] |1853| 
    2894                      .dwpsn  file "C:/ti/Workspace/PLC_certificate/Software/uC-LIB/lib_str.c",line 1865,column 5,is_stmt,i
    2895 0000027a 0642          MOVL      ACC,*-SP[2]           ; [CPU_ALU] |1865| 
    2896 0000027b 6003          B         $C$L76,NEQ            ; [CPU_ALU] |1865| 
    2897                      ; branchcc occurs ; [] |1865| 
    2898                      .dwpsn  file "C:/ti/Workspace/PLC_certificate/Software/uC-LIB/lib_str.c",line 1866,column 9,is_stmt,i
    2899 0000027c D400          MOVB      XAR4,#0               ; [CPU_ALU] |1866| 
    2900 0000027d 6F55          B         $C$L89,UNC            ; [CPU_ALU] |1866| 
    2901                      ; branch occurs ; [] |1866| 
    2902 0000027e       $C$L76:    
    2903                      .dwpsn  file "C:/ti/Workspace/PLC_certificate/Software/uC-LIB/lib_str.c",line 1868,column 5,is_stmt,i
    2904 0000027e 0644          MOVL      ACC,*-SP[4]           ; [CPU_ALU] |1868| 
TMS320C2000 Assembler PC v20.2.1 Tue Feb 16 00:15:56 2021

Copyright (c) 1996-2018 Texas Instruments Incorporated
lib_str.asm                                                          PAGE   55

    2905 0000027f 6003          B         $C$L77,NEQ            ; [CPU_ALU] |1868| 
    2906                      ; branchcc occurs ; [] |1868| 
    2907                      .dwpsn  file "C:/ti/Workspace/PLC_certificate/Software/uC-LIB/lib_str.c",line 1869,column 9,is_stmt,i
    2908 00000280 D400          MOVB      XAR4,#0               ; [CPU_ALU] |1869| 
    2909 00000281 6F51          B         $C$L89,UNC            ; [CPU_ALU] |1869| 
    2910                      ; branch occurs ; [] |1869| 
    2911 00000282       $C$L77:    
    2912                      .dwpsn  file "C:/ti/Workspace/PLC_certificate/Software/uC-LIB/lib_str.c",line 1872,column 5,is_stmt,i
    2913 00000282 0646          MOVL      ACC,*-SP[6]           ; [CPU_ALU] |1872| 
    2914 00000283 6003          B         $C$L78,NEQ            ; [CPU_ALU] |1872| 
    2915                      ; branchcc occurs ; [] |1872| 
    2916                      .dwpsn  file "C:/ti/Workspace/PLC_certificate/Software/uC-LIB/lib_str.c",line 1873,column 9,is_stmt,i
    2917 00000284 D400          MOVB      XAR4,#0               ; [CPU_ALU] |1873| 
    2918 00000285 6F4D          B         $C$L89,UNC            ; [CPU_ALU] |1873| 
    2919                      ; branch occurs ; [] |1873| 
    2920 00000286       $C$L78:    
    2921                      .dwpsn  file "C:/ti/Workspace/PLC_certificate/Software/uC-LIB/lib_str.c",line 1877,column 5,is_stmt,i
    2922 00000286 8F00          MOVL      XAR4,#65535           ; [CPU_ARAU] |1877| 
         00000287 FFFF 
    2923 00000288 A8A9          MOVL      ACC,XAR4              ; [CPU_ALU] |1877| 
    2924 00000289 0F46          CMPL      ACC,*-SP[6]           ; [CPU_ALU] |1877| 
    2925 0000028a 6904          B         $C$L79,LOS            ; [CPU_ALU] |1877| 
    2926                      ; branchcc occurs ; [] |1877| 
    2927 0000028b 0201          MOVB      ACC,#1                ; [CPU_ALU] |1877| 
    2928 0000028c 0746          ADDL      ACC,*-SP[6]           ; [CPU_ALU] |1877| 
    2929 0000028d 8AA9          MOVL      XAR4,ACC              ; [CPU_ALU] |1877| 
    2930 0000028e       $C$L79:    
    2931 0000028e A84C          MOVL      *-SP[12],XAR4         ; [CPU_ALU] |1877| 
    2932                      .dwpsn  file "C:/ti/Workspace/PLC_certificate/Software/uC-LIB/lib_str.c",line 1880,column 5,is_stmt,i
    2933 0000028f 0646          MOVL      ACC,*-SP[6]           ; [CPU_ALU] |1880| 
    2934 00000290 8A42          MOVL      XAR4,*-SP[2]          ; [CPU_ALU] |1880| 
    2935              $C$DW$205       .dwtag  DW_TAG_TI_branch
    2936                      .dwattr $C$DW$205, DW_AT_low_pc(0x00)
    2937                      .dwattr $C$DW$205, DW_AT_name("_Str_Len_N")
    2938                      .dwattr $C$DW$205, DW_AT_TI_call
    2939              
    2940 00000291 7640'         LCR       #_Str_Len_N           ; [CPU_ALU] |1880| 
         00000292 000A 
    2941                      ; call occurs [#_Str_Len_N] ; [] |1880| 
    2942 00000293 1E48          MOVL      *-SP[8],ACC           ; [CPU_ALU] |1880| 
    2943                      .dwpsn  file "C:/ti/Workspace/PLC_certificate/Software/uC-LIB/lib_str.c",line 1881,column 5,is_stmt,i
    2944 00000294 8A44          MOVL      XAR4,*-SP[4]          ; [CPU_ALU] |1881| 
    2945 00000295 064C          MOVL      ACC,*-SP[12]          ; [CPU_ALU] |1881| 
    2946              $C$DW$206       .dwtag  DW_TAG_TI_branch
    2947                      .dwattr $C$DW$206, DW_AT_low_pc(0x00)
    2948                      .dwattr $C$DW$206, DW_AT_name("_Str_Len_N")
    2949                      .dwattr $C$DW$206, DW_AT_TI_call
    2950              
    2951 00000296 7640'         LCR       #_Str_Len_N           ; [CPU_ALU] |1881| 
         00000297 000A 
    2952                      ; call occurs [#_Str_Len_N] ; [] |1881| 
    2953 00000298 1E4A          MOVL      *-SP[10],ACC          ; [CPU_ALU] |1881| 
    2954                      .dwpsn  file "C:/ti/Workspace/PLC_certificate/Software/uC-LIB/lib_str.c",line 1882,column 5,is_stmt,i
    2955 00000299 064A          MOVL      ACC,*-SP[10]          ; [CPU_ALU] |1882| 
    2956 0000029a 6003          B         $C$L80,NEQ            ; [CPU_ALU] |1882| 
TMS320C2000 Assembler PC v20.2.1 Tue Feb 16 00:15:56 2021

Copyright (c) 1996-2018 Texas Instruments Incorporated
lib_str.asm                                                          PAGE   56

    2957                      ; branchcc occurs ; [] |1882| 
    2958                      .dwpsn  file "C:/ti/Workspace/PLC_certificate/Software/uC-LIB/lib_str.c",line 1883,column 9,is_stmt,i
    2959 0000029b 8A42          MOVL      XAR4,*-SP[2]          ; [CPU_ALU] |1883| 
    2960 0000029c 6F36          B         $C$L89,UNC            ; [CPU_ALU] |1883| 
    2961                      ; branch occurs ; [] |1883| 
    2962 0000029d       $C$L80:    
    2963                      .dwpsn  file "C:/ti/Workspace/PLC_certificate/Software/uC-LIB/lib_str.c",line 1885,column 5,is_stmt,i
    2964 0000029d 0648          MOVL      ACC,*-SP[8]           ; [CPU_ALU] |1885| 
    2965 0000029e 0F4A          CMPL      ACC,*-SP[10]          ; [CPU_ALU] |1885| 
    2966 0000029f 6703          B         $C$L81,HIS            ; [CPU_ALU] |1885| 
    2967                      ; branchcc occurs ; [] |1885| 
    2968                      .dwpsn  file "C:/ti/Workspace/PLC_certificate/Software/uC-LIB/lib_str.c",line 1886,column 9,is_stmt,i
    2969 000002a0 D400          MOVB      XAR4,#0               ; [CPU_ALU] |1886| 
    2970 000002a1 6F31          B         $C$L89,UNC            ; [CPU_ALU] |1886| 
    2971                      ; branch occurs ; [] |1886| 
    2972 000002a2       $C$L81:    
    2973                      .dwpsn  file "C:/ti/Workspace/PLC_certificate/Software/uC-LIB/lib_str.c",line 1889,column 5,is_stmt,i
    2974 000002a2 0648          MOVL      ACC,*-SP[8]           ; [CPU_ALU] |1889| 
    2975 000002a3 0742          ADDL      ACC,*-SP[2]           ; [CPU_ALU] |1889| 
    2976 000002a4 1E52          MOVL      *-SP[18],ACC          ; [CPU_ALU] |1889| 
    2977                      .dwpsn  file "C:/ti/Workspace/PLC_certificate/Software/uC-LIB/lib_str.c",line 1890,column 5,is_stmt,i
    2978 000002a5 0652          MOVL      ACC,*-SP[18]          ; [CPU_ALU] |1890| 
    2979 000002a6 6003          B         $C$L82,NEQ            ; [CPU_ALU] |1890| 
    2980                      ; branchcc occurs ; [] |1890| 
    2981                      .dwpsn  file "C:/ti/Workspace/PLC_certificate/Software/uC-LIB/lib_str.c",line 1891,column 9,is_stmt,i
    2982 000002a7 D400          MOVB      XAR4,#0               ; [CPU_ALU] |1891| 
    2983 000002a8 6F2A          B         $C$L89,UNC            ; [CPU_ALU] |1891| 
    2984                      ; branch occurs ; [] |1891| 
    2985 000002a9       $C$L82:    
    2986                      .dwpsn  file "C:/ti/Workspace/PLC_certificate/Software/uC-LIB/lib_str.c",line 1893,column 5,is_stmt,i
    2987 000002a9 064A          MOVL      ACC,*-SP[10]          ; [CPU_ALU] |1893| 
    2988 000002aa 0744          ADDL      ACC,*-SP[4]           ; [CPU_ALU] |1893| 
    2989 000002ab 1E52          MOVL      *-SP[18],ACC          ; [CPU_ALU] |1893| 
    2990                      .dwpsn  file "C:/ti/Workspace/PLC_certificate/Software/uC-LIB/lib_str.c",line 1894,column 5,is_stmt,i
    2991 000002ac 0652          MOVL      ACC,*-SP[18]          ; [CPU_ALU] |1894| 
    2992 000002ad 6003          B         $C$L83,NEQ            ; [CPU_ALU] |1894| 
    2993                      ; branchcc occurs ; [] |1894| 
    2994                      .dwpsn  file "C:/ti/Workspace/PLC_certificate/Software/uC-LIB/lib_str.c",line 1895,column 9,is_stmt,i
    2995 000002ae D400          MOVB      XAR4,#0               ; [CPU_ALU] |1895| 
    2996 000002af 6F23          B         $C$L89,UNC            ; [CPU_ALU] |1895| 
    2997                      ; branch occurs ; [] |1895| 
    2998 000002b0       $C$L83:    
    2999                      .dwpsn  file "C:/ti/Workspace/PLC_certificate/Software/uC-LIB/lib_str.c",line 1899,column 5,is_stmt,i
    3000 000002b0 0648          MOVL      ACC,*-SP[8]           ; [CPU_ALU] |1899| 
    3001 000002b1 034A          SUBL      ACC,*-SP[10]          ; [CPU_ALU] |1899| 
    3002 000002b2 1E4E          MOVL      *-SP[14],ACC          ; [CPU_ALU] |1899| 
    3003                      .dwpsn  file "C:/ti/Workspace/PLC_certificate/Software/uC-LIB/lib_str.c",line 1900,column 5,is_stmt,i
    3004 000002b3 0200          MOVB      ACC,#0                ; [CPU_ALU] |1900| 
    3005 000002b4 1E50          MOVL      *-SP[16],ACC          ; [CPU_ALU] |1900| 
    3006                      .dwpsn  file "C:/ti/Workspace/PLC_certificate/Software/uC-LIB/lib_str.c",line 1901,column 5,is_stmt,i
    3007 000002b5 2B55          MOV       *-SP[21],#0           ; [CPU_ALU] |1901| 
    3008 000002b6       $C$L84:    
    3009                      .dwpsn  file "C:/ti/Workspace/PLC_certificate/Software/uC-LIB/lib_str.c",line 1904,column 9,is_stmt,i
    3010 000002b6 0650          MOVL      ACC,*-SP[16]          ; [CPU_ALU] |1904| 
    3011 000002b7 0742          ADDL      ACC,*-SP[2]           ; [CPU_ALU] |1904| 
TMS320C2000 Assembler PC v20.2.1 Tue Feb 16 00:15:56 2021

Copyright (c) 1996-2018 Texas Instruments Incorporated
lib_str.asm                                                          PAGE   57

    3012 000002b8 1E54          MOVL      *-SP[20],ACC          ; [CPU_ALU] |1904| 
    3013                      .dwpsn  file "C:/ti/Workspace/PLC_certificate/Software/uC-LIB/lib_str.c",line 1905,column 9,is_stmt,i
    3014 000002b9 8344          MOVL      XAR5,*-SP[4]          ; [CPU_ALU] |1905| 
    3015 000002ba 8A54          MOVL      XAR4,*-SP[20]         ; [CPU_ALU] |1905| 
    3016 000002bb 064A          MOVL      ACC,*-SP[10]          ; [CPU_ALU] |1905| 
    3017              $C$DW$207       .dwtag  DW_TAG_TI_branch
    3018                      .dwattr $C$DW$207, DW_AT_low_pc(0x00)
    3019                      .dwattr $C$DW$207, DW_AT_name("_Str_Cmp_N")
    3020                      .dwattr $C$DW$207, DW_AT_TI_call
    3021              
    3022 000002bc 7640'         LCR       #_Str_Cmp_N           ; [CPU_ALU] |1905| 
         000002bd 00C0 
    3023                      ; call occurs [#_Str_Cmp_N] ; [] |1905| 
    3024 000002be 9656          MOV       *-SP[22],AL           ; [CPU_ALU] |1905| 
    3025                      .dwpsn  file "C:/ti/Workspace/PLC_certificate/Software/uC-LIB/lib_str.c",line 1906,column 9,is_stmt,i
    3026 000002bf 5200          CMPB      AL,#0                 ; [CPU_ALU] |1906| 
    3027 000002c0 6003          B         $C$L85,NEQ            ; [CPU_ALU] |1906| 
    3028                      ; branchcc occurs ; [] |1906| 
    3029 000002c1 9A01          MOVB      AL,#1                 ; [CPU_ALU] |1906| 
    3030 000002c2 6F02          B         $C$L86,UNC            ; [CPU_ALU] |1906| 
    3031                      ; branch occurs ; [] |1906| 
    3032 000002c3       $C$L85:    
    3033 000002c3 9A00          MOVB      AL,#0                 ; [CPU_ALU] |1906| 
    3034 000002c4       $C$L86:    
    3035 000002c4 9655          MOV       *-SP[21],AL           ; [CPU_ALU] |1906| 
    3036                      .dwpsn  file "C:/ti/Workspace/PLC_certificate/Software/uC-LIB/lib_str.c",line 1907,column 9,is_stmt,i
    3037 000002c5 0201          MOVB      ACC,#1                ; [CPU_ALU] |1907| 
    3038 000002c6 0750          ADDL      ACC,*-SP[16]          ; [CPU_ALU] |1907| 
    3039 000002c7 1E50          MOVL      *-SP[16],ACC          ; [CPU_ALU] |1907| 
    3040                      .dwpsn  file "C:/ti/Workspace/PLC_certificate/Software/uC-LIB/lib_str.c",line 1908,column 14,is_stmt,
    3041 000002c8 9255          MOV       AL,*-SP[21]           ; [CPU_ALU] |1908| 
    3042 000002c9 6004          B         $C$L87,NEQ            ; [CPU_ALU] |1908| 
    3043                      ; branchcc occurs ; [] |1908| 
    3044 000002ca 064E          MOVL      ACC,*-SP[14]          ; [CPU_ALU] |1908| 
    3045 000002cb 0F50          CMPL      ACC,*-SP[16]          ; [CPU_ALU] |1908| 
    3046 000002cc 67EA          B         $C$L84,HIS            ; [CPU_ALU] |1908| 
    3047                      ; branchcc occurs ; [] |1908| 
    3048 000002cd       $C$L87:    
    3049                      .dwpsn  file "C:/ti/Workspace/PLC_certificate/Software/uC-LIB/lib_str.c",line 1911,column 5,is_stmt,i
    3050 000002cd 9256          MOV       AL,*-SP[22]           ; [CPU_ALU] |1911| 
    3051 000002ce 6103          B         $C$L88,EQ             ; [CPU_ALU] |1911| 
    3052                      ; branchcc occurs ; [] |1911| 
    3053                      .dwpsn  file "C:/ti/Workspace/PLC_certificate/Software/uC-LIB/lib_str.c",line 1912,column 9,is_stmt,i
    3054 000002cf D400          MOVB      XAR4,#0               ; [CPU_ALU] |1912| 
    3055 000002d0 6F02          B         $C$L89,UNC            ; [CPU_ALU] |1912| 
    3056                      ; branch occurs ; [] |1912| 
    3057 000002d1       $C$L88:    
    3058                      .dwpsn  file "C:/ti/Workspace/PLC_certificate/Software/uC-LIB/lib_str.c",line 1915,column 5,is_stmt,i
    3059 000002d1 8A54          MOVL      XAR4,*-SP[20]         ; [CPU_ALU] |1915| 
    3060 000002d2       $C$L89:    
    3061                      .dwpsn  file "C:/ti/Workspace/PLC_certificate/Software/uC-LIB/lib_str.c",line 1916,column 1,is_stmt,i
    3062 000002d2 FE96          SUBB      SP,#22                ; [CPU_ARAU] 
    3063                      .dwcfi  cfa_offset, -2
    3064              $C$DW$208       .dwtag  DW_TAG_TI_branch
    3065                      .dwattr $C$DW$208, DW_AT_low_pc(0x00)
TMS320C2000 Assembler PC v20.2.1 Tue Feb 16 00:15:56 2021

Copyright (c) 1996-2018 Texas Instruments Incorporated
lib_str.asm                                                          PAGE   58

    3066                      .dwattr $C$DW$208, DW_AT_TI_return
    3067              
    3068 000002d3 0006          LRETR     ; [CPU_ALU] 
    3069                      ; return occurs ; [] 
    3070                      .dwattr $C$DW$189, DW_AT_TI_end_file("C:/ti/Workspace/PLC_certificate/Software/uC-LIB/lib_str.c")
    3071                      .dwattr $C$DW$189, DW_AT_TI_end_line(0x77c)
    3072                      .dwattr $C$DW$189, DW_AT_TI_end_column(0x01)
    3073                      .dwendentry
    3074                      .dwendtag $C$DW$189
    3075              
    3076 000002d4               .sect   ".text"
    3077                      .clink
    3078                      .global _Str_FmtNbr_Int32U
    3079              
    3080              $C$DW$209       .dwtag  DW_TAG_subprogram
    3081                      .dwattr $C$DW$209, DW_AT_name("Str_FmtNbr_Int32U")
    3082                      .dwattr $C$DW$209, DW_AT_low_pc(_Str_FmtNbr_Int32U)
    3083                      .dwattr $C$DW$209, DW_AT_high_pc(0x00)
    3084                      .dwattr $C$DW$209, DW_AT_TI_symbol_name("_Str_FmtNbr_Int32U")
    3085                      .dwattr $C$DW$209, DW_AT_external
    3086                      .dwattr $C$DW$209, DW_AT_type(*$C$DW$T$38)
    3087                      .dwattr $C$DW$209, DW_AT_TI_begin_file("C:/ti/Workspace/PLC_certificate/Software/uC-LIB/lib_str.c")
    3088                      .dwattr $C$DW$209, DW_AT_TI_begin_line(0x7fb)
    3089                      .dwattr $C$DW$209, DW_AT_TI_begin_column(0x0c)
    3090                      .dwattr $C$DW$209, DW_AT_TI_max_frame_size(-16)
    3091                      .dwpsn  file "C:/ti/Workspace/PLC_certificate/Software/uC-LIB/lib_str.c",line 2050,column 1,is_stmt,a
    3092              
    3093                      .dwfde $C$DW$CIE, _Str_FmtNbr_Int32U
    3094              $C$DW$210       .dwtag  DW_TAG_formal_parameter
    3095                      .dwattr $C$DW$210, DW_AT_name("nbr")
    3096                      .dwattr $C$DW$210, DW_AT_TI_symbol_name("_nbr")
    3097                      .dwattr $C$DW$210, DW_AT_type(*$C$DW$T$30)
    3098                      .dwattr $C$DW$210, DW_AT_location[DW_OP_reg0]
    3099              
    3100              $C$DW$211       .dwtag  DW_TAG_formal_parameter
    3101                      .dwattr $C$DW$211, DW_AT_name("nbr_dig")
    3102                      .dwattr $C$DW$211, DW_AT_TI_symbol_name("_nbr_dig")
    3103                      .dwattr $C$DW$211, DW_AT_type(*$C$DW$T$25)
    3104                      .dwattr $C$DW$211, DW_AT_location[DW_OP_reg14]
    3105              
    3106              $C$DW$212       .dwtag  DW_TAG_formal_parameter
    3107                      .dwattr $C$DW$212, DW_AT_name("nbr_base")
    3108                      .dwattr $C$DW$212, DW_AT_TI_symbol_name("_nbr_base")
    3109                      .dwattr $C$DW$212, DW_AT_type(*$C$DW$T$25)
    3110                      .dwattr $C$DW$212, DW_AT_location[DW_OP_breg20 -17]
    3111              
    3112              $C$DW$213       .dwtag  DW_TAG_formal_parameter
    3113                      .dwattr $C$DW$213, DW_AT_name("lead_char")
    3114                      .dwattr $C$DW$213, DW_AT_TI_symbol_name("_lead_char")
    3115                      .dwattr $C$DW$213, DW_AT_type(*$C$DW$T$21)
    3116                      .dwattr $C$DW$213, DW_AT_location[DW_OP_breg20 -18]
    3117              
    3118              $C$DW$214       .dwtag  DW_TAG_formal_parameter
    3119                      .dwattr $C$DW$214, DW_AT_name("lower_case")
    3120                      .dwattr $C$DW$214, DW_AT_TI_symbol_name("_lower_case")
TMS320C2000 Assembler PC v20.2.1 Tue Feb 16 00:15:56 2021

Copyright (c) 1996-2018 Texas Instruments Incorporated
lib_str.asm                                                          PAGE   59

    3121                      .dwattr $C$DW$214, DW_AT_type(*$C$DW$T$19)
    3122                      .dwattr $C$DW$214, DW_AT_location[DW_OP_breg20 -19]
    3123              
    3124              $C$DW$215       .dwtag  DW_TAG_formal_parameter
    3125                      .dwattr $C$DW$215, DW_AT_name("nul")
    3126                      .dwattr $C$DW$215, DW_AT_TI_symbol_name("_nul")
    3127                      .dwattr $C$DW$215, DW_AT_type(*$C$DW$T$19)
    3128                      .dwattr $C$DW$215, DW_AT_location[DW_OP_breg20 -20]
    3129              
    3130              $C$DW$216       .dwtag  DW_TAG_formal_parameter
    3131                      .dwattr $C$DW$216, DW_AT_name("pstr")
    3132                      .dwattr $C$DW$216, DW_AT_TI_symbol_name("_pstr")
    3133                      .dwattr $C$DW$216, DW_AT_type(*$C$DW$T$38)
    3134                      .dwattr $C$DW$216, DW_AT_location[DW_OP_reg12]
    3135              
    3136              
    3137              ;***************************************************************
    3138              ;* FNAME: _Str_FmtNbr_Int32U            FR SIZE:  14           *
    3139              ;*                                                             *
    3140              ;* FUNCTION ENVIRONMENT                                        *
    3141              ;*                                                             *
    3142              ;* FUNCTION PROPERTIES                                         *
    3143              ;*                            5 Parameter,  8 Auto,  0 SOE     *
    3144              ;***************************************************************
    3145              
    3146 000002d4       _Str_FmtNbr_Int32U:
    3147                      .dwcfi  cfa_offset, -2
    3148                      .dwcfi  save_reg_to_mem, 26, 0
    3149 000002d4 FE0E          ADDB      SP,#14                ; [CPU_ARAU] 
    3150                      .dwcfi  cfa_offset, -16
    3151              $C$DW$217       .dwtag  DW_TAG_variable
    3152                      .dwattr $C$DW$217, DW_AT_name("nbr")
    3153                      .dwattr $C$DW$217, DW_AT_TI_symbol_name("_nbr")
    3154                      .dwattr $C$DW$217, DW_AT_type(*$C$DW$T$30)
    3155                      .dwattr $C$DW$217, DW_AT_location[DW_OP_breg20 -8]
    3156              
    3157              $C$DW$218       .dwtag  DW_TAG_variable
    3158                      .dwattr $C$DW$218, DW_AT_name("pstr")
    3159                      .dwattr $C$DW$218, DW_AT_TI_symbol_name("_pstr")
    3160                      .dwattr $C$DW$218, DW_AT_type(*$C$DW$T$38)
    3161                      .dwattr $C$DW$218, DW_AT_location[DW_OP_breg20 -10]
    3162              
    3163              $C$DW$219       .dwtag  DW_TAG_variable
    3164                      .dwattr $C$DW$219, DW_AT_name("pstr_fmt")
    3165                      .dwattr $C$DW$219, DW_AT_TI_symbol_name("_pstr_fmt")
    3166                      .dwattr $C$DW$219, DW_AT_type(*$C$DW$T$38)
    3167                      .dwattr $C$DW$219, DW_AT_location[DW_OP_breg20 -12]
    3168              
    3169              $C$DW$220       .dwtag  DW_TAG_variable
    3170                      .dwattr $C$DW$220, DW_AT_name("nbr_dig")
    3171                      .dwattr $C$DW$220, DW_AT_TI_symbol_name("_nbr_dig")
    3172                      .dwattr $C$DW$220, DW_AT_type(*$C$DW$T$25)
    3173                      .dwattr $C$DW$220, DW_AT_location[DW_OP_breg20 -13]
    3174              
    3175 000002d5 A84A          MOVL      *-SP[10],XAR4         ; [CPU_ALU] |2050| 
TMS320C2000 Assembler PC v20.2.1 Tue Feb 16 00:15:56 2021

Copyright (c) 1996-2018 Texas Instruments Incorporated
lib_str.asm                                                          PAGE   60

    3176 000002d6 7D4D          MOV       *-SP[13],AR5          ; [CPU_ALU] |2050| 
    3177 000002d7 1E48          MOVL      *-SP[8],ACC           ; [CPU_ALU] |2050| 
    3178                      .dwpsn  file "C:/ti/Workspace/PLC_certificate/Software/uC-LIB/lib_str.c",line 2054,column 5,is_stmt,i
    3179 000002d8 9251          MOV       AL,*-SP[17]           ; [CPU_ALU] |2054| 
    3180 000002d9 9641          MOV       *-SP[1],AL            ; [CPU_ALU] |2054| 
    3181 000002da 9252          MOV       AL,*-SP[18]           ; [CPU_ALU] |2054| 
    3182 000002db 2B42          MOV       *-SP[2],#0            ; [CPU_ALU] |2054| 
    3183 000002dc 9643          MOV       *-SP[3],AL            ; [CPU_ALU] |2054| 
    3184 000002dd 9253          MOV       AL,*-SP[19]           ; [CPU_ALU] |2054| 
    3185 000002de 9644          MOV       *-SP[4],AL            ; [CPU_ALU] |2054| 
    3186 000002df 9254          MOV       AL,*-SP[20]           ; [CPU_ALU] |2054| 
    3187 000002e0 9645          MOV       *-SP[5],AL            ; [CPU_ALU] |2054| 
    3188 000002e1 5D4D          MOVZ      AR5,*-SP[13]          ; [CPU_ALU] |2054| 
    3189 000002e2 8A4A          MOVL      XAR4,*-SP[10]         ; [CPU_ALU] |2054| 
    3190 000002e3 0648          MOVL      ACC,*-SP[8]           ; [CPU_ALU] |2054| 
    3191              $C$DW$221       .dwtag  DW_TAG_TI_branch
    3192                      .dwattr $C$DW$221, DW_AT_low_pc(0x00)
    3193                      .dwattr $C$DW$221, DW_AT_name("_Str_FmtNbr_Int32")
    3194                      .dwattr $C$DW$221, DW_AT_TI_call
    3195              
    3196 000002e4 7640'         LCR       #_Str_FmtNbr_Int32    ; [CPU_ALU] |2054| 
         000002e5 0342 
    3197                      ; call occurs [#_Str_FmtNbr_Int32] ; [] |2054| 
    3198 000002e6 A84C          MOVL      *-SP[12],XAR4         ; [CPU_ALU] |2054| 
    3199                      .dwpsn  file "C:/ti/Workspace/PLC_certificate/Software/uC-LIB/lib_str.c",line 2063,column 5,is_stmt,i
    3200                      .dwpsn  file "C:/ti/Workspace/PLC_certificate/Software/uC-LIB/lib_str.c",line 2064,column 1,is_stmt,i
    3201 000002e7 FE8E          SUBB      SP,#14                ; [CPU_ARAU] 
    3202                      .dwcfi  cfa_offset, -2
    3203              $C$DW$222       .dwtag  DW_TAG_TI_branch
    3204                      .dwattr $C$DW$222, DW_AT_low_pc(0x00)
    3205                      .dwattr $C$DW$222, DW_AT_TI_return
    3206              
    3207 000002e8 0006          LRETR     ; [CPU_ALU] 
    3208                      ; return occurs ; [] 
    3209                      .dwattr $C$DW$209, DW_AT_TI_end_file("C:/ti/Workspace/PLC_certificate/Software/uC-LIB/lib_str.c")
    3210                      .dwattr $C$DW$209, DW_AT_TI_end_line(0x810)
    3211                      .dwattr $C$DW$209, DW_AT_TI_end_column(0x01)
    3212                      .dwendentry
    3213                      .dwendtag $C$DW$209
    3214              
    3215 000002e9               .sect   ".text"
    3216                      .clink
    3217                      .global _Str_FmtNbr_Int32S
    3218              
    3219              $C$DW$223       .dwtag  DW_TAG_subprogram
    3220                      .dwattr $C$DW$223, DW_AT_name("Str_FmtNbr_Int32S")
    3221                      .dwattr $C$DW$223, DW_AT_low_pc(_Str_FmtNbr_Int32S)
    3222                      .dwattr $C$DW$223, DW_AT_high_pc(0x00)
    3223                      .dwattr $C$DW$223, DW_AT_TI_symbol_name("_Str_FmtNbr_Int32S")
    3224                      .dwattr $C$DW$223, DW_AT_external
    3225                      .dwattr $C$DW$223, DW_AT_type(*$C$DW$T$38)
    3226                      .dwattr $C$DW$223, DW_AT_TI_begin_file("C:/ti/Workspace/PLC_certificate/Software/uC-LIB/lib_str.c")
    3227                      .dwattr $C$DW$223, DW_AT_TI_begin_line(0x8d3)
    3228                      .dwattr $C$DW$223, DW_AT_TI_begin_column(0x0c)
    3229                      .dwattr $C$DW$223, DW_AT_TI_max_frame_size(-18)
TMS320C2000 Assembler PC v20.2.1 Tue Feb 16 00:15:56 2021

Copyright (c) 1996-2018 Texas Instruments Incorporated
lib_str.asm                                                          PAGE   61

    3230                      .dwpsn  file "C:/ti/Workspace/PLC_certificate/Software/uC-LIB/lib_str.c",line 2266,column 1,is_stmt,a
    3231              
    3232                      .dwfde $C$DW$CIE, _Str_FmtNbr_Int32S
    3233              $C$DW$224       .dwtag  DW_TAG_formal_parameter
    3234                      .dwattr $C$DW$224, DW_AT_name("nbr")
    3235                      .dwattr $C$DW$224, DW_AT_TI_symbol_name("_nbr")
    3236                      .dwattr $C$DW$224, DW_AT_type(*$C$DW$T$37)
    3237                      .dwattr $C$DW$224, DW_AT_location[DW_OP_reg0]
    3238              
    3239              $C$DW$225       .dwtag  DW_TAG_formal_parameter
    3240                      .dwattr $C$DW$225, DW_AT_name("nbr_dig")
    3241                      .dwattr $C$DW$225, DW_AT_TI_symbol_name("_nbr_dig")
    3242                      .dwattr $C$DW$225, DW_AT_type(*$C$DW$T$25)
    3243                      .dwattr $C$DW$225, DW_AT_location[DW_OP_reg14]
    3244              
    3245              $C$DW$226       .dwtag  DW_TAG_formal_parameter
    3246                      .dwattr $C$DW$226, DW_AT_name("nbr_base")
    3247                      .dwattr $C$DW$226, DW_AT_TI_symbol_name("_nbr_base")
    3248                      .dwattr $C$DW$226, DW_AT_type(*$C$DW$T$25)
    3249                      .dwattr $C$DW$226, DW_AT_location[DW_OP_breg20 -19]
    3250              
    3251              $C$DW$227       .dwtag  DW_TAG_formal_parameter
    3252                      .dwattr $C$DW$227, DW_AT_name("lead_char")
    3253                      .dwattr $C$DW$227, DW_AT_TI_symbol_name("_lead_char")
    3254                      .dwattr $C$DW$227, DW_AT_type(*$C$DW$T$21)
    3255                      .dwattr $C$DW$227, DW_AT_location[DW_OP_breg20 -20]
    3256              
    3257              $C$DW$228       .dwtag  DW_TAG_formal_parameter
    3258                      .dwattr $C$DW$228, DW_AT_name("lower_case")
    3259                      .dwattr $C$DW$228, DW_AT_TI_symbol_name("_lower_case")
    3260                      .dwattr $C$DW$228, DW_AT_type(*$C$DW$T$19)
    3261                      .dwattr $C$DW$228, DW_AT_location[DW_OP_breg20 -21]
    3262              
    3263              $C$DW$229       .dwtag  DW_TAG_formal_parameter
    3264                      .dwattr $C$DW$229, DW_AT_name("nul")
    3265                      .dwattr $C$DW$229, DW_AT_TI_symbol_name("_nul")
    3266                      .dwattr $C$DW$229, DW_AT_type(*$C$DW$T$19)
    3267                      .dwattr $C$DW$229, DW_AT_location[DW_OP_breg20 -22]
    3268              
    3269              $C$DW$230       .dwtag  DW_TAG_formal_parameter
    3270                      .dwattr $C$DW$230, DW_AT_name("pstr")
    3271                      .dwattr $C$DW$230, DW_AT_TI_symbol_name("_pstr")
    3272                      .dwattr $C$DW$230, DW_AT_type(*$C$DW$T$38)
    3273                      .dwattr $C$DW$230, DW_AT_location[DW_OP_reg12]
    3274              
    3275              
    3276              ;***************************************************************
    3277              ;* FNAME: _Str_FmtNbr_Int32S            FR SIZE:  16           *
    3278              ;*                                                             *
    3279              ;* FUNCTION ENVIRONMENT                                        *
    3280              ;*                                                             *
    3281              ;* FUNCTION PROPERTIES                                         *
    3282              ;*                            5 Parameter, 11 Auto,  0 SOE     *
    3283              ;***************************************************************
    3284              
TMS320C2000 Assembler PC v20.2.1 Tue Feb 16 00:15:56 2021

Copyright (c) 1996-2018 Texas Instruments Incorporated
lib_str.asm                                                          PAGE   62

    3285 000002e9       _Str_FmtNbr_Int32S:
    3286                      .dwcfi  cfa_offset, -2
    3287                      .dwcfi  save_reg_to_mem, 26, 0
    3288 000002e9 FE10          ADDB      SP,#16                ; [CPU_ARAU] 
    3289                      .dwcfi  cfa_offset, -18
    3290              $C$DW$231       .dwtag  DW_TAG_variable
    3291                      .dwattr $C$DW$231, DW_AT_name("nbr")
    3292                      .dwattr $C$DW$231, DW_AT_TI_symbol_name("_nbr")
    3293                      .dwattr $C$DW$231, DW_AT_type(*$C$DW$T$37)
    3294                      .dwattr $C$DW$231, DW_AT_location[DW_OP_breg20 -8]
    3295              
    3296              $C$DW$232       .dwtag  DW_TAG_variable
    3297                      .dwattr $C$DW$232, DW_AT_name("pstr")
    3298                      .dwattr $C$DW$232, DW_AT_TI_symbol_name("_pstr")
    3299                      .dwattr $C$DW$232, DW_AT_type(*$C$DW$T$38)
    3300                      .dwattr $C$DW$232, DW_AT_location[DW_OP_breg20 -10]
    3301              
    3302              $C$DW$233       .dwtag  DW_TAG_variable
    3303                      .dwattr $C$DW$233, DW_AT_name("pstr_fmt")
    3304                      .dwattr $C$DW$233, DW_AT_TI_symbol_name("_pstr_fmt")
    3305                      .dwattr $C$DW$233, DW_AT_type(*$C$DW$T$38)
    3306                      .dwattr $C$DW$233, DW_AT_location[DW_OP_breg20 -12]
    3307              
    3308              $C$DW$234       .dwtag  DW_TAG_variable
    3309                      .dwattr $C$DW$234, DW_AT_name("nbr_fmt")
    3310                      .dwattr $C$DW$234, DW_AT_TI_symbol_name("_nbr_fmt")
    3311                      .dwattr $C$DW$234, DW_AT_type(*$C$DW$T$37)
    3312                      .dwattr $C$DW$234, DW_AT_location[DW_OP_breg20 -14]
    3313              
    3314              $C$DW$235       .dwtag  DW_TAG_variable
    3315                      .dwattr $C$DW$235, DW_AT_name("nbr_dig")
    3316                      .dwattr $C$DW$235, DW_AT_TI_symbol_name("_nbr_dig")
    3317                      .dwattr $C$DW$235, DW_AT_type(*$C$DW$T$25)
    3318                      .dwattr $C$DW$235, DW_AT_location[DW_OP_breg20 -15]
    3319              
    3320              $C$DW$236       .dwtag  DW_TAG_variable
    3321                      .dwattr $C$DW$236, DW_AT_name("nbr_neg")
    3322                      .dwattr $C$DW$236, DW_AT_TI_symbol_name("_nbr_neg")
    3323                      .dwattr $C$DW$236, DW_AT_type(*$C$DW$T$19)
    3324                      .dwattr $C$DW$236, DW_AT_location[DW_OP_breg20 -16]
    3325              
    3326 000002ea A84A          MOVL      *-SP[10],XAR4         ; [CPU_ALU] |2266| 
    3327 000002eb 7D4F          MOV       *-SP[15],AR5          ; [CPU_ALU] |2266| 
    3328 000002ec 1E48          MOVL      *-SP[8],ACC           ; [CPU_ALU] |2266| 
    3329                      .dwpsn  file "C:/ti/Workspace/PLC_certificate/Software/uC-LIB/lib_str.c",line 2272,column 5,is_stmt,i
    3330 000002ed 0648          MOVL      ACC,*-SP[8]           ; [CPU_ALU] |2272| 
    3331 000002ee 6307          B         $C$L90,GEQ            ; [CPU_ALU] |2272| 
    3332                      ; branchcc occurs ; [] |2272| 
    3333                      .dwpsn  file "C:/ti/Workspace/PLC_certificate/Software/uC-LIB/lib_str.c",line 2273,column 9,is_stmt,i
    3334 000002ef 0648          MOVL      ACC,*-SP[8]           ; [CPU_ALU] |2273| 
    3335 000002f0 FF54          NEG       ACC                   ; [CPU_ALU] |2273| 
    3336 000002f1 1E4E          MOVL      *-SP[14],ACC          ; [CPU_ALU] |2273| 
    3337                      .dwpsn  file "C:/ti/Workspace/PLC_certificate/Software/uC-LIB/lib_str.c",line 2274,column 9,is_stmt,i
    3338 000002f2 56BF          MOVB      *-SP[16],#1,UNC       ; [CPU_ALU] |2274| 
         000002f3 0150 
TMS320C2000 Assembler PC v20.2.1 Tue Feb 16 00:15:56 2021

Copyright (c) 1996-2018 Texas Instruments Incorporated
lib_str.asm                                                          PAGE   63

    3339 000002f4 6F04          B         $C$L91,UNC            ; [CPU_ALU] 
    3340                      ; branch occurs ; [] 
    3341 000002f5       $C$L90:    
    3342                      .dwpsn  file "C:/ti/Workspace/PLC_certificate/Software/uC-LIB/lib_str.c",line 2276,column 9,is_stmt,i
    3343 000002f5 0648          MOVL      ACC,*-SP[8]           ; [CPU_ALU] |2276| 
    3344 000002f6 1E4E          MOVL      *-SP[14],ACC          ; [CPU_ALU] |2276| 
    3345                      .dwpsn  file "C:/ti/Workspace/PLC_certificate/Software/uC-LIB/lib_str.c",line 2277,column 9,is_stmt,i
    3346 000002f7 2B50          MOV       *-SP[16],#0           ; [CPU_ALU] |2277| 
    3347 000002f8       $C$L91:    
    3348                      .dwpsn  file "C:/ti/Workspace/PLC_certificate/Software/uC-LIB/lib_str.c",line 2280,column 5,is_stmt,i
    3349 000002f8 9253          MOV       AL,*-SP[19]           ; [CPU_ALU] |2280| 
    3350 000002f9 9641          MOV       *-SP[1],AL            ; [CPU_ALU] |2280| 
    3351 000002fa 9250          MOV       AL,*-SP[16]           ; [CPU_ALU] |2280| 
    3352 000002fb 9642          MOV       *-SP[2],AL            ; [CPU_ALU] |2280| 
    3353 000002fc 9254          MOV       AL,*-SP[20]           ; [CPU_ALU] |2280| 
    3354 000002fd 9643          MOV       *-SP[3],AL            ; [CPU_ALU] |2280| 
    3355 000002fe 9255          MOV       AL,*-SP[21]           ; [CPU_ALU] |2280| 
    3356 000002ff 9644          MOV       *-SP[4],AL            ; [CPU_ALU] |2280| 
    3357 00000300 9256          MOV       AL,*-SP[22]           ; [CPU_ALU] |2280| 
    3358 00000301 9645          MOV       *-SP[5],AL            ; [CPU_ALU] |2280| 
    3359 00000302 5D4F          MOVZ      AR5,*-SP[15]          ; [CPU_ALU] |2280| 
    3360 00000303 8A4A          MOVL      XAR4,*-SP[10]         ; [CPU_ALU] |2280| 
    3361 00000304 064E          MOVL      ACC,*-SP[14]          ; [CPU_ALU] |2280| 
    3362              $C$DW$237       .dwtag  DW_TAG_TI_branch
    3363                      .dwattr $C$DW$237, DW_AT_low_pc(0x00)
    3364                      .dwattr $C$DW$237, DW_AT_name("_Str_FmtNbr_Int32")
    3365                      .dwattr $C$DW$237, DW_AT_TI_call
    3366              
    3367 00000305 7640'         LCR       #_Str_FmtNbr_Int32    ; [CPU_ALU] |2280| 
         00000306 0342 
    3368                      ; call occurs [#_Str_FmtNbr_Int32] ; [] |2280| 
    3369 00000307 A84C          MOVL      *-SP[12],XAR4         ; [CPU_ALU] |2280| 
    3370                      .dwpsn  file "C:/ti/Workspace/PLC_certificate/Software/uC-LIB/lib_str.c",line 2289,column 5,is_stmt,i
    3371                      .dwpsn  file "C:/ti/Workspace/PLC_certificate/Software/uC-LIB/lib_str.c",line 2290,column 1,is_stmt,i
    3372 00000308 FE90          SUBB      SP,#16                ; [CPU_ARAU] 
    3373                      .dwcfi  cfa_offset, -2
    3374              $C$DW$238       .dwtag  DW_TAG_TI_branch
    3375                      .dwattr $C$DW$238, DW_AT_low_pc(0x00)
    3376                      .dwattr $C$DW$238, DW_AT_TI_return
    3377              
    3378 00000309 0006          LRETR     ; [CPU_ALU] 
    3379                      ; return occurs ; [] 
    3380                      .dwattr $C$DW$223, DW_AT_TI_end_file("C:/ti/Workspace/PLC_certificate/Software/uC-LIB/lib_str.c")
    3381                      .dwattr $C$DW$223, DW_AT_TI_end_line(0x8f2)
    3382                      .dwattr $C$DW$223, DW_AT_TI_end_column(0x01)
    3383                      .dwendentry
    3384                      .dwendtag $C$DW$223
    3385              
    3386 0000030a               .sect   ".text"
    3387                      .clink
    3388                      .global _Str_ParseNbr_Int32U
    3389              
    3390              $C$DW$239       .dwtag  DW_TAG_subprogram
    3391                      .dwattr $C$DW$239, DW_AT_name("Str_ParseNbr_Int32U")
    3392                      .dwattr $C$DW$239, DW_AT_low_pc(_Str_ParseNbr_Int32U)
TMS320C2000 Assembler PC v20.2.1 Tue Feb 16 00:15:56 2021

Copyright (c) 1996-2018 Texas Instruments Incorporated
lib_str.asm                                                          PAGE   64

    3393                      .dwattr $C$DW$239, DW_AT_high_pc(0x00)
    3394                      .dwattr $C$DW$239, DW_AT_TI_symbol_name("_Str_ParseNbr_Int32U")
    3395                      .dwattr $C$DW$239, DW_AT_external
    3396                      .dwattr $C$DW$239, DW_AT_type(*$C$DW$T$30)
    3397                      .dwattr $C$DW$239, DW_AT_TI_begin_file("C:/ti/Workspace/PLC_certificate/Software/uC-LIB/lib_str.c")
    3398                      .dwattr $C$DW$239, DW_AT_TI_begin_line(0xba1)
    3399                      .dwattr $C$DW$239, DW_AT_TI_begin_column(0x0d)
    3400                      .dwattr $C$DW$239, DW_AT_TI_max_frame_size(-12)
    3401                      .dwpsn  file "C:/ti/Workspace/PLC_certificate/Software/uC-LIB/lib_str.c",line 2980,column 1,is_stmt,a
    3402              
    3403                      .dwfde $C$DW$CIE, _Str_ParseNbr_Int32U
    3404              $C$DW$240       .dwtag  DW_TAG_formal_parameter
    3405                      .dwattr $C$DW$240, DW_AT_name("pstr")
    3406                      .dwattr $C$DW$240, DW_AT_TI_symbol_name("_pstr")
    3407                      .dwattr $C$DW$240, DW_AT_type(*$C$DW$T$28)
    3408                      .dwattr $C$DW$240, DW_AT_location[DW_OP_reg12]
    3409              
    3410              $C$DW$241       .dwtag  DW_TAG_formal_parameter
    3411                      .dwattr $C$DW$241, DW_AT_name("pstr_next")
    3412                      .dwattr $C$DW$241, DW_AT_TI_symbol_name("_pstr_next")
    3413                      .dwattr $C$DW$241, DW_AT_type(*$C$DW$T$39)
    3414                      .dwattr $C$DW$241, DW_AT_location[DW_OP_reg14]
    3415              
    3416              $C$DW$242       .dwtag  DW_TAG_formal_parameter
    3417                      .dwattr $C$DW$242, DW_AT_name("nbr_base")
    3418                      .dwattr $C$DW$242, DW_AT_TI_symbol_name("_nbr_base")
    3419                      .dwattr $C$DW$242, DW_AT_type(*$C$DW$T$25)
    3420                      .dwattr $C$DW$242, DW_AT_location[DW_OP_reg0]
    3421              
    3422              
    3423              ;***************************************************************
    3424              ;* FNAME: _Str_ParseNbr_Int32U          FR SIZE:  10           *
    3425              ;*                                                             *
    3426              ;* FUNCTION ENVIRONMENT                                        *
    3427              ;*                                                             *
    3428              ;* FUNCTION PROPERTIES                                         *
    3429              ;*                            2 Parameter,  7 Auto,  0 SOE     *
    3430              ;***************************************************************
    3431              
    3432 0000030a       _Str_ParseNbr_Int32U:
    3433                      .dwcfi  cfa_offset, -2
    3434                      .dwcfi  save_reg_to_mem, 26, 0
    3435 0000030a FE0A          ADDB      SP,#10                ; [CPU_ARAU] 
    3436                      .dwcfi  cfa_offset, -12
    3437              $C$DW$243       .dwtag  DW_TAG_variable
    3438                      .dwattr $C$DW$243, DW_AT_name("pstr")
    3439                      .dwattr $C$DW$243, DW_AT_TI_symbol_name("_pstr")
    3440                      .dwattr $C$DW$243, DW_AT_type(*$C$DW$T$28)
    3441                      .dwattr $C$DW$243, DW_AT_location[DW_OP_breg20 -4]
    3442              
    3443              $C$DW$244       .dwtag  DW_TAG_variable
    3444                      .dwattr $C$DW$244, DW_AT_name("pstr_next")
    3445                      .dwattr $C$DW$244, DW_AT_TI_symbol_name("_pstr_next")
    3446                      .dwattr $C$DW$244, DW_AT_type(*$C$DW$T$39)
    3447                      .dwattr $C$DW$244, DW_AT_location[DW_OP_breg20 -6]
TMS320C2000 Assembler PC v20.2.1 Tue Feb 16 00:15:56 2021

Copyright (c) 1996-2018 Texas Instruments Incorporated
lib_str.asm                                                          PAGE   65

    3448              
    3449              $C$DW$245       .dwtag  DW_TAG_variable
    3450                      .dwattr $C$DW$245, DW_AT_name("nbr")
    3451                      .dwattr $C$DW$245, DW_AT_TI_symbol_name("_nbr")
    3452                      .dwattr $C$DW$245, DW_AT_type(*$C$DW$T$30)
    3453                      .dwattr $C$DW$245, DW_AT_location[DW_OP_breg20 -8]
    3454              
    3455              $C$DW$246       .dwtag  DW_TAG_variable
    3456                      .dwattr $C$DW$246, DW_AT_name("nbr_base")
    3457                      .dwattr $C$DW$246, DW_AT_TI_symbol_name("_nbr_base")
    3458                      .dwattr $C$DW$246, DW_AT_type(*$C$DW$T$25)
    3459                      .dwattr $C$DW$246, DW_AT_location[DW_OP_breg20 -9]
    3460              
    3461 0000030b 9649          MOV       *-SP[9],AL            ; [CPU_ALU] |2980| 
    3462 0000030c A046          MOVL      *-SP[6],XAR5          ; [CPU_ALU] |2980| 
    3463 0000030d A844          MOVL      *-SP[4],XAR4          ; [CPU_ALU] |2980| 
    3464                      .dwpsn  file "C:/ti/Workspace/PLC_certificate/Software/uC-LIB/lib_str.c",line 2984,column 5,is_stmt,i
    3465 0000030e 0200          MOVB      ACC,#0                ; [CPU_ALU] |2984| 
    3466 0000030f 1E42          MOVL      *-SP[2],ACC           ; [CPU_ALU] |2984| 
    3467 00000310 9B00          MOVB      AH,#0                 ; [CPU_ALU] |2984| 
    3468 00000311 8A44          MOVL      XAR4,*-SP[4]          ; [CPU_ALU] |2984| 
    3469 00000312 8346          MOVL      XAR5,*-SP[6]          ; [CPU_ALU] |2984| 
    3470 00000313 9249          MOV       AL,*-SP[9]            ; [CPU_ALU] |2984| 
    3471              $C$DW$247       .dwtag  DW_TAG_TI_branch
    3472                      .dwattr $C$DW$247, DW_AT_low_pc(0x00)
    3473                      .dwattr $C$DW$247, DW_AT_name("_Str_ParseNbr_Int32")
    3474                      .dwattr $C$DW$247, DW_AT_TI_call
    3475              
    3476 00000314 7640'         LCR       #_Str_ParseNbr_Int32  ; [CPU_ALU] |2984| 
         00000315 043A 
    3477                      ; call occurs [#_Str_ParseNbr_Int32] ; [] |2984| 
    3478 00000316 1E48          MOVL      *-SP[8],ACC           ; [CPU_ALU] |2984| 
    3479                      .dwpsn  file "C:/ti/Workspace/PLC_certificate/Software/uC-LIB/lib_str.c",line 2990,column 5,is_stmt,i
    3480                      .dwpsn  file "C:/ti/Workspace/PLC_certificate/Software/uC-LIB/lib_str.c",line 2991,column 1,is_stmt,i
    3481 00000317 FE8A          SUBB      SP,#10                ; [CPU_ARAU] 
    3482                      .dwcfi  cfa_offset, -2
    3483              $C$DW$248       .dwtag  DW_TAG_TI_branch
    3484                      .dwattr $C$DW$248, DW_AT_low_pc(0x00)
    3485                      .dwattr $C$DW$248, DW_AT_TI_return
    3486              
    3487 00000318 0006          LRETR     ; [CPU_ALU] 
    3488                      ; return occurs ; [] 
    3489                      .dwattr $C$DW$239, DW_AT_TI_end_file("C:/ti/Workspace/PLC_certificate/Software/uC-LIB/lib_str.c")
    3490                      .dwattr $C$DW$239, DW_AT_TI_end_line(0xbaf)
    3491                      .dwattr $C$DW$239, DW_AT_TI_end_column(0x01)
    3492                      .dwendentry
    3493                      .dwendtag $C$DW$239
    3494              
    3495 00000319               .sect   ".text"
    3496                      .clink
    3497                      .global _Str_ParseNbr_Int32S
    3498              
    3499              $C$DW$249       .dwtag  DW_TAG_subprogram
    3500                      .dwattr $C$DW$249, DW_AT_name("Str_ParseNbr_Int32S")
    3501                      .dwattr $C$DW$249, DW_AT_low_pc(_Str_ParseNbr_Int32S)
TMS320C2000 Assembler PC v20.2.1 Tue Feb 16 00:15:56 2021

Copyright (c) 1996-2018 Texas Instruments Incorporated
lib_str.asm                                                          PAGE   66

    3502                      .dwattr $C$DW$249, DW_AT_high_pc(0x00)
    3503                      .dwattr $C$DW$249, DW_AT_TI_symbol_name("_Str_ParseNbr_Int32S")
    3504                      .dwattr $C$DW$249, DW_AT_external
    3505                      .dwattr $C$DW$249, DW_AT_type(*$C$DW$T$37)
    3506                      .dwattr $C$DW$249, DW_AT_TI_begin_file("C:/ti/Workspace/PLC_certificate/Software/uC-LIB/lib_str.c")
    3507                      .dwattr $C$DW$249, DW_AT_TI_begin_line(0xc79)
    3508                      .dwattr $C$DW$249, DW_AT_TI_begin_column(0x0d)
    3509                      .dwattr $C$DW$249, DW_AT_TI_max_frame_size(-14)
    3510                      .dwpsn  file "C:/ti/Workspace/PLC_certificate/Software/uC-LIB/lib_str.c",line 3196,column 1,is_stmt,a
    3511              
    3512                      .dwfde $C$DW$CIE, _Str_ParseNbr_Int32S
    3513              $C$DW$250       .dwtag  DW_TAG_formal_parameter
    3514                      .dwattr $C$DW$250, DW_AT_name("pstr")
    3515                      .dwattr $C$DW$250, DW_AT_TI_symbol_name("_pstr")
    3516                      .dwattr $C$DW$250, DW_AT_type(*$C$DW$T$28)
    3517                      .dwattr $C$DW$250, DW_AT_location[DW_OP_reg12]
    3518              
    3519              $C$DW$251       .dwtag  DW_TAG_formal_parameter
    3520                      .dwattr $C$DW$251, DW_AT_name("pstr_next")
    3521                      .dwattr $C$DW$251, DW_AT_TI_symbol_name("_pstr_next")
    3522                      .dwattr $C$DW$251, DW_AT_type(*$C$DW$T$39)
    3523                      .dwattr $C$DW$251, DW_AT_location[DW_OP_reg14]
    3524              
    3525              $C$DW$252       .dwtag  DW_TAG_formal_parameter
    3526                      .dwattr $C$DW$252, DW_AT_name("nbr_base")
    3527                      .dwattr $C$DW$252, DW_AT_TI_symbol_name("_nbr_base")
    3528                      .dwattr $C$DW$252, DW_AT_type(*$C$DW$T$25)
    3529                      .dwattr $C$DW$252, DW_AT_location[DW_OP_reg0]
    3530              
    3531              
    3532              ;***************************************************************
    3533              ;* FNAME: _Str_ParseNbr_Int32S          FR SIZE:  12           *
    3534              ;*                                                             *
    3535              ;* FUNCTION ENVIRONMENT                                        *
    3536              ;*                                                             *
    3537              ;* FUNCTION PROPERTIES                                         *
    3538              ;*                            2 Parameter, 10 Auto,  0 SOE     *
    3539              ;***************************************************************
    3540              
    3541 00000319       _Str_ParseNbr_Int32S:
    3542                      .dwcfi  cfa_offset, -2
    3543                      .dwcfi  save_reg_to_mem, 26, 0
    3544 00000319 FE0C          ADDB      SP,#12                ; [CPU_ARAU] 
    3545                      .dwcfi  cfa_offset, -14
    3546              $C$DW$253       .dwtag  DW_TAG_variable
    3547                      .dwattr $C$DW$253, DW_AT_name("pstr")
    3548                      .dwattr $C$DW$253, DW_AT_TI_symbol_name("_pstr")
    3549                      .dwattr $C$DW$253, DW_AT_type(*$C$DW$T$28)
    3550                      .dwattr $C$DW$253, DW_AT_location[DW_OP_breg20 -4]
    3551              
    3552              $C$DW$254       .dwtag  DW_TAG_variable
    3553                      .dwattr $C$DW$254, DW_AT_name("pstr_next")
    3554                      .dwattr $C$DW$254, DW_AT_TI_symbol_name("_pstr_next")
    3555                      .dwattr $C$DW$254, DW_AT_type(*$C$DW$T$39)
    3556                      .dwattr $C$DW$254, DW_AT_location[DW_OP_breg20 -6]
TMS320C2000 Assembler PC v20.2.1 Tue Feb 16 00:15:56 2021

Copyright (c) 1996-2018 Texas Instruments Incorporated
lib_str.asm                                                          PAGE   67

    3557              
    3558              $C$DW$255       .dwtag  DW_TAG_variable
    3559                      .dwattr $C$DW$255, DW_AT_name("nbr")
    3560                      .dwattr $C$DW$255, DW_AT_TI_symbol_name("_nbr")
    3561                      .dwattr $C$DW$255, DW_AT_type(*$C$DW$T$37)
    3562                      .dwattr $C$DW$255, DW_AT_location[DW_OP_breg20 -8]
    3563              
    3564              $C$DW$256       .dwtag  DW_TAG_variable
    3565                      .dwattr $C$DW$256, DW_AT_name("nbr_abs")
    3566                      .dwattr $C$DW$256, DW_AT_TI_symbol_name("_nbr_abs")
    3567                      .dwattr $C$DW$256, DW_AT_type(*$C$DW$T$30)
    3568                      .dwattr $C$DW$256, DW_AT_location[DW_OP_breg20 -10]
    3569              
    3570              $C$DW$257       .dwtag  DW_TAG_variable
    3571                      .dwattr $C$DW$257, DW_AT_name("nbr_base")
    3572                      .dwattr $C$DW$257, DW_AT_TI_symbol_name("_nbr_base")
    3573                      .dwattr $C$DW$257, DW_AT_type(*$C$DW$T$25)
    3574                      .dwattr $C$DW$257, DW_AT_location[DW_OP_breg20 -11]
    3575              
    3576              $C$DW$258       .dwtag  DW_TAG_variable
    3577                      .dwattr $C$DW$258, DW_AT_name("nbr_neg")
    3578                      .dwattr $C$DW$258, DW_AT_TI_symbol_name("_nbr_neg")
    3579                      .dwattr $C$DW$258, DW_AT_type(*$C$DW$T$19)
    3580                      .dwattr $C$DW$258, DW_AT_location[DW_OP_breg20 -12]
    3581              
    3582 0000031a 964B          MOV       *-SP[11],AL           ; [CPU_ALU] |3196| 
    3583 0000031b A046          MOVL      *-SP[6],XAR5          ; [CPU_ALU] |3196| 
    3584 0000031c A844          MOVL      *-SP[4],XAR4          ; [CPU_ALU] |3196| 
    3585                      .dwpsn  file "C:/ti/Workspace/PLC_certificate/Software/uC-LIB/lib_str.c",line 3202,column 5,is_stmt,i
    3586 0000031d 5CAD          MOVZ      AR4,SP                ; [CPU_ALU] |3202| 
    3587 0000031e DC8C          SUBB      XAR4,#12              ; [CPU_ARAU] |3202| 
    3588 0000031f 0EA4          MOVU      ACC,AR4               ; [CPU_ALU] |3202| 
    3589 00000320 1E42          MOVL      *-SP[2],ACC           ; [CPU_ALU] |3202| 
    3590 00000321 9B01          MOVB      AH,#1                 ; [CPU_ALU] |3202| 
    3591 00000322 8346          MOVL      XAR5,*-SP[6]          ; [CPU_ALU] |3202| 
    3592 00000323 8A44          MOVL      XAR4,*-SP[4]          ; [CPU_ALU] |3202| 
    3593 00000324 924B          MOV       AL,*-SP[11]           ; [CPU_ALU] |3202| 
    3594              $C$DW$259       .dwtag  DW_TAG_TI_branch
    3595                      .dwattr $C$DW$259, DW_AT_low_pc(0x00)
    3596                      .dwattr $C$DW$259, DW_AT_name("_Str_ParseNbr_Int32")
    3597                      .dwattr $C$DW$259, DW_AT_TI_call
    3598              
    3599 00000325 7640'         LCR       #_Str_ParseNbr_Int32  ; [CPU_ALU] |3202| 
         00000326 043A 
    3600                      ; call occurs [#_Str_ParseNbr_Int32] ; [] |3202| 
    3601 00000327 1E4A          MOVL      *-SP[10],ACC          ; [CPU_ALU] |3202| 
    3602                      .dwpsn  file "C:/ti/Workspace/PLC_certificate/Software/uC-LIB/lib_str.c",line 3208,column 5,is_stmt,i
    3603 00000328 924C          MOV       AL,*-SP[12]           ; [CPU_ALU] |3208| 
    3604 00000329 600A          B         $C$L93,NEQ            ; [CPU_ALU] |3208| 
    3605                      ; branchcc occurs ; [] |3208| 
    3606                      .dwpsn  file "C:/ti/Workspace/PLC_certificate/Software/uC-LIB/lib_str.c",line 3209,column 9,is_stmt,i
    3607 0000032a 28A9          MOV       AL,#65535             ; [CPU_ALU] |3209| 
         0000032b FFFF 
    3608 0000032c 28A8          MOV       AH,#32767             ; [CPU_ALU] |3209| 
         0000032d 7FFF 
TMS320C2000 Assembler PC v20.2.1 Tue Feb 16 00:15:56 2021

Copyright (c) 1996-2018 Texas Instruments Incorporated
lib_str.asm                                                          PAGE   68

    3609 0000032e 0F4A          CMPL      ACC,*-SP[10]          ; [CPU_ALU] |3209| 
    3610 0000032f 6802          B         $C$L92,LO             ; [CPU_ALU] |3209| 
    3611                      ; branchcc occurs ; [] |3209| 
    3612 00000330 064A          MOVL      ACC,*-SP[10]          ; [CPU_ALU] |3209| 
    3613 00000331       $C$L92:    
    3614 00000331 1E48          MOVL      *-SP[8],ACC           ; [CPU_ALU] |3209| 
    3615 00000332 6F0E          B         $C$L96,UNC            ; [CPU_ALU] 
    3616                      ; branch occurs ; [] 
    3617 00000333       $C$L93:    
    3618                      .dwpsn  file "C:/ti/Workspace/PLC_certificate/Software/uC-LIB/lib_str.c",line 3212,column 9,is_stmt,i
    3619 00000333 28A9          MOV       AL,#65535             ; [CPU_ALU] |3212| 
         00000334 FFFF 
    3620 00000335 28A8          MOV       AH,#32767             ; [CPU_ALU] |3212| 
         00000336 7FFF 
    3621 00000337 0F4A          CMPL      ACC,*-SP[10]          ; [CPU_ALU] |3212| 
    3622 00000338 6705          B         $C$L94,HIS            ; [CPU_ALU] |3212| 
    3623                      ; branchcc occurs ; [] |3212| 
    3624 00000339 9A00          MOVB      AL,#0                 ; [CPU_ALU] |3212| 
    3625 0000033a 28A8          MOV       AH,#32768             ; [CPU_ALU] |3212| 
         0000033b 8000 
    3626 0000033c 6F03          B         $C$L95,UNC            ; [CPU_ALU] |3212| 
    3627                      ; branch occurs ; [] |3212| 
    3628 0000033d       $C$L94:    
    3629 0000033d 064A          MOVL      ACC,*-SP[10]          ; [CPU_ALU] |3212| 
    3630 0000033e FF54          NEG       ACC                   ; [CPU_ALU] |3212| 
    3631 0000033f       $C$L95:    
    3632 0000033f 1E48          MOVL      *-SP[8],ACC           ; [CPU_ALU] |3212| 
    3633 00000340       $C$L96:    
    3634                      .dwpsn  file "C:/ti/Workspace/PLC_certificate/Software/uC-LIB/lib_str.c",line 3216,column 5,is_stmt,i
    3635                      .dwpsn  file "C:/ti/Workspace/PLC_certificate/Software/uC-LIB/lib_str.c",line 3217,column 1,is_stmt,i
    3636 00000340 FE8C          SUBB      SP,#12                ; [CPU_ARAU] 
    3637                      .dwcfi  cfa_offset, -2
    3638              $C$DW$260       .dwtag  DW_TAG_TI_branch
    3639                      .dwattr $C$DW$260, DW_AT_low_pc(0x00)
    3640                      .dwattr $C$DW$260, DW_AT_TI_return
    3641              
    3642 00000341 0006          LRETR     ; [CPU_ALU] 
    3643                      ; return occurs ; [] 
    3644                      .dwattr $C$DW$249, DW_AT_TI_end_file("C:/ti/Workspace/PLC_certificate/Software/uC-LIB/lib_str.c")
    3645                      .dwattr $C$DW$249, DW_AT_TI_end_line(0xc91)
    3646                      .dwattr $C$DW$249, DW_AT_TI_end_column(0x01)
    3647                      .dwendentry
    3648                      .dwendtag $C$DW$249
    3649              
    3650 00000342               .sect   ".text"
    3651                      .clink
    3652              
    3653              $C$DW$261       .dwtag  DW_TAG_subprogram
    3654                      .dwattr $C$DW$261, DW_AT_name("Str_FmtNbr_Int32")
    3655                      .dwattr $C$DW$261, DW_AT_low_pc(_Str_FmtNbr_Int32)
    3656                      .dwattr $C$DW$261, DW_AT_high_pc(0x00)
    3657                      .dwattr $C$DW$261, DW_AT_TI_symbol_name("_Str_FmtNbr_Int32")
    3658                      .dwattr $C$DW$261, DW_AT_type(*$C$DW$T$38)
    3659                      .dwattr $C$DW$261, DW_AT_TI_begin_file("C:/ti/Workspace/PLC_certificate/Software/uC-LIB/lib_str.c")
    3660                      .dwattr $C$DW$261, DW_AT_TI_begin_line(0xd78)
TMS320C2000 Assembler PC v20.2.1 Tue Feb 16 00:15:56 2021

Copyright (c) 1996-2018 Texas Instruments Incorporated
lib_str.asm                                                          PAGE   69

    3661                      .dwattr $C$DW$261, DW_AT_TI_begin_column(0x14)
    3662                      .dwattr $C$DW$261, DW_AT_TI_max_frame_size(-28)
    3663                      .dwpsn  file "C:/ti/Workspace/PLC_certificate/Software/uC-LIB/lib_str.c",line 3456,column 1,is_stmt,a
    3664              
    3665                      .dwfde $C$DW$CIE, _Str_FmtNbr_Int32
    3666              $C$DW$262       .dwtag  DW_TAG_formal_parameter
    3667                      .dwattr $C$DW$262, DW_AT_name("nbr")
    3668                      .dwattr $C$DW$262, DW_AT_TI_symbol_name("_nbr")
    3669                      .dwattr $C$DW$262, DW_AT_type(*$C$DW$T$30)
    3670                      .dwattr $C$DW$262, DW_AT_location[DW_OP_reg0]
    3671              
    3672              $C$DW$263       .dwtag  DW_TAG_formal_parameter
    3673                      .dwattr $C$DW$263, DW_AT_name("nbr_dig")
    3674                      .dwattr $C$DW$263, DW_AT_TI_symbol_name("_nbr_dig")
    3675                      .dwattr $C$DW$263, DW_AT_type(*$C$DW$T$25)
    3676                      .dwattr $C$DW$263, DW_AT_location[DW_OP_reg14]
    3677              
    3678              $C$DW$264       .dwtag  DW_TAG_formal_parameter
    3679                      .dwattr $C$DW$264, DW_AT_name("nbr_base")
    3680                      .dwattr $C$DW$264, DW_AT_TI_symbol_name("_nbr_base")
    3681                      .dwattr $C$DW$264, DW_AT_type(*$C$DW$T$25)
    3682                      .dwattr $C$DW$264, DW_AT_location[DW_OP_breg20 -29]
    3683              
    3684              $C$DW$265       .dwtag  DW_TAG_formal_parameter
    3685                      .dwattr $C$DW$265, DW_AT_name("nbr_neg")
    3686                      .dwattr $C$DW$265, DW_AT_TI_symbol_name("_nbr_neg")
    3687                      .dwattr $C$DW$265, DW_AT_type(*$C$DW$T$19)
    3688                      .dwattr $C$DW$265, DW_AT_location[DW_OP_breg20 -30]
    3689              
    3690              $C$DW$266       .dwtag  DW_TAG_formal_parameter
    3691                      .dwattr $C$DW$266, DW_AT_name("lead_char")
    3692                      .dwattr $C$DW$266, DW_AT_TI_symbol_name("_lead_char")
    3693                      .dwattr $C$DW$266, DW_AT_type(*$C$DW$T$21)
    3694                      .dwattr $C$DW$266, DW_AT_location[DW_OP_breg20 -31]
    3695              
    3696              $C$DW$267       .dwtag  DW_TAG_formal_parameter
    3697                      .dwattr $C$DW$267, DW_AT_name("lower_case")
    3698                      .dwattr $C$DW$267, DW_AT_TI_symbol_name("_lower_case")
    3699                      .dwattr $C$DW$267, DW_AT_type(*$C$DW$T$19)
    3700                      .dwattr $C$DW$267, DW_AT_location[DW_OP_breg20 -32]
    3701              
    3702              $C$DW$268       .dwtag  DW_TAG_formal_parameter
    3703                      .dwattr $C$DW$268, DW_AT_name("nul")
    3704                      .dwattr $C$DW$268, DW_AT_TI_symbol_name("_nul")
    3705                      .dwattr $C$DW$268, DW_AT_type(*$C$DW$T$19)
    3706                      .dwattr $C$DW$268, DW_AT_location[DW_OP_breg20 -33]
    3707              
    3708              $C$DW$269       .dwtag  DW_TAG_formal_parameter
    3709                      .dwattr $C$DW$269, DW_AT_name("pstr")
    3710                      .dwattr $C$DW$269, DW_AT_TI_symbol_name("_pstr")
    3711                      .dwattr $C$DW$269, DW_AT_type(*$C$DW$T$38)
    3712                      .dwattr $C$DW$269, DW_AT_location[DW_OP_reg12]
    3713              
    3714              
    3715              ;***************************************************************
TMS320C2000 Assembler PC v20.2.1 Tue Feb 16 00:15:56 2021

Copyright (c) 1996-2018 Texas Instruments Incorporated
lib_str.asm                                                          PAGE   70

    3716              ;* FNAME: _Str_FmtNbr_Int32             FR SIZE:  26           *
    3717              ;*                                                             *
    3718              ;* FUNCTION ENVIRONMENT                                        *
    3719              ;*                                                             *
    3720              ;* FUNCTION PROPERTIES                                         *
    3721              ;*                            0 Parameter, 25 Auto,  0 SOE     *
    3722              ;***************************************************************
    3723              
    3724 00000342       _Str_FmtNbr_Int32:
    3725                      .dwcfi  cfa_offset, -2
    3726                      .dwcfi  save_reg_to_mem, 26, 0
    3727 00000342 FE1A          ADDB      SP,#26                ; [CPU_ARAU] 
    3728                      .dwcfi  cfa_offset, -28
    3729              $C$DW$270       .dwtag  DW_TAG_variable
    3730                      .dwattr $C$DW$270, DW_AT_name("nbr")
    3731                      .dwattr $C$DW$270, DW_AT_TI_symbol_name("_nbr")
    3732                      .dwattr $C$DW$270, DW_AT_type(*$C$DW$T$30)
    3733                      .dwattr $C$DW$270, DW_AT_location[DW_OP_breg20 -2]
    3734              
    3735              $C$DW$271       .dwtag  DW_TAG_variable
    3736                      .dwattr $C$DW$271, DW_AT_name("pstr")
    3737                      .dwattr $C$DW$271, DW_AT_TI_symbol_name("_pstr")
    3738                      .dwattr $C$DW$271, DW_AT_type(*$C$DW$T$38)
    3739                      .dwattr $C$DW$271, DW_AT_location[DW_OP_breg20 -4]
    3740              
    3741              $C$DW$272       .dwtag  DW_TAG_variable
    3742                      .dwattr $C$DW$272, DW_AT_name("pstr_fmt")
    3743                      .dwattr $C$DW$272, DW_AT_TI_symbol_name("_pstr_fmt")
    3744                      .dwattr $C$DW$272, DW_AT_type(*$C$DW$T$38)
    3745                      .dwattr $C$DW$272, DW_AT_location[DW_OP_breg20 -6]
    3746              
    3747              $C$DW$273       .dwtag  DW_TAG_variable
    3748                      .dwattr $C$DW$273, DW_AT_name("nbr_fmt")
    3749                      .dwattr $C$DW$273, DW_AT_TI_symbol_name("_nbr_fmt")
    3750                      .dwattr $C$DW$273, DW_AT_type(*$C$DW$T$30)
    3751                      .dwattr $C$DW$273, DW_AT_location[DW_OP_breg20 -8]
    3752              
    3753              $C$DW$274       .dwtag  DW_TAG_variable
    3754                      .dwattr $C$DW$274, DW_AT_name("nbr_log")
    3755                      .dwattr $C$DW$274, DW_AT_TI_symbol_name("_nbr_log")
    3756                      .dwattr $C$DW$274, DW_AT_type(*$C$DW$T$30)
    3757                      .dwattr $C$DW$274, DW_AT_location[DW_OP_breg20 -10]
    3758              
    3759              $C$DW$275       .dwtag  DW_TAG_variable
    3760                      .dwattr $C$DW$275, DW_AT_name("nbr_dig")
    3761                      .dwattr $C$DW$275, DW_AT_TI_symbol_name("_nbr_dig")
    3762                      .dwattr $C$DW$275, DW_AT_type(*$C$DW$T$25)
    3763                      .dwattr $C$DW$275, DW_AT_location[DW_OP_breg20 -11]
    3764              
    3765              $C$DW$276       .dwtag  DW_TAG_variable
    3766                      .dwattr $C$DW$276, DW_AT_name("i")
    3767                      .dwattr $C$DW$276, DW_AT_TI_symbol_name("_i")
    3768                      .dwattr $C$DW$276, DW_AT_type(*$C$DW$T$36)
    3769                      .dwattr $C$DW$276, DW_AT_location[DW_OP_breg20 -12]
    3770              
TMS320C2000 Assembler PC v20.2.1 Tue Feb 16 00:15:56 2021

Copyright (c) 1996-2018 Texas Instruments Incorporated
lib_str.asm                                                          PAGE   71

    3771              $C$DW$277       .dwtag  DW_TAG_variable
    3772                      .dwattr $C$DW$277, DW_AT_name("nbr_dig_max")
    3773                      .dwattr $C$DW$277, DW_AT_TI_symbol_name("_nbr_dig_max")
    3774                      .dwattr $C$DW$277, DW_AT_type(*$C$DW$T$25)
    3775                      .dwattr $C$DW$277, DW_AT_location[DW_OP_breg20 -13]
    3776              
    3777              $C$DW$278       .dwtag  DW_TAG_variable
    3778                      .dwattr $C$DW$278, DW_AT_name("nbr_dig_min")
    3779                      .dwattr $C$DW$278, DW_AT_TI_symbol_name("_nbr_dig_min")
    3780                      .dwattr $C$DW$278, DW_AT_type(*$C$DW$T$25)
    3781                      .dwattr $C$DW$278, DW_AT_location[DW_OP_breg20 -14]
    3782              
    3783              $C$DW$279       .dwtag  DW_TAG_variable
    3784                      .dwattr $C$DW$279, DW_AT_name("nbr_dig_fmtd")
    3785                      .dwattr $C$DW$279, DW_AT_TI_symbol_name("_nbr_dig_fmtd")
    3786                      .dwattr $C$DW$279, DW_AT_type(*$C$DW$T$25)
    3787                      .dwattr $C$DW$279, DW_AT_location[DW_OP_breg20 -15]
    3788              
    3789              $C$DW$280       .dwtag  DW_TAG_variable
    3790                      .dwattr $C$DW$280, DW_AT_name("nbr_neg_sign")
    3791                      .dwattr $C$DW$280, DW_AT_TI_symbol_name("_nbr_neg_sign")
    3792                      .dwattr $C$DW$280, DW_AT_type(*$C$DW$T$25)
    3793                      .dwattr $C$DW$280, DW_AT_location[DW_OP_breg20 -16]
    3794              
    3795              $C$DW$281       .dwtag  DW_TAG_variable
    3796                      .dwattr $C$DW$281, DW_AT_name("nbr_lead_char")
    3797                      .dwattr $C$DW$281, DW_AT_TI_symbol_name("_nbr_lead_char")
    3798                      .dwattr $C$DW$281, DW_AT_type(*$C$DW$T$25)
    3799                      .dwattr $C$DW$281, DW_AT_location[DW_OP_breg20 -17]
    3800              
    3801              $C$DW$282       .dwtag  DW_TAG_variable
    3802                      .dwattr $C$DW$282, DW_AT_name("dig_val")
    3803                      .dwattr $C$DW$282, DW_AT_TI_symbol_name("_dig_val")
    3804                      .dwattr $C$DW$282, DW_AT_type(*$C$DW$T$25)
    3805                      .dwattr $C$DW$282, DW_AT_location[DW_OP_breg20 -18]
    3806              
    3807              $C$DW$283       .dwtag  DW_TAG_variable
    3808                      .dwattr $C$DW$283, DW_AT_name("lead_char_delta_0")
    3809                      .dwattr $C$DW$283, DW_AT_TI_symbol_name("_lead_char_delta_0")
    3810                      .dwattr $C$DW$283, DW_AT_type(*$C$DW$T$25)
    3811                      .dwattr $C$DW$283, DW_AT_location[DW_OP_breg20 -19]
    3812              
    3813              $C$DW$284       .dwtag  DW_TAG_variable
    3814                      .dwattr $C$DW$284, DW_AT_name("lead_char_delta_a")
    3815                      .dwattr $C$DW$284, DW_AT_TI_symbol_name("_lead_char_delta_a")
    3816                      .dwattr $C$DW$284, DW_AT_type(*$C$DW$T$25)
    3817                      .dwattr $C$DW$284, DW_AT_location[DW_OP_breg20 -20]
    3818              
    3819              $C$DW$285       .dwtag  DW_TAG_variable
    3820                      .dwattr $C$DW$285, DW_AT_name("lead_char_dig")
    3821                      .dwattr $C$DW$285, DW_AT_TI_symbol_name("_lead_char_dig")
    3822                      .dwattr $C$DW$285, DW_AT_type(*$C$DW$T$19)
    3823                      .dwattr $C$DW$285, DW_AT_location[DW_OP_breg20 -21]
    3824              
    3825              $C$DW$286       .dwtag  DW_TAG_variable
TMS320C2000 Assembler PC v20.2.1 Tue Feb 16 00:15:56 2021

Copyright (c) 1996-2018 Texas Instruments Incorporated
lib_str.asm                                                          PAGE   72

    3826                      .dwattr $C$DW$286, DW_AT_name("lead_char_0")
    3827                      .dwattr $C$DW$286, DW_AT_TI_symbol_name("_lead_char_0")
    3828                      .dwattr $C$DW$286, DW_AT_type(*$C$DW$T$19)
    3829                      .dwattr $C$DW$286, DW_AT_location[DW_OP_breg20 -22]
    3830              
    3831              $C$DW$287       .dwtag  DW_TAG_variable
    3832                      .dwattr $C$DW$287, DW_AT_name("fmt_invalid")
    3833                      .dwattr $C$DW$287, DW_AT_TI_symbol_name("_fmt_invalid")
    3834                      .dwattr $C$DW$287, DW_AT_type(*$C$DW$T$19)
    3835                      .dwattr $C$DW$287, DW_AT_location[DW_OP_breg20 -23]
    3836              
    3837              $C$DW$288       .dwtag  DW_TAG_variable
    3838                      .dwattr $C$DW$288, DW_AT_name("print_char")
    3839                      .dwattr $C$DW$288, DW_AT_TI_symbol_name("_print_char")
    3840                      .dwattr $C$DW$288, DW_AT_type(*$C$DW$T$19)
    3841                      .dwattr $C$DW$288, DW_AT_location[DW_OP_breg20 -24]
    3842              
    3843              $C$DW$289       .dwtag  DW_TAG_variable
    3844                      .dwattr $C$DW$289, DW_AT_name("nbr_neg_fmtd")
    3845                      .dwattr $C$DW$289, DW_AT_TI_symbol_name("_nbr_neg_fmtd")
    3846                      .dwattr $C$DW$289, DW_AT_type(*$C$DW$T$19)
    3847                      .dwattr $C$DW$289, DW_AT_location[DW_OP_breg20 -25]
    3848              
    3849 00000343 A844          MOVL      *-SP[4],XAR4          ; [CPU_ALU] |3456| 
    3850 00000344 7D4B          MOV       *-SP[11],AR5          ; [CPU_ALU] |3456| 
    3851 00000345 1E42          MOVL      *-SP[2],ACC           ; [CPU_ALU] |3456| 
    3852                      .dwpsn  file "C:/ti/Workspace/PLC_certificate/Software/uC-LIB/lib_str.c",line 3477,column 5,is_stmt,i
    3853 00000346 0644          MOVL      ACC,*-SP[4]           ; [CPU_ALU] |3477| 
    3854 00000347 6004          B         $C$L97,NEQ            ; [CPU_ALU] |3477| 
    3855                      ; branchcc occurs ; [] |3477| 
    3856                      .dwpsn  file "C:/ti/Workspace/PLC_certificate/Software/uC-LIB/lib_str.c",line 3478,column 9,is_stmt,i
    3857 00000348 D400          MOVB      XAR4,#0               ; [CPU_ALU] |3478| 
    3858 00000349 FFEF          B         $C$L135,UNC           ; [CPU_ALU] |3478| 
         0000034a 00EF 
    3859                      ; branch occurs ; [] |3478| 
    3860 0000034b       $C$L97:    
    3861                      .dwpsn  file "C:/ti/Workspace/PLC_certificate/Software/uC-LIB/lib_str.c",line 3481,column 5,is_stmt,i
    3862 0000034b 2B57          MOV       *-SP[23],#0           ; [CPU_ALU] |3481| 
    3863                      .dwpsn  file "C:/ti/Workspace/PLC_certificate/Software/uC-LIB/lib_str.c",line 3482,column 5,is_stmt,i
    3864 0000034c 2B56          MOV       *-SP[22],#0           ; [CPU_ALU] |3482| 
    3865                      .dwpsn  file "C:/ti/Workspace/PLC_certificate/Software/uC-LIB/lib_str.c",line 3484,column 5,is_stmt,i
    3866 0000034d 924B          MOV       AL,*-SP[11]           ; [CPU_ALU] |3484| 
    3867 0000034e 6003          B         $C$L98,NEQ            ; [CPU_ALU] |3484| 
    3868                      ; branchcc occurs ; [] |3484| 
    3869                      .dwpsn  file "C:/ti/Workspace/PLC_certificate/Software/uC-LIB/lib_str.c",line 3485,column 9,is_stmt,i
    3870 0000034f 56BF          MOVB      *-SP[23],#1,UNC       ; [CPU_ALU] |3485| 
         00000350 0157 
    3871 00000351       $C$L98:    
    3872                      .dwpsn  file "C:/ti/Workspace/PLC_certificate/Software/uC-LIB/lib_str.c",line 3488,column 5,is_stmt,i
    3873 00000351 925D          MOV       AL,*-SP[29]           ; [CPU_ALU] |3488| 
    3874 00000352 5202          CMPB      AL,#2                 ; [CPU_ALU] |3488| 
    3875 00000353 6803          B         $C$L99,LO             ; [CPU_ALU] |3488| 
    3876                      ; branchcc occurs ; [] |3488| 
    3877 00000354 5224          CMPB      AL,#36                ; [CPU_ALU] |3488| 
    3878 00000355 6903          B         $C$L100,LOS           ; [CPU_ALU] |3488| 
TMS320C2000 Assembler PC v20.2.1 Tue Feb 16 00:15:56 2021

Copyright (c) 1996-2018 Texas Instruments Incorporated
lib_str.asm                                                          PAGE   73

    3879                      ; branchcc occurs ; [] |3488| 
    3880 00000356       $C$L99:    
    3881                      .dwpsn  file "C:/ti/Workspace/PLC_certificate/Software/uC-LIB/lib_str.c",line 3490,column 9,is_stmt,i
    3882 00000356 56BF          MOVB      *-SP[23],#1,UNC       ; [CPU_ALU] |3490| 
         00000357 0157 
    3883 00000358       $C$L100:    
    3884                      .dwpsn  file "C:/ti/Workspace/PLC_certificate/Software/uC-LIB/lib_str.c",line 3493,column 5,is_stmt,i
    3885 00000358 925F          MOV       AL,*-SP[31]           ; [CPU_ALU] |3493| 
    3886 00000359 612E          B         $C$L108,EQ            ; [CPU_ALU] |3493| 
    3887                      ; branchcc occurs ; [] |3493| 
    3888                      .dwpsn  file "C:/ti/Workspace/PLC_certificate/Software/uC-LIB/lib_str.c",line 3494,column 9,is_stmt,i
    3889              $C$DW$290       .dwtag  DW_TAG_TI_branch
    3890                      .dwattr $C$DW$290, DW_AT_low_pc(0x00)
    3891                      .dwattr $C$DW$290, DW_AT_name("_ASCII_IsPrint")
    3892                      .dwattr $C$DW$290, DW_AT_TI_call
    3893              
    3894 0000035a 7640!         LCR       #_ASCII_IsPrint       ; [CPU_ALU] |3494| 
         0000035b 0000 
    3895                      ; call occurs [#_ASCII_IsPrint] ; [] |3494| 
    3896 0000035c 9658          MOV       *-SP[24],AL           ; [CPU_ALU] |3494| 
    3897                      .dwpsn  file "C:/ti/Workspace/PLC_certificate/Software/uC-LIB/lib_str.c",line 3495,column 9,is_stmt,i
    3898 0000035d 5201          CMPB      AL,#1                 ; [CPU_ALU] |3495| 
    3899 0000035e 6104          B         $C$L101,EQ            ; [CPU_ALU] |3495| 
    3900                      ; branchcc occurs ; [] |3495| 
    3901                      .dwpsn  file "C:/ti/Workspace/PLC_certificate/Software/uC-LIB/lib_str.c",line 3496,column 13,is_stmt,
    3902 0000035f 56BF          MOVB      *-SP[23],#1,UNC       ; [CPU_ALU] |3496| 
         00000360 0157 
    3903 00000361 6F26          B         $C$L108,UNC           ; [CPU_ALU] 
    3904                      ; branch occurs ; [] 
    3905 00000362       $C$L101:    
    3906                      .dwpsn  file "C:/ti/Workspace/PLC_certificate/Software/uC-LIB/lib_str.c",line 3498,column 16,is_stmt,
    3907 00000362 925F          MOV       AL,*-SP[31]           ; [CPU_ALU] |3498| 
    3908 00000363 5230          CMPB      AL,#48                ; [CPU_ALU] |3498| 
    3909 00000364 6123          B         $C$L108,EQ            ; [CPU_ALU] |3498| 
    3910                      ; branchcc occurs ; [] |3498| 
    3911                      .dwpsn  file "C:/ti/Workspace/PLC_certificate/Software/uC-LIB/lib_str.c",line 3499,column 13,is_stmt,
    3912 00000365 9CD0          ADDB      AL,#-48               ; [CPU_ALU] |3499| 
    3913 00000366 9653          MOV       *-SP[19],AL           ; [CPU_ALU] |3499| 
    3914                      .dwpsn  file "C:/ti/Workspace/PLC_certificate/Software/uC-LIB/lib_str.c",line 3500,column 13,is_stmt,
    3915 00000367 9260          MOV       AL,*-SP[32]           ; [CPU_ALU] |3500| 
    3916 00000368 5201          CMPB      AL,#1                 ; [CPU_ALU] |3500| 
    3917 00000369 6105          B         $C$L102,EQ            ; [CPU_ALU] |3500| 
    3918                      ; branchcc occurs ; [] |3500| 
    3919                      .dwpsn  file "C:/ti/Workspace/PLC_certificate/Software/uC-LIB/lib_str.c",line 3501,column 17,is_stmt,
    3920 0000036a 925F          MOV       AL,*-SP[31]           ; [CPU_ALU] |3501| 
    3921 0000036b 9CBF          ADDB      AL,#-65               ; [CPU_ALU] |3501| 
    3922 0000036c 9654          MOV       *-SP[20],AL           ; [CPU_ALU] |3501| 
    3923 0000036d 6F04          B         $C$L103,UNC           ; [CPU_ALU] 
    3924                      ; branch occurs ; [] 
    3925 0000036e       $C$L102:    
    3926                      .dwpsn  file "C:/ti/Workspace/PLC_certificate/Software/uC-LIB/lib_str.c",line 3503,column 17,is_stmt,
    3927 0000036e 925F          MOV       AL,*-SP[31]           ; [CPU_ALU] |3503| 
    3928 0000036f 9C9F          ADDB      AL,#-97               ; [CPU_ALU] |3503| 
    3929 00000370 9654          MOV       *-SP[20],AL           ; [CPU_ALU] |3503| 
    3930 00000371       $C$L103:    
TMS320C2000 Assembler PC v20.2.1 Tue Feb 16 00:15:56 2021

Copyright (c) 1996-2018 Texas Instruments Incorporated
lib_str.asm                                                          PAGE   74

    3931                      .dwpsn  file "C:/ti/Workspace/PLC_certificate/Software/uC-LIB/lib_str.c",line 3506,column 13,is_stmt,
    3932 00000371 925D          MOV       AL,*-SP[29]           ; [CPU_ALU] |3506| 
    3933 00000372 520A          CMPB      AL,#10                ; [CPU_ALU] |3506| 
    3934 00000373 6603          B         $C$L104,HI            ; [CPU_ALU] |3506| 
    3935                      ; branchcc occurs ; [] |3506| 
    3936 00000374 5453          CMP       AL,*-SP[19]           ; [CPU_ALU] |3506| 
    3937 00000375 660A          B         $C$L105,HI            ; [CPU_ALU] |3506| 
    3938                      ; branchcc occurs ; [] |3506| 
    3939 00000376       $C$L104:    
    3940 00000376 520A          CMPB      AL,#10                ; [CPU_ALU] |3506| 
    3941 00000377 690A          B         $C$L106,LOS           ; [CPU_ALU] |3506| 
    3942                      ; branchcc occurs ; [] |3506| 
    3943 00000378 9253          MOV       AL,*-SP[19]           ; [CPU_ALU] |3506| 
    3944 00000379 520A          CMPB      AL,#10                ; [CPU_ALU] |3506| 
    3945 0000037a 6805          B         $C$L105,LO            ; [CPU_ALU] |3506| 
    3946                      ; branchcc occurs ; [] |3506| 
    3947 0000037b 925D          MOV       AL,*-SP[29]           ; [CPU_ALU] |3506| 
    3948 0000037c 9CF6          ADDB      AL,#-10               ; [CPU_ALU] |3506| 
    3949 0000037d 5454          CMP       AL,*-SP[20]           ; [CPU_ALU] |3506| 
    3950 0000037e 6903          B         $C$L106,LOS           ; [CPU_ALU] |3506| 
    3951                      ; branchcc occurs ; [] |3506| 
    3952 0000037f       $C$L105:    
    3953 0000037f 9A01          MOVB      AL,#1                 ; [CPU_ALU] |3506| 
    3954 00000380 6F02          B         $C$L107,UNC           ; [CPU_ALU] |3506| 
    3955                      ; branch occurs ; [] |3506| 
    3956 00000381       $C$L106:    
    3957 00000381 9A00          MOVB      AL,#0                 ; [CPU_ALU] |3506| 
    3958 00000382       $C$L107:    
    3959 00000382 9655          MOV       *-SP[21],AL           ; [CPU_ALU] |3506| 
    3960                      .dwpsn  file "C:/ti/Workspace/PLC_certificate/Software/uC-LIB/lib_str.c",line 3510,column 13,is_stmt,
    3961 00000383 5201          CMPB      AL,#1                 ; [CPU_ALU] |3510| 
    3962 00000384 6003          B         $C$L108,NEQ           ; [CPU_ALU] |3510| 
    3963                      ; branchcc occurs ; [] |3510| 
    3964                      .dwpsn  file "C:/ti/Workspace/PLC_certificate/Software/uC-LIB/lib_str.c",line 3511,column 17,is_stmt,
    3965 00000385 56BF          MOVB      *-SP[23],#1,UNC       ; [CPU_ALU] |3511| 
         00000386 0157 
    3966 00000387       $C$L108:    
    3967                      .dwpsn  file "C:/ti/Workspace/PLC_certificate/Software/uC-LIB/lib_str.c",line 3518,column 5,is_stmt,i
    3968 00000387 0644          MOVL      ACC,*-SP[4]           ; [CPU_ALU] |3518| 
    3969 00000388 1E46          MOVL      *-SP[6],ACC           ; [CPU_ALU] |3518| 
    3970                      .dwpsn  file "C:/ti/Workspace/PLC_certificate/Software/uC-LIB/lib_str.c",line 3519,column 5,is_stmt,i
    3971 00000389 2B56          MOV       *-SP[22],#0           ; [CPU_ALU] |3519| 
    3972                      .dwpsn  file "C:/ti/Workspace/PLC_certificate/Software/uC-LIB/lib_str.c",line 3521,column 5,is_stmt,i
    3973 0000038a 9257          MOV       AL,*-SP[23]           ; [CPU_ALU] |3521| 
    3974 0000038b 603C          B         $C$L119,NEQ           ; [CPU_ALU] |3521| 
    3975                      ; branchcc occurs ; [] |3521| 
    3976                      .dwpsn  file "C:/ti/Workspace/PLC_certificate/Software/uC-LIB/lib_str.c",line 3522,column 9,is_stmt,i
    3977 0000038c 0642          MOVL      ACC,*-SP[2]           ; [CPU_ALU] |3522| 
    3978 0000038d 1E48          MOVL      *-SP[8],ACC           ; [CPU_ALU] |3522| 
    3979                      .dwpsn  file "C:/ti/Workspace/PLC_certificate/Software/uC-LIB/lib_str.c",line 3523,column 9,is_stmt,i
    3980 0000038e 1E4A          MOVL      *-SP[10],ACC          ; [CPU_ALU] |3523| 
    3981                      .dwpsn  file "C:/ti/Workspace/PLC_certificate/Software/uC-LIB/lib_str.c",line 3524,column 9,is_stmt,i
    3982 0000038f 56BF          MOVB      *-SP[13],#1,UNC       ; [CPU_ALU] |3524| 
         00000390 014D 
    3983                      .dwpsn  file "C:/ti/Workspace/PLC_certificate/Software/uC-LIB/lib_str.c",line 3525,column 16,is_stmt,
TMS320C2000 Assembler PC v20.2.1 Tue Feb 16 00:15:56 2021

Copyright (c) 1996-2018 Texas Instruments Incorporated
lib_str.asm                                                          PAGE   75

    3984 00000391 0E5D          MOVU      ACC,*-SP[29]          ; [CPU_ALU] |3525| 
    3985 00000392 0F4A          CMPL      ACC,*-SP[10]          ; [CPU_ALU] |3525| 
    3986 00000393 660C          B         $C$L110,HI            ; [CPU_ALU] |3525| 
    3987                      ; branchcc occurs ; [] |3525| 
    3988 00000394       $C$L109:    
    3989                      .dwpsn  file "C:/ti/Workspace/PLC_certificate/Software/uC-LIB/lib_str.c",line 3526,column 13,is_stmt,
    3990 00000394 0A4D          INC       *-SP[13]              ; [CPU_ALU] |3526| 
    3991                      .dwpsn  file "C:/ti/Workspace/PLC_certificate/Software/uC-LIB/lib_str.c",line 3527,column 13,is_stmt,
    3992 00000395 885D          MOVZ      AR6,*-SP[29]          ; [CPU_ALU] |3527| 
    3993 00000396 A34A          MOVL      P,*-SP[10]            ; [CPU_ALU] |3527| 
    3994 00000397 0200          MOVB      ACC,#0                ; [CPU_ALU] |3527| 
    3995 00000398 F61F          RPT       #31
    3996 00000399 5617  ||     SUBCUL    ACC,XAR6              ; [CPU_ALU] |3527| 
         0000039a 00A6 
    3997 0000039b A94A          MOVL      *-SP[10],P            ; [CPU_ALU] |3527| 
    3998                      .dwpsn  file "C:/ti/Workspace/PLC_certificate/Software/uC-LIB/lib_str.c",line 3525,column 16,is_stmt,
    3999 0000039c 0E5D          MOVU      ACC,*-SP[29]          ; [CPU_ALU] |3525| 
    4000 0000039d 0F4A          CMPL      ACC,*-SP[10]          ; [CPU_ALU] |3525| 
    4001 0000039e 69F6          B         $C$L109,LOS           ; [CPU_ALU] |3525| 
    4002                      ; branchcc occurs ; [] |3525| 
    4003 0000039f       $C$L110:    
    4004                      .dwpsn  file "C:/ti/Workspace/PLC_certificate/Software/uC-LIB/lib_str.c",line 3530,column 9,is_stmt,i
    4005 0000039f 925E          MOV       AL,*-SP[30]           ; [CPU_ALU] |3530| 
    4006 000003a0 5201          CMPB      AL,#1                 ; [CPU_ALU] |3530| 
    4007 000003a1 6003          B         $C$L111,NEQ           ; [CPU_ALU] |3530| 
    4008                      ; branchcc occurs ; [] |3530| 
    4009 000003a2 9A01          MOVB      AL,#1                 ; [CPU_ALU] |3530| 
    4010 000003a3 6F02          B         $C$L112,UNC           ; [CPU_ALU] |3530| 
    4011                      ; branch occurs ; [] |3530| 
    4012 000003a4       $C$L111:    
    4013 000003a4 9A00          MOVB      AL,#0                 ; [CPU_ALU] |3530| 
    4014 000003a5       $C$L112:    
    4015 000003a5 9650          MOV       *-SP[16],AL           ; [CPU_ALU] |3530| 
    4016                      .dwpsn  file "C:/ti/Workspace/PLC_certificate/Software/uC-LIB/lib_str.c",line 3531,column 9,is_stmt,i
    4017 000003a6 944D          ADD       AL,*-SP[13]           ; [CPU_ALU] |3531| 
    4018 000003a7 544B          CMP       AL,*-SP[11]           ; [CPU_ALU] |3531| 
    4019 000003a8 661D          B         $C$L118,HI            ; [CPU_ALU] |3531| 
    4020                      ; branchcc occurs ; [] |3531| 
    4021                      .dwpsn  file "C:/ti/Workspace/PLC_certificate/Software/uC-LIB/lib_str.c",line 3532,column 13,is_stmt,
    4022 000003a9 2B59          MOV       *-SP[25],#0           ; [CPU_ALU] |3532| 
    4023                      .dwpsn  file "C:/ti/Workspace/PLC_certificate/Software/uC-LIB/lib_str.c",line 3533,column 13,is_stmt,
    4024 000003aa 924B          MOV       AL,*-SP[11]           ; [CPU_ALU] |3533| 
    4025 000003ab 544D          CMP       AL,*-SP[13]           ; [CPU_ALU] |3533| 
    4026 000003ac 6902          B         $C$L113,LOS           ; [CPU_ALU] |3533| 
    4027                      ; branchcc occurs ; [] |3533| 
    4028 000003ad 924D          MOV       AL,*-SP[13]           ; [CPU_ALU] |3533| 
    4029 000003ae       $C$L113:    
    4030 000003ae 964E          MOV       *-SP[14],AL           ; [CPU_ALU] |3533| 
    4031                      .dwpsn  file "C:/ti/Workspace/PLC_certificate/Software/uC-LIB/lib_str.c",line 3535,column 13,is_stmt,
    4032 000003af 925F          MOV       AL,*-SP[31]           ; [CPU_ALU] |3535| 
    4033 000003b0 6107          B         $C$L114,EQ            ; [CPU_ALU] |3535| 
    4034                      ; branchcc occurs ; [] |3535| 
    4035                      .dwpsn  file "C:/ti/Workspace/PLC_certificate/Software/uC-LIB/lib_str.c",line 3536,column 17,is_stmt,
    4036 000003b1 924B          MOV       AL,*-SP[11]           ; [CPU_ALU] |3536| 
    4037 000003b2 964F          MOV       *-SP[15],AL           ; [CPU_ALU] |3536| 
TMS320C2000 Assembler PC v20.2.1 Tue Feb 16 00:15:56 2021

Copyright (c) 1996-2018 Texas Instruments Incorporated
lib_str.asm                                                          PAGE   76

    4038                      .dwpsn  file "C:/ti/Workspace/PLC_certificate/Software/uC-LIB/lib_str.c",line 3537,column 17,is_stmt,
    4039 000003b3 9E4E          SUB       AL,*-SP[14]           ; [CPU_ALU] |3537| 
    4040 000003b4 9E50          SUB       AL,*-SP[16]           ; [CPU_ALU] |3537| 
    4041 000003b5 9651          MOV       *-SP[17],AL           ; [CPU_ALU] |3537| 
    4042 000003b6 6F05          B         $C$L115,UNC           ; [CPU_ALU] 
    4043                      ; branch occurs ; [] 
    4044 000003b7       $C$L114:    
    4045                      .dwpsn  file "C:/ti/Workspace/PLC_certificate/Software/uC-LIB/lib_str.c",line 3540,column 17,is_stmt,
    4046 000003b7 9250          MOV       AL,*-SP[16]           ; [CPU_ALU] |3540| 
    4047 000003b8 944E          ADD       AL,*-SP[14]           ; [CPU_ALU] |3540| 
    4048 000003b9 964F          MOV       *-SP[15],AL           ; [CPU_ALU] |3540| 
    4049                      .dwpsn  file "C:/ti/Workspace/PLC_certificate/Software/uC-LIB/lib_str.c",line 3541,column 17,is_stmt,
    4050 000003ba 2B51          MOV       *-SP[17],#0           ; [CPU_ALU] |3541| 
    4051 000003bb       $C$L115:    
    4052                      .dwpsn  file "C:/ti/Workspace/PLC_certificate/Software/uC-LIB/lib_str.c",line 3544,column 13,is_stmt,
    4053 000003bb 9251          MOV       AL,*-SP[17]           ; [CPU_ALU] |3544| 
    4054 000003bc 610B          B         $C$L119,EQ            ; [CPU_ALU] |3544| 
    4055                      ; branchcc occurs ; [] |3544| 
    4056                      .dwpsn  file "C:/ti/Workspace/PLC_certificate/Software/uC-LIB/lib_str.c",line 3545,column 17,is_stmt,
    4057 000003bd 925F          MOV       AL,*-SP[31]           ; [CPU_ALU] |3545| 
    4058 000003be 5230          CMPB      AL,#48                ; [CPU_ALU] |3545| 
    4059 000003bf 6003          B         $C$L116,NEQ           ; [CPU_ALU] |3545| 
    4060                      ; branchcc occurs ; [] |3545| 
    4061 000003c0 9A01          MOVB      AL,#1                 ; [CPU_ALU] |3545| 
    4062 000003c1 6F02          B         $C$L117,UNC           ; [CPU_ALU] |3545| 
    4063                      ; branch occurs ; [] |3545| 
    4064 000003c2       $C$L116:    
    4065 000003c2 9A00          MOVB      AL,#0                 ; [CPU_ALU] |3545| 
    4066 000003c3       $C$L117:    
    4067 000003c3 9656          MOV       *-SP[22],AL           ; [CPU_ALU] |3545| 
    4068 000003c4 6F03          B         $C$L119,UNC           ; [CPU_ALU] 
    4069                      ; branch occurs ; [] 
    4070 000003c5       $C$L118:    
    4071                      .dwpsn  file "C:/ti/Workspace/PLC_certificate/Software/uC-LIB/lib_str.c",line 3550,column 13,is_stmt,
    4072 000003c5 56BF          MOVB      *-SP[23],#1,UNC       ; [CPU_ALU] |3550| 
         000003c6 0157 
    4073 000003c7       $C$L119:    
    4074                      .dwpsn  file "C:/ti/Workspace/PLC_certificate/Software/uC-LIB/lib_str.c",line 3554,column 5,is_stmt,i
    4075 000003c7 9257          MOV       AL,*-SP[23]           ; [CPU_ALU] |3554| 
    4076 000003c8 6103          B         $C$L120,EQ            ; [CPU_ALU] |3554| 
    4077                      ; branchcc occurs ; [] |3554| 
    4078                      .dwpsn  file "C:/ti/Workspace/PLC_certificate/Software/uC-LIB/lib_str.c",line 3555,column 9,is_stmt,i
    4079 000003c9 924B          MOV       AL,*-SP[11]           ; [CPU_ALU] |3555| 
    4080 000003ca 964F          MOV       *-SP[15],AL           ; [CPU_ALU] |3555| 
    4081 000003cb       $C$L120:    
    4082                      .dwpsn  file "C:/ti/Workspace/PLC_certificate/Software/uC-LIB/lib_str.c",line 3560,column 5,is_stmt,i
    4083 000003cb 0E4F          MOVU      ACC,*-SP[15]          ; [CPU_ALU] |3560| 
    4084 000003cc 0746          ADDL      ACC,*-SP[6]           ; [CPU_ALU] |3560| 
    4085 000003cd 1E46          MOVL      *-SP[6],ACC           ; [CPU_ALU] |3560| 
    4086                      .dwpsn  file "C:/ti/Workspace/PLC_certificate/Software/uC-LIB/lib_str.c",line 3562,column 5,is_stmt,i
    4087 000003ce 9261          MOV       AL,*-SP[33]           ; [CPU_ALU] |3562| 
    4088 000003cf 6103          B         $C$L121,EQ            ; [CPU_ALU] |3562| 
    4089                      ; branchcc occurs ; [] |3562| 
    4090                      .dwpsn  file "C:/ti/Workspace/PLC_certificate/Software/uC-LIB/lib_str.c",line 3563,column 8,is_stmt,i
    4091 000003d0 8A46          MOVL      XAR4,*-SP[6]          ; [CPU_ALU] |3563| 
TMS320C2000 Assembler PC v20.2.1 Tue Feb 16 00:15:56 2021

Copyright (c) 1996-2018 Texas Instruments Incorporated
lib_str.asm                                                          PAGE   77

    4092 000003d1 2BC4          MOV       *+XAR4[0],#0          ; [CPU_ALU] |3563| 
    4093 000003d2       $C$L121:    
    4094                      .dwpsn  file "C:/ti/Workspace/PLC_certificate/Software/uC-LIB/lib_str.c",line 3565,column 5,is_stmt,i
    4095 000003d2 0201          MOVB      ACC,#1                ; [CPU_ALU] |3565| 
    4096 000003d3 5641          SUBL      *-SP[6],ACC           ; [CPU_ALU] |3565| 
         000003d4 0046 
    4097                      .dwpsn  file "C:/ti/Workspace/PLC_certificate/Software/uC-LIB/lib_str.c",line 3568,column 10,is_stmt,
    4098 000003d5 2B4C          MOV       *-SP[12],#0           ; [CPU_ALU] |3568| 
    4099 000003d6 6F5A          B         $C$L133,UNC           ; [CPU_ALU] |3568| 
    4100                      ; branch occurs ; [] |3568| 
    4101 000003d7       $C$L122:    
    4102                      .dwpsn  file "C:/ti/Workspace/PLC_certificate/Software/uC-LIB/lib_str.c",line 3569,column 9,is_stmt,i
    4103 000003d7 9257          MOV       AL,*-SP[23]           ; [CPU_ALU] |3569| 
    4104 000003d8 6051          B         $C$L131,NEQ           ; [CPU_ALU] |3569| 
    4105                      ; branchcc occurs ; [] |3569| 
    4106                      .dwpsn  file "C:/ti/Workspace/PLC_certificate/Software/uC-LIB/lib_str.c",line 3570,column 13,is_stmt,
    4107 000003d9 0648          MOVL      ACC,*-SP[8]           ; [CPU_ALU] |3570| 
    4108 000003da 6003          B         $C$L123,NEQ           ; [CPU_ALU] |3570| 
    4109                      ; branchcc occurs ; [] |3570| 
    4110 000003db 924C          MOV       AL,*-SP[12]           ; [CPU_ALU] |3570| 
    4111 000003dc 602C          B         $C$L127,NEQ           ; [CPU_ALU] |3570| 
    4112                      ; branchcc occurs ; [] |3570| 
    4113 000003dd       $C$L123:    
    4114                      .dwpsn  file "C:/ti/Workspace/PLC_certificate/Software/uC-LIB/lib_str.c",line 3573,column 17,is_stmt,
    4115 000003dd 885D          MOVZ      AR6,*-SP[29]          ; [CPU_ALU] |3573| 
    4116 000003de A348          MOVL      P,*-SP[8]             ; [CPU_ALU] |3573| 
    4117 000003df 0200          MOVB      ACC,#0                ; [CPU_ALU] |3573| 
    4118 000003e0 F61F          RPT       #31
    4119 000003e1 5617  ||     SUBCUL    ACC,XAR6              ; [CPU_ALU] |3573| 
         000003e2 00A6 
    4120 000003e3 9652          MOV       *-SP[18],AL           ; [CPU_ALU] |3573| 
    4121                      .dwpsn  file "C:/ti/Workspace/PLC_certificate/Software/uC-LIB/lib_str.c",line 3574,column 17,is_stmt,
    4122 000003e4 520A          CMPB      AL,#10                ; [CPU_ALU] |3574| 
    4123 000003e5 6709          B         $C$L124,HIS           ; [CPU_ALU] |3574| 
    4124                      ; branchcc occurs ; [] |3574| 
    4125                      .dwpsn  file "C:/ti/Workspace/PLC_certificate/Software/uC-LIB/lib_str.c",line 3575,column 20,is_stmt,
    4126 000003e6 8A46          MOVL      XAR4,*-SP[6]          ; [CPU_ALU] |3575| 
    4127 000003e7 A8A9          MOVL      ACC,XAR4              ; [CPU_ALU] |3575| 
    4128 000003e8 1901          SUBB      ACC,#1                ; [CPU_ALU] |3575| 
    4129 000003e9 1E46          MOVL      *-SP[6],ACC           ; [CPU_ALU] |3575| 
    4130 000003ea 9252          MOV       AL,*-SP[18]           ; [CPU_ALU] |3575| 
    4131 000003eb 9C30          ADDB      AL,#48                ; [CPU_ALU] |3575| 
    4132 000003ec 96C4          MOV       *+XAR4[0],AL          ; [CPU_ALU] |3575| 
    4133 000003ed 6F13          B         $C$L126,UNC           ; [CPU_ALU] 
    4134                      ; branch occurs ; [] 
    4135 000003ee       $C$L124:    
    4136                      .dwpsn  file "C:/ti/Workspace/PLC_certificate/Software/uC-LIB/lib_str.c",line 3577,column 21,is_stmt,
    4137 000003ee 9260          MOV       AL,*-SP[32]           ; [CPU_ALU] |3577| 
    4138 000003ef 5201          CMPB      AL,#1                 ; [CPU_ALU] |3577| 
    4139 000003f0 6109          B         $C$L125,EQ            ; [CPU_ALU] |3577| 
    4140                      ; branchcc occurs ; [] |3577| 
    4141                      .dwpsn  file "C:/ti/Workspace/PLC_certificate/Software/uC-LIB/lib_str.c",line 3578,column 24,is_stmt,
    4142 000003f1 8A46          MOVL      XAR4,*-SP[6]          ; [CPU_ALU] |3578| 
    4143 000003f2 A8A9          MOVL      ACC,XAR4              ; [CPU_ALU] |3578| 
    4144 000003f3 1901          SUBB      ACC,#1                ; [CPU_ALU] |3578| 
TMS320C2000 Assembler PC v20.2.1 Tue Feb 16 00:15:56 2021

Copyright (c) 1996-2018 Texas Instruments Incorporated
lib_str.asm                                                          PAGE   78

    4145 000003f4 1E46          MOVL      *-SP[6],ACC           ; [CPU_ALU] |3578| 
    4146 000003f5 9252          MOV       AL,*-SP[18]           ; [CPU_ALU] |3578| 
    4147 000003f6 9C37          ADDB      AL,#55                ; [CPU_ALU] |3578| 
    4148 000003f7 96C4          MOV       *+XAR4[0],AL          ; [CPU_ALU] |3578| 
    4149 000003f8 6F08          B         $C$L126,UNC           ; [CPU_ALU] 
    4150                      ; branch occurs ; [] 
    4151 000003f9       $C$L125:    
    4152                      .dwpsn  file "C:/ti/Workspace/PLC_certificate/Software/uC-LIB/lib_str.c",line 3580,column 24,is_stmt,
    4153 000003f9 8A46          MOVL      XAR4,*-SP[6]          ; [CPU_ALU] |3580| 
    4154 000003fa A8A9          MOVL      ACC,XAR4              ; [CPU_ALU] |3580| 
    4155 000003fb 1901          SUBB      ACC,#1                ; [CPU_ALU] |3580| 
    4156 000003fc 1E46          MOVL      *-SP[6],ACC           ; [CPU_ALU] |3580| 
    4157 000003fd 9252          MOV       AL,*-SP[18]           ; [CPU_ALU] |3580| 
    4158 000003fe 9C57          ADDB      AL,#87                ; [CPU_ALU] |3580| 
    4159 000003ff 96C4          MOV       *+XAR4[0],AL          ; [CPU_ALU] |3580| 
    4160 00000400       $C$L126:    
    4161                      .dwpsn  file "C:/ti/Workspace/PLC_certificate/Software/uC-LIB/lib_str.c",line 3584,column 17,is_stmt,
    4162 00000400 885D          MOVZ      AR6,*-SP[29]          ; [CPU_ALU] |3584| 
    4163 00000401 A348          MOVL      P,*-SP[8]             ; [CPU_ALU] |3584| 
    4164 00000402 0200          MOVB      ACC,#0                ; [CPU_ALU] |3584| 
    4165 00000403 F61F          RPT       #31
    4166 00000404 5617  ||     SUBCUL    ACC,XAR6              ; [CPU_ALU] |3584| 
         00000405 00A6 
    4167 00000406 A948          MOVL      *-SP[8],P             ; [CPU_ALU] |3584| 
    4168 00000407 6F28          B         $C$L132,UNC           ; [CPU_ALU] 
    4169                      ; branch occurs ; [] 
    4170 00000408       $C$L127:    
    4171                      .dwpsn  file "C:/ti/Workspace/PLC_certificate/Software/uC-LIB/lib_str.c",line 3586,column 20,is_stmt,
    4172 00000408 925E          MOV       AL,*-SP[30]           ; [CPU_ALU] |3586| 
    4173 00000409 5201          CMPB      AL,#1                 ; [CPU_ALU] |3586| 
    4174 0000040a 6016          B         $C$L130,NEQ           ; [CPU_ALU] |3586| 
    4175                      ; branchcc occurs ; [] |3586| 
    4176 0000040b 9256          MOV       AL,*-SP[22]           ; [CPU_ALU] |3586| 
    4177 0000040c 6003          B         $C$L128,NEQ           ; [CPU_ALU] |3586| 
    4178                      ; branchcc occurs ; [] |3586| 
    4179 0000040d 9259          MOV       AL,*-SP[25]           ; [CPU_ALU] |3586| 
    4180 0000040e 6109          B         $C$L129,EQ            ; [CPU_ALU] |3586| 
    4181                      ; branchcc occurs ; [] |3586| 
    4182 0000040f       $C$L128:    
    4183 0000040f 9256          MOV       AL,*-SP[22]           ; [CPU_ALU] |3586| 
    4184 00000410 6110          B         $C$L130,EQ            ; [CPU_ALU] |3586| 
    4185                      ; branchcc occurs ; [] |3586| 
    4186 00000411 884C          MOVZ      AR6,*-SP[12]          ; [CPU_ALU] |3586| 
    4187 00000412 924F          MOV       AL,*-SP[15]           ; [CPU_ALU] |3586| 
    4188 00000413 9CFF          ADDB      AL,#-1                ; [CPU_ALU] |3586| 
    4189 00000414 0EA9          MOVU      ACC,AL                ; [CPU_ALU] |3586| 
    4190 00000415 0FA6          CMPL      ACC,XAR6              ; [CPU_ALU] |3586| 
    4191 00000416 600A          B         $C$L130,NEQ           ; [CPU_ALU] |3586| 
    4192                      ; branchcc occurs ; [] |3586| 
    4193 00000417       $C$L129:    
    4194                      .dwpsn  file "C:/ti/Workspace/PLC_certificate/Software/uC-LIB/lib_str.c",line 3592,column 16,is_stmt,
    4195 00000417 8A46          MOVL      XAR4,*-SP[6]          ; [CPU_ALU] |3592| 
    4196 00000418 A8A9          MOVL      ACC,XAR4              ; [CPU_ALU] |3592| 
    4197 00000419 1901          SUBB      ACC,#1                ; [CPU_ALU] |3592| 
    4198 0000041a 1E46          MOVL      *-SP[6],ACC           ; [CPU_ALU] |3592| 
TMS320C2000 Assembler PC v20.2.1 Tue Feb 16 00:15:56 2021

Copyright (c) 1996-2018 Texas Instruments Incorporated
lib_str.asm                                                          PAGE   79

    4199 0000041b 56BF          MOVB      *+XAR4[0],#45,UNC     ; [CPU_ALU] |3592| 
         0000041c 2DC4 
    4200                      .dwpsn  file "C:/ti/Workspace/PLC_certificate/Software/uC-LIB/lib_str.c",line 3593,column 17,is_stmt,
    4201 0000041d 56BF          MOVB      *-SP[25],#1,UNC       ; [CPU_ALU] |3593| 
         0000041e 0159 
    4202 0000041f 6F10          B         $C$L132,UNC           ; [CPU_ALU] 
    4203                      ; branch occurs ; [] 
    4204 00000420       $C$L130:    
    4205                      .dwpsn  file "C:/ti/Workspace/PLC_certificate/Software/uC-LIB/lib_str.c",line 3595,column 20,is_stmt,
    4206 00000420 925F          MOV       AL,*-SP[31]           ; [CPU_ALU] |3595| 
    4207 00000421 610E          B         $C$L132,EQ            ; [CPU_ALU] |3595| 
    4208                      ; branchcc occurs ; [] |3595| 
    4209                      .dwpsn  file "C:/ti/Workspace/PLC_certificate/Software/uC-LIB/lib_str.c",line 3596,column 16,is_stmt,
    4210 00000422 C546          MOVL      XAR7,*-SP[6]          ; [CPU_ALU] |3596| 
    4211 00000423 06A7          MOVL      ACC,XAR7              ; [CPU_ALU] |3596| 
    4212 00000424 1901          SUBB      ACC,#1                ; [CPU_ALU] |3596| 
    4213 00000425 1E46          MOVL      *-SP[6],ACC           ; [CPU_ALU] |3596| 
    4214 00000426 925F          MOV       AL,*-SP[31]           ; [CPU_ALU] |3596| 
    4215 00000427 96C7          MOV       *+XAR7[0],AL          ; [CPU_ALU] |3596| 
    4216 00000428 6F07          B         $C$L132,UNC           ; [CPU_ALU] 
    4217                      ; branch occurs ; [] 
    4218 00000429       $C$L131:    
    4219                      .dwpsn  file "C:/ti/Workspace/PLC_certificate/Software/uC-LIB/lib_str.c",line 3600,column 12,is_stmt,
    4220 00000429 8A46          MOVL      XAR4,*-SP[6]          ; [CPU_ALU] |3600| 
    4221 0000042a A8A9          MOVL      ACC,XAR4              ; [CPU_ALU] |3600| 
    4222 0000042b 1901          SUBB      ACC,#1                ; [CPU_ALU] |3600| 
    4223 0000042c 1E46          MOVL      *-SP[6],ACC           ; [CPU_ALU] |3600| 
    4224 0000042d 56BF          MOVB      *+XAR4[0],#63,UNC     ; [CPU_ALU] |3600| 
         0000042e 3FC4 
    4225 0000042f       $C$L132:    
    4226                      .dwpsn  file "C:/ti/Workspace/PLC_certificate/Software/uC-LIB/lib_str.c",line 3568,column 36,is_stmt,
    4227 0000042f 0A4C          INC       *-SP[12]              ; [CPU_ALU] |3568| 
    4228 00000430       $C$L133:    
    4229                      .dwpsn  file "C:/ti/Workspace/PLC_certificate/Software/uC-LIB/lib_str.c",line 3568,column 18,is_stmt,
    4230 00000430 924F          MOV       AL,*-SP[15]           ; [CPU_ALU] |3568| 
    4231 00000431 544C          CMP       AL,*-SP[12]           ; [CPU_ALU] |3568| 
    4232 00000432 66A5          B         $C$L122,HI            ; [CPU_ALU] |3568| 
    4233                      ; branchcc occurs ; [] |3568| 
    4234                      .dwpsn  file "C:/ti/Workspace/PLC_certificate/Software/uC-LIB/lib_str.c",line 3605,column 5,is_stmt,i
    4235 00000433 9257          MOV       AL,*-SP[23]           ; [CPU_ALU] |3605| 
    4236 00000434 6103          B         $C$L134,EQ            ; [CPU_ALU] |3605| 
    4237                      ; branchcc occurs ; [] |3605| 
    4238                      .dwpsn  file "C:/ti/Workspace/PLC_certificate/Software/uC-LIB/lib_str.c",line 3606,column 9,is_stmt,i
    4239 00000435 D400          MOVB      XAR4,#0               ; [CPU_ALU] |3606| 
    4240 00000436 6F02          B         $C$L135,UNC           ; [CPU_ALU] |3606| 
    4241                      ; branch occurs ; [] |3606| 
    4242 00000437       $C$L134:    
    4243                      .dwpsn  file "C:/ti/Workspace/PLC_certificate/Software/uC-LIB/lib_str.c",line 3610,column 5,is_stmt,i
    4244 00000437 8A44          MOVL      XAR4,*-SP[4]          ; [CPU_ALU] |3610| 
    4245 00000438       $C$L135:    
    4246                      .dwpsn  file "C:/ti/Workspace/PLC_certificate/Software/uC-LIB/lib_str.c",line 3611,column 1,is_stmt,i
    4247 00000438 FE9A          SUBB      SP,#26                ; [CPU_ARAU] 
    4248                      .dwcfi  cfa_offset, -2
    4249              $C$DW$291       .dwtag  DW_TAG_TI_branch
    4250                      .dwattr $C$DW$291, DW_AT_low_pc(0x00)
TMS320C2000 Assembler PC v20.2.1 Tue Feb 16 00:15:56 2021

Copyright (c) 1996-2018 Texas Instruments Incorporated
lib_str.asm                                                          PAGE   80

    4251                      .dwattr $C$DW$291, DW_AT_TI_return
    4252              
    4253 00000439 0006          LRETR     ; [CPU_ALU] 
    4254                      ; return occurs ; [] 
    4255                      .dwattr $C$DW$261, DW_AT_TI_end_file("C:/ti/Workspace/PLC_certificate/Software/uC-LIB/lib_str.c")
    4256                      .dwattr $C$DW$261, DW_AT_TI_end_line(0xe1b)
    4257                      .dwattr $C$DW$261, DW_AT_TI_end_column(0x01)
    4258                      .dwendentry
    4259                      .dwendtag $C$DW$261
    4260              
    4261 0000043a               .sect   ".text"
    4262                      .clink
    4263              
    4264              $C$DW$292       .dwtag  DW_TAG_subprogram
    4265                      .dwattr $C$DW$292, DW_AT_name("Str_ParseNbr_Int32")
    4266                      .dwattr $C$DW$292, DW_AT_low_pc(_Str_ParseNbr_Int32)
    4267                      .dwattr $C$DW$292, DW_AT_high_pc(0x00)
    4268                      .dwattr $C$DW$292, DW_AT_TI_symbol_name("_Str_ParseNbr_Int32")
    4269                      .dwattr $C$DW$292, DW_AT_type(*$C$DW$T$30)
    4270                      .dwattr $C$DW$292, DW_AT_TI_begin_file("C:/ti/Workspace/PLC_certificate/Software/uC-LIB/lib_str.c")
    4271                      .dwattr $C$DW$292, DW_AT_TI_begin_line(0xf00)
    4272                      .dwattr $C$DW$292, DW_AT_TI_begin_column(0x15)
    4273                      .dwattr $C$DW$292, DW_AT_TI_max_frame_size(-28)
    4274                      .dwpsn  file "C:/ti/Workspace/PLC_certificate/Software/uC-LIB/lib_str.c",line 3845,column 1,is_stmt,a
    4275              
    4276                      .dwfde $C$DW$CIE, _Str_ParseNbr_Int32
    4277              $C$DW$293       .dwtag  DW_TAG_formal_parameter
    4278                      .dwattr $C$DW$293, DW_AT_name("pstr")
    4279                      .dwattr $C$DW$293, DW_AT_TI_symbol_name("_pstr")
    4280                      .dwattr $C$DW$293, DW_AT_type(*$C$DW$T$28)
    4281                      .dwattr $C$DW$293, DW_AT_location[DW_OP_reg12]
    4282              
    4283              $C$DW$294       .dwtag  DW_TAG_formal_parameter
    4284                      .dwattr $C$DW$294, DW_AT_name("pstr_next")
    4285                      .dwattr $C$DW$294, DW_AT_TI_symbol_name("_pstr_next")
    4286                      .dwattr $C$DW$294, DW_AT_type(*$C$DW$T$39)
    4287                      .dwattr $C$DW$294, DW_AT_location[DW_OP_reg14]
    4288              
    4289              $C$DW$295       .dwtag  DW_TAG_formal_parameter
    4290                      .dwattr $C$DW$295, DW_AT_name("nbr_base")
    4291                      .dwattr $C$DW$295, DW_AT_TI_symbol_name("_nbr_base")
    4292                      .dwattr $C$DW$295, DW_AT_type(*$C$DW$T$25)
    4293                      .dwattr $C$DW$295, DW_AT_location[DW_OP_reg0]
    4294              
    4295              $C$DW$296       .dwtag  DW_TAG_formal_parameter
    4296                      .dwattr $C$DW$296, DW_AT_name("nbr_signed")
    4297                      .dwattr $C$DW$296, DW_AT_TI_symbol_name("_nbr_signed")
    4298                      .dwattr $C$DW$296, DW_AT_type(*$C$DW$T$19)
    4299                      .dwattr $C$DW$296, DW_AT_location[DW_OP_reg1]
    4300              
    4301              $C$DW$297       .dwtag  DW_TAG_formal_parameter
    4302                      .dwattr $C$DW$297, DW_AT_name("pnbr_neg")
    4303                      .dwattr $C$DW$297, DW_AT_TI_symbol_name("_pnbr_neg")
    4304                      .dwattr $C$DW$297, DW_AT_type(*$C$DW$T$24)
    4305                      .dwattr $C$DW$297, DW_AT_location[DW_OP_breg20 -30]
TMS320C2000 Assembler PC v20.2.1 Tue Feb 16 00:15:56 2021

Copyright (c) 1996-2018 Texas Instruments Incorporated
lib_str.asm                                                          PAGE   81

    4306              
    4307              
    4308              ;***************************************************************
    4309              ;* FNAME: _Str_ParseNbr_Int32           FR SIZE:  26           *
    4310              ;*                                                             *
    4311              ;* FUNCTION ENVIRONMENT                                        *
    4312              ;*                                                             *
    4313              ;* FUNCTION PROPERTIES                                         *
    4314              ;*                            0 Parameter, 25 Auto,  0 SOE     *
    4315              ;***************************************************************
    4316              
    4317 0000043a       _Str_ParseNbr_Int32:
    4318                      .dwcfi  cfa_offset, -2
    4319                      .dwcfi  save_reg_to_mem, 26, 0
    4320 0000043a FE1A          ADDB      SP,#26                ; [CPU_ARAU] 
    4321                      .dwcfi  cfa_offset, -28
    4322              $C$DW$298       .dwtag  DW_TAG_variable
    4323                      .dwattr $C$DW$298, DW_AT_name("pstr")
    4324                      .dwattr $C$DW$298, DW_AT_TI_symbol_name("_pstr")
    4325                      .dwattr $C$DW$298, DW_AT_type(*$C$DW$T$28)
    4326                      .dwattr $C$DW$298, DW_AT_location[DW_OP_breg20 -2]
    4327              
    4328              $C$DW$299       .dwtag  DW_TAG_variable
    4329                      .dwattr $C$DW$299, DW_AT_name("pstr_next")
    4330                      .dwattr $C$DW$299, DW_AT_TI_symbol_name("_pstr_next")
    4331                      .dwattr $C$DW$299, DW_AT_type(*$C$DW$T$39)
    4332                      .dwattr $C$DW$299, DW_AT_location[DW_OP_breg20 -4]
    4333              
    4334              $C$DW$300       .dwtag  DW_TAG_variable
    4335                      .dwattr $C$DW$300, DW_AT_name("pstr_parse")
    4336                      .dwattr $C$DW$300, DW_AT_TI_symbol_name("_pstr_parse")
    4337                      .dwattr $C$DW$300, DW_AT_type(*$C$DW$T$28)
    4338                      .dwattr $C$DW$300, DW_AT_location[DW_OP_breg20 -6]
    4339              
    4340              $C$DW$301       .dwtag  DW_TAG_variable
    4341                      .dwattr $C$DW$301, DW_AT_name("pstr_parse_nbr")
    4342                      .dwattr $C$DW$301, DW_AT_TI_symbol_name("_pstr_parse_nbr")
    4343                      .dwattr $C$DW$301, DW_AT_type(*$C$DW$T$28)
    4344                      .dwattr $C$DW$301, DW_AT_location[DW_OP_breg20 -8]
    4345              
    4346              $C$DW$302       .dwtag  DW_TAG_variable
    4347                      .dwattr $C$DW$302, DW_AT_name("pstr_parse_unused")
    4348                      .dwattr $C$DW$302, DW_AT_TI_symbol_name("_pstr_parse_unused")
    4349                      .dwattr $C$DW$302, DW_AT_type(*$C$DW$T$38)
    4350                      .dwattr $C$DW$302, DW_AT_location[DW_OP_breg20 -10]
    4351              
    4352              $C$DW$303       .dwtag  DW_TAG_variable
    4353                      .dwattr $C$DW$303, DW_AT_name("nbr")
    4354                      .dwattr $C$DW$303, DW_AT_TI_symbol_name("_nbr")
    4355                      .dwattr $C$DW$303, DW_AT_type(*$C$DW$T$30)
    4356                      .dwattr $C$DW$303, DW_AT_location[DW_OP_breg20 -12]
    4357              
    4358              $C$DW$304       .dwtag  DW_TAG_variable
    4359                      .dwattr $C$DW$304, DW_AT_name("nbr_base")
    4360                      .dwattr $C$DW$304, DW_AT_TI_symbol_name("_nbr_base")
TMS320C2000 Assembler PC v20.2.1 Tue Feb 16 00:15:56 2021

Copyright (c) 1996-2018 Texas Instruments Incorporated
lib_str.asm                                                          PAGE   82

    4361                      .dwattr $C$DW$304, DW_AT_type(*$C$DW$T$25)
    4362                      .dwattr $C$DW$304, DW_AT_location[DW_OP_breg20 -13]
    4363              
    4364              $C$DW$305       .dwtag  DW_TAG_variable
    4365                      .dwattr $C$DW$305, DW_AT_name("nbr_signed")
    4366                      .dwattr $C$DW$305, DW_AT_TI_symbol_name("_nbr_signed")
    4367                      .dwattr $C$DW$305, DW_AT_type(*$C$DW$T$19)
    4368                      .dwattr $C$DW$305, DW_AT_location[DW_OP_breg20 -14]
    4369              
    4370              $C$DW$306       .dwtag  DW_TAG_variable
    4371                      .dwattr $C$DW$306, DW_AT_name("parse_char")
    4372                      .dwattr $C$DW$306, DW_AT_TI_symbol_name("_parse_char")
    4373                      .dwattr $C$DW$306, DW_AT_type(*$C$DW$T$21)
    4374                      .dwattr $C$DW$306, DW_AT_location[DW_OP_breg20 -15]
    4375              
    4376              $C$DW$307       .dwtag  DW_TAG_variable
    4377                      .dwattr $C$DW$307, DW_AT_name("parse_dig")
    4378                      .dwattr $C$DW$307, DW_AT_TI_symbol_name("_parse_dig")
    4379                      .dwattr $C$DW$307, DW_AT_type(*$C$DW$T$25)
    4380                      .dwattr $C$DW$307, DW_AT_location[DW_OP_breg20 -16]
    4381              
    4382              $C$DW$308       .dwtag  DW_TAG_variable
    4383                      .dwattr $C$DW$308, DW_AT_name("nbr_neg_unused")
    4384                      .dwattr $C$DW$308, DW_AT_TI_symbol_name("_nbr_neg_unused")
    4385                      .dwattr $C$DW$308, DW_AT_type(*$C$DW$T$19)
    4386                      .dwattr $C$DW$308, DW_AT_location[DW_OP_breg20 -17]
    4387              
    4388              $C$DW$309       .dwtag  DW_TAG_variable
    4389                      .dwattr $C$DW$309, DW_AT_name("nbr_dig")
    4390                      .dwattr $C$DW$309, DW_AT_TI_symbol_name("_nbr_dig")
    4391                      .dwattr $C$DW$309, DW_AT_type(*$C$DW$T$19)
    4392                      .dwattr $C$DW$309, DW_AT_location[DW_OP_breg20 -18]
    4393              
    4394              $C$DW$310       .dwtag  DW_TAG_variable
    4395                      .dwattr $C$DW$310, DW_AT_name("nbr_alpha")
    4396                      .dwattr $C$DW$310, DW_AT_TI_symbol_name("_nbr_alpha")
    4397                      .dwattr $C$DW$310, DW_AT_type(*$C$DW$T$19)
    4398                      .dwattr $C$DW$310, DW_AT_location[DW_OP_breg20 -19]
    4399              
    4400              $C$DW$311       .dwtag  DW_TAG_variable
    4401                      .dwattr $C$DW$311, DW_AT_name("nbr_hex")
    4402                      .dwattr $C$DW$311, DW_AT_TI_symbol_name("_nbr_hex")
    4403                      .dwattr $C$DW$311, DW_AT_type(*$C$DW$T$19)
    4404                      .dwattr $C$DW$311, DW_AT_location[DW_OP_breg20 -20]
    4405              
    4406              $C$DW$312       .dwtag  DW_TAG_variable
    4407                      .dwattr $C$DW$312, DW_AT_name("nbr_hex_lower")
    4408                      .dwattr $C$DW$312, DW_AT_TI_symbol_name("_nbr_hex_lower")
    4409                      .dwattr $C$DW$312, DW_AT_type(*$C$DW$T$19)
    4410                      .dwattr $C$DW$312, DW_AT_location[DW_OP_breg20 -21]
    4411              
    4412              $C$DW$313       .dwtag  DW_TAG_variable
    4413                      .dwattr $C$DW$313, DW_AT_name("whitespace")
    4414                      .dwattr $C$DW$313, DW_AT_TI_symbol_name("_whitespace")
    4415                      .dwattr $C$DW$313, DW_AT_type(*$C$DW$T$19)
TMS320C2000 Assembler PC v20.2.1 Tue Feb 16 00:15:56 2021

Copyright (c) 1996-2018 Texas Instruments Incorporated
lib_str.asm                                                          PAGE   83

    4416                      .dwattr $C$DW$313, DW_AT_location[DW_OP_breg20 -22]
    4417              
    4418              $C$DW$314       .dwtag  DW_TAG_variable
    4419                      .dwattr $C$DW$314, DW_AT_name("neg")
    4420                      .dwattr $C$DW$314, DW_AT_TI_symbol_name("_neg")
    4421                      .dwattr $C$DW$314, DW_AT_type(*$C$DW$T$19)
    4422                      .dwattr $C$DW$314, DW_AT_location[DW_OP_breg20 -23]
    4423              
    4424              $C$DW$315       .dwtag  DW_TAG_variable
    4425                      .dwattr $C$DW$315, DW_AT_name("ovf")
    4426                      .dwattr $C$DW$315, DW_AT_TI_symbol_name("_ovf")
    4427                      .dwattr $C$DW$315, DW_AT_type(*$C$DW$T$19)
    4428                      .dwattr $C$DW$315, DW_AT_location[DW_OP_breg20 -24]
    4429              
    4430              $C$DW$316       .dwtag  DW_TAG_variable
    4431                      .dwattr $C$DW$316, DW_AT_name("done")
    4432                      .dwattr $C$DW$316, DW_AT_TI_symbol_name("_done")
    4433                      .dwattr $C$DW$316, DW_AT_type(*$C$DW$T$19)
    4434                      .dwattr $C$DW$316, DW_AT_location[DW_OP_breg20 -25]
    4435              
    4436 0000043b 974E          MOV       *-SP[14],AH           ; [CPU_ALU] |3845| 
    4437 0000043c 964D          MOV       *-SP[13],AL           ; [CPU_ALU] |3845| 
    4438 0000043d A044          MOVL      *-SP[4],XAR5          ; [CPU_ALU] |3845| 
    4439 0000043e A842          MOVL      *-SP[2],XAR4          ; [CPU_ALU] |3845| 
    4440                      .dwpsn  file "C:/ti/Workspace/PLC_certificate/Software/uC-LIB/lib_str.c",line 3863,column 5,is_stmt,i
    4441 0000043f 0644          MOVL      ACC,*-SP[4]           ; [CPU_ALU] |3863| 
    4442 00000440 6005          B         $C$L136,NEQ           ; [CPU_ALU] |3863| 
    4443                      ; branchcc occurs ; [] |3863| 
    4444                      .dwpsn  file "C:/ti/Workspace/PLC_certificate/Software/uC-LIB/lib_str.c",line 3864,column 9,is_stmt,i
    4445 00000441 5CAD          MOVZ      AR4,SP                ; [CPU_ALU] |3864| 
    4446 00000442 DC8A          SUBB      XAR4,#10              ; [CPU_ARAU] |3864| 
    4447 00000443 0EA4          MOVU      ACC,AR4               ; [CPU_ALU] |3864| 
    4448 00000444 1E44          MOVL      *-SP[4],ACC           ; [CPU_ALU] |3864| 
    4449                      .dwpsn  file "C:/ti/Workspace/PLC_certificate/Software/uC-LIB/lib_str.c",line 3865,column 8,is_stmt,i
    4450 00000445       $C$L136:    
    4451                      .dwpsn  file "C:/ti/Workspace/PLC_certificate/Software/uC-LIB/lib_str.c",line 3867,column 4,is_stmt,i
    4452 00000445 8A44          MOVL      XAR4,*-SP[4]          ; [CPU_ALU] |3867| 
    4453 00000446 0642          MOVL      ACC,*-SP[2]           ; [CPU_ALU] |3867| 
    4454 00000447 1EC4          MOVL      *+XAR4[0],ACC         ; [CPU_ALU] |3867| 
    4455                      .dwpsn  file "C:/ti/Workspace/PLC_certificate/Software/uC-LIB/lib_str.c",line 3869,column 5,is_stmt,i
    4456 00000448 065E          MOVL      ACC,*-SP[30]          ; [CPU_ALU] |3869| 
    4457 00000449 6005          B         $C$L137,NEQ           ; [CPU_ALU] |3869| 
    4458                      ; branchcc occurs ; [] |3869| 
    4459                      .dwpsn  file "C:/ti/Workspace/PLC_certificate/Software/uC-LIB/lib_str.c",line 3870,column 9,is_stmt,i
    4460 0000044a 5CAD          MOVZ      AR4,SP                ; [CPU_ALU] |3870| 
    4461 0000044b DC91          SUBB      XAR4,#17              ; [CPU_ARAU] |3870| 
    4462 0000044c 0EA4          MOVU      ACC,AR4               ; [CPU_ALU] |3870| 
    4463 0000044d 1E5E          MOVL      *-SP[30],ACC          ; [CPU_ALU] |3870| 
    4464                      .dwpsn  file "C:/ti/Workspace/PLC_certificate/Software/uC-LIB/lib_str.c",line 3871,column 8,is_stmt,i
    4465 0000044e       $C$L137:    
    4466                      .dwpsn  file "C:/ti/Workspace/PLC_certificate/Software/uC-LIB/lib_str.c",line 3873,column 4,is_stmt,i
    4467 0000044e 8A5E          MOVL      XAR4,*-SP[30]         ; [CPU_ALU] |3873| 
    4468 0000044f 2BC4          MOV       *+XAR4[0],#0          ; [CPU_ALU] |3873| 
    4469                      .dwpsn  file "C:/ti/Workspace/PLC_certificate/Software/uC-LIB/lib_str.c",line 3876,column 5,is_stmt,i
    4470 00000450 0642          MOVL      ACC,*-SP[2]           ; [CPU_ALU] |3876| 
TMS320C2000 Assembler PC v20.2.1 Tue Feb 16 00:15:56 2021

Copyright (c) 1996-2018 Texas Instruments Incorporated
lib_str.asm                                                          PAGE   84

    4471 00000451 6004          B         $C$L138,NEQ           ; [CPU_ALU] |3876| 
    4472                      ; branchcc occurs ; [] |3876| 
    4473                      .dwpsn  file "C:/ti/Workspace/PLC_certificate/Software/uC-LIB/lib_str.c",line 3877,column 9,is_stmt,i
    4474 00000452 0200          MOVB      ACC,#0                ; [CPU_ALU] |3877| 
    4475 00000453 FFEF          B         $C$L172,UNC           ; [CPU_ALU] |3877| 
         00000454 00E7 
    4476                      ; branch occurs ; [] |3877| 
    4477 00000455       $C$L138:    
    4478                      .dwpsn  file "C:/ti/Workspace/PLC_certificate/Software/uC-LIB/lib_str.c",line 3880,column 5,is_stmt,i
    4479 00000455 924D          MOV       AL,*-SP[13]           ; [CPU_ALU] |3880| 
    4480 00000456 5201          CMPB      AL,#1                 ; [CPU_ALU] |3880| 
    4481 00000457 6103          B         $C$L139,EQ            ; [CPU_ALU] |3880| 
    4482                      ; branchcc occurs ; [] |3880| 
    4483 00000458 5224          CMPB      AL,#36                ; [CPU_ALU] |3880| 
    4484 00000459 6904          B         $C$L140,LOS           ; [CPU_ALU] |3880| 
    4485                      ; branchcc occurs ; [] |3880| 
    4486 0000045a       $C$L139:    
    4487                      .dwpsn  file "C:/ti/Workspace/PLC_certificate/Software/uC-LIB/lib_str.c",line 3882,column 9,is_stmt,i
    4488 0000045a 0200          MOVB      ACC,#0                ; [CPU_ALU] |3882| 
    4489 0000045b FFEF          B         $C$L172,UNC           ; [CPU_ALU] |3882| 
         0000045c 00DF 
    4490                      ; branch occurs ; [] |3882| 
    4491 0000045d       $C$L140:    
    4492                      .dwpsn  file "C:/ti/Workspace/PLC_certificate/Software/uC-LIB/lib_str.c",line 3887,column 5,is_stmt,i
    4493 0000045d 0642          MOVL      ACC,*-SP[2]           ; [CPU_ALU] |3887| 
    4494 0000045e 1E46          MOVL      *-SP[6],ACC           ; [CPU_ALU] |3887| 
    4495                      .dwpsn  file "C:/ti/Workspace/PLC_certificate/Software/uC-LIB/lib_str.c",line 3889,column 5,is_stmt,i
    4496 0000045f 8A46          MOVL      XAR4,*-SP[6]          ; [CPU_ALU] |3889| 
    4497 00000460 92C4          MOV       AL,*+XAR4[0]          ; [CPU_ALU] |3889| 
    4498              $C$DW$317       .dwtag  DW_TAG_TI_branch
    4499                      .dwattr $C$DW$317, DW_AT_low_pc(0x00)
    4500                      .dwattr $C$DW$317, DW_AT_name("_ASCII_IsSpace")
    4501                      .dwattr $C$DW$317, DW_AT_TI_call
    4502              
    4503 00000461 7640!         LCR       #_ASCII_IsSpace       ; [CPU_ALU] |3889| 
         00000462 0000 
    4504                      ; call occurs [#_ASCII_IsSpace] ; [] |3889| 
    4505 00000463 9656          MOV       *-SP[22],AL           ; [CPU_ALU] |3889| 
    4506                      .dwpsn  file "C:/ti/Workspace/PLC_certificate/Software/uC-LIB/lib_str.c",line 3890,column 12,is_stmt,
    4507 00000464 5201          CMPB      AL,#1                 ; [CPU_ALU] |3890| 
    4508 00000465 601C          B         $C$L146,NEQ           ; [CPU_ALU] |3890| 
    4509                      ; branchcc occurs ; [] |3890| 
    4510 00000466       $C$L141:    
    4511                      .dwpsn  file "C:/ti/Workspace/PLC_certificate/Software/uC-LIB/lib_str.c",line 3891,column 9,is_stmt,i
    4512 00000466 0201          MOVB      ACC,#1                ; [CPU_ALU] |3891| 
    4513 00000467 0746          ADDL      ACC,*-SP[6]           ; [CPU_ALU] |3891| 
    4514 00000468 1E46          MOVL      *-SP[6],ACC           ; [CPU_ALU] |3891| 
    4515                      .dwpsn  file "C:/ti/Workspace/PLC_certificate/Software/uC-LIB/lib_str.c",line 3892,column 9,is_stmt,i
    4516 00000469 8A46          MOVL      XAR4,*-SP[6]          ; [CPU_ALU] |3892| 
    4517 0000046a 92C4          MOV       AL,*+XAR4[0]          ; [CPU_ALU] |3892| 
    4518              $C$DW$318       .dwtag  DW_TAG_TI_branch
    4519                      .dwattr $C$DW$318, DW_AT_low_pc(0x00)
    4520                      .dwattr $C$DW$318, DW_AT_name("_ASCII_IsSpace")
    4521                      .dwattr $C$DW$318, DW_AT_TI_call
    4522              
TMS320C2000 Assembler PC v20.2.1 Tue Feb 16 00:15:56 2021

Copyright (c) 1996-2018 Texas Instruments Incorporated
lib_str.asm                                                          PAGE   85

    4523 0000046b 7640!         LCR       #_ASCII_IsSpace       ; [CPU_ALU] |3892| 
         0000046c 0000 
    4524                      ; call occurs [#_ASCII_IsSpace] ; [] |3892| 
    4525 0000046d 9656          MOV       *-SP[22],AL           ; [CPU_ALU] |3892| 
    4526                      .dwpsn  file "C:/ti/Workspace/PLC_certificate/Software/uC-LIB/lib_str.c",line 3890,column 12,is_stmt,
    4527 0000046e 5201          CMPB      AL,#1                 ; [CPU_ALU] |3890| 
    4528 0000046f 61F7          B         $C$L141,EQ            ; [CPU_ALU] |3890| 
    4529                      ; branchcc occurs ; [] |3890| 
    4530                      .dwpsn  file "C:/ti/Workspace/PLC_certificate/Software/uC-LIB/lib_str.c",line 3895,column 5,is_stmt,i
    4531 00000470 6F11          B         $C$L146,UNC           ; [CPU_ALU] |3895| 
    4532                      ; branch occurs ; [] |3895| 
    4533 00000471       $C$L142:    
    4534                      .dwpsn  file "C:/ti/Workspace/PLC_certificate/Software/uC-LIB/lib_str.c",line 3897,column 14,is_stmt,
    4535 00000471 0201          MOVB      ACC,#1                ; [CPU_ALU] |3897| 
    4536 00000472 0746          ADDL      ACC,*-SP[6]           ; [CPU_ALU] |3897| 
    4537 00000473 1E46          MOVL      *-SP[6],ACC           ; [CPU_ALU] |3897| 
    4538                      .dwpsn  file "C:/ti/Workspace/PLC_certificate/Software/uC-LIB/lib_str.c",line 3898,column 14,is_stmt,
    4539 00000474 2B57          MOV       *-SP[23],#0           ; [CPU_ALU] |3898| 
    4540                      .dwpsn  file "C:/ti/Workspace/PLC_certificate/Software/uC-LIB/lib_str.c",line 3899,column 14,is_stmt,
    4541 00000475 6F13          B         $C$L147,UNC           ; [CPU_ALU] |3899| 
    4542                      ; branch occurs ; [] |3899| 
    4543 00000476       $C$L143:    
    4544                      .dwpsn  file "C:/ti/Workspace/PLC_certificate/Software/uC-LIB/lib_str.c",line 3903,column 14,is_stmt,
    4545 00000476 924E          MOV       AL,*-SP[14]           ; [CPU_ALU] |3903| 
    4546 00000477 5201          CMPB      AL,#1                 ; [CPU_ALU] |3903| 
    4547 00000478 6004          B         $C$L144,NEQ           ; [CPU_ALU] |3903| 
    4548                      ; branchcc occurs ; [] |3903| 
    4549                      .dwpsn  file "C:/ti/Workspace/PLC_certificate/Software/uC-LIB/lib_str.c",line 3904,column 18,is_stmt,
    4550 00000479 0201          MOVB      ACC,#1                ; [CPU_ALU] |3904| 
    4551 0000047a 0746          ADDL      ACC,*-SP[6]           ; [CPU_ALU] |3904| 
    4552 0000047b 1E46          MOVL      *-SP[6],ACC           ; [CPU_ALU] |3904| 
    4553 0000047c       $C$L144:    
    4554                      .dwpsn  file "C:/ti/Workspace/PLC_certificate/Software/uC-LIB/lib_str.c",line 3906,column 14,is_stmt,
    4555 0000047c 56BF          MOVB      *-SP[23],#1,UNC       ; [CPU_ALU] |3906| 
         0000047d 0157 
    4556                      .dwpsn  file "C:/ti/Workspace/PLC_certificate/Software/uC-LIB/lib_str.c",line 3907,column 14,is_stmt,
    4557 0000047e 6F0A          B         $C$L147,UNC           ; [CPU_ALU] |3907| 
    4558                      ; branch occurs ; [] |3907| 
    4559 0000047f       $C$L145:    
    4560                      .dwpsn  file "C:/ti/Workspace/PLC_certificate/Software/uC-LIB/lib_str.c",line 3911,column 14,is_stmt,
    4561 0000047f 2B57          MOV       *-SP[23],#0           ; [CPU_ALU] |3911| 
    4562                      .dwpsn  file "C:/ti/Workspace/PLC_certificate/Software/uC-LIB/lib_str.c",line 3912,column 14,is_stmt,
    4563 00000480 6F08          B         $C$L147,UNC           ; [CPU_ALU] |3912| 
    4564                      ; branch occurs ; [] |3912| 
    4565 00000481       $C$L146:    
    4566                      .dwpsn  file "C:/ti/Workspace/PLC_certificate/Software/uC-LIB/lib_str.c",line 3895,column 5,is_stmt,i
    4567 00000481 8A46          MOVL      XAR4,*-SP[6]          ; [CPU_ALU] |3895| 
    4568 00000482 92C4          MOV       AL,*+XAR4[0]          ; [CPU_ALU] |3895| 
    4569 00000483 522B          CMPB      AL,#43                ; [CPU_ALU] |3895| 
    4570 00000484 61ED          B         $C$L142,EQ            ; [CPU_ALU] |3895| 
    4571                      ; branchcc occurs ; [] |3895| 
    4572 00000485 522D          CMPB      AL,#45                ; [CPU_ALU] |3895| 
    4573 00000486 61F0          B         $C$L143,EQ            ; [CPU_ALU] |3895| 
    4574                      ; branchcc occurs ; [] |3895| 
    4575 00000487 6FF8          B         $C$L145,UNC           ; [CPU_ALU] |3895| 
TMS320C2000 Assembler PC v20.2.1 Tue Feb 16 00:15:56 2021

Copyright (c) 1996-2018 Texas Instruments Incorporated
lib_str.asm                                                          PAGE   86

    4576                      ; branch occurs ; [] |3895| 
    4577 00000488       $C$L147:    
    4578                      .dwpsn  file "C:/ti/Workspace/PLC_certificate/Software/uC-LIB/lib_str.c",line 3917,column 5,is_stmt,i
    4579 00000488 0646          MOVL      ACC,*-SP[6]           ; [CPU_ALU] |3917| 
    4580 00000489 1E48          MOVL      *-SP[8],ACC           ; [CPU_ALU] |3917| 
    4581                      .dwpsn  file "C:/ti/Workspace/PLC_certificate/Software/uC-LIB/lib_str.c",line 3919,column 5,is_stmt,i
    4582 0000048a 6F45          B         $C$L157,UNC           ; [CPU_ALU] |3919| 
    4583                      ; branch occurs ; [] |3919| 
    4584 0000048b       $C$L148:    
    4585                      .dwpsn  file "C:/ti/Workspace/PLC_certificate/Software/uC-LIB/lib_str.c",line 3921,column 14,is_stmt,
    4586 0000048b 8A46          MOVL      XAR4,*-SP[6]          ; [CPU_ALU] |3921| 
    4587 0000048c 92C4          MOV       AL,*+XAR4[0]          ; [CPU_ALU] |3921| 
    4588 0000048d 5230          CMPB      AL,#48                ; [CPU_ALU] |3921| 
    4589 0000048e 601C          B         $C$L152,NEQ           ; [CPU_ALU] |3921| 
    4590                      ; branchcc occurs ; [] |3921| 
    4591                      .dwpsn  file "C:/ti/Workspace/PLC_certificate/Software/uC-LIB/lib_str.c",line 3922,column 19,is_stmt,
    4592 0000048f 0201          MOVB      ACC,#1                ; [CPU_ALU] |3922| 
    4593 00000490 0746          ADDL      ACC,*-SP[6]           ; [CPU_ALU] |3922| 
    4594 00000491 1E46          MOVL      *-SP[6],ACC           ; [CPU_ALU] |3922| 
    4595                      .dwpsn  file "C:/ti/Workspace/PLC_certificate/Software/uC-LIB/lib_str.c",line 3923,column 19,is_stmt,
    4596 00000492 6F11          B         $C$L151,UNC           ; [CPU_ALU] |3923| 
    4597                      ; branch occurs ; [] |3923| 
    4598 00000493       $C$L149:    
    4599                      .dwpsn  file "C:/ti/Workspace/PLC_certificate/Software/uC-LIB/lib_str.c",line 3926,column 28,is_stmt,
    4600 00000493 56BF          MOVB      *-SP[13],#16,UNC      ; [CPU_ALU] |3926| 
         00000494 104D 
    4601                      .dwpsn  file "C:/ti/Workspace/PLC_certificate/Software/uC-LIB/lib_str.c",line 3927,column 28,is_stmt,
    4602 00000495 92CC          MOV       AL,*+XAR4[1]          ; [CPU_ALU] |3927| 
    4603 00000496 964F          MOV       *-SP[15],AL           ; [CPU_ALU] |3927| 
    4604                      .dwpsn  file "C:/ti/Workspace/PLC_certificate/Software/uC-LIB/lib_str.c",line 3928,column 28,is_stmt,
    4605              $C$DW$319       .dwtag  DW_TAG_TI_branch
    4606                      .dwattr $C$DW$319, DW_AT_low_pc(0x00)
    4607                      .dwattr $C$DW$319, DW_AT_name("_ASCII_IsDigHex")
    4608                      .dwattr $C$DW$319, DW_AT_TI_call
    4609              
    4610 00000497 7640!         LCR       #_ASCII_IsDigHex      ; [CPU_ALU] |3928| 
         00000498 0000 
    4611                      ; call occurs [#_ASCII_IsDigHex] ; [] |3928| 
    4612 00000499 9654          MOV       *-SP[20],AL           ; [CPU_ALU] |3928| 
    4613                      .dwpsn  file "C:/ti/Workspace/PLC_certificate/Software/uC-LIB/lib_str.c",line 3929,column 28,is_stmt,
    4614 0000049a 5201          CMPB      AL,#1                 ; [CPU_ALU] |3929| 
    4615 0000049b 603A          B         $C$L158,NEQ           ; [CPU_ALU] |3929| 
    4616                      ; branchcc occurs ; [] |3929| 
    4617                      .dwpsn  file "C:/ti/Workspace/PLC_certificate/Software/uC-LIB/lib_str.c",line 3930,column 32,is_stmt,
    4618 0000049c 0201          MOVB      ACC,#1                ; [CPU_ALU] |3930| 
    4619 0000049d 0746          ADDL      ACC,*-SP[6]           ; [CPU_ALU] |3930| 
    4620 0000049e 1E46          MOVL      *-SP[6],ACC           ; [CPU_ALU] |3930| 
    4621                      .dwpsn  file "C:/ti/Workspace/PLC_certificate/Software/uC-LIB/lib_str.c",line 3932,column 28,is_stmt,
    4622 0000049f 6F36          B         $C$L158,UNC           ; [CPU_ALU] |3932| 
    4623                      ; branch occurs ; [] |3932| 
    4624 000004a0       $C$L150:    
    4625                      .dwpsn  file "C:/ti/Workspace/PLC_certificate/Software/uC-LIB/lib_str.c",line 3936,column 28,is_stmt,
    4626 000004a0 56BF          MOVB      *-SP[13],#8,UNC       ; [CPU_ALU] |3936| 
         000004a1 084D 
    4627                      .dwpsn  file "C:/ti/Workspace/PLC_certificate/Software/uC-LIB/lib_str.c",line 3937,column 28,is_stmt,
TMS320C2000 Assembler PC v20.2.1 Tue Feb 16 00:15:56 2021

Copyright (c) 1996-2018 Texas Instruments Incorporated
lib_str.asm                                                          PAGE   87

    4628 000004a2 6F33          B         $C$L158,UNC           ; [CPU_ALU] |3937| 
    4629                      ; branch occurs ; [] |3937| 
    4630 000004a3       $C$L151:    
    4631                      .dwpsn  file "C:/ti/Workspace/PLC_certificate/Software/uC-LIB/lib_str.c",line 3923,column 19,is_stmt,
    4632 000004a3 8A46          MOVL      XAR4,*-SP[6]          ; [CPU_ALU] |3923| 
    4633 000004a4 92C4          MOV       AL,*+XAR4[0]          ; [CPU_ALU] |3923| 
    4634 000004a5 5258          CMPB      AL,#88                ; [CPU_ALU] |3923| 
    4635 000004a6 61ED          B         $C$L149,EQ            ; [CPU_ALU] |3923| 
    4636                      ; branchcc occurs ; [] |3923| 
    4637 000004a7 5278          CMPB      AL,#120               ; [CPU_ALU] |3923| 
    4638 000004a8 61EB          B         $C$L149,EQ            ; [CPU_ALU] |3923| 
    4639                      ; branchcc occurs ; [] |3923| 
    4640 000004a9 6FF7          B         $C$L150,UNC           ; [CPU_ALU] |3923| 
    4641                      ; branch occurs ; [] |3923| 
    4642 000004aa       $C$L152:    
    4643                      .dwpsn  file "C:/ti/Workspace/PLC_certificate/Software/uC-LIB/lib_str.c",line 3941,column 18,is_stmt,
    4644 000004aa 56BF          MOVB      *-SP[13],#10,UNC      ; [CPU_ALU] |3941| 
         000004ab 0A4D 
    4645                      .dwpsn  file "C:/ti/Workspace/PLC_certificate/Software/uC-LIB/lib_str.c",line 3943,column 14,is_stmt,
    4646 000004ac 6F29          B         $C$L158,UNC           ; [CPU_ALU] |3943| 
    4647                      ; branch occurs ; [] |3943| 
    4648 000004ad       $C$L153:    
    4649                      .dwpsn  file "C:/ti/Workspace/PLC_certificate/Software/uC-LIB/lib_str.c",line 3947,column 14,is_stmt,
    4650 000004ad 8A46          MOVL      XAR4,*-SP[6]          ; [CPU_ALU] |3947| 
    4651 000004ae 92C4          MOV       AL,*+XAR4[0]          ; [CPU_ALU] |3947| 
    4652 000004af 5230          CMPB      AL,#48                ; [CPU_ALU] |3947| 
    4653 000004b0 6025          B         $C$L158,NEQ           ; [CPU_ALU] |3947| 
    4654                      ; branchcc occurs ; [] |3947| 
    4655                      .dwpsn  file "C:/ti/Workspace/PLC_certificate/Software/uC-LIB/lib_str.c",line 3948,column 19,is_stmt,
    4656 000004b1 0201          MOVB      ACC,#1                ; [CPU_ALU] |3948| 
    4657 000004b2 0746          ADDL      ACC,*-SP[6]           ; [CPU_ALU] |3948| 
    4658 000004b3 1E46          MOVL      *-SP[6],ACC           ; [CPU_ALU] |3948| 
    4659                      .dwpsn  file "C:/ti/Workspace/PLC_certificate/Software/uC-LIB/lib_str.c",line 3950,column 14,is_stmt,
    4660 000004b4 6F21          B         $C$L158,UNC           ; [CPU_ALU] |3950| 
    4661                      ; branch occurs ; [] |3950| 
    4662 000004b5       $C$L154:    
    4663                      .dwpsn  file "C:/ti/Workspace/PLC_certificate/Software/uC-LIB/lib_str.c",line 3954,column 14,is_stmt,
    4664 000004b5 8A46          MOVL      XAR4,*-SP[6]          ; [CPU_ALU] |3954| 
    4665 000004b6 92C4          MOV       AL,*+XAR4[0]          ; [CPU_ALU] |3954| 
    4666 000004b7 5230          CMPB      AL,#48                ; [CPU_ALU] |3954| 
    4667 000004b8 601D          B         $C$L158,NEQ           ; [CPU_ALU] |3954| 
    4668                      ; branchcc occurs ; [] |3954| 
    4669                      .dwpsn  file "C:/ti/Workspace/PLC_certificate/Software/uC-LIB/lib_str.c",line 3955,column 19,is_stmt,
    4670 000004b9 0201          MOVB      ACC,#1                ; [CPU_ALU] |3955| 
    4671 000004ba 0746          ADDL      ACC,*-SP[6]           ; [CPU_ALU] |3955| 
    4672 000004bb 1E46          MOVL      *-SP[6],ACC           ; [CPU_ALU] |3955| 
    4673                      .dwpsn  file "C:/ti/Workspace/PLC_certificate/Software/uC-LIB/lib_str.c",line 3956,column 19,is_stmt,
    4674 000004bc 6F0C          B         $C$L156,UNC           ; [CPU_ALU] |3956| 
    4675                      ; branch occurs ; [] |3956| 
    4676 000004bd       $C$L155:    
    4677                      .dwpsn  file "C:/ti/Workspace/PLC_certificate/Software/uC-LIB/lib_str.c",line 3959,column 28,is_stmt,
    4678 000004bd 92CC          MOV       AL,*+XAR4[1]          ; [CPU_ALU] |3959| 
    4679 000004be 964F          MOV       *-SP[15],AL           ; [CPU_ALU] |3959| 
    4680                      .dwpsn  file "C:/ti/Workspace/PLC_certificate/Software/uC-LIB/lib_str.c",line 3960,column 28,is_stmt,
    4681              $C$DW$320       .dwtag  DW_TAG_TI_branch
TMS320C2000 Assembler PC v20.2.1 Tue Feb 16 00:15:56 2021

Copyright (c) 1996-2018 Texas Instruments Incorporated
lib_str.asm                                                          PAGE   88

    4682                      .dwattr $C$DW$320, DW_AT_low_pc(0x00)
    4683                      .dwattr $C$DW$320, DW_AT_name("_ASCII_IsDigHex")
    4684                      .dwattr $C$DW$320, DW_AT_TI_call
    4685              
    4686 000004bf 7640!         LCR       #_ASCII_IsDigHex      ; [CPU_ALU] |3960| 
         000004c0 0000 
    4687                      ; call occurs [#_ASCII_IsDigHex] ; [] |3960| 
    4688 000004c1 9654          MOV       *-SP[20],AL           ; [CPU_ALU] |3960| 
    4689                      .dwpsn  file "C:/ti/Workspace/PLC_certificate/Software/uC-LIB/lib_str.c",line 3961,column 28,is_stmt,
    4690 000004c2 5201          CMPB      AL,#1                 ; [CPU_ALU] |3961| 
    4691 000004c3 6012          B         $C$L158,NEQ           ; [CPU_ALU] |3961| 
    4692                      ; branchcc occurs ; [] |3961| 
    4693                      .dwpsn  file "C:/ti/Workspace/PLC_certificate/Software/uC-LIB/lib_str.c",line 3962,column 32,is_stmt,
    4694 000004c4 0201          MOVB      ACC,#1                ; [CPU_ALU] |3962| 
    4695 000004c5 0746          ADDL      ACC,*-SP[6]           ; [CPU_ALU] |3962| 
    4696 000004c6 1E46          MOVL      *-SP[6],ACC           ; [CPU_ALU] |3962| 
    4697                      .dwpsn  file "C:/ti/Workspace/PLC_certificate/Software/uC-LIB/lib_str.c",line 3964,column 28,is_stmt,
    4698 000004c7 6F0E          B         $C$L158,UNC           ; [CPU_ALU] |3964| 
    4699                      ; branch occurs ; [] |3964| 
    4700 000004c8       $C$L156:    
    4701                      .dwpsn  file "C:/ti/Workspace/PLC_certificate/Software/uC-LIB/lib_str.c",line 3956,column 19,is_stmt,
    4702 000004c8 8A46          MOVL      XAR4,*-SP[6]          ; [CPU_ALU] |3956| 
    4703 000004c9 92C4          MOV       AL,*+XAR4[0]          ; [CPU_ALU] |3956| 
    4704 000004ca 5258          CMPB      AL,#88                ; [CPU_ALU] |3956| 
    4705 000004cb 61F2          B         $C$L155,EQ            ; [CPU_ALU] |3956| 
    4706                      ; branchcc occurs ; [] |3956| 
    4707 000004cc 5278          CMPB      AL,#120               ; [CPU_ALU] |3956| 
    4708 000004cd 61F0          B         $C$L155,EQ            ; [CPU_ALU] |3956| 
    4709                      ; branchcc occurs ; [] |3956| 
    4710 000004ce 6F07          B         $C$L158,UNC           ; [CPU_ALU] |3956| 
    4711                      ; branch occurs ; [] |3956| 
    4712 000004cf       $C$L157:    
    4713                      .dwpsn  file "C:/ti/Workspace/PLC_certificate/Software/uC-LIB/lib_str.c",line 3919,column 5,is_stmt,i
    4714 000004cf 924D          MOV       AL,*-SP[13]           ; [CPU_ALU] |3919| 
    4715 000004d0 61BB          B         $C$L148,EQ            ; [CPU_ALU] |3919| 
    4716                      ; branchcc occurs ; [] |3919| 
    4717 000004d1 5208          CMPB      AL,#8                 ; [CPU_ALU] |3919| 
    4718 000004d2 61DB          B         $C$L153,EQ            ; [CPU_ALU] |3919| 
    4719                      ; branchcc occurs ; [] |3919| 
    4720 000004d3 5210          CMPB      AL,#16                ; [CPU_ALU] |3919| 
    4721 000004d4 61E1          B         $C$L154,EQ            ; [CPU_ALU] |3919| 
    4722                      ; branchcc occurs ; [] |3919| 
    4723 000004d5       $C$L158:    
    4724                      .dwpsn  file "C:/ti/Workspace/PLC_certificate/Software/uC-LIB/lib_str.c",line 3980,column 5,is_stmt,i
    4725 000004d5 0200          MOVB      ACC,#0                ; [CPU_ALU] |3980| 
    4726 000004d6 1E4C          MOVL      *-SP[12],ACC          ; [CPU_ALU] |3980| 
    4727                      .dwpsn  file "C:/ti/Workspace/PLC_certificate/Software/uC-LIB/lib_str.c",line 3981,column 5,is_stmt,i
    4728 000004d7 2B58          MOV       *-SP[24],#0           ; [CPU_ALU] |3981| 
    4729                      .dwpsn  file "C:/ti/Workspace/PLC_certificate/Software/uC-LIB/lib_str.c",line 3982,column 5,is_stmt,i
    4730 000004d8 2B59          MOV       *-SP[25],#0           ; [CPU_ALU] |3982| 
    4731                      .dwpsn  file "C:/ti/Workspace/PLC_certificate/Software/uC-LIB/lib_str.c",line 3984,column 12,is_stmt,
    4732 000004d9 9259          MOV       AL,*-SP[25]           ; [CPU_ALU] |3984| 
    4733 000004da 604C          B         $C$L168,NEQ           ; [CPU_ALU] |3984| 
    4734                      ; branchcc occurs ; [] |3984| 
    4735 000004db       $C$L159:    
TMS320C2000 Assembler PC v20.2.1 Tue Feb 16 00:15:56 2021

Copyright (c) 1996-2018 Texas Instruments Incorporated
lib_str.asm                                                          PAGE   89

    4736                      .dwpsn  file "C:/ti/Workspace/PLC_certificate/Software/uC-LIB/lib_str.c",line 3985,column 9,is_stmt,i
    4737 000004db C546          MOVL      XAR7,*-SP[6]          ; [CPU_ALU] |3985| 
    4738 000004dc 92C7          MOV       AL,*+XAR7[0]          ; [CPU_ALU] |3985| 
    4739 000004dd 964F          MOV       *-SP[15],AL           ; [CPU_ALU] |3985| 
    4740                      .dwpsn  file "C:/ti/Workspace/PLC_certificate/Software/uC-LIB/lib_str.c",line 3986,column 9,is_stmt,i
    4741              $C$DW$321       .dwtag  DW_TAG_TI_branch
    4742                      .dwattr $C$DW$321, DW_AT_low_pc(0x00)
    4743                      .dwattr $C$DW$321, DW_AT_name("_ASCII_IsAlphaNum")
    4744                      .dwattr $C$DW$321, DW_AT_TI_call
    4745              
    4746 000004de 7640!         LCR       #_ASCII_IsAlphaNum    ; [CPU_ALU] |3986| 
         000004df 0000 
    4747                      ; call occurs [#_ASCII_IsAlphaNum] ; [] |3986| 
    4748 000004e0 9653          MOV       *-SP[19],AL           ; [CPU_ALU] |3986| 
    4749                      .dwpsn  file "C:/ti/Workspace/PLC_certificate/Software/uC-LIB/lib_str.c",line 3987,column 9,is_stmt,i
    4750 000004e1 5201          CMPB      AL,#1                 ; [CPU_ALU] |3987| 
    4751 000004e2 6040          B         $C$L166,NEQ           ; [CPU_ALU] |3987| 
    4752                      ; branchcc occurs ; [] |3987| 
    4753                      .dwpsn  file "C:/ti/Workspace/PLC_certificate/Software/uC-LIB/lib_str.c",line 3989,column 13,is_stmt,
    4754 000004e3 924F          MOV       AL,*-SP[15]           ; [CPU_ALU] |3989| 
    4755              $C$DW$322       .dwtag  DW_TAG_TI_branch
    4756                      .dwattr $C$DW$322, DW_AT_low_pc(0x00)
    4757                      .dwattr $C$DW$322, DW_AT_name("_ASCII_IsDig")
    4758                      .dwattr $C$DW$322, DW_AT_TI_call
    4759              
    4760 000004e4 7640!         LCR       #_ASCII_IsDig         ; [CPU_ALU] |3989| 
         000004e5 0000 
    4761                      ; call occurs [#_ASCII_IsDig] ; [] |3989| 
    4762 000004e6 9652          MOV       *-SP[18],AL           ; [CPU_ALU] |3989| 
    4763                      .dwpsn  file "C:/ti/Workspace/PLC_certificate/Software/uC-LIB/lib_str.c",line 3990,column 13,is_stmt,
    4764 000004e7 5201          CMPB      AL,#1                 ; [CPU_ALU] |3990| 
    4765 000004e8 6005          B         $C$L160,NEQ           ; [CPU_ALU] |3990| 
    4766                      ; branchcc occurs ; [] |3990| 
    4767                      .dwpsn  file "C:/ti/Workspace/PLC_certificate/Software/uC-LIB/lib_str.c",line 3991,column 17,is_stmt,
    4768 000004e9 924F          MOV       AL,*-SP[15]           ; [CPU_ALU] |3991| 
    4769 000004ea 9CD0          ADDB      AL,#-48               ; [CPU_ALU] |3991| 
    4770 000004eb 9650          MOV       *-SP[16],AL           ; [CPU_ALU] |3991| 
    4771 000004ec 6F10          B         $C$L162,UNC           ; [CPU_ALU] 
    4772                      ; branch occurs ; [] 
    4773 000004ed       $C$L160:    
    4774                      .dwpsn  file "C:/ti/Workspace/PLC_certificate/Software/uC-LIB/lib_str.c",line 3993,column 17,is_stmt,
    4775 000004ed 924F          MOV       AL,*-SP[15]           ; [CPU_ALU] |3993| 
    4776              $C$DW$323       .dwtag  DW_TAG_TI_branch
    4777                      .dwattr $C$DW$323, DW_AT_low_pc(0x00)
    4778                      .dwattr $C$DW$323, DW_AT_name("_ASCII_IsLower")
    4779                      .dwattr $C$DW$323, DW_AT_TI_call
    4780              
    4781 000004ee 7640!         LCR       #_ASCII_IsLower       ; [CPU_ALU] |3993| 
         000004ef 0000 
    4782                      ; call occurs [#_ASCII_IsLower] ; [] |3993| 
    4783 000004f0 9655          MOV       *-SP[21],AL           ; [CPU_ALU] |3993| 
    4784                      .dwpsn  file "C:/ti/Workspace/PLC_certificate/Software/uC-LIB/lib_str.c",line 3994,column 17,is_stmt,
    4785 000004f1 5201          CMPB      AL,#1                 ; [CPU_ALU] |3994| 
    4786 000004f2 6006          B         $C$L161,NEQ           ; [CPU_ALU] |3994| 
    4787                      ; branchcc occurs ; [] |3994| 
TMS320C2000 Assembler PC v20.2.1 Tue Feb 16 00:15:56 2021

Copyright (c) 1996-2018 Texas Instruments Incorporated
lib_str.asm                                                          PAGE   90

    4788                      .dwpsn  file "C:/ti/Workspace/PLC_certificate/Software/uC-LIB/lib_str.c",line 3995,column 21,is_stmt,
    4789 000004f3 924F          MOV       AL,*-SP[15]           ; [CPU_ALU] |3995| 
    4790 000004f4 9C9F          ADDB      AL,#-97               ; [CPU_ALU] |3995| 
    4791 000004f5 9C0A          ADDB      AL,#10                ; [CPU_ALU] |3995| 
    4792 000004f6 9650          MOV       *-SP[16],AL           ; [CPU_ALU] |3995| 
    4793 000004f7 6F05          B         $C$L162,UNC           ; [CPU_ALU] 
    4794                      ; branch occurs ; [] 
    4795 000004f8       $C$L161:    
    4796                      .dwpsn  file "C:/ti/Workspace/PLC_certificate/Software/uC-LIB/lib_str.c",line 3997,column 21,is_stmt,
    4797 000004f8 924F          MOV       AL,*-SP[15]           ; [CPU_ALU] |3997| 
    4798 000004f9 9CBF          ADDB      AL,#-65               ; [CPU_ALU] |3997| 
    4799 000004fa 9C0A          ADDB      AL,#10                ; [CPU_ALU] |3997| 
    4800 000004fb 9650          MOV       *-SP[16],AL           ; [CPU_ALU] |3997| 
    4801 000004fc       $C$L162:    
    4802                      .dwpsn  file "C:/ti/Workspace/PLC_certificate/Software/uC-LIB/lib_str.c",line 4001,column 13,is_stmt,
    4803 000004fc 924D          MOV       AL,*-SP[13]           ; [CPU_ALU] |4001| 
    4804 000004fd 5450          CMP       AL,*-SP[16]           ; [CPU_ALU] |4001| 
    4805 000004fe 6921          B         $C$L165,LOS           ; [CPU_ALU] |4001| 
    4806                      ; branchcc occurs ; [] |4001| 
    4807                      .dwpsn  file "C:/ti/Workspace/PLC_certificate/Software/uC-LIB/lib_str.c",line 4002,column 17,is_stmt,
    4808 000004ff 9258          MOV       AL,*-SP[24]           ; [CPU_ALU] |4002| 
    4809 00000500 601B          B         $C$L164,NEQ           ; [CPU_ALU] |4002| 
    4810                      ; branchcc occurs ; [] |4002| 
    4811                      .dwpsn  file "C:/ti/Workspace/PLC_certificate/Software/uC-LIB/lib_str.c",line 4003,column 21,is_stmt,
    4812 00000501 2901          CLRC      SXM                   ; [CPU_ALU] 
    4813 00000502 8F00+         MOVL      XAR4,#_Str_MultOvfThTbl_Int32U ; [CPU_ARAU] |4003| 
         00000503 0000 
    4814 00000504 5603          MOV       ACC,*-SP[13] << 1     ; [CPU_ALU] |4003| 
         00000505 014D 
    4815 00000506 5601          ADDL      XAR4,ACC              ; [CPU_ALU] |4003| 
         00000507 00A4 
    4816 00000508 06C4          MOVL      ACC,*+XAR4[0]         ; [CPU_ALU] |4003| 
    4817 00000509 0F4C          CMPL      ACC,*-SP[12]          ; [CPU_ALU] |4003| 
    4818 0000050a 680F          B         $C$L163,LO            ; [CPU_ALU] |4003| 
    4819                      ; branchcc occurs ; [] |4003| 
    4820                      .dwpsn  file "C:/ti/Workspace/PLC_certificate/Software/uC-LIB/lib_str.c",line 4005,column 25,is_stmt,
    4821 0000050b 0E4D          MOVU      ACC,*-SP[13]          ; [CPU_ALU] |4005| 
    4822 0000050c 1EAC          MOVL      XT,ACC                ; [CPU_ALU] |4005| 
    4823 0000050d 5665          IMPYXUL   P,XT,*-SP[12]         ; [CPU_ALU] |4005| 
         0000050e 004C 
    4824 0000050f A94C          MOVL      *-SP[12],P            ; [CPU_ALU] |4005| 
    4825                      .dwpsn  file "C:/ti/Workspace/PLC_certificate/Software/uC-LIB/lib_str.c",line 4006,column 25,is_stmt,
    4826 00000510 0E50          MOVU      ACC,*-SP[16]          ; [CPU_ALU] |4006| 
    4827 00000511 074C          ADDL      ACC,*-SP[12]          ; [CPU_ALU] |4006| 
    4828 00000512 1E4C          MOVL      *-SP[12],ACC          ; [CPU_ALU] |4006| 
    4829                      .dwpsn  file "C:/ti/Workspace/PLC_certificate/Software/uC-LIB/lib_str.c",line 4007,column 25,is_stmt,
    4830 00000513 0E50          MOVU      ACC,*-SP[16]          ; [CPU_ALU] |4007| 
    4831 00000514 0F4C          CMPL      ACC,*-SP[12]          ; [CPU_ALU] |4007| 
    4832 00000515 6906          B         $C$L164,LOS           ; [CPU_ALU] |4007| 
    4833                      ; branchcc occurs ; [] |4007| 
    4834                      .dwpsn  file "C:/ti/Workspace/PLC_certificate/Software/uC-LIB/lib_str.c",line 4008,column 29,is_stmt,
    4835 00000516 56BF          MOVB      *-SP[24],#1,UNC       ; [CPU_ALU] |4008| 
         00000517 0158 
    4836 00000518 6F03          B         $C$L164,UNC           ; [CPU_ALU] 
    4837                      ; branch occurs ; [] 
TMS320C2000 Assembler PC v20.2.1 Tue Feb 16 00:15:56 2021

Copyright (c) 1996-2018 Texas Instruments Incorporated
lib_str.asm                                                          PAGE   91

    4838 00000519       $C$L163:    
    4839                      .dwpsn  file "C:/ti/Workspace/PLC_certificate/Software/uC-LIB/lib_str.c",line 4011,column 25,is_stmt,
    4840 00000519 56BF          MOVB      *-SP[24],#1,UNC       ; [CPU_ALU] |4011| 
         0000051a 0158 
    4841 0000051b       $C$L164:    
    4842                      .dwpsn  file "C:/ti/Workspace/PLC_certificate/Software/uC-LIB/lib_str.c",line 4014,column 17,is_stmt,
    4843 0000051b 0201          MOVB      ACC,#1                ; [CPU_ALU] |4014| 
    4844 0000051c 0746          ADDL      ACC,*-SP[6]           ; [CPU_ALU] |4014| 
    4845 0000051d 1E46          MOVL      *-SP[6],ACC           ; [CPU_ALU] |4014| 
    4846 0000051e 6F06          B         $C$L167,UNC           ; [CPU_ALU] 
    4847                      ; branch occurs ; [] 
    4848 0000051f       $C$L165:    
    4849                      .dwpsn  file "C:/ti/Workspace/PLC_certificate/Software/uC-LIB/lib_str.c",line 4017,column 17,is_stmt,
    4850 0000051f 56BF          MOVB      *-SP[25],#1,UNC       ; [CPU_ALU] |4017| 
         00000520 0159 
    4851 00000521 6F03          B         $C$L167,UNC           ; [CPU_ALU] 
    4852                      ; branch occurs ; [] 
    4853 00000522       $C$L166:    
    4854                      .dwpsn  file "C:/ti/Workspace/PLC_certificate/Software/uC-LIB/lib_str.c",line 4021,column 13,is_stmt,
    4855 00000522 56BF          MOVB      *-SP[25],#1,UNC       ; [CPU_ALU] |4021| 
         00000523 0159 
    4856 00000524       $C$L167:    
    4857                      .dwpsn  file "C:/ti/Workspace/PLC_certificate/Software/uC-LIB/lib_str.c",line 3984,column 12,is_stmt,
    4858 00000524 9259          MOV       AL,*-SP[25]           ; [CPU_ALU] |3984| 
    4859 00000525 61B6          B         $C$L159,EQ            ; [CPU_ALU] |3984| 
    4860                      ; branchcc occurs ; [] |3984| 
    4861 00000526       $C$L168:    
    4862                      .dwpsn  file "C:/ti/Workspace/PLC_certificate/Software/uC-LIB/lib_str.c",line 4025,column 5,is_stmt,i
    4863 00000526 9258          MOV       AL,*-SP[24]           ; [CPU_ALU] |4025| 
    4864 00000527 5201          CMPB      AL,#1                 ; [CPU_ALU] |4025| 
    4865 00000528 6004          B         $C$L169,NEQ           ; [CPU_ALU] |4025| 
    4866                      ; branchcc occurs ; [] |4025| 
    4867                      .dwpsn  file "C:/ti/Workspace/PLC_certificate/Software/uC-LIB/lib_str.c",line 4026,column 9,is_stmt,i
    4868 00000529 0200          MOVB      ACC,#0                ; [CPU_ALU] |4026| 
    4869 0000052a 1901          SUBB      ACC,#1                ; [CPU_ALU] |4026| 
    4870 0000052b 1E4C          MOVL      *-SP[12],ACC          ; [CPU_ALU] |4026| 
    4871 0000052c       $C$L169:    
    4872                      .dwpsn  file "C:/ti/Workspace/PLC_certificate/Software/uC-LIB/lib_str.c",line 4030,column 5,is_stmt,i
    4873 0000052c 0648          MOVL      ACC,*-SP[8]           ; [CPU_ALU] |4030| 
    4874 0000052d 0F46          CMPL      ACC,*-SP[6]           ; [CPU_ALU] |4030| 
    4875 0000052e 6105          B         $C$L170,EQ            ; [CPU_ALU] |4030| 
    4876                      ; branchcc occurs ; [] |4030| 
    4877                      .dwpsn  file "C:/ti/Workspace/PLC_certificate/Software/uC-LIB/lib_str.c",line 4031,column 8,is_stmt,i
    4878 0000052f 8A44          MOVL      XAR4,*-SP[4]          ; [CPU_ALU] |4031| 
    4879 00000530 0646          MOVL      ACC,*-SP[6]           ; [CPU_ALU] |4031| 
    4880 00000531 1EC4          MOVL      *+XAR4[0],ACC         ; [CPU_ALU] |4031| 
    4881 00000532 6F04          B         $C$L171,UNC           ; [CPU_ALU] 
    4882                      ; branch occurs ; [] 
    4883 00000533       $C$L170:    
    4884                      .dwpsn  file "C:/ti/Workspace/PLC_certificate/Software/uC-LIB/lib_str.c",line 4033,column 8,is_stmt,i
    4885 00000533 8A44          MOVL      XAR4,*-SP[4]          ; [CPU_ALU] |4033| 
    4886 00000534 0642          MOVL      ACC,*-SP[2]           ; [CPU_ALU] |4033| 
    4887 00000535 1EC4          MOVL      *+XAR4[0],ACC         ; [CPU_ALU] |4033| 
    4888 00000536       $C$L171:    
    4889                      .dwpsn  file "C:/ti/Workspace/PLC_certificate/Software/uC-LIB/lib_str.c",line 4036,column 4,is_stmt,i
TMS320C2000 Assembler PC v20.2.1 Tue Feb 16 00:15:56 2021

Copyright (c) 1996-2018 Texas Instruments Incorporated
lib_str.asm                                                          PAGE   92

    4890 00000536 C55E          MOVL      XAR7,*-SP[30]         ; [CPU_ALU] |4036| 
    4891 00000537 9257          MOV       AL,*-SP[23]           ; [CPU_ALU] |4036| 
    4892 00000538 96C7          MOV       *+XAR7[0],AL          ; [CPU_ALU] |4036| 
    4893                      .dwpsn  file "C:/ti/Workspace/PLC_certificate/Software/uC-LIB/lib_str.c",line 4039,column 5,is_stmt,i
    4894 00000539 064C          MOVL      ACC,*-SP[12]          ; [CPU_ALU] |4039| 
    4895 0000053a       $C$L172:    
    4896                      .dwpsn  file "C:/ti/Workspace/PLC_certificate/Software/uC-LIB/lib_str.c",line 4040,column 1,is_stmt,i
    4897 0000053a FE9A          SUBB      SP,#26                ; [CPU_ARAU] 
    4898                      .dwcfi  cfa_offset, -2
    4899              $C$DW$324       .dwtag  DW_TAG_TI_branch
    4900                      .dwattr $C$DW$324, DW_AT_low_pc(0x00)
    4901                      .dwattr $C$DW$324, DW_AT_TI_return
    4902              
    4903 0000053b 0006          LRETR     ; [CPU_ALU] 
    4904                      ; return occurs ; [] 
    4905                      .dwattr $C$DW$292, DW_AT_TI_end_file("C:/ti/Workspace/PLC_certificate/Software/uC-LIB/lib_str.c")
    4906                      .dwattr $C$DW$292, DW_AT_TI_end_line(0xfc8)
    4907                      .dwattr $C$DW$292, DW_AT_TI_end_column(0x01)
    4908                      .dwendentry
    4909                      .dwendtag $C$DW$292
    4910              
    4911              ;**************************************************************
    4912              ;* UNDEFINED EXTERNAL REFERENCES                              *
    4913              ;**************************************************************
    4914                      .global _ASCII_ToLower
    4915                      .global _ASCII_IsPrint
    4916                      .global _ASCII_IsSpace
    4917                      .global _ASCII_IsDigHex
    4918                      .global _ASCII_IsAlphaNum
    4919                      .global _ASCII_IsDig
    4920                      .global _ASCII_IsLower
    4921              
    4922              ;***************************************************************
    4923              ;* TYPE INFORMATION                                            *
    4924              ;***************************************************************
    4925              $C$DW$T$2       .dwtag  DW_TAG_unspecified_type
    4926                      .dwattr $C$DW$T$2, DW_AT_name("void")
    4927              
    4928              $C$DW$T$4       .dwtag  DW_TAG_base_type
    4929                      .dwattr $C$DW$T$4, DW_AT_encoding(DW_ATE_boolean)
    4930                      .dwattr $C$DW$T$4, DW_AT_name("bool")
    4931                      .dwattr $C$DW$T$4, DW_AT_byte_size(0x01)
    4932              
    4933              $C$DW$T$5       .dwtag  DW_TAG_base_type
    4934                      .dwattr $C$DW$T$5, DW_AT_encoding(DW_ATE_signed_char)
    4935                      .dwattr $C$DW$T$5, DW_AT_name("signed char")
    4936                      .dwattr $C$DW$T$5, DW_AT_byte_size(0x01)
    4937              
    4938              $C$DW$T$6       .dwtag  DW_TAG_base_type
    4939                      .dwattr $C$DW$T$6, DW_AT_encoding(DW_ATE_unsigned_char)
    4940                      .dwattr $C$DW$T$6, DW_AT_name("unsigned char")
    4941                      .dwattr $C$DW$T$6, DW_AT_byte_size(0x01)
    4942              
    4943              $C$DW$T$19      .dwtag  DW_TAG_typedef
    4944                      .dwattr $C$DW$T$19, DW_AT_name("CPU_BOOLEAN")
TMS320C2000 Assembler PC v20.2.1 Tue Feb 16 00:15:56 2021

Copyright (c) 1996-2018 Texas Instruments Incorporated
lib_str.asm                                                          PAGE   93

    4945                      .dwattr $C$DW$T$19, DW_AT_type(*$C$DW$T$6)
    4946                      .dwattr $C$DW$T$19, DW_AT_language(DW_LANG_C)
    4947              
    4948              $C$DW$T$24      .dwtag  DW_TAG_pointer_type
    4949                      .dwattr $C$DW$T$24, DW_AT_type(*$C$DW$T$19)
    4950                      .dwattr $C$DW$T$24, DW_AT_address_class(0x20)
    4951              
    4952              $C$DW$T$25      .dwtag  DW_TAG_typedef
    4953                      .dwattr $C$DW$T$25, DW_AT_name("CPU_INT08U")
    4954                      .dwattr $C$DW$T$25, DW_AT_type(*$C$DW$T$6)
    4955                      .dwattr $C$DW$T$25, DW_AT_language(DW_LANG_C)
    4956              
    4957              $C$DW$T$7       .dwtag  DW_TAG_base_type
    4958                      .dwattr $C$DW$T$7, DW_AT_encoding(DW_ATE_signed_char)
    4959                      .dwattr $C$DW$T$7, DW_AT_name("wchar_t")
    4960                      .dwattr $C$DW$T$7, DW_AT_byte_size(0x01)
    4961              
    4962              $C$DW$T$8       .dwtag  DW_TAG_base_type
    4963                      .dwattr $C$DW$T$8, DW_AT_encoding(DW_ATE_signed)
    4964                      .dwattr $C$DW$T$8, DW_AT_name("short")
    4965                      .dwattr $C$DW$T$8, DW_AT_byte_size(0x01)
    4966              
    4967              $C$DW$T$26      .dwtag  DW_TAG_typedef
    4968                      .dwattr $C$DW$T$26, DW_AT_name("CPU_INT16S")
    4969                      .dwattr $C$DW$T$26, DW_AT_type(*$C$DW$T$8)
    4970                      .dwattr $C$DW$T$26, DW_AT_language(DW_LANG_C)
    4971              
    4972              $C$DW$T$9       .dwtag  DW_TAG_base_type
    4973                      .dwattr $C$DW$T$9, DW_AT_encoding(DW_ATE_unsigned)
    4974                      .dwattr $C$DW$T$9, DW_AT_name("unsigned short")
    4975                      .dwattr $C$DW$T$9, DW_AT_byte_size(0x01)
    4976              
    4977              $C$DW$T$35      .dwtag  DW_TAG_typedef
    4978                      .dwattr $C$DW$T$35, DW_AT_name("CPU_INT16U")
    4979                      .dwattr $C$DW$T$35, DW_AT_type(*$C$DW$T$9)
    4980                      .dwattr $C$DW$T$35, DW_AT_language(DW_LANG_C)
    4981              
    4982              $C$DW$T$36      .dwtag  DW_TAG_typedef
    4983                      .dwattr $C$DW$T$36, DW_AT_name("CPU_DATA")
    4984                      .dwattr $C$DW$T$36, DW_AT_type(*$C$DW$T$35)
    4985                      .dwattr $C$DW$T$36, DW_AT_language(DW_LANG_C)
    4986              
    4987              $C$DW$T$10      .dwtag  DW_TAG_base_type
    4988                      .dwattr $C$DW$T$10, DW_AT_encoding(DW_ATE_signed)
    4989                      .dwattr $C$DW$T$10, DW_AT_name("int")
    4990                      .dwattr $C$DW$T$10, DW_AT_byte_size(0x01)
    4991              
    4992              $C$DW$T$11      .dwtag  DW_TAG_base_type
    4993                      .dwattr $C$DW$T$11, DW_AT_encoding(DW_ATE_unsigned)
    4994                      .dwattr $C$DW$T$11, DW_AT_name("unsigned int")
    4995                      .dwattr $C$DW$T$11, DW_AT_byte_size(0x01)
    4996              
    4997              $C$DW$T$12      .dwtag  DW_TAG_base_type
    4998                      .dwattr $C$DW$T$12, DW_AT_encoding(DW_ATE_signed)
    4999                      .dwattr $C$DW$T$12, DW_AT_name("long")
TMS320C2000 Assembler PC v20.2.1 Tue Feb 16 00:15:56 2021

Copyright (c) 1996-2018 Texas Instruments Incorporated
lib_str.asm                                                          PAGE   94

    5000                      .dwattr $C$DW$T$12, DW_AT_byte_size(0x02)
    5001              
    5002              $C$DW$T$37      .dwtag  DW_TAG_typedef
    5003                      .dwattr $C$DW$T$37, DW_AT_name("CPU_INT32S")
    5004                      .dwattr $C$DW$T$37, DW_AT_type(*$C$DW$T$12)
    5005                      .dwattr $C$DW$T$37, DW_AT_language(DW_LANG_C)
    5006              
    5007              $C$DW$T$13      .dwtag  DW_TAG_base_type
    5008                      .dwattr $C$DW$T$13, DW_AT_encoding(DW_ATE_unsigned)
    5009                      .dwattr $C$DW$T$13, DW_AT_name("unsigned long")
    5010                      .dwattr $C$DW$T$13, DW_AT_byte_size(0x02)
    5011              
    5012              $C$DW$T$30      .dwtag  DW_TAG_typedef
    5013                      .dwattr $C$DW$T$30, DW_AT_name("CPU_INT32U")
    5014                      .dwattr $C$DW$T$30, DW_AT_type(*$C$DW$T$13)
    5015                      .dwattr $C$DW$T$30, DW_AT_language(DW_LANG_C)
    5016              
    5017              $C$DW$T$31      .dwtag  DW_TAG_typedef
    5018                      .dwattr $C$DW$T$31, DW_AT_name("CPU_ADDR")
    5019                      .dwattr $C$DW$T$31, DW_AT_type(*$C$DW$T$30)
    5020                      .dwattr $C$DW$T$31, DW_AT_language(DW_LANG_C)
    5021              
    5022              $C$DW$T$32      .dwtag  DW_TAG_typedef
    5023                      .dwattr $C$DW$T$32, DW_AT_name("CPU_SIZE_T")
    5024                      .dwattr $C$DW$T$32, DW_AT_type(*$C$DW$T$31)
    5025                      .dwattr $C$DW$T$32, DW_AT_language(DW_LANG_C)
    5026              
    5027              $C$DW$325       .dwtag  DW_TAG_TI_far_type
    5028                      .dwattr $C$DW$325, DW_AT_type(*$C$DW$T$30)
    5029              
    5030              $C$DW$T$44      .dwtag  DW_TAG_const_type
    5031                      .dwattr $C$DW$T$44, DW_AT_type(*$C$DW$325)
    5032              
    5033              
    5034              $C$DW$T$45      .dwtag  DW_TAG_array_type
    5035                      .dwattr $C$DW$T$45, DW_AT_type(*$C$DW$T$44)
    5036                      .dwattr $C$DW$T$45, DW_AT_language(DW_LANG_C)
    5037                      .dwattr $C$DW$T$45, DW_AT_byte_size(0x4a)
    5038              $C$DW$326       .dwtag  DW_TAG_subrange_type
    5039                      .dwattr $C$DW$326, DW_AT_upper_bound(0x24)
    5040              
    5041                      .dwendtag $C$DW$T$45
    5042              
    5043              $C$DW$T$14      .dwtag  DW_TAG_base_type
    5044                      .dwattr $C$DW$T$14, DW_AT_encoding(DW_ATE_signed)
    5045                      .dwattr $C$DW$T$14, DW_AT_name("long long")
    5046                      .dwattr $C$DW$T$14, DW_AT_byte_size(0x04)
    5047              
    5048              $C$DW$T$15      .dwtag  DW_TAG_base_type
    5049                      .dwattr $C$DW$T$15, DW_AT_encoding(DW_ATE_unsigned)
    5050                      .dwattr $C$DW$T$15, DW_AT_name("unsigned long long")
    5051                      .dwattr $C$DW$T$15, DW_AT_byte_size(0x04)
    5052              
    5053              $C$DW$T$16      .dwtag  DW_TAG_base_type
    5054                      .dwattr $C$DW$T$16, DW_AT_encoding(DW_ATE_float)
TMS320C2000 Assembler PC v20.2.1 Tue Feb 16 00:15:56 2021

Copyright (c) 1996-2018 Texas Instruments Incorporated
lib_str.asm                                                          PAGE   95

    5055                      .dwattr $C$DW$T$16, DW_AT_name("float")
    5056                      .dwattr $C$DW$T$16, DW_AT_byte_size(0x02)
    5057              
    5058              $C$DW$T$17      .dwtag  DW_TAG_base_type
    5059                      .dwattr $C$DW$T$17, DW_AT_encoding(DW_ATE_float)
    5060                      .dwattr $C$DW$T$17, DW_AT_name("double")
    5061                      .dwattr $C$DW$T$17, DW_AT_byte_size(0x02)
    5062              
    5063              $C$DW$T$18      .dwtag  DW_TAG_base_type
    5064                      .dwattr $C$DW$T$18, DW_AT_encoding(DW_ATE_float)
    5065                      .dwattr $C$DW$T$18, DW_AT_name("long double")
    5066                      .dwattr $C$DW$T$18, DW_AT_byte_size(0x04)
    5067              
    5068              $C$DW$T$21      .dwtag  DW_TAG_typedef
    5069                      .dwattr $C$DW$T$21, DW_AT_name("CPU_CHAR")
    5070                      .dwattr $C$DW$T$21, DW_AT_type(*$C$DW$T$5)
    5071                      .dwattr $C$DW$T$21, DW_AT_language(DW_LANG_C)
    5072              
    5073              $C$DW$327       .dwtag  DW_TAG_TI_far_type
    5074                      .dwattr $C$DW$327, DW_AT_type(*$C$DW$T$21)
    5075              
    5076              $C$DW$T$27      .dwtag  DW_TAG_const_type
    5077                      .dwattr $C$DW$T$27, DW_AT_type(*$C$DW$327)
    5078              
    5079              $C$DW$T$28      .dwtag  DW_TAG_pointer_type
    5080                      .dwattr $C$DW$T$28, DW_AT_type(*$C$DW$T$27)
    5081                      .dwattr $C$DW$T$28, DW_AT_address_class(0x20)
    5082              
    5083              $C$DW$T$38      .dwtag  DW_TAG_pointer_type
    5084                      .dwattr $C$DW$T$38, DW_AT_type(*$C$DW$T$21)
    5085                      .dwattr $C$DW$T$38, DW_AT_address_class(0x20)
    5086              
    5087              $C$DW$T$39      .dwtag  DW_TAG_pointer_type
    5088                      .dwattr $C$DW$T$39, DW_AT_type(*$C$DW$T$38)
    5089                      .dwattr $C$DW$T$39, DW_AT_address_class(0x20)
    5090              
    5091                      .dwattr $C$DW$CU, DW_AT_language(DW_LANG_C)
    5092              
    5093              ;***************************************************************
    5094              ;* DWARF CIE ENTRIES                                           *
    5095              ;***************************************************************
    5096              
    5097              $C$DW$CIE       .dwcie 26
    5098                      .dwcfi  cfa_register, 20
    5099                      .dwcfi  cfa_offset, 0
    5100                      .dwcfi  same_value, 28
    5101                      .dwcfi  same_value, 6
    5102                      .dwcfi  same_value, 7
    5103                      .dwcfi  same_value, 8
    5104                      .dwcfi  same_value, 9
    5105                      .dwcfi  same_value, 10
    5106                      .dwcfi  same_value, 11
    5107                      .dwendentry
    5108              
    5109              ;***************************************************************
TMS320C2000 Assembler PC v20.2.1 Tue Feb 16 00:15:56 2021

Copyright (c) 1996-2018 Texas Instruments Incorporated
lib_str.asm                                                          PAGE   96

    5110              ;* DWARF REGISTER MAP                                          *
    5111              ;***************************************************************
    5112              
    5113              $C$DW$328       .dwtag  DW_TAG_TI_assign_register
    5114                      .dwattr $C$DW$328, DW_AT_name("AL")
    5115                      .dwattr $C$DW$328, DW_AT_location[DW_OP_reg0]
    5116              
    5117              $C$DW$329       .dwtag  DW_TAG_TI_assign_register
    5118                      .dwattr $C$DW$329, DW_AT_name("AH")
    5119                      .dwattr $C$DW$329, DW_AT_location[DW_OP_reg1]
    5120              
    5121              $C$DW$330       .dwtag  DW_TAG_TI_assign_register
    5122                      .dwattr $C$DW$330, DW_AT_name("PL")
    5123                      .dwattr $C$DW$330, DW_AT_location[DW_OP_reg2]
    5124              
    5125              $C$DW$331       .dwtag  DW_TAG_TI_assign_register
    5126                      .dwattr $C$DW$331, DW_AT_name("PH")
    5127                      .dwattr $C$DW$331, DW_AT_location[DW_OP_reg3]
    5128              
    5129              $C$DW$332       .dwtag  DW_TAG_TI_assign_register
    5130                      .dwattr $C$DW$332, DW_AT_name("SP")
    5131                      .dwattr $C$DW$332, DW_AT_location[DW_OP_reg20]
    5132              
    5133              $C$DW$333       .dwtag  DW_TAG_TI_assign_register
    5134                      .dwattr $C$DW$333, DW_AT_name("XT")
    5135                      .dwattr $C$DW$333, DW_AT_location[DW_OP_reg21]
    5136              
    5137              $C$DW$334       .dwtag  DW_TAG_TI_assign_register
    5138                      .dwattr $C$DW$334, DW_AT_name("T")
    5139                      .dwattr $C$DW$334, DW_AT_location[DW_OP_reg22]
    5140              
    5141              $C$DW$335       .dwtag  DW_TAG_TI_assign_register
    5142                      .dwattr $C$DW$335, DW_AT_name("ST0")
    5143                      .dwattr $C$DW$335, DW_AT_location[DW_OP_reg23]
    5144              
    5145              $C$DW$336       .dwtag  DW_TAG_TI_assign_register
    5146                      .dwattr $C$DW$336, DW_AT_name("ST1")
    5147                      .dwattr $C$DW$336, DW_AT_location[DW_OP_reg24]
    5148              
    5149              $C$DW$337       .dwtag  DW_TAG_TI_assign_register
    5150                      .dwattr $C$DW$337, DW_AT_name("PC")
    5151                      .dwattr $C$DW$337, DW_AT_location[DW_OP_reg25]
    5152              
    5153              $C$DW$338       .dwtag  DW_TAG_TI_assign_register
    5154                      .dwattr $C$DW$338, DW_AT_name("RPC")
    5155                      .dwattr $C$DW$338, DW_AT_location[DW_OP_reg26]
    5156              
    5157              $C$DW$339       .dwtag  DW_TAG_TI_assign_register
    5158                      .dwattr $C$DW$339, DW_AT_name("FP")
    5159                      .dwattr $C$DW$339, DW_AT_location[DW_OP_reg28]
    5160              
    5161              $C$DW$340       .dwtag  DW_TAG_TI_assign_register
    5162                      .dwattr $C$DW$340, DW_AT_name("DP")
    5163                      .dwattr $C$DW$340, DW_AT_location[DW_OP_reg29]
    5164              
TMS320C2000 Assembler PC v20.2.1 Tue Feb 16 00:15:56 2021

Copyright (c) 1996-2018 Texas Instruments Incorporated
lib_str.asm                                                          PAGE   97

    5165              $C$DW$341       .dwtag  DW_TAG_TI_assign_register
    5166                      .dwattr $C$DW$341, DW_AT_name("SXM")
    5167                      .dwattr $C$DW$341, DW_AT_location[DW_OP_reg30]
    5168              
    5169              $C$DW$342       .dwtag  DW_TAG_TI_assign_register
    5170                      .dwattr $C$DW$342, DW_AT_name("PM")
    5171                      .dwattr $C$DW$342, DW_AT_location[DW_OP_reg31]
    5172              
    5173              $C$DW$343       .dwtag  DW_TAG_TI_assign_register
    5174                      .dwattr $C$DW$343, DW_AT_name("OVM")
    5175                      .dwattr $C$DW$343, DW_AT_location[DW_OP_regx 0x20]
    5176              
    5177              $C$DW$344       .dwtag  DW_TAG_TI_assign_register
    5178                      .dwattr $C$DW$344, DW_AT_name("PAGE0")
    5179                      .dwattr $C$DW$344, DW_AT_location[DW_OP_regx 0x21]
    5180              
    5181              $C$DW$345       .dwtag  DW_TAG_TI_assign_register
    5182                      .dwattr $C$DW$345, DW_AT_name("AMODE")
    5183                      .dwattr $C$DW$345, DW_AT_location[DW_OP_regx 0x22]
    5184              
    5185              $C$DW$346       .dwtag  DW_TAG_TI_assign_register
    5186                      .dwattr $C$DW$346, DW_AT_name("EALLOW")
    5187                      .dwattr $C$DW$346, DW_AT_location[DW_OP_regx 0x4e]
    5188              
    5189              $C$DW$347       .dwtag  DW_TAG_TI_assign_register
    5190                      .dwattr $C$DW$347, DW_AT_name("INTM")
    5191                      .dwattr $C$DW$347, DW_AT_location[DW_OP_regx 0x23]
    5192              
    5193              $C$DW$348       .dwtag  DW_TAG_TI_assign_register
    5194                      .dwattr $C$DW$348, DW_AT_name("IFR")
    5195                      .dwattr $C$DW$348, DW_AT_location[DW_OP_regx 0x24]
    5196              
    5197              $C$DW$349       .dwtag  DW_TAG_TI_assign_register
    5198                      .dwattr $C$DW$349, DW_AT_name("IER")
    5199                      .dwattr $C$DW$349, DW_AT_location[DW_OP_regx 0x25]
    5200              
    5201              $C$DW$350       .dwtag  DW_TAG_TI_assign_register
    5202                      .dwattr $C$DW$350, DW_AT_name("V")
    5203                      .dwattr $C$DW$350, DW_AT_location[DW_OP_regx 0x26]
    5204              
    5205              $C$DW$351       .dwtag  DW_TAG_TI_assign_register
    5206                      .dwattr $C$DW$351, DW_AT_name("PSEUDOH")
    5207                      .dwattr $C$DW$351, DW_AT_location[DW_OP_regx 0x4c]
    5208              
    5209              $C$DW$352       .dwtag  DW_TAG_TI_assign_register
    5210                      .dwattr $C$DW$352, DW_AT_name("VOL")
    5211                      .dwattr $C$DW$352, DW_AT_location[DW_OP_regx 0x4d]
    5212              
    5213              $C$DW$353       .dwtag  DW_TAG_TI_assign_register
    5214                      .dwattr $C$DW$353, DW_AT_name("AR0")
    5215                      .dwattr $C$DW$353, DW_AT_location[DW_OP_reg4]
    5216              
    5217              $C$DW$354       .dwtag  DW_TAG_TI_assign_register
    5218                      .dwattr $C$DW$354, DW_AT_name("XAR0")
    5219                      .dwattr $C$DW$354, DW_AT_location[DW_OP_reg5]
TMS320C2000 Assembler PC v20.2.1 Tue Feb 16 00:15:56 2021

Copyright (c) 1996-2018 Texas Instruments Incorporated
lib_str.asm                                                          PAGE   98

    5220              
    5221              $C$DW$355       .dwtag  DW_TAG_TI_assign_register
    5222                      .dwattr $C$DW$355, DW_AT_name("AR1")
    5223                      .dwattr $C$DW$355, DW_AT_location[DW_OP_reg6]
    5224              
    5225              $C$DW$356       .dwtag  DW_TAG_TI_assign_register
    5226                      .dwattr $C$DW$356, DW_AT_name("XAR1")
    5227                      .dwattr $C$DW$356, DW_AT_location[DW_OP_reg7]
    5228              
    5229              $C$DW$357       .dwtag  DW_TAG_TI_assign_register
    5230                      .dwattr $C$DW$357, DW_AT_name("AR2")
    5231                      .dwattr $C$DW$357, DW_AT_location[DW_OP_reg8]
    5232              
    5233              $C$DW$358       .dwtag  DW_TAG_TI_assign_register
    5234                      .dwattr $C$DW$358, DW_AT_name("XAR2")
    5235                      .dwattr $C$DW$358, DW_AT_location[DW_OP_reg9]
    5236              
    5237              $C$DW$359       .dwtag  DW_TAG_TI_assign_register
    5238                      .dwattr $C$DW$359, DW_AT_name("AR3")
    5239                      .dwattr $C$DW$359, DW_AT_location[DW_OP_reg10]
    5240              
    5241              $C$DW$360       .dwtag  DW_TAG_TI_assign_register
    5242                      .dwattr $C$DW$360, DW_AT_name("XAR3")
    5243                      .dwattr $C$DW$360, DW_AT_location[DW_OP_reg11]
    5244              
    5245              $C$DW$361       .dwtag  DW_TAG_TI_assign_register
    5246                      .dwattr $C$DW$361, DW_AT_name("AR4")
    5247                      .dwattr $C$DW$361, DW_AT_location[DW_OP_reg12]
    5248              
    5249              $C$DW$362       .dwtag  DW_TAG_TI_assign_register
    5250                      .dwattr $C$DW$362, DW_AT_name("XAR4")
    5251                      .dwattr $C$DW$362, DW_AT_location[DW_OP_reg13]
    5252              
    5253              $C$DW$363       .dwtag  DW_TAG_TI_assign_register
    5254                      .dwattr $C$DW$363, DW_AT_name("AR5")
    5255                      .dwattr $C$DW$363, DW_AT_location[DW_OP_reg14]
    5256              
    5257              $C$DW$364       .dwtag  DW_TAG_TI_assign_register
    5258                      .dwattr $C$DW$364, DW_AT_name("XAR5")
    5259                      .dwattr $C$DW$364, DW_AT_location[DW_OP_reg15]
    5260              
    5261              $C$DW$365       .dwtag  DW_TAG_TI_assign_register
    5262                      .dwattr $C$DW$365, DW_AT_name("AR6")
    5263                      .dwattr $C$DW$365, DW_AT_location[DW_OP_reg16]
    5264              
    5265              $C$DW$366       .dwtag  DW_TAG_TI_assign_register
    5266                      .dwattr $C$DW$366, DW_AT_name("XAR6")
    5267                      .dwattr $C$DW$366, DW_AT_location[DW_OP_reg17]
    5268              
    5269              $C$DW$367       .dwtag  DW_TAG_TI_assign_register
    5270                      .dwattr $C$DW$367, DW_AT_name("AR7")
    5271                      .dwattr $C$DW$367, DW_AT_location[DW_OP_reg18]
    5272              
    5273              $C$DW$368       .dwtag  DW_TAG_TI_assign_register
    5274                      .dwattr $C$DW$368, DW_AT_name("XAR7")
TMS320C2000 Assembler PC v20.2.1 Tue Feb 16 00:15:56 2021

Copyright (c) 1996-2018 Texas Instruments Incorporated
lib_str.asm                                                          PAGE   99

    5275                      .dwattr $C$DW$368, DW_AT_location[DW_OP_reg19]
    5276              
    5277                      .dwendtag $C$DW$CU
    5278              

No Assembly Errors, No Assembly Warnings
