TMS320C2000 Assembler PC v20.2.1 Tue Feb 16 00:15:57 2021

Copyright (c) 1996-2018 Texas Instruments Incorporated
os_core.asm                                                          PAGE    1

       1              ;***************************************************************
       2              ;* TMS320C2000 G3 C/C++ Codegen                               PC v20.2.1.LTS *
       3              ;* Date/Time created: Tue Feb 16 00:15:57 2021                 *
       4              ;***************************************************************
       5                      .compiler_opts --abi=coffabi --diag_wrap=off --float_support=softlib --hll_source=on --mem_model:code
       6                      .asg    XAR2, FP
       7              
       8              $C$DW$CU        .dwtag  DW_TAG_compile_unit
       9                      .dwattr $C$DW$CU, DW_AT_name("C:/ti/Workspace/PLC_certificate/Software/uCOS-II/Source/os_core.c")
      10                      .dwattr $C$DW$CU, DW_AT_producer("TI TMS320C2000 G3 C/C++ Codegen PC v20.2.1.LTS Copyright (c) 1996-2
      11                      .dwattr $C$DW$CU, DW_AT_TI_version(0x01)
      12                      .dwattr $C$DW$CU, DW_AT_comp_dir("C:\ti\Workspace\PLC_certificate\Examples\TI\TMDSDOCK28335\OS2\CCS\D
      13              
      14              $C$DW$1 .dwtag  DW_TAG_subprogram
      15                      .dwattr $C$DW$1, DW_AT_name("OS_CPU_SR_Restore")
      16                      .dwattr $C$DW$1, DW_AT_TI_symbol_name("_OS_CPU_SR_Restore")
      17                      .dwattr $C$DW$1, DW_AT_declaration
      18                      .dwattr $C$DW$1, DW_AT_external
      19              $C$DW$2 .dwtag  DW_TAG_formal_parameter
      20                      .dwattr $C$DW$2, DW_AT_type(*$C$DW$T$44)
      21              
      22                      .dwendtag $C$DW$1
      23              
      24              
      25              $C$DW$3 .dwtag  DW_TAG_subprogram
      26                      .dwattr $C$DW$3, DW_AT_name("OSInitHookBegin")
      27                      .dwattr $C$DW$3, DW_AT_TI_symbol_name("_OSInitHookBegin")
      28                      .dwattr $C$DW$3, DW_AT_declaration
      29                      .dwattr $C$DW$3, DW_AT_external
      30                      .dwendtag $C$DW$3
      31              
      32              
      33              $C$DW$4 .dwtag  DW_TAG_subprogram
      34                      .dwattr $C$DW$4, DW_AT_name("OS_FlagInit")
      35                      .dwattr $C$DW$4, DW_AT_TI_symbol_name("_OS_FlagInit")
      36                      .dwattr $C$DW$4, DW_AT_declaration
      37                      .dwattr $C$DW$4, DW_AT_external
      38                      .dwendtag $C$DW$4
      39              
      40              
      41              $C$DW$5 .dwtag  DW_TAG_subprogram
      42                      .dwattr $C$DW$5, DW_AT_name("OS_MemInit")
      43                      .dwattr $C$DW$5, DW_AT_TI_symbol_name("_OS_MemInit")
      44                      .dwattr $C$DW$5, DW_AT_declaration
      45                      .dwattr $C$DW$5, DW_AT_external
      46                      .dwendtag $C$DW$5
      47              
      48              
      49              $C$DW$6 .dwtag  DW_TAG_subprogram
      50                      .dwattr $C$DW$6, DW_AT_name("OS_QInit")
      51                      .dwattr $C$DW$6, DW_AT_TI_symbol_name("_OS_QInit")
      52                      .dwattr $C$DW$6, DW_AT_declaration
      53                      .dwattr $C$DW$6, DW_AT_external
      54                      .dwendtag $C$DW$6
      55              
TMS320C2000 Assembler PC v20.2.1 Tue Feb 16 00:15:57 2021

Copyright (c) 1996-2018 Texas Instruments Incorporated
os_core.asm                                                          PAGE    2

      56              
      57              $C$DW$7 .dwtag  DW_TAG_subprogram
      58                      .dwattr $C$DW$7, DW_AT_name("OSInitHookEnd")
      59                      .dwattr $C$DW$7, DW_AT_TI_symbol_name("_OSInitHookEnd")
      60                      .dwattr $C$DW$7, DW_AT_declaration
      61                      .dwattr $C$DW$7, DW_AT_external
      62                      .dwendtag $C$DW$7
      63              
      64              
      65              $C$DW$8 .dwtag  DW_TAG_subprogram
      66                      .dwattr $C$DW$8, DW_AT_name("OSDebugInit")
      67                      .dwattr $C$DW$8, DW_AT_TI_symbol_name("_OSDebugInit")
      68                      .dwattr $C$DW$8, DW_AT_declaration
      69                      .dwattr $C$DW$8, DW_AT_external
      70                      .dwendtag $C$DW$8
      71              
      72              
      73              $C$DW$9 .dwtag  DW_TAG_subprogram
      74                      .dwattr $C$DW$9, DW_AT_name("OSStartHighRdy")
      75                      .dwattr $C$DW$9, DW_AT_TI_symbol_name("_OSStartHighRdy")
      76                      .dwattr $C$DW$9, DW_AT_declaration
      77                      .dwattr $C$DW$9, DW_AT_external
      78                      .dwendtag $C$DW$9
      79              
      80              
      81              $C$DW$10        .dwtag  DW_TAG_subprogram
      82                      .dwattr $C$DW$10, DW_AT_name("OSTimeDly")
      83                      .dwattr $C$DW$10, DW_AT_TI_symbol_name("_OSTimeDly")
      84                      .dwattr $C$DW$10, DW_AT_declaration
      85                      .dwattr $C$DW$10, DW_AT_external
      86              $C$DW$11        .dwtag  DW_TAG_formal_parameter
      87                      .dwattr $C$DW$11, DW_AT_type(*$C$DW$T$28)
      88              
      89                      .dwendtag $C$DW$10
      90              
      91              
      92              $C$DW$12        .dwtag  DW_TAG_subprogram
      93                      .dwattr $C$DW$12, DW_AT_name("OSTimeTickHook")
      94                      .dwattr $C$DW$12, DW_AT_TI_symbol_name("_OSTimeTickHook")
      95                      .dwattr $C$DW$12, DW_AT_declaration
      96                      .dwattr $C$DW$12, DW_AT_external
      97                      .dwendtag $C$DW$12
      98              
      99              
     100              $C$DW$13        .dwtag  DW_TAG_subprogram
     101                      .dwattr $C$DW$13, DW_AT_name("OSTaskNameSet")
     102                      .dwattr $C$DW$13, DW_AT_TI_symbol_name("_OSTaskNameSet")
     103                      .dwattr $C$DW$13, DW_AT_declaration
     104                      .dwattr $C$DW$13, DW_AT_external
     105              $C$DW$14        .dwtag  DW_TAG_formal_parameter
     106                      .dwattr $C$DW$14, DW_AT_type(*$C$DW$T$19)
     107              
     108              $C$DW$15        .dwtag  DW_TAG_formal_parameter
     109                      .dwattr $C$DW$15, DW_AT_type(*$C$DW$T$23)
     110              
TMS320C2000 Assembler PC v20.2.1 Tue Feb 16 00:15:57 2021

Copyright (c) 1996-2018 Texas Instruments Incorporated
os_core.asm                                                          PAGE    3

     111              $C$DW$16        .dwtag  DW_TAG_formal_parameter
     112                      .dwattr $C$DW$16, DW_AT_type(*$C$DW$T$23)
     113              
     114                      .dwendtag $C$DW$13
     115              
     116              
     117              $C$DW$17        .dwtag  DW_TAG_subprogram
     118                      .dwattr $C$DW$17, DW_AT_name("OSTaskIdleHook")
     119                      .dwattr $C$DW$17, DW_AT_TI_symbol_name("_OSTaskIdleHook")
     120                      .dwattr $C$DW$17, DW_AT_declaration
     121                      .dwattr $C$DW$17, DW_AT_external
     122                      .dwendtag $C$DW$17
     123              
     124              
     125              $C$DW$18        .dwtag  DW_TAG_subprogram
     126                      .dwattr $C$DW$18, DW_AT_name("OSTaskStatHook")
     127                      .dwattr $C$DW$18, DW_AT_TI_symbol_name("_OSTaskStatHook")
     128                      .dwattr $C$DW$18, DW_AT_declaration
     129                      .dwattr $C$DW$18, DW_AT_external
     130                      .dwendtag $C$DW$18
     131              
     132              
     133              $C$DW$19        .dwtag  DW_TAG_subprogram
     134                      .dwattr $C$DW$19, DW_AT_name("OSTCBInitHook")
     135                      .dwattr $C$DW$19, DW_AT_TI_symbol_name("_OSTCBInitHook")
     136                      .dwattr $C$DW$19, DW_AT_declaration
     137                      .dwattr $C$DW$19, DW_AT_external
     138              $C$DW$20        .dwtag  DW_TAG_formal_parameter
     139                      .dwattr $C$DW$20, DW_AT_type(*$C$DW$T$56)
     140              
     141                      .dwendtag $C$DW$19
     142              
     143              
     144              $C$DW$21        .dwtag  DW_TAG_subprogram
     145                      .dwattr $C$DW$21, DW_AT_name("OSTaskCreateHook")
     146                      .dwattr $C$DW$21, DW_AT_TI_symbol_name("_OSTaskCreateHook")
     147                      .dwattr $C$DW$21, DW_AT_declaration
     148                      .dwattr $C$DW$21, DW_AT_external
     149              $C$DW$22        .dwtag  DW_TAG_formal_parameter
     150                      .dwattr $C$DW$22, DW_AT_type(*$C$DW$T$56)
     151              
     152                      .dwendtag $C$DW$21
     153              
     154                      .global _OSCPUUsage
     155 00000000       _OSCPUUsage:    .usect  ".ebss",1,1,0
     156              $C$DW$23        .dwtag  DW_TAG_variable
     157                      .dwattr $C$DW$23, DW_AT_name("OSCPUUsage")
     158                      .dwattr $C$DW$23, DW_AT_TI_symbol_name("_OSCPUUsage")
     159                      .dwattr $C$DW$23, DW_AT_location[DW_OP_addr _OSCPUUsage]
     160                      .dwattr $C$DW$23, DW_AT_type(*$C$DW$T$19)
     161                      .dwattr $C$DW$23, DW_AT_external
     162              
     163                      .global _OSStatRdy
     164 00000001       _OSStatRdy:     .usect  ".ebss",1,1,0
     165              $C$DW$24        .dwtag  DW_TAG_variable
TMS320C2000 Assembler PC v20.2.1 Tue Feb 16 00:15:57 2021

Copyright (c) 1996-2018 Texas Instruments Incorporated
os_core.asm                                                          PAGE    4

     166                      .dwattr $C$DW$24, DW_AT_name("OSStatRdy")
     167                      .dwattr $C$DW$24, DW_AT_TI_symbol_name("_OSStatRdy")
     168                      .dwattr $C$DW$24, DW_AT_location[DW_OP_addr _OSStatRdy]
     169                      .dwattr $C$DW$24, DW_AT_type(*$C$DW$T$70)
     170                      .dwattr $C$DW$24, DW_AT_external
     171              
     172                      .global _OSIntNesting
     173 00000002       _OSIntNesting:  .usect  ".ebss",1,1,0
     174              $C$DW$25        .dwtag  DW_TAG_variable
     175                      .dwattr $C$DW$25, DW_AT_name("OSIntNesting")
     176                      .dwattr $C$DW$25, DW_AT_TI_symbol_name("_OSIntNesting")
     177                      .dwattr $C$DW$25, DW_AT_location[DW_OP_addr _OSIntNesting]
     178                      .dwattr $C$DW$25, DW_AT_type(*$C$DW$T$19)
     179                      .dwattr $C$DW$25, DW_AT_external
     180              
     181                      .global _OSLockNesting
     182 00000003       _OSLockNesting: .usect  ".ebss",1,1,0
     183              $C$DW$26        .dwtag  DW_TAG_variable
     184                      .dwattr $C$DW$26, DW_AT_name("OSLockNesting")
     185                      .dwattr $C$DW$26, DW_AT_TI_symbol_name("_OSLockNesting")
     186                      .dwattr $C$DW$26, DW_AT_location[DW_OP_addr _OSLockNesting]
     187                      .dwattr $C$DW$26, DW_AT_type(*$C$DW$T$19)
     188                      .dwattr $C$DW$26, DW_AT_external
     189              
     190                      .global _OSPrioCur
     191 00000004       _OSPrioCur:     .usect  ".ebss",1,1,0
     192              $C$DW$27        .dwtag  DW_TAG_variable
     193                      .dwattr $C$DW$27, DW_AT_name("OSPrioCur")
     194                      .dwattr $C$DW$27, DW_AT_TI_symbol_name("_OSPrioCur")
     195                      .dwattr $C$DW$27, DW_AT_location[DW_OP_addr _OSPrioCur]
     196                      .dwattr $C$DW$27, DW_AT_type(*$C$DW$T$19)
     197                      .dwattr $C$DW$27, DW_AT_external
     198              
     199                      .global _OSPrioHighRdy
     200 00000005       _OSPrioHighRdy: .usect  ".ebss",1,1,0
     201              $C$DW$28        .dwtag  DW_TAG_variable
     202                      .dwattr $C$DW$28, DW_AT_name("OSPrioHighRdy")
     203                      .dwattr $C$DW$28, DW_AT_TI_symbol_name("_OSPrioHighRdy")
     204                      .dwattr $C$DW$28, DW_AT_location[DW_OP_addr _OSPrioHighRdy]
     205                      .dwattr $C$DW$28, DW_AT_type(*$C$DW$T$19)
     206                      .dwattr $C$DW$28, DW_AT_external
     207              
     208                      .global _OSRdyGrp
     209 00000006       _OSRdyGrp:      .usect  ".ebss",1,1,0
     210              $C$DW$29        .dwtag  DW_TAG_variable
     211                      .dwattr $C$DW$29, DW_AT_name("OSRdyGrp")
     212                      .dwattr $C$DW$29, DW_AT_TI_symbol_name("_OSRdyGrp")
     213                      .dwattr $C$DW$29, DW_AT_location[DW_OP_addr _OSRdyGrp]
     214                      .dwattr $C$DW$29, DW_AT_type(*$C$DW$T$21)
     215                      .dwattr $C$DW$29, DW_AT_external
     216              
     217                      .global _OSRunning
     218 00000007       _OSRunning:     .usect  ".ebss",1,1,0
     219              $C$DW$30        .dwtag  DW_TAG_variable
     220                      .dwattr $C$DW$30, DW_AT_name("OSRunning")
TMS320C2000 Assembler PC v20.2.1 Tue Feb 16 00:15:57 2021

Copyright (c) 1996-2018 Texas Instruments Incorporated
os_core.asm                                                          PAGE    5

     221                      .dwattr $C$DW$30, DW_AT_TI_symbol_name("_OSRunning")
     222                      .dwattr $C$DW$30, DW_AT_location[DW_OP_addr _OSRunning]
     223                      .dwattr $C$DW$30, DW_AT_type(*$C$DW$T$70)
     224                      .dwattr $C$DW$30, DW_AT_external
     225              
     226                      .global _OSTaskCtr
     227 00000008       _OSTaskCtr:     .usect  ".ebss",1,1,0
     228              $C$DW$31        .dwtag  DW_TAG_variable
     229                      .dwattr $C$DW$31, DW_AT_name("OSTaskCtr")
     230                      .dwattr $C$DW$31, DW_AT_TI_symbol_name("_OSTaskCtr")
     231                      .dwattr $C$DW$31, DW_AT_location[DW_OP_addr _OSTaskCtr]
     232                      .dwattr $C$DW$31, DW_AT_type(*$C$DW$T$19)
     233                      .dwattr $C$DW$31, DW_AT_external
     234              
     235                      .global _OSTickStepState
     236 00000009       _OSTickStepState:       .usect  ".ebss",1,1,0
     237              $C$DW$32        .dwtag  DW_TAG_variable
     238                      .dwattr $C$DW$32, DW_AT_name("OSTickStepState")
     239                      .dwattr $C$DW$32, DW_AT_TI_symbol_name("_OSTickStepState")
     240                      .dwattr $C$DW$32, DW_AT_location[DW_OP_addr _OSTickStepState]
     241                      .dwattr $C$DW$32, DW_AT_type(*$C$DW$T$19)
     242                      .dwattr $C$DW$32, DW_AT_external
     243              
     244                      .global _OSTaskRegNextAvailID
     245 0000000a       _OSTaskRegNextAvailID:  .usect  ".ebss",1,1,0
     246              $C$DW$33        .dwtag  DW_TAG_variable
     247                      .dwattr $C$DW$33, DW_AT_name("OSTaskRegNextAvailID")
     248                      .dwattr $C$DW$33, DW_AT_TI_symbol_name("_OSTaskRegNextAvailID")
     249                      .dwattr $C$DW$33, DW_AT_location[DW_OP_addr _OSTaskRegNextAvailID]
     250                      .dwattr $C$DW$33, DW_AT_type(*$C$DW$T$19)
     251                      .dwattr $C$DW$33, DW_AT_external
     252              
     253              $C$DW$34        .dwtag  DW_TAG_variable
     254                      .dwattr $C$DW$34, DW_AT_name("TaskID")
     255                      .dwattr $C$DW$34, DW_AT_TI_symbol_name("_TaskID")
     256                      .dwattr $C$DW$34, DW_AT_type(*$C$DW$T$19)
     257                      .dwattr $C$DW$34, DW_AT_declaration
     258                      .dwattr $C$DW$34, DW_AT_external
     259              
     260              
     261              $C$DW$35        .dwtag  DW_TAG_subprogram
     262                      .dwattr $C$DW$35, DW_AT_name("OS_CPU_SR_Save")
     263                      .dwattr $C$DW$35, DW_AT_TI_symbol_name("_OS_CPU_SR_Save")
     264                      .dwattr $C$DW$35, DW_AT_type(*$C$DW$T$44)
     265                      .dwattr $C$DW$35, DW_AT_declaration
     266                      .dwattr $C$DW$35, DW_AT_external
     267                      .dwendtag $C$DW$35
     268              
     269              
     270              $C$DW$36        .dwtag  DW_TAG_subprogram
     271                      .dwattr $C$DW$36, DW_AT_name("OSTaskCreateExt")
     272                      .dwattr $C$DW$36, DW_AT_TI_symbol_name("_OSTaskCreateExt")
     273                      .dwattr $C$DW$36, DW_AT_type(*$C$DW$T$19)
     274                      .dwattr $C$DW$36, DW_AT_declaration
     275                      .dwattr $C$DW$36, DW_AT_external
TMS320C2000 Assembler PC v20.2.1 Tue Feb 16 00:15:57 2021

Copyright (c) 1996-2018 Texas Instruments Incorporated
os_core.asm                                                          PAGE    6

     276              $C$DW$37        .dwtag  DW_TAG_formal_parameter
     277                      .dwattr $C$DW$37, DW_AT_type(*$C$DW$T$50)
     278              
     279              $C$DW$38        .dwtag  DW_TAG_formal_parameter
     280                      .dwattr $C$DW$38, DW_AT_type(*$C$DW$T$3)
     281              
     282              $C$DW$39        .dwtag  DW_TAG_formal_parameter
     283                      .dwattr $C$DW$39, DW_AT_type(*$C$DW$T$35)
     284              
     285              $C$DW$40        .dwtag  DW_TAG_formal_parameter
     286                      .dwattr $C$DW$40, DW_AT_type(*$C$DW$T$19)
     287              
     288              $C$DW$41        .dwtag  DW_TAG_formal_parameter
     289                      .dwattr $C$DW$41, DW_AT_type(*$C$DW$T$20)
     290              
     291              $C$DW$42        .dwtag  DW_TAG_formal_parameter
     292                      .dwattr $C$DW$42, DW_AT_type(*$C$DW$T$35)
     293              
     294              $C$DW$43        .dwtag  DW_TAG_formal_parameter
     295                      .dwattr $C$DW$43, DW_AT_type(*$C$DW$T$28)
     296              
     297              $C$DW$44        .dwtag  DW_TAG_formal_parameter
     298                      .dwattr $C$DW$44, DW_AT_type(*$C$DW$T$3)
     299              
     300              $C$DW$45        .dwtag  DW_TAG_formal_parameter
     301                      .dwattr $C$DW$45, DW_AT_type(*$C$DW$T$20)
     302              
     303                      .dwendtag $C$DW$36
     304              
     305              
     306              $C$DW$46        .dwtag  DW_TAG_subprogram
     307                      .dwattr $C$DW$46, DW_AT_name("OSTaskSuspend")
     308                      .dwattr $C$DW$46, DW_AT_TI_symbol_name("_OSTaskSuspend")
     309                      .dwattr $C$DW$46, DW_AT_type(*$C$DW$T$19)
     310                      .dwattr $C$DW$46, DW_AT_declaration
     311                      .dwattr $C$DW$46, DW_AT_external
     312              $C$DW$47        .dwtag  DW_TAG_formal_parameter
     313                      .dwattr $C$DW$47, DW_AT_type(*$C$DW$T$19)
     314              
     315                      .dwendtag $C$DW$46
     316              
     317              
     318              $C$DW$48        .dwtag  DW_TAG_subprogram
     319                      .dwattr $C$DW$48, DW_AT_name("OSTimeDlyHMSM")
     320                      .dwattr $C$DW$48, DW_AT_TI_symbol_name("_OSTimeDlyHMSM")
     321                      .dwattr $C$DW$48, DW_AT_type(*$C$DW$T$19)
     322                      .dwattr $C$DW$48, DW_AT_declaration
     323                      .dwattr $C$DW$48, DW_AT_external
     324              $C$DW$49        .dwtag  DW_TAG_formal_parameter
     325                      .dwattr $C$DW$49, DW_AT_type(*$C$DW$T$19)
     326              
     327              $C$DW$50        .dwtag  DW_TAG_formal_parameter
     328                      .dwattr $C$DW$50, DW_AT_type(*$C$DW$T$19)
     329              
     330              $C$DW$51        .dwtag  DW_TAG_formal_parameter
TMS320C2000 Assembler PC v20.2.1 Tue Feb 16 00:15:57 2021

Copyright (c) 1996-2018 Texas Instruments Incorporated
os_core.asm                                                          PAGE    7

     331                      .dwattr $C$DW$51, DW_AT_type(*$C$DW$T$19)
     332              
     333              $C$DW$52        .dwtag  DW_TAG_formal_parameter
     334                      .dwattr $C$DW$52, DW_AT_type(*$C$DW$T$20)
     335              
     336                      .dwendtag $C$DW$48
     337              
     338              
     339              $C$DW$53        .dwtag  DW_TAG_subprogram
     340                      .dwattr $C$DW$53, DW_AT_name("OSTaskStkChk")
     341                      .dwattr $C$DW$53, DW_AT_TI_symbol_name("_OSTaskStkChk")
     342                      .dwattr $C$DW$53, DW_AT_type(*$C$DW$T$19)
     343                      .dwattr $C$DW$53, DW_AT_declaration
     344                      .dwattr $C$DW$53, DW_AT_external
     345              $C$DW$54        .dwtag  DW_TAG_formal_parameter
     346                      .dwattr $C$DW$54, DW_AT_type(*$C$DW$T$19)
     347              
     348              $C$DW$55        .dwtag  DW_TAG_formal_parameter
     349                      .dwattr $C$DW$55, DW_AT_type(*$C$DW$T$81)
     350              
     351                      .dwendtag $C$DW$53
     352              
     353                      .global _OSCtxSwCtr
     354 0000000c       _OSCtxSwCtr:    .usect  ".ebss",2,1,1
     355              $C$DW$56        .dwtag  DW_TAG_variable
     356                      .dwattr $C$DW$56, DW_AT_name("OSCtxSwCtr")
     357                      .dwattr $C$DW$56, DW_AT_TI_symbol_name("_OSCtxSwCtr")
     358                      .dwattr $C$DW$56, DW_AT_location[DW_OP_addr _OSCtxSwCtr]
     359                      .dwattr $C$DW$56, DW_AT_type(*$C$DW$T$28)
     360                      .dwattr $C$DW$56, DW_AT_external
     361              
     362                      .global _OSEventFreeList
     363 0000000e       _OSEventFreeList:       .usect  ".ebss",2,1,1
     364              $C$DW$57        .dwtag  DW_TAG_variable
     365                      .dwattr $C$DW$57, DW_AT_name("OSEventFreeList")
     366                      .dwattr $C$DW$57, DW_AT_TI_symbol_name("_OSEventFreeList")
     367                      .dwattr $C$DW$57, DW_AT_location[DW_OP_addr _OSEventFreeList]
     368                      .dwattr $C$DW$57, DW_AT_type(*$C$DW$T$38)
     369                      .dwattr $C$DW$57, DW_AT_external
     370              
     371                      .global _OSFlagFreeList
     372 00000010       _OSFlagFreeList:        .usect  ".ebss",2,1,1
     373              $C$DW$58        .dwtag  DW_TAG_variable
     374                      .dwattr $C$DW$58, DW_AT_name("OSFlagFreeList")
     375                      .dwattr $C$DW$58, DW_AT_TI_symbol_name("_OSFlagFreeList")
     376                      .dwattr $C$DW$58, DW_AT_location[DW_OP_addr _OSFlagFreeList]
     377                      .dwattr $C$DW$58, DW_AT_type(*$C$DW$T$103)
     378                      .dwattr $C$DW$58, DW_AT_external
     379              
     380                      .global _OSIdleCtrMax
     381 00000012       _OSIdleCtrMax:  .usect  ".ebss",2,1,1
     382              $C$DW$59        .dwtag  DW_TAG_variable
     383                      .dwattr $C$DW$59, DW_AT_name("OSIdleCtrMax")
     384                      .dwattr $C$DW$59, DW_AT_TI_symbol_name("_OSIdleCtrMax")
     385                      .dwattr $C$DW$59, DW_AT_location[DW_OP_addr _OSIdleCtrMax]
TMS320C2000 Assembler PC v20.2.1 Tue Feb 16 00:15:57 2021

Copyright (c) 1996-2018 Texas Instruments Incorporated
os_core.asm                                                          PAGE    8

     386                      .dwattr $C$DW$59, DW_AT_type(*$C$DW$T$28)
     387                      .dwattr $C$DW$59, DW_AT_external
     388              
     389                      .global _OSIdleCtrRun
     390 00000014       _OSIdleCtrRun:  .usect  ".ebss",2,1,1
     391              $C$DW$60        .dwtag  DW_TAG_variable
     392                      .dwattr $C$DW$60, DW_AT_name("OSIdleCtrRun")
     393                      .dwattr $C$DW$60, DW_AT_TI_symbol_name("_OSIdleCtrRun")
     394                      .dwattr $C$DW$60, DW_AT_location[DW_OP_addr _OSIdleCtrRun]
     395                      .dwattr $C$DW$60, DW_AT_type(*$C$DW$T$28)
     396                      .dwattr $C$DW$60, DW_AT_external
     397              
     398                      .global _OSIdleCtr
     399 00000016       _OSIdleCtr:     .usect  ".ebss",2,1,1
     400              $C$DW$61        .dwtag  DW_TAG_variable
     401                      .dwattr $C$DW$61, DW_AT_name("OSIdleCtr")
     402                      .dwattr $C$DW$61, DW_AT_TI_symbol_name("_OSIdleCtr")
     403                      .dwattr $C$DW$61, DW_AT_location[DW_OP_addr _OSIdleCtr]
     404                      .dwattr $C$DW$61, DW_AT_type(*$C$DW$T$96)
     405                      .dwattr $C$DW$61, DW_AT_external
     406              
     407                      .global _OSTCBCur
     408 00000018       _OSTCBCur:      .usect  ".ebss",2,1,1
     409              $C$DW$62        .dwtag  DW_TAG_variable
     410                      .dwattr $C$DW$62, DW_AT_name("OSTCBCur")
     411                      .dwattr $C$DW$62, DW_AT_TI_symbol_name("_OSTCBCur")
     412                      .dwattr $C$DW$62, DW_AT_location[DW_OP_addr _OSTCBCur]
     413                      .dwattr $C$DW$62, DW_AT_type(*$C$DW$T$56)
     414                      .dwattr $C$DW$62, DW_AT_external
     415              
     416                      .global _OSTCBFreeList
     417 0000001a       _OSTCBFreeList: .usect  ".ebss",2,1,1
     418              $C$DW$63        .dwtag  DW_TAG_variable
     419                      .dwattr $C$DW$63, DW_AT_name("OSTCBFreeList")
     420                      .dwattr $C$DW$63, DW_AT_TI_symbol_name("_OSTCBFreeList")
     421                      .dwattr $C$DW$63, DW_AT_location[DW_OP_addr _OSTCBFreeList]
     422                      .dwattr $C$DW$63, DW_AT_type(*$C$DW$T$56)
     423                      .dwattr $C$DW$63, DW_AT_external
     424              
     425                      .global _OSTCBHighRdy
     426 0000001c       _OSTCBHighRdy:  .usect  ".ebss",2,1,1
     427              $C$DW$64        .dwtag  DW_TAG_variable
     428                      .dwattr $C$DW$64, DW_AT_name("OSTCBHighRdy")
     429                      .dwattr $C$DW$64, DW_AT_TI_symbol_name("_OSTCBHighRdy")
     430                      .dwattr $C$DW$64, DW_AT_location[DW_OP_addr _OSTCBHighRdy]
     431                      .dwattr $C$DW$64, DW_AT_type(*$C$DW$T$56)
     432                      .dwattr $C$DW$64, DW_AT_external
     433              
     434                      .global _OSTCBList
     435 0000001e       _OSTCBList:     .usect  ".ebss",2,1,1
     436              $C$DW$65        .dwtag  DW_TAG_variable
     437                      .dwattr $C$DW$65, DW_AT_name("OSTCBList")
     438                      .dwattr $C$DW$65, DW_AT_TI_symbol_name("_OSTCBList")
     439                      .dwattr $C$DW$65, DW_AT_location[DW_OP_addr _OSTCBList]
     440                      .dwattr $C$DW$65, DW_AT_type(*$C$DW$T$56)
TMS320C2000 Assembler PC v20.2.1 Tue Feb 16 00:15:57 2021

Copyright (c) 1996-2018 Texas Instruments Incorporated
os_core.asm                                                          PAGE    9

     441                      .dwattr $C$DW$65, DW_AT_external
     442              
     443                      .global _OSMemFreeList
     444 00000020       _OSMemFreeList: .usect  ".ebss",2,1,1
     445              $C$DW$66        .dwtag  DW_TAG_variable
     446                      .dwattr $C$DW$66, DW_AT_name("OSMemFreeList")
     447                      .dwattr $C$DW$66, DW_AT_TI_symbol_name("_OSMemFreeList")
     448                      .dwattr $C$DW$66, DW_AT_location[DW_OP_addr _OSMemFreeList]
     449                      .dwattr $C$DW$66, DW_AT_type(*$C$DW$T$105)
     450                      .dwattr $C$DW$66, DW_AT_external
     451              
     452                      .global _OSQFreeList
     453 00000022       _OSQFreeList:   .usect  ".ebss",2,1,1
     454              $C$DW$67        .dwtag  DW_TAG_variable
     455                      .dwattr $C$DW$67, DW_AT_name("OSQFreeList")
     456                      .dwattr $C$DW$67, DW_AT_TI_symbol_name("_OSQFreeList")
     457                      .dwattr $C$DW$67, DW_AT_location[DW_OP_addr _OSQFreeList]
     458                      .dwattr $C$DW$67, DW_AT_type(*$C$DW$T$108)
     459                      .dwattr $C$DW$67, DW_AT_external
     460              
     461                      .global _OSTime
     462 00000024       _OSTime:        .usect  ".ebss",2,1,1
     463              $C$DW$68        .dwtag  DW_TAG_variable
     464                      .dwattr $C$DW$68, DW_AT_name("OSTime")
     465                      .dwattr $C$DW$68, DW_AT_TI_symbol_name("_OSTime")
     466                      .dwattr $C$DW$68, DW_AT_location[DW_OP_addr _OSTime]
     467                      .dwattr $C$DW$68, DW_AT_type(*$C$DW$T$96)
     468                      .dwattr $C$DW$68, DW_AT_external
     469              
     470                      .global _OSRdyTbl
     471 00000000       _OSRdyTbl:      .usect  ".ebss:_OSRdyTbl",8,1,0
     472                      .clink ".ebss:_OSRdyTbl"
     473              $C$DW$69        .dwtag  DW_TAG_variable
     474                      .dwattr $C$DW$69, DW_AT_name("OSRdyTbl")
     475                      .dwattr $C$DW$69, DW_AT_TI_symbol_name("_OSRdyTbl")
     476                      .dwattr $C$DW$69, DW_AT_location[DW_OP_addr _OSRdyTbl]
     477                      .dwattr $C$DW$69, DW_AT_type(*$C$DW$T$22)
     478                      .dwattr $C$DW$69, DW_AT_external
     479              
     480                      .global _OSFlagTbl
     481 00000000       _OSFlagTbl:     .usect  ".ebss:_OSFlagTbl",40,1,1
     482                      .clink ".ebss:_OSFlagTbl"
     483              $C$DW$70        .dwtag  DW_TAG_variable
     484                      .dwattr $C$DW$70, DW_AT_name("OSFlagTbl")
     485                      .dwattr $C$DW$70, DW_AT_TI_symbol_name("_OSFlagTbl")
     486                      .dwattr $C$DW$70, DW_AT_location[DW_OP_addr _OSFlagTbl]
     487                      .dwattr $C$DW$70, DW_AT_type(*$C$DW$T$102)
     488                      .dwattr $C$DW$70, DW_AT_external
     489              
     490                      .global _OSQTbl
     491 00000000       _OSQTbl:        .usect  ".ebss:_OSQTbl",48,1,1
     492                      .clink ".ebss:_OSQTbl"
     493              $C$DW$71        .dwtag  DW_TAG_variable
     494                      .dwattr $C$DW$71, DW_AT_name("OSQTbl")
     495                      .dwattr $C$DW$71, DW_AT_TI_symbol_name("_OSQTbl")
TMS320C2000 Assembler PC v20.2.1 Tue Feb 16 00:15:57 2021

Copyright (c) 1996-2018 Texas Instruments Incorporated
os_core.asm                                                          PAGE   10

     496                      .dwattr $C$DW$71, DW_AT_location[DW_OP_addr _OSQTbl]
     497                      .dwattr $C$DW$71, DW_AT_type(*$C$DW$T$109)
     498                      .dwattr $C$DW$71, DW_AT_external
     499              
     500                      .global _OSMemTbl
     501 00000000       _OSMemTbl:      .usect  ".ebss:_OSMemTbl",60,1,1
     502                      .clink ".ebss:_OSMemTbl"
     503              $C$DW$72        .dwtag  DW_TAG_variable
     504                      .dwattr $C$DW$72, DW_AT_name("OSMemTbl")
     505                      .dwattr $C$DW$72, DW_AT_TI_symbol_name("_OSMemTbl")
     506                      .dwattr $C$DW$72, DW_AT_location[DW_OP_addr _OSMemTbl]
     507                      .dwattr $C$DW$72, DW_AT_type(*$C$DW$T$106)
     508                      .dwattr $C$DW$72, DW_AT_external
     509              
     510                      .global _OSTCBPrioTbl
     511 00000000       _OSTCBPrioTbl:  .usect  ".ebss:_OSTCBPrioTbl",128,1,1
     512                      .clink ".ebss:_OSTCBPrioTbl"
     513              $C$DW$73        .dwtag  DW_TAG_variable
     514                      .dwattr $C$DW$73, DW_AT_name("OSTCBPrioTbl")
     515                      .dwattr $C$DW$73, DW_AT_TI_symbol_name("_OSTCBPrioTbl")
     516                      .dwattr $C$DW$73, DW_AT_location[DW_OP_addr _OSTCBPrioTbl]
     517                      .dwattr $C$DW$73, DW_AT_type(*$C$DW$T$110)
     518                      .dwattr $C$DW$73, DW_AT_external
     519              
     520                      .global _OSEventTbl
     521 00000000       _OSEventTbl:    .usect  ".ebss:_OSEventTbl",160,1,1
     522                      .clink ".ebss:_OSEventTbl"
     523              $C$DW$74        .dwtag  DW_TAG_variable
     524                      .dwattr $C$DW$74, DW_AT_name("OSEventTbl")
     525                      .dwattr $C$DW$74, DW_AT_TI_symbol_name("_OSEventTbl")
     526                      .dwattr $C$DW$74, DW_AT_location[DW_OP_addr _OSEventTbl]
     527                      .dwattr $C$DW$74, DW_AT_type(*$C$DW$T$100)
     528                      .dwattr $C$DW$74, DW_AT_external
     529              
     530                      .global _OSTaskStatStk
     531 00000000       _OSTaskStatStk: .usect  ".ebss:_OSTaskStatStk",256,1,0
     532                      .clink ".ebss:_OSTaskStatStk"
     533              $C$DW$75        .dwtag  DW_TAG_variable
     534                      .dwattr $C$DW$75, DW_AT_name("OSTaskStatStk")
     535                      .dwattr $C$DW$75, DW_AT_TI_symbol_name("_OSTaskStatStk")
     536                      .dwattr $C$DW$75, DW_AT_location[DW_OP_addr _OSTaskStatStk]
     537                      .dwattr $C$DW$75, DW_AT_type(*$C$DW$T$95)
     538                      .dwattr $C$DW$75, DW_AT_external
     539              
     540                      .global _OSTaskIdleStk
     541 00000000       _OSTaskIdleStk: .usect  ".ebss:_OSTaskIdleStk",256,1,0
     542                      .clink ".ebss:_OSTaskIdleStk"
     543              $C$DW$76        .dwtag  DW_TAG_variable
     544                      .dwattr $C$DW$76, DW_AT_name("OSTaskIdleStk")
     545                      .dwattr $C$DW$76, DW_AT_TI_symbol_name("_OSTaskIdleStk")
     546                      .dwattr $C$DW$76, DW_AT_location[DW_OP_addr _OSTaskIdleStk]
     547                      .dwattr $C$DW$76, DW_AT_type(*$C$DW$T$95)
     548                      .dwattr $C$DW$76, DW_AT_external
     549              
     550                      .global _OSUnMapTbl
TMS320C2000 Assembler PC v20.2.1 Tue Feb 16 00:15:57 2021

Copyright (c) 1996-2018 Texas Instruments Incorporated
os_core.asm                                                          PAGE   11

     551 00000000               .sect   ".econst:.string:_OSUnMapTbl"
     552                      .clink
     553                      .align  1
     554                      .elfsym _OSUnMapTbl,SYM_SIZE(256)
     555 00000000       _OSUnMapTbl:
     556 00000000 0000          .bits           0,16
     557                                      ; _OSUnMapTbl[0] @ 0
     558 00000001 0000          .bits           0,16
     559                                      ; _OSUnMapTbl[1] @ 16
     560 00000002 0001          .bits           0x1,16
     561                                      ; _OSUnMapTbl[2] @ 32
     562 00000003 0000          .bits           0,16
     563                                      ; _OSUnMapTbl[3] @ 48
     564 00000004 0002          .bits           0x2,16
     565                                      ; _OSUnMapTbl[4] @ 64
     566 00000005 0000          .bits           0,16
     567                                      ; _OSUnMapTbl[5] @ 80
     568 00000006 0001          .bits           0x1,16
     569                                      ; _OSUnMapTbl[6] @ 96
     570 00000007 0000          .bits           0,16
     571                                      ; _OSUnMapTbl[7] @ 112
     572 00000008 0003          .bits           0x3,16
     573                                      ; _OSUnMapTbl[8] @ 128
     574 00000009 0000          .bits           0,16
     575                                      ; _OSUnMapTbl[9] @ 144
     576 0000000a 0001          .bits           0x1,16
     577                                      ; _OSUnMapTbl[10] @ 160
     578 0000000b 0000          .bits           0,16
     579                                      ; _OSUnMapTbl[11] @ 176
     580 0000000c 0002          .bits           0x2,16
     581                                      ; _OSUnMapTbl[12] @ 192
     582 0000000d 0000          .bits           0,16
     583                                      ; _OSUnMapTbl[13] @ 208
     584 0000000e 0001          .bits           0x1,16
     585                                      ; _OSUnMapTbl[14] @ 224
     586 0000000f 0000          .bits           0,16
     587                                      ; _OSUnMapTbl[15] @ 240
     588 00000010 0004          .bits           0x4,16
     589                                      ; _OSUnMapTbl[16] @ 256
     590 00000011 0000          .bits           0,16
     591                                      ; _OSUnMapTbl[17] @ 272
     592 00000012 0001          .bits           0x1,16
     593                                      ; _OSUnMapTbl[18] @ 288
     594 00000013 0000          .bits           0,16
     595                                      ; _OSUnMapTbl[19] @ 304
     596 00000014 0002          .bits           0x2,16
     597                                      ; _OSUnMapTbl[20] @ 320
     598 00000015 0000          .bits           0,16
     599                                      ; _OSUnMapTbl[21] @ 336
     600 00000016 0001          .bits           0x1,16
     601                                      ; _OSUnMapTbl[22] @ 352
     602 00000017 0000          .bits           0,16
     603                                      ; _OSUnMapTbl[23] @ 368
     604 00000018 0003          .bits           0x3,16
     605                                      ; _OSUnMapTbl[24] @ 384
TMS320C2000 Assembler PC v20.2.1 Tue Feb 16 00:15:57 2021

Copyright (c) 1996-2018 Texas Instruments Incorporated
os_core.asm                                                          PAGE   12

     606 00000019 0000          .bits           0,16
     607                                      ; _OSUnMapTbl[25] @ 400
     608 0000001a 0001          .bits           0x1,16
     609                                      ; _OSUnMapTbl[26] @ 416
     610 0000001b 0000          .bits           0,16
     611                                      ; _OSUnMapTbl[27] @ 432
     612 0000001c 0002          .bits           0x2,16
     613                                      ; _OSUnMapTbl[28] @ 448
     614 0000001d 0000          .bits           0,16
     615                                      ; _OSUnMapTbl[29] @ 464
     616 0000001e 0001          .bits           0x1,16
     617                                      ; _OSUnMapTbl[30] @ 480
     618 0000001f 0000          .bits           0,16
     619                                      ; _OSUnMapTbl[31] @ 496
     620 00000020 0005          .bits           0x5,16
     621                                      ; _OSUnMapTbl[32] @ 512
     622 00000021 0000          .bits           0,16
     623                                      ; _OSUnMapTbl[33] @ 528
     624 00000022 0001          .bits           0x1,16
     625                                      ; _OSUnMapTbl[34] @ 544
     626 00000023 0000          .bits           0,16
     627                                      ; _OSUnMapTbl[35] @ 560
     628 00000024 0002          .bits           0x2,16
     629                                      ; _OSUnMapTbl[36] @ 576
     630 00000025 0000          .bits           0,16
     631                                      ; _OSUnMapTbl[37] @ 592
     632 00000026 0001          .bits           0x1,16
     633                                      ; _OSUnMapTbl[38] @ 608
     634 00000027 0000          .bits           0,16
     635                                      ; _OSUnMapTbl[39] @ 624
     636 00000028 0003          .bits           0x3,16
     637                                      ; _OSUnMapTbl[40] @ 640
     638 00000029 0000          .bits           0,16
     639                                      ; _OSUnMapTbl[41] @ 656
     640 0000002a 0001          .bits           0x1,16
     641                                      ; _OSUnMapTbl[42] @ 672
     642 0000002b 0000          .bits           0,16
     643                                      ; _OSUnMapTbl[43] @ 688
     644 0000002c 0002          .bits           0x2,16
     645                                      ; _OSUnMapTbl[44] @ 704
     646 0000002d 0000          .bits           0,16
     647                                      ; _OSUnMapTbl[45] @ 720
     648 0000002e 0001          .bits           0x1,16
     649                                      ; _OSUnMapTbl[46] @ 736
     650 0000002f 0000          .bits           0,16
     651                                      ; _OSUnMapTbl[47] @ 752
     652 00000030 0004          .bits           0x4,16
     653                                      ; _OSUnMapTbl[48] @ 768
     654 00000031 0000          .bits           0,16
     655                                      ; _OSUnMapTbl[49] @ 784
     656 00000032 0001          .bits           0x1,16
     657                                      ; _OSUnMapTbl[50] @ 800
     658 00000033 0000          .bits           0,16
     659                                      ; _OSUnMapTbl[51] @ 816
     660 00000034 0002          .bits           0x2,16
TMS320C2000 Assembler PC v20.2.1 Tue Feb 16 00:15:57 2021

Copyright (c) 1996-2018 Texas Instruments Incorporated
os_core.asm                                                          PAGE   13

     661                                      ; _OSUnMapTbl[52] @ 832
     662 00000035 0000          .bits           0,16
     663                                      ; _OSUnMapTbl[53] @ 848
     664 00000036 0001          .bits           0x1,16
     665                                      ; _OSUnMapTbl[54] @ 864
     666 00000037 0000          .bits           0,16
     667                                      ; _OSUnMapTbl[55] @ 880
     668 00000038 0003          .bits           0x3,16
     669                                      ; _OSUnMapTbl[56] @ 896
     670 00000039 0000          .bits           0,16
     671                                      ; _OSUnMapTbl[57] @ 912
     672 0000003a 0001          .bits           0x1,16
     673                                      ; _OSUnMapTbl[58] @ 928
     674 0000003b 0000          .bits           0,16
     675                                      ; _OSUnMapTbl[59] @ 944
     676 0000003c 0002          .bits           0x2,16
     677                                      ; _OSUnMapTbl[60] @ 960
     678 0000003d 0000          .bits           0,16
     679                                      ; _OSUnMapTbl[61] @ 976
     680 0000003e 0001          .bits           0x1,16
     681                                      ; _OSUnMapTbl[62] @ 992
     682 0000003f 0000          .bits           0,16
     683                                      ; _OSUnMapTbl[63] @ 1008
     684 00000040 0006          .bits           0x6,16
     685                                      ; _OSUnMapTbl[64] @ 1024
     686 00000041 0000          .bits           0,16
     687                                      ; _OSUnMapTbl[65] @ 1040
     688 00000042 0001          .bits           0x1,16
     689                                      ; _OSUnMapTbl[66] @ 1056
     690 00000043 0000          .bits           0,16
     691                                      ; _OSUnMapTbl[67] @ 1072
     692 00000044 0002          .bits           0x2,16
     693                                      ; _OSUnMapTbl[68] @ 1088
     694 00000045 0000          .bits           0,16
     695                                      ; _OSUnMapTbl[69] @ 1104
     696 00000046 0001          .bits           0x1,16
     697                                      ; _OSUnMapTbl[70] @ 1120
     698 00000047 0000          .bits           0,16
     699                                      ; _OSUnMapTbl[71] @ 1136
     700 00000048 0003          .bits           0x3,16
     701                                      ; _OSUnMapTbl[72] @ 1152
     702 00000049 0000          .bits           0,16
     703                                      ; _OSUnMapTbl[73] @ 1168
     704 0000004a 0001          .bits           0x1,16
     705                                      ; _OSUnMapTbl[74] @ 1184
     706 0000004b 0000          .bits           0,16
     707                                      ; _OSUnMapTbl[75] @ 1200
     708 0000004c 0002          .bits           0x2,16
     709                                      ; _OSUnMapTbl[76] @ 1216
     710 0000004d 0000          .bits           0,16
     711                                      ; _OSUnMapTbl[77] @ 1232
     712 0000004e 0001          .bits           0x1,16
     713                                      ; _OSUnMapTbl[78] @ 1248
     714 0000004f 0000          .bits           0,16
     715                                      ; _OSUnMapTbl[79] @ 1264
TMS320C2000 Assembler PC v20.2.1 Tue Feb 16 00:15:57 2021

Copyright (c) 1996-2018 Texas Instruments Incorporated
os_core.asm                                                          PAGE   14

     716 00000050 0004          .bits           0x4,16
     717                                      ; _OSUnMapTbl[80] @ 1280
     718 00000051 0000          .bits           0,16
     719                                      ; _OSUnMapTbl[81] @ 1296
     720 00000052 0001          .bits           0x1,16
     721                                      ; _OSUnMapTbl[82] @ 1312
     722 00000053 0000          .bits           0,16
     723                                      ; _OSUnMapTbl[83] @ 1328
     724 00000054 0002          .bits           0x2,16
     725                                      ; _OSUnMapTbl[84] @ 1344
     726 00000055 0000          .bits           0,16
     727                                      ; _OSUnMapTbl[85] @ 1360
     728 00000056 0001          .bits           0x1,16
     729                                      ; _OSUnMapTbl[86] @ 1376
     730 00000057 0000          .bits           0,16
     731                                      ; _OSUnMapTbl[87] @ 1392
     732 00000058 0003          .bits           0x3,16
     733                                      ; _OSUnMapTbl[88] @ 1408
     734 00000059 0000          .bits           0,16
     735                                      ; _OSUnMapTbl[89] @ 1424
     736 0000005a 0001          .bits           0x1,16
     737                                      ; _OSUnMapTbl[90] @ 1440
     738 0000005b 0000          .bits           0,16
     739                                      ; _OSUnMapTbl[91] @ 1456
     740 0000005c 0002          .bits           0x2,16
     741                                      ; _OSUnMapTbl[92] @ 1472
     742 0000005d 0000          .bits           0,16
     743                                      ; _OSUnMapTbl[93] @ 1488
     744 0000005e 0001          .bits           0x1,16
     745                                      ; _OSUnMapTbl[94] @ 1504
     746 0000005f 0000          .bits           0,16
     747                                      ; _OSUnMapTbl[95] @ 1520
     748 00000060 0005          .bits           0x5,16
     749                                      ; _OSUnMapTbl[96] @ 1536
     750 00000061 0000          .bits           0,16
     751                                      ; _OSUnMapTbl[97] @ 1552
     752 00000062 0001          .bits           0x1,16
     753                                      ; _OSUnMapTbl[98] @ 1568
     754 00000063 0000          .bits           0,16
     755                                      ; _OSUnMapTbl[99] @ 1584
     756 00000064 0002          .bits           0x2,16
     757                                      ; _OSUnMapTbl[100] @ 1600
     758 00000065 0000          .bits           0,16
     759                                      ; _OSUnMapTbl[101] @ 1616
     760 00000066 0001          .bits           0x1,16
     761                                      ; _OSUnMapTbl[102] @ 1632
     762 00000067 0000          .bits           0,16
     763                                      ; _OSUnMapTbl[103] @ 1648
     764 00000068 0003          .bits           0x3,16
     765                                      ; _OSUnMapTbl[104] @ 1664
     766 00000069 0000          .bits           0,16
     767                                      ; _OSUnMapTbl[105] @ 1680
     768 0000006a 0001          .bits           0x1,16
     769                                      ; _OSUnMapTbl[106] @ 1696
     770 0000006b 0000          .bits           0,16
TMS320C2000 Assembler PC v20.2.1 Tue Feb 16 00:15:57 2021

Copyright (c) 1996-2018 Texas Instruments Incorporated
os_core.asm                                                          PAGE   15

     771                                      ; _OSUnMapTbl[107] @ 1712
     772 0000006c 0002          .bits           0x2,16
     773                                      ; _OSUnMapTbl[108] @ 1728
     774 0000006d 0000          .bits           0,16
     775                                      ; _OSUnMapTbl[109] @ 1744
     776 0000006e 0001          .bits           0x1,16
     777                                      ; _OSUnMapTbl[110] @ 1760
     778 0000006f 0000          .bits           0,16
     779                                      ; _OSUnMapTbl[111] @ 1776
     780 00000070 0004          .bits           0x4,16
     781                                      ; _OSUnMapTbl[112] @ 1792
     782 00000071 0000          .bits           0,16
     783                                      ; _OSUnMapTbl[113] @ 1808
     784 00000072 0001          .bits           0x1,16
     785                                      ; _OSUnMapTbl[114] @ 1824
     786 00000073 0000          .bits           0,16
     787                                      ; _OSUnMapTbl[115] @ 1840
     788 00000074 0002          .bits           0x2,16
     789                                      ; _OSUnMapTbl[116] @ 1856
     790 00000075 0000          .bits           0,16
     791                                      ; _OSUnMapTbl[117] @ 1872
     792 00000076 0001          .bits           0x1,16
     793                                      ; _OSUnMapTbl[118] @ 1888
     794 00000077 0000          .bits           0,16
     795                                      ; _OSUnMapTbl[119] @ 1904
     796 00000078 0003          .bits           0x3,16
     797                                      ; _OSUnMapTbl[120] @ 1920
     798 00000079 0000          .bits           0,16
     799                                      ; _OSUnMapTbl[121] @ 1936
     800 0000007a 0001          .bits           0x1,16
     801                                      ; _OSUnMapTbl[122] @ 1952
     802 0000007b 0000          .bits           0,16
     803                                      ; _OSUnMapTbl[123] @ 1968
     804 0000007c 0002          .bits           0x2,16
     805                                      ; _OSUnMapTbl[124] @ 1984
     806 0000007d 0000          .bits           0,16
     807                                      ; _OSUnMapTbl[125] @ 2000
     808 0000007e 0001          .bits           0x1,16
     809                                      ; _OSUnMapTbl[126] @ 2016
     810 0000007f 0000          .bits           0,16
     811                                      ; _OSUnMapTbl[127] @ 2032
     812 00000080 0007          .bits           0x7,16
     813                                      ; _OSUnMapTbl[128] @ 2048
     814 00000081 0000          .bits           0,16
     815                                      ; _OSUnMapTbl[129] @ 2064
     816 00000082 0001          .bits           0x1,16
     817                                      ; _OSUnMapTbl[130] @ 2080
     818 00000083 0000          .bits           0,16
     819                                      ; _OSUnMapTbl[131] @ 2096
     820 00000084 0002          .bits           0x2,16
     821                                      ; _OSUnMapTbl[132] @ 2112
     822 00000085 0000          .bits           0,16
     823                                      ; _OSUnMapTbl[133] @ 2128
     824 00000086 0001          .bits           0x1,16
     825                                      ; _OSUnMapTbl[134] @ 2144
TMS320C2000 Assembler PC v20.2.1 Tue Feb 16 00:15:57 2021

Copyright (c) 1996-2018 Texas Instruments Incorporated
os_core.asm                                                          PAGE   16

     826 00000087 0000          .bits           0,16
     827                                      ; _OSUnMapTbl[135] @ 2160
     828 00000088 0003          .bits           0x3,16
     829                                      ; _OSUnMapTbl[136] @ 2176
     830 00000089 0000          .bits           0,16
     831                                      ; _OSUnMapTbl[137] @ 2192
     832 0000008a 0001          .bits           0x1,16
     833                                      ; _OSUnMapTbl[138] @ 2208
     834 0000008b 0000          .bits           0,16
     835                                      ; _OSUnMapTbl[139] @ 2224
     836 0000008c 0002          .bits           0x2,16
     837                                      ; _OSUnMapTbl[140] @ 2240
     838 0000008d 0000          .bits           0,16
     839                                      ; _OSUnMapTbl[141] @ 2256
     840 0000008e 0001          .bits           0x1,16
     841                                      ; _OSUnMapTbl[142] @ 2272
     842 0000008f 0000          .bits           0,16
     843                                      ; _OSUnMapTbl[143] @ 2288
     844 00000090 0004          .bits           0x4,16
     845                                      ; _OSUnMapTbl[144] @ 2304
     846 00000091 0000          .bits           0,16
     847                                      ; _OSUnMapTbl[145] @ 2320
     848 00000092 0001          .bits           0x1,16
     849                                      ; _OSUnMapTbl[146] @ 2336
     850 00000093 0000          .bits           0,16
     851                                      ; _OSUnMapTbl[147] @ 2352
     852 00000094 0002          .bits           0x2,16
     853                                      ; _OSUnMapTbl[148] @ 2368
     854 00000095 0000          .bits           0,16
     855                                      ; _OSUnMapTbl[149] @ 2384
     856 00000096 0001          .bits           0x1,16
     857                                      ; _OSUnMapTbl[150] @ 2400
     858 00000097 0000          .bits           0,16
     859                                      ; _OSUnMapTbl[151] @ 2416
     860 00000098 0003          .bits           0x3,16
     861                                      ; _OSUnMapTbl[152] @ 2432
     862 00000099 0000          .bits           0,16
     863                                      ; _OSUnMapTbl[153] @ 2448
     864 0000009a 0001          .bits           0x1,16
     865                                      ; _OSUnMapTbl[154] @ 2464
     866 0000009b 0000          .bits           0,16
     867                                      ; _OSUnMapTbl[155] @ 2480
     868 0000009c 0002          .bits           0x2,16
     869                                      ; _OSUnMapTbl[156] @ 2496
     870 0000009d 0000          .bits           0,16
     871                                      ; _OSUnMapTbl[157] @ 2512
     872 0000009e 0001          .bits           0x1,16
     873                                      ; _OSUnMapTbl[158] @ 2528
     874 0000009f 0000          .bits           0,16
     875                                      ; _OSUnMapTbl[159] @ 2544
     876 000000a0 0005          .bits           0x5,16
     877                                      ; _OSUnMapTbl[160] @ 2560
     878 000000a1 0000          .bits           0,16
     879                                      ; _OSUnMapTbl[161] @ 2576
     880 000000a2 0001          .bits           0x1,16
TMS320C2000 Assembler PC v20.2.1 Tue Feb 16 00:15:57 2021

Copyright (c) 1996-2018 Texas Instruments Incorporated
os_core.asm                                                          PAGE   17

     881                                      ; _OSUnMapTbl[162] @ 2592
     882 000000a3 0000          .bits           0,16
     883                                      ; _OSUnMapTbl[163] @ 2608
     884 000000a4 0002          .bits           0x2,16
     885                                      ; _OSUnMapTbl[164] @ 2624
     886 000000a5 0000          .bits           0,16
     887                                      ; _OSUnMapTbl[165] @ 2640
     888 000000a6 0001          .bits           0x1,16
     889                                      ; _OSUnMapTbl[166] @ 2656
     890 000000a7 0000          .bits           0,16
     891                                      ; _OSUnMapTbl[167] @ 2672
     892 000000a8 0003          .bits           0x3,16
     893                                      ; _OSUnMapTbl[168] @ 2688
     894 000000a9 0000          .bits           0,16
     895                                      ; _OSUnMapTbl[169] @ 2704
     896 000000aa 0001          .bits           0x1,16
     897                                      ; _OSUnMapTbl[170] @ 2720
     898 000000ab 0000          .bits           0,16
     899                                      ; _OSUnMapTbl[171] @ 2736
     900 000000ac 0002          .bits           0x2,16
     901                                      ; _OSUnMapTbl[172] @ 2752
     902 000000ad 0000          .bits           0,16
     903                                      ; _OSUnMapTbl[173] @ 2768
     904 000000ae 0001          .bits           0x1,16
     905                                      ; _OSUnMapTbl[174] @ 2784
     906 000000af 0000          .bits           0,16
     907                                      ; _OSUnMapTbl[175] @ 2800
     908 000000b0 0004          .bits           0x4,16
     909                                      ; _OSUnMapTbl[176] @ 2816
     910 000000b1 0000          .bits           0,16
     911                                      ; _OSUnMapTbl[177] @ 2832
     912 000000b2 0001          .bits           0x1,16
     913                                      ; _OSUnMapTbl[178] @ 2848
     914 000000b3 0000          .bits           0,16
     915                                      ; _OSUnMapTbl[179] @ 2864
     916 000000b4 0002          .bits           0x2,16
     917                                      ; _OSUnMapTbl[180] @ 2880
     918 000000b5 0000          .bits           0,16
     919                                      ; _OSUnMapTbl[181] @ 2896
     920 000000b6 0001          .bits           0x1,16
     921                                      ; _OSUnMapTbl[182] @ 2912
     922 000000b7 0000          .bits           0,16
     923                                      ; _OSUnMapTbl[183] @ 2928
     924 000000b8 0003          .bits           0x3,16
     925                                      ; _OSUnMapTbl[184] @ 2944
     926 000000b9 0000          .bits           0,16
     927                                      ; _OSUnMapTbl[185] @ 2960
     928 000000ba 0001          .bits           0x1,16
     929                                      ; _OSUnMapTbl[186] @ 2976
     930 000000bb 0000          .bits           0,16
     931                                      ; _OSUnMapTbl[187] @ 2992
     932 000000bc 0002          .bits           0x2,16
     933                                      ; _OSUnMapTbl[188] @ 3008
     934 000000bd 0000          .bits           0,16
     935                                      ; _OSUnMapTbl[189] @ 3024
TMS320C2000 Assembler PC v20.2.1 Tue Feb 16 00:15:57 2021

Copyright (c) 1996-2018 Texas Instruments Incorporated
os_core.asm                                                          PAGE   18

     936 000000be 0001          .bits           0x1,16
     937                                      ; _OSUnMapTbl[190] @ 3040
     938 000000bf 0000          .bits           0,16
     939                                      ; _OSUnMapTbl[191] @ 3056
     940 000000c0 0006          .bits           0x6,16
     941                                      ; _OSUnMapTbl[192] @ 3072
     942 000000c1 0000          .bits           0,16
     943                                      ; _OSUnMapTbl[193] @ 3088
     944 000000c2 0001          .bits           0x1,16
     945                                      ; _OSUnMapTbl[194] @ 3104
     946 000000c3 0000          .bits           0,16
     947                                      ; _OSUnMapTbl[195] @ 3120
     948 000000c4 0002          .bits           0x2,16
     949                                      ; _OSUnMapTbl[196] @ 3136
     950 000000c5 0000          .bits           0,16
     951                                      ; _OSUnMapTbl[197] @ 3152
     952 000000c6 0001          .bits           0x1,16
     953                                      ; _OSUnMapTbl[198] @ 3168
     954 000000c7 0000          .bits           0,16
     955                                      ; _OSUnMapTbl[199] @ 3184
     956 000000c8 0003          .bits           0x3,16
     957                                      ; _OSUnMapTbl[200] @ 3200
     958 000000c9 0000          .bits           0,16
     959                                      ; _OSUnMapTbl[201] @ 3216
     960 000000ca 0001          .bits           0x1,16
     961                                      ; _OSUnMapTbl[202] @ 3232
     962 000000cb 0000          .bits           0,16
     963                                      ; _OSUnMapTbl[203] @ 3248
     964 000000cc 0002          .bits           0x2,16
     965                                      ; _OSUnMapTbl[204] @ 3264
     966 000000cd 0000          .bits           0,16
     967                                      ; _OSUnMapTbl[205] @ 3280
     968 000000ce 0001          .bits           0x1,16
     969                                      ; _OSUnMapTbl[206] @ 3296
     970 000000cf 0000          .bits           0,16
     971                                      ; _OSUnMapTbl[207] @ 3312
     972 000000d0 0004          .bits           0x4,16
     973                                      ; _OSUnMapTbl[208] @ 3328
     974 000000d1 0000          .bits           0,16
     975                                      ; _OSUnMapTbl[209] @ 3344
     976 000000d2 0001          .bits           0x1,16
     977                                      ; _OSUnMapTbl[210] @ 3360
     978 000000d3 0000          .bits           0,16
     979                                      ; _OSUnMapTbl[211] @ 3376
     980 000000d4 0002          .bits           0x2,16
     981                                      ; _OSUnMapTbl[212] @ 3392
     982 000000d5 0000          .bits           0,16
     983                                      ; _OSUnMapTbl[213] @ 3408
     984 000000d6 0001          .bits           0x1,16
     985                                      ; _OSUnMapTbl[214] @ 3424
     986 000000d7 0000          .bits           0,16
     987                                      ; _OSUnMapTbl[215] @ 3440
     988 000000d8 0003          .bits           0x3,16
     989                                      ; _OSUnMapTbl[216] @ 3456
     990 000000d9 0000          .bits           0,16
TMS320C2000 Assembler PC v20.2.1 Tue Feb 16 00:15:57 2021

Copyright (c) 1996-2018 Texas Instruments Incorporated
os_core.asm                                                          PAGE   19

     991                                      ; _OSUnMapTbl[217] @ 3472
     992 000000da 0001          .bits           0x1,16
     993                                      ; _OSUnMapTbl[218] @ 3488
     994 000000db 0000          .bits           0,16
     995                                      ; _OSUnMapTbl[219] @ 3504
     996 000000dc 0002          .bits           0x2,16
     997                                      ; _OSUnMapTbl[220] @ 3520
     998 000000dd 0000          .bits           0,16
     999                                      ; _OSUnMapTbl[221] @ 3536
    1000 000000de 0001          .bits           0x1,16
    1001                                      ; _OSUnMapTbl[222] @ 3552
    1002 000000df 0000          .bits           0,16
    1003                                      ; _OSUnMapTbl[223] @ 3568
    1004 000000e0 0005          .bits           0x5,16
    1005                                      ; _OSUnMapTbl[224] @ 3584
    1006 000000e1 0000          .bits           0,16
    1007                                      ; _OSUnMapTbl[225] @ 3600
    1008 000000e2 0001          .bits           0x1,16
    1009                                      ; _OSUnMapTbl[226] @ 3616
    1010 000000e3 0000          .bits           0,16
    1011                                      ; _OSUnMapTbl[227] @ 3632
    1012 000000e4 0002          .bits           0x2,16
    1013                                      ; _OSUnMapTbl[228] @ 3648
    1014 000000e5 0000          .bits           0,16
    1015                                      ; _OSUnMapTbl[229] @ 3664
    1016 000000e6 0001          .bits           0x1,16
    1017                                      ; _OSUnMapTbl[230] @ 3680
    1018 000000e7 0000          .bits           0,16
    1019                                      ; _OSUnMapTbl[231] @ 3696
    1020 000000e8 0003          .bits           0x3,16
    1021                                      ; _OSUnMapTbl[232] @ 3712
    1022 000000e9 0000          .bits           0,16
    1023                                      ; _OSUnMapTbl[233] @ 3728
    1024 000000ea 0001          .bits           0x1,16
    1025                                      ; _OSUnMapTbl[234] @ 3744
    1026 000000eb 0000          .bits           0,16
    1027                                      ; _OSUnMapTbl[235] @ 3760
    1028 000000ec 0002          .bits           0x2,16
    1029                                      ; _OSUnMapTbl[236] @ 3776
    1030 000000ed 0000          .bits           0,16
    1031                                      ; _OSUnMapTbl[237] @ 3792
    1032 000000ee 0001          .bits           0x1,16
    1033                                      ; _OSUnMapTbl[238] @ 3808
    1034 000000ef 0000          .bits           0,16
    1035                                      ; _OSUnMapTbl[239] @ 3824
    1036 000000f0 0004          .bits           0x4,16
    1037                                      ; _OSUnMapTbl[240] @ 3840
    1038 000000f1 0000          .bits           0,16
    1039                                      ; _OSUnMapTbl[241] @ 3856
    1040 000000f2 0001          .bits           0x1,16
    1041                                      ; _OSUnMapTbl[242] @ 3872
    1042 000000f3 0000          .bits           0,16
    1043                                      ; _OSUnMapTbl[243] @ 3888
    1044 000000f4 0002          .bits           0x2,16
    1045                                      ; _OSUnMapTbl[244] @ 3904
TMS320C2000 Assembler PC v20.2.1 Tue Feb 16 00:15:57 2021

Copyright (c) 1996-2018 Texas Instruments Incorporated
os_core.asm                                                          PAGE   20

    1046 000000f5 0000          .bits           0,16
    1047                                      ; _OSUnMapTbl[245] @ 3920
    1048 000000f6 0001          .bits           0x1,16
    1049                                      ; _OSUnMapTbl[246] @ 3936
    1050 000000f7 0000          .bits           0,16
    1051                                      ; _OSUnMapTbl[247] @ 3952
    1052 000000f8 0003          .bits           0x3,16
    1053                                      ; _OSUnMapTbl[248] @ 3968
    1054 000000f9 0000          .bits           0,16
    1055                                      ; _OSUnMapTbl[249] @ 3984
    1056 000000fa 0001          .bits           0x1,16
    1057                                      ; _OSUnMapTbl[250] @ 4000
    1058 000000fb 0000          .bits           0,16
    1059                                      ; _OSUnMapTbl[251] @ 4016
    1060 000000fc 0002          .bits           0x2,16
    1061                                      ; _OSUnMapTbl[252] @ 4032
    1062 000000fd 0000          .bits           0,16
    1063                                      ; _OSUnMapTbl[253] @ 4048
    1064 000000fe 0001          .bits           0x1,16
    1065                                      ; _OSUnMapTbl[254] @ 4064
    1066 000000ff 0000          .bits           0,16
    1067                                      ; _OSUnMapTbl[255] @ 4080
    1068              
    1069              $C$DW$77        .dwtag  DW_TAG_variable
    1070                      .dwattr $C$DW$77, DW_AT_name("OSUnMapTbl")
    1071                      .dwattr $C$DW$77, DW_AT_TI_symbol_name("_OSUnMapTbl")
    1072                      .dwattr $C$DW$77, DW_AT_location[DW_OP_addr _OSUnMapTbl]
    1073                      .dwattr $C$DW$77, DW_AT_type(*$C$DW$T$72)
    1074                      .dwattr $C$DW$77, DW_AT_external
    1075              
    1076                      .global _OSTCBTbl
    1077 00000000       _OSTCBTbl:      .usect  ".ebss:_OSTCBTbl",1056,1,1
    1078                      .clink ".ebss:_OSTCBTbl"
    1079              $C$DW$78        .dwtag  DW_TAG_variable
    1080                      .dwattr $C$DW$78, DW_AT_name("OSTCBTbl")
    1081                      .dwattr $C$DW$78, DW_AT_TI_symbol_name("_OSTCBTbl")
    1082                      .dwattr $C$DW$78, DW_AT_location[DW_OP_addr _OSTCBTbl]
    1083                      .dwattr $C$DW$78, DW_AT_type(*$C$DW$T$112)
    1084                      .dwattr $C$DW$78, DW_AT_external
    1085              
    1086                      .sblock ".ebss"
    1087                      .sblock ".ebss:_OSEventTbl"
    1088                      .sblock ".ebss:_OSFlagTbl"
    1089                      .sblock ".ebss:_OSMemTbl"
    1090                      .sblock ".ebss:_OSQTbl"
    1091                      .sblock ".ebss:_OSRdyTbl"
    1092                      .sblock ".ebss:_OSTCBPrioTbl"
    1093                      .sblock ".ebss:_OSTCBTbl"
    1094                      .sblock ".ebss:_OSTaskIdleStk"
    1095                      .sblock ".ebss:_OSTaskStatStk"
    1096              ;       C:\ti\ccs1011\ccs\tools\compiler\ti-cgt-c2000_20.2.1.LTS\bin\ac2000.exe -@C:\\Users\\LEEKEO~1\\AppDat
    1097 00000000               .sect   ".text"
    1098                      .clink
    1099                      .global _OSEventNameGet
    1100              
TMS320C2000 Assembler PC v20.2.1 Tue Feb 16 00:15:57 2021

Copyright (c) 1996-2018 Texas Instruments Incorporated
os_core.asm                                                          PAGE   21

    1101              $C$DW$79        .dwtag  DW_TAG_subprogram
    1102                      .dwattr $C$DW$79, DW_AT_name("OSEventNameGet")
    1103                      .dwattr $C$DW$79, DW_AT_low_pc(_OSEventNameGet)
    1104                      .dwattr $C$DW$79, DW_AT_high_pc(0x00)
    1105                      .dwattr $C$DW$79, DW_AT_TI_symbol_name("_OSEventNameGet")
    1106                      .dwattr $C$DW$79, DW_AT_external
    1107                      .dwattr $C$DW$79, DW_AT_type(*$C$DW$T$19)
    1108                      .dwattr $C$DW$79, DW_AT_TI_begin_file("C:/ti/Workspace/PLC_certificate/Software/uCOS-II/Source/os_cor
    1109                      .dwattr $C$DW$79, DW_AT_TI_begin_line(0x6e)
    1110                      .dwattr $C$DW$79, DW_AT_TI_begin_column(0x08)
    1111                      .dwattr $C$DW$79, DW_AT_TI_max_frame_size(-8)
    1112                      .dwpsn  file "C:/ti/Workspace/PLC_certificate/Software/uCOS-II/Source/os_core.c",line 113,column 1,is
    1113              
    1114                      .dwfde $C$DW$CIE, _OSEventNameGet
    1115              $C$DW$80        .dwtag  DW_TAG_formal_parameter
    1116                      .dwattr $C$DW$80, DW_AT_name("pevent")
    1117                      .dwattr $C$DW$80, DW_AT_TI_symbol_name("_pevent")
    1118                      .dwattr $C$DW$80, DW_AT_type(*$C$DW$T$38)
    1119                      .dwattr $C$DW$80, DW_AT_location[DW_OP_reg12]
    1120              
    1121              $C$DW$81        .dwtag  DW_TAG_formal_parameter
    1122                      .dwattr $C$DW$81, DW_AT_name("pname")
    1123                      .dwattr $C$DW$81, DW_AT_TI_symbol_name("_pname")
    1124                      .dwattr $C$DW$81, DW_AT_type(*$C$DW$T$77)
    1125                      .dwattr $C$DW$81, DW_AT_location[DW_OP_reg14]
    1126              
    1127              $C$DW$82        .dwtag  DW_TAG_formal_parameter
    1128                      .dwattr $C$DW$82, DW_AT_name("perr")
    1129                      .dwattr $C$DW$82, DW_AT_TI_symbol_name("_perr")
    1130                      .dwattr $C$DW$82, DW_AT_type(*$C$DW$T$23)
    1131                      .dwattr $C$DW$82, DW_AT_location[DW_OP_breg20 -10]
    1132              
    1133              
    1134              ;***************************************************************
    1135              ;* FNAME: _OSEventNameGet               FR SIZE:   6           *
    1136              ;*                                                             *
    1137              ;* FUNCTION ENVIRONMENT                                        *
    1138              ;*                                                             *
    1139              ;* FUNCTION PROPERTIES                                         *
    1140              ;*                            0 Parameter,  6 Auto,  0 SOE     *
    1141              ;***************************************************************
    1142              
    1143 00000000       _OSEventNameGet:
    1144                      .dwcfi  cfa_offset, -2
    1145                      .dwcfi  save_reg_to_mem, 26, 0
    1146 00000000 FE06          ADDB      SP,#6                 ; [CPU_ARAU] 
    1147                      .dwcfi  cfa_offset, -8
    1148              $C$DW$83        .dwtag  DW_TAG_variable
    1149                      .dwattr $C$DW$83, DW_AT_name("pevent")
    1150                      .dwattr $C$DW$83, DW_AT_TI_symbol_name("_pevent")
    1151                      .dwattr $C$DW$83, DW_AT_type(*$C$DW$T$38)
    1152                      .dwattr $C$DW$83, DW_AT_location[DW_OP_breg20 -2]
    1153              
    1154              $C$DW$84        .dwtag  DW_TAG_variable
    1155                      .dwattr $C$DW$84, DW_AT_name("pname")
TMS320C2000 Assembler PC v20.2.1 Tue Feb 16 00:15:57 2021

Copyright (c) 1996-2018 Texas Instruments Incorporated
os_core.asm                                                          PAGE   22

    1156                      .dwattr $C$DW$84, DW_AT_TI_symbol_name("_pname")
    1157                      .dwattr $C$DW$84, DW_AT_type(*$C$DW$T$77)
    1158                      .dwattr $C$DW$84, DW_AT_location[DW_OP_breg20 -4]
    1159              
    1160              $C$DW$85        .dwtag  DW_TAG_variable
    1161                      .dwattr $C$DW$85, DW_AT_name("len")
    1162                      .dwattr $C$DW$85, DW_AT_TI_symbol_name("_len")
    1163                      .dwattr $C$DW$85, DW_AT_type(*$C$DW$T$19)
    1164                      .dwattr $C$DW$85, DW_AT_location[DW_OP_breg20 -5]
    1165              
    1166              $C$DW$86        .dwtag  DW_TAG_variable
    1167                      .dwattr $C$DW$86, DW_AT_name("cpu_sr")
    1168                      .dwattr $C$DW$86, DW_AT_TI_symbol_name("_cpu_sr")
    1169                      .dwattr $C$DW$86, DW_AT_type(*$C$DW$T$44)
    1170                      .dwattr $C$DW$86, DW_AT_location[DW_OP_breg20 -6]
    1171              
    1172 00000001 A044          MOVL      *-SP[4],XAR5          ; [CPU_ALU] |113| 
    1173 00000002 A842          MOVL      *-SP[2],XAR4          ; [CPU_ALU] |113| 
    1174                      .dwpsn  file "C:/ti/Workspace/PLC_certificate/Software/uCOS-II/Source/os_core.c",line 116,column 23,i
    1175 00000003 2B46          MOV       *-SP[6],#0            ; [CPU_ALU] |116| 
    1176                      .dwpsn  file "C:/ti/Workspace/PLC_certificate/Software/uCOS-II/Source/os_core.c",line 129,column 5,is
    1177 00000004 0642          MOVL      ACC,*-SP[2]           ; [CPU_ALU] |129| 
    1178 00000005 6006          B         $C$L1,NEQ             ; [CPU_ALU] |129| 
    1179                      ; branchcc occurs ; [] |129| 
    1180                      .dwpsn  file "C:/ti/Workspace/PLC_certificate/Software/uCOS-II/Source/os_core.c",line 130,column 9,is
    1181 00000006 8A4A          MOVL      XAR4,*-SP[10]         ; [CPU_ALU] |130| 
    1182 00000007 56BF          MOVB      *+XAR4[0],#4,UNC      ; [CPU_ALU] |130| 
         00000008 04C4 
    1183                      .dwpsn  file "C:/ti/Workspace/PLC_certificate/Software/uCOS-II/Source/os_core.c",line 131,column 9,is
    1184 00000009 9A00          MOVB      AL,#0                 ; [CPU_ALU] |131| 
    1185 0000000a 6F33          B         $C$L6,UNC             ; [CPU_ALU] |131| 
    1186                      ; branch occurs ; [] |131| 
    1187 0000000b       $C$L1:    
    1188                      .dwpsn  file "C:/ti/Workspace/PLC_certificate/Software/uCOS-II/Source/os_core.c",line 133,column 5,is
    1189 0000000b 0644          MOVL      ACC,*-SP[4]           ; [CPU_ALU] |133| 
    1190 0000000c 6006          B         $C$L2,NEQ             ; [CPU_ALU] |133| 
    1191                      ; branchcc occurs ; [] |133| 
    1192                      .dwpsn  file "C:/ti/Workspace/PLC_certificate/Software/uCOS-II/Source/os_core.c",line 134,column 9,is
    1193 0000000d 8A4A          MOVL      XAR4,*-SP[10]         ; [CPU_ALU] |134| 
    1194 0000000e 56BF          MOVB      *+XAR4[0],#12,UNC     ; [CPU_ALU] |134| 
         0000000f 0CC4 
    1195                      .dwpsn  file "C:/ti/Workspace/PLC_certificate/Software/uCOS-II/Source/os_core.c",line 135,column 9,is
    1196 00000010 9A00          MOVB      AL,#0                 ; [CPU_ALU] |135| 
    1197 00000011 6F2C          B         $C$L6,UNC             ; [CPU_ALU] |135| 
    1198                      ; branch occurs ; [] |135| 
    1199 00000012       $C$L2:    
    1200                      .dwpsn  file "C:/ti/Workspace/PLC_certificate/Software/uCOS-II/Source/os_core.c",line 138,column 5,is
    1201 00000012 761F-         MOVW      DP,#_OSIntNesting     ; [CPU_ARAU] 
         00000013 0000 
    1202 00000014 9202-         MOV       AL,@_OSIntNesting     ; [CPU_ALU] |138| 
    1203 00000015 610B          B         $C$L4,EQ              ; [CPU_ALU] |138| 
    1204                      ; branchcc occurs ; [] |138| 
    1205                      .dwpsn  file "C:/ti/Workspace/PLC_certificate/Software/uCOS-II/Source/os_core.c",line 139,column 9,is
    1206 00000016 8A4A          MOVL      XAR4,*-SP[10]         ; [CPU_ALU] |139| 
    1207 00000017 56BF          MOVB      *+XAR4[0],#17,UNC     ; [CPU_ALU] |139| 
TMS320C2000 Assembler PC v20.2.1 Tue Feb 16 00:15:57 2021

Copyright (c) 1996-2018 Texas Instruments Incorporated
os_core.asm                                                          PAGE   23

         00000018 11C4 
    1208                      .dwpsn  file "C:/ti/Workspace/PLC_certificate/Software/uCOS-II/Source/os_core.c",line 140,column 9,is
    1209 00000019 9A00          MOVB      AL,#0                 ; [CPU_ALU] |140| 
    1210 0000001a 6F23          B         $C$L6,UNC             ; [CPU_ALU] |140| 
    1211                      ; branch occurs ; [] |140| 
    1212 0000001b       $C$L3:    
    1213                      .dwpsn  file "C:/ti/Workspace/PLC_certificate/Software/uCOS-II/Source/os_core.c",line 150,column 14,i
    1214 0000001b 8A4A          MOVL      XAR4,*-SP[10]         ; [CPU_ALU] |150| 
    1215 0000001c 56BF          MOVB      *+XAR4[0],#1,UNC      ; [CPU_ALU] |150| 
         0000001d 01C4 
    1216                      .dwpsn  file "C:/ti/Workspace/PLC_certificate/Software/uCOS-II/Source/os_core.c",line 151,column 14,i
    1217 0000001e 9A00          MOVB      AL,#0                 ; [CPU_ALU] |151| 
    1218 0000001f 6F1E          B         $C$L6,UNC             ; [CPU_ALU] |151| 
    1219                      ; branch occurs ; [] |151| 
    1220 00000020       $C$L4:    
    1221                      .dwpsn  file "C:/ti/Workspace/PLC_certificate/Software/uCOS-II/Source/os_core.c",line 142,column 5,is
    1222 00000020 92C4          MOV       AL,*+XAR4[0]          ; [CPU_ALU] |142| 
    1223 00000021 5201          CMPB      AL,#1                 ; [CPU_ALU] |142| 
    1224 00000022 6107          B         $C$L5,EQ              ; [CPU_ALU] |142| 
    1225                      ; branchcc occurs ; [] |142| 
    1226 00000023 5202          CMPB      AL,#2                 ; [CPU_ALU] |142| 
    1227 00000024 6105          B         $C$L5,EQ              ; [CPU_ALU] |142| 
    1228                      ; branchcc occurs ; [] |142| 
    1229 00000025 5203          CMPB      AL,#3                 ; [CPU_ALU] |142| 
    1230 00000026 6103          B         $C$L5,EQ              ; [CPU_ALU] |142| 
    1231                      ; branchcc occurs ; [] |142| 
    1232 00000027 5204          CMPB      AL,#4                 ; [CPU_ALU] |142| 
    1233 00000028 60F3          B         $C$L3,NEQ             ; [CPU_ALU] |142| 
    1234                      ; branchcc occurs ; [] |142| 
    1235 00000029       $C$L5:    
    1236                      .dwpsn  file "C:/ti/Workspace/PLC_certificate/Software/uCOS-II/Source/os_core.c",line 153,column 5,is
    1237              $C$DW$87        .dwtag  DW_TAG_TI_branch
    1238                      .dwattr $C$DW$87, DW_AT_low_pc(0x00)
    1239                      .dwattr $C$DW$87, DW_AT_name("_OS_CPU_SR_Save")
    1240                      .dwattr $C$DW$87, DW_AT_TI_call
    1241              
    1242 00000029 7640!         LCR       #_OS_CPU_SR_Save      ; [CPU_ALU] |153| 
         0000002a 0000 
    1243                      ; call occurs [#_OS_CPU_SR_Save] ; [] |153| 
    1244 0000002b 9646          MOV       *-SP[6],AL            ; [CPU_ALU] |153| 
    1245                      .dwpsn  file "C:/ti/Workspace/PLC_certificate/Software/uCOS-II/Source/os_core.c",line 154,column 5,is
    1246 0000002c 020E          MOVB      ACC,#14               ; [CPU_ALU] |154| 
    1247 0000002d 0742          ADDL      ACC,*-SP[2]           ; [CPU_ALU] |154| 
    1248 0000002e 8AA9          MOVL      XAR4,ACC              ; [CPU_ALU] |154| 
    1249 0000002f 06C4          MOVL      ACC,*+XAR4[0]         ; [CPU_ALU] |154| 
    1250 00000030 8A44          MOVL      XAR4,*-SP[4]          ; [CPU_ALU] |154| 
    1251 00000031 1EC4          MOVL      *+XAR4[0],ACC         ; [CPU_ALU] |154| 
    1252                      .dwpsn  file "C:/ti/Workspace/PLC_certificate/Software/uCOS-II/Source/os_core.c",line 155,column 5,is
    1253 00000032 8A44          MOVL      XAR4,*-SP[4]          ; [CPU_ALU] |155| 
    1254 00000033 8AC4          MOVL      XAR4,*+XAR4[0]        ; [CPU_ALU] |155| 
    1255              $C$DW$88        .dwtag  DW_TAG_TI_branch
    1256                      .dwattr $C$DW$88, DW_AT_low_pc(0x00)
    1257                      .dwattr $C$DW$88, DW_AT_name("_OS_StrLen")
    1258                      .dwattr $C$DW$88, DW_AT_TI_call
    1259              
TMS320C2000 Assembler PC v20.2.1 Tue Feb 16 00:15:57 2021

Copyright (c) 1996-2018 Texas Instruments Incorporated
os_core.asm                                                          PAGE   24

    1260 00000034 7640'         LCR       #_OS_StrLen           ; [CPU_ALU] |155| 
         00000035 0627 
    1261                      ; call occurs [#_OS_StrLen] ; [] |155| 
    1262 00000036 9645          MOV       *-SP[5],AL            ; [CPU_ALU] |155| 
    1263                      .dwpsn  file "C:/ti/Workspace/PLC_certificate/Software/uCOS-II/Source/os_core.c",line 156,column 5,is
    1264 00000037 9246          MOV       AL,*-SP[6]            ; [CPU_ALU] |156| 
    1265              $C$DW$89        .dwtag  DW_TAG_TI_branch
    1266                      .dwattr $C$DW$89, DW_AT_low_pc(0x00)
    1267                      .dwattr $C$DW$89, DW_AT_name("_OS_CPU_SR_Restore")
    1268                      .dwattr $C$DW$89, DW_AT_TI_call
    1269              
    1270 00000038 7640!         LCR       #_OS_CPU_SR_Restore   ; [CPU_ALU] |156| 
         00000039 0000 
    1271                      ; call occurs [#_OS_CPU_SR_Restore] ; [] |156| 
    1272                      .dwpsn  file "C:/ti/Workspace/PLC_certificate/Software/uCOS-II/Source/os_core.c",line 157,column 5,is
    1273 0000003a 8A4A          MOVL      XAR4,*-SP[10]         ; [CPU_ALU] |157| 
    1274 0000003b 2BC4          MOV       *+XAR4[0],#0          ; [CPU_ALU] |157| 
    1275                      .dwpsn  file "C:/ti/Workspace/PLC_certificate/Software/uCOS-II/Source/os_core.c",line 158,column 5,is
    1276 0000003c 9245          MOV       AL,*-SP[5]            ; [CPU_ALU] |158| 
    1277 0000003d       $C$L6:    
    1278                      .dwpsn  file "C:/ti/Workspace/PLC_certificate/Software/uCOS-II/Source/os_core.c",line 159,column 1,is
    1279 0000003d FE86          SUBB      SP,#6                 ; [CPU_ARAU] 
    1280                      .dwcfi  cfa_offset, -2
    1281              $C$DW$90        .dwtag  DW_TAG_TI_branch
    1282                      .dwattr $C$DW$90, DW_AT_low_pc(0x00)
    1283                      .dwattr $C$DW$90, DW_AT_TI_return
    1284              
    1285 0000003e 0006          LRETR     ; [CPU_ALU] 
    1286                      ; return occurs ; [] 
    1287                      .dwattr $C$DW$79, DW_AT_TI_end_file("C:/ti/Workspace/PLC_certificate/Software/uCOS-II/Source/os_core.
    1288                      .dwattr $C$DW$79, DW_AT_TI_end_line(0x9f)
    1289                      .dwattr $C$DW$79, DW_AT_TI_end_column(0x01)
    1290                      .dwendentry
    1291                      .dwendtag $C$DW$79
    1292              
    1293 0000003f               .sect   ".text"
    1294                      .clink
    1295                      .global _OSEventNameSet
    1296              
    1297              $C$DW$91        .dwtag  DW_TAG_subprogram
    1298                      .dwattr $C$DW$91, DW_AT_name("OSEventNameSet")
    1299                      .dwattr $C$DW$91, DW_AT_low_pc(_OSEventNameSet)
    1300                      .dwattr $C$DW$91, DW_AT_high_pc(0x00)
    1301                      .dwattr $C$DW$91, DW_AT_TI_symbol_name("_OSEventNameSet")
    1302                      .dwattr $C$DW$91, DW_AT_external
    1303                      .dwattr $C$DW$91, DW_AT_TI_begin_file("C:/ti/Workspace/PLC_certificate/Software/uCOS-II/Source/os_cor
    1304                      .dwattr $C$DW$91, DW_AT_TI_begin_line(0xbe)
    1305                      .dwattr $C$DW$91, DW_AT_TI_begin_column(0x07)
    1306                      .dwattr $C$DW$91, DW_AT_TI_max_frame_size(-8)
    1307                      .dwpsn  file "C:/ti/Workspace/PLC_certificate/Software/uCOS-II/Source/os_core.c",line 193,column 1,is
    1308              
    1309                      .dwfde $C$DW$CIE, _OSEventNameSet
    1310              $C$DW$92        .dwtag  DW_TAG_formal_parameter
    1311                      .dwattr $C$DW$92, DW_AT_name("pevent")
    1312                      .dwattr $C$DW$92, DW_AT_TI_symbol_name("_pevent")
TMS320C2000 Assembler PC v20.2.1 Tue Feb 16 00:15:57 2021

Copyright (c) 1996-2018 Texas Instruments Incorporated
os_core.asm                                                          PAGE   25

    1313                      .dwattr $C$DW$92, DW_AT_type(*$C$DW$T$38)
    1314                      .dwattr $C$DW$92, DW_AT_location[DW_OP_reg12]
    1315              
    1316              $C$DW$93        .dwtag  DW_TAG_formal_parameter
    1317                      .dwattr $C$DW$93, DW_AT_name("pname")
    1318                      .dwattr $C$DW$93, DW_AT_TI_symbol_name("_pname")
    1319                      .dwattr $C$DW$93, DW_AT_type(*$C$DW$T$23)
    1320                      .dwattr $C$DW$93, DW_AT_location[DW_OP_reg14]
    1321              
    1322              $C$DW$94        .dwtag  DW_TAG_formal_parameter
    1323                      .dwattr $C$DW$94, DW_AT_name("perr")
    1324                      .dwattr $C$DW$94, DW_AT_TI_symbol_name("_perr")
    1325                      .dwattr $C$DW$94, DW_AT_type(*$C$DW$T$23)
    1326                      .dwattr $C$DW$94, DW_AT_location[DW_OP_breg20 -10]
    1327              
    1328              
    1329              ;***************************************************************
    1330              ;* FNAME: _OSEventNameSet               FR SIZE:   6           *
    1331              ;*                                                             *
    1332              ;* FUNCTION ENVIRONMENT                                        *
    1333              ;*                                                             *
    1334              ;* FUNCTION PROPERTIES                                         *
    1335              ;*                            0 Parameter,  5 Auto,  0 SOE     *
    1336              ;***************************************************************
    1337              
    1338 0000003f       _OSEventNameSet:
    1339                      .dwcfi  cfa_offset, -2
    1340                      .dwcfi  save_reg_to_mem, 26, 0
    1341 0000003f FE06          ADDB      SP,#6                 ; [CPU_ARAU] 
    1342                      .dwcfi  cfa_offset, -8
    1343              $C$DW$95        .dwtag  DW_TAG_variable
    1344                      .dwattr $C$DW$95, DW_AT_name("pevent")
    1345                      .dwattr $C$DW$95, DW_AT_TI_symbol_name("_pevent")
    1346                      .dwattr $C$DW$95, DW_AT_type(*$C$DW$T$38)
    1347                      .dwattr $C$DW$95, DW_AT_location[DW_OP_breg20 -2]
    1348              
    1349              $C$DW$96        .dwtag  DW_TAG_variable
    1350                      .dwattr $C$DW$96, DW_AT_name("pname")
    1351                      .dwattr $C$DW$96, DW_AT_TI_symbol_name("_pname")
    1352                      .dwattr $C$DW$96, DW_AT_type(*$C$DW$T$23)
    1353                      .dwattr $C$DW$96, DW_AT_location[DW_OP_breg20 -4]
    1354              
    1355              $C$DW$97        .dwtag  DW_TAG_variable
    1356                      .dwattr $C$DW$97, DW_AT_name("cpu_sr")
    1357                      .dwattr $C$DW$97, DW_AT_TI_symbol_name("_cpu_sr")
    1358                      .dwattr $C$DW$97, DW_AT_type(*$C$DW$T$44)
    1359                      .dwattr $C$DW$97, DW_AT_location[DW_OP_breg20 -5]
    1360              
    1361 00000040 A044          MOVL      *-SP[4],XAR5          ; [CPU_ALU] |193| 
    1362 00000041 A842          MOVL      *-SP[2],XAR4          ; [CPU_ALU] |193| 
    1363                      .dwpsn  file "C:/ti/Workspace/PLC_certificate/Software/uCOS-II/Source/os_core.c",line 195,column 23,i
    1364 00000042 2B45          MOV       *-SP[5],#0            ; [CPU_ALU] |195| 
    1365                      .dwpsn  file "C:/ti/Workspace/PLC_certificate/Software/uCOS-II/Source/os_core.c",line 208,column 5,is
    1366 00000043 0642          MOVL      ACC,*-SP[2]           ; [CPU_ALU] |208| 
    1367 00000044 6005          B         $C$L7,NEQ             ; [CPU_ALU] |208| 
TMS320C2000 Assembler PC v20.2.1 Tue Feb 16 00:15:57 2021

Copyright (c) 1996-2018 Texas Instruments Incorporated
os_core.asm                                                          PAGE   26

    1368                      ; branchcc occurs ; [] |208| 
    1369                      .dwpsn  file "C:/ti/Workspace/PLC_certificate/Software/uCOS-II/Source/os_core.c",line 209,column 9,is
    1370 00000045 8A4A          MOVL      XAR4,*-SP[10]         ; [CPU_ALU] |209| 
    1371 00000046 56BF          MOVB      *+XAR4[0],#4,UNC      ; [CPU_ALU] |209| 
         00000047 04C4 
    1372                      .dwpsn  file "C:/ti/Workspace/PLC_certificate/Software/uCOS-II/Source/os_core.c",line 210,column 9,is
    1373 00000048 6F29          B         $C$L12,UNC            ; [CPU_ALU] |210| 
    1374                      ; branch occurs ; [] |210| 
    1375 00000049       $C$L7:    
    1376                      .dwpsn  file "C:/ti/Workspace/PLC_certificate/Software/uCOS-II/Source/os_core.c",line 212,column 5,is
    1377 00000049 0644          MOVL      ACC,*-SP[4]           ; [CPU_ALU] |212| 
    1378 0000004a 6005          B         $C$L8,NEQ             ; [CPU_ALU] |212| 
    1379                      ; branchcc occurs ; [] |212| 
    1380                      .dwpsn  file "C:/ti/Workspace/PLC_certificate/Software/uCOS-II/Source/os_core.c",line 213,column 9,is
    1381 0000004b 8A4A          MOVL      XAR4,*-SP[10]         ; [CPU_ALU] |213| 
    1382 0000004c 56BF          MOVB      *+XAR4[0],#12,UNC     ; [CPU_ALU] |213| 
         0000004d 0CC4 
    1383                      .dwpsn  file "C:/ti/Workspace/PLC_certificate/Software/uCOS-II/Source/os_core.c",line 214,column 9,is
    1384 0000004e 6F23          B         $C$L12,UNC            ; [CPU_ALU] |214| 
    1385                      ; branch occurs ; [] |214| 
    1386 0000004f       $C$L8:    
    1387                      .dwpsn  file "C:/ti/Workspace/PLC_certificate/Software/uCOS-II/Source/os_core.c",line 217,column 5,is
    1388 0000004f 761F-         MOVW      DP,#_OSIntNesting     ; [CPU_ARAU] 
         00000050 0000 
    1389 00000051 9202-         MOV       AL,@_OSIntNesting     ; [CPU_ALU] |217| 
    1390 00000052 6109          B         $C$L10,EQ             ; [CPU_ALU] |217| 
    1391                      ; branchcc occurs ; [] |217| 
    1392                      .dwpsn  file "C:/ti/Workspace/PLC_certificate/Software/uCOS-II/Source/os_core.c",line 218,column 9,is
    1393 00000053 8A4A          MOVL      XAR4,*-SP[10]         ; [CPU_ALU] |218| 
    1394 00000054 56BF          MOVB      *+XAR4[0],#18,UNC     ; [CPU_ALU] |218| 
         00000055 12C4 
    1395                      .dwpsn  file "C:/ti/Workspace/PLC_certificate/Software/uCOS-II/Source/os_core.c",line 219,column 9,is
    1396 00000056 6F1B          B         $C$L12,UNC            ; [CPU_ALU] |219| 
    1397                      ; branch occurs ; [] |219| 
    1398 00000057       $C$L9:    
    1399                      .dwpsn  file "C:/ti/Workspace/PLC_certificate/Software/uCOS-II/Source/os_core.c",line 229,column 14,i
    1400 00000057 8A4A          MOVL      XAR4,*-SP[10]         ; [CPU_ALU] |229| 
    1401 00000058 56BF          MOVB      *+XAR4[0],#1,UNC      ; [CPU_ALU] |229| 
         00000059 01C4 
    1402                      .dwpsn  file "C:/ti/Workspace/PLC_certificate/Software/uCOS-II/Source/os_core.c",line 230,column 14,i
    1403 0000005a 6F17          B         $C$L12,UNC            ; [CPU_ALU] |230| 
    1404                      ; branch occurs ; [] |230| 
    1405 0000005b       $C$L10:    
    1406                      .dwpsn  file "C:/ti/Workspace/PLC_certificate/Software/uCOS-II/Source/os_core.c",line 221,column 5,is
    1407 0000005b 92C4          MOV       AL,*+XAR4[0]          ; [CPU_ALU] |221| 
    1408 0000005c 5201          CMPB      AL,#1                 ; [CPU_ALU] |221| 
    1409 0000005d 6107          B         $C$L11,EQ             ; [CPU_ALU] |221| 
    1410                      ; branchcc occurs ; [] |221| 
    1411 0000005e 5202          CMPB      AL,#2                 ; [CPU_ALU] |221| 
    1412 0000005f 6105          B         $C$L11,EQ             ; [CPU_ALU] |221| 
    1413                      ; branchcc occurs ; [] |221| 
    1414 00000060 5203          CMPB      AL,#3                 ; [CPU_ALU] |221| 
    1415 00000061 6103          B         $C$L11,EQ             ; [CPU_ALU] |221| 
    1416                      ; branchcc occurs ; [] |221| 
    1417 00000062 5204          CMPB      AL,#4                 ; [CPU_ALU] |221| 
TMS320C2000 Assembler PC v20.2.1 Tue Feb 16 00:15:57 2021

Copyright (c) 1996-2018 Texas Instruments Incorporated
os_core.asm                                                          PAGE   27

    1418 00000063 60F4          B         $C$L9,NEQ             ; [CPU_ALU] |221| 
    1419                      ; branchcc occurs ; [] |221| 
    1420 00000064       $C$L11:    
    1421                      .dwpsn  file "C:/ti/Workspace/PLC_certificate/Software/uCOS-II/Source/os_core.c",line 232,column 5,is
    1422              $C$DW$98        .dwtag  DW_TAG_TI_branch
    1423                      .dwattr $C$DW$98, DW_AT_low_pc(0x00)
    1424                      .dwattr $C$DW$98, DW_AT_name("_OS_CPU_SR_Save")
    1425                      .dwattr $C$DW$98, DW_AT_TI_call
    1426              
    1427 00000064 7640!         LCR       #_OS_CPU_SR_Save      ; [CPU_ALU] |232| 
         00000065 0000 
    1428                      ; call occurs [#_OS_CPU_SR_Save] ; [] |232| 
    1429 00000066 9645          MOV       *-SP[5],AL            ; [CPU_ALU] |232| 
    1430                      .dwpsn  file "C:/ti/Workspace/PLC_certificate/Software/uCOS-II/Source/os_core.c",line 233,column 5,is
    1431 00000067 C444          MOVL      XAR6,*-SP[4]          ; [CPU_ALU] |233| 
    1432 00000068 020E          MOVB      ACC,#14               ; [CPU_ALU] |233| 
    1433 00000069 0742          ADDL      ACC,*-SP[2]           ; [CPU_ALU] |233| 
    1434 0000006a 8AA9          MOVL      XAR4,ACC              ; [CPU_ALU] |233| 
    1435 0000006b C2C4          MOVL      *+XAR4[0],XAR6        ; [CPU_ALU] |233| 
    1436                      .dwpsn  file "C:/ti/Workspace/PLC_certificate/Software/uCOS-II/Source/os_core.c",line 234,column 5,is
    1437 0000006c 9245          MOV       AL,*-SP[5]            ; [CPU_ALU] |234| 
    1438              $C$DW$99        .dwtag  DW_TAG_TI_branch
    1439                      .dwattr $C$DW$99, DW_AT_low_pc(0x00)
    1440                      .dwattr $C$DW$99, DW_AT_name("_OS_CPU_SR_Restore")
    1441                      .dwattr $C$DW$99, DW_AT_TI_call
    1442              
    1443 0000006d 7640!         LCR       #_OS_CPU_SR_Restore   ; [CPU_ALU] |234| 
         0000006e 0000 
    1444                      ; call occurs [#_OS_CPU_SR_Restore] ; [] |234| 
    1445                      .dwpsn  file "C:/ti/Workspace/PLC_certificate/Software/uCOS-II/Source/os_core.c",line 235,column 5,is
    1446 0000006f 8A4A          MOVL      XAR4,*-SP[10]         ; [CPU_ALU] |235| 
    1447 00000070 2BC4          MOV       *+XAR4[0],#0          ; [CPU_ALU] |235| 
    1448                      .dwpsn  file "C:/ti/Workspace/PLC_certificate/Software/uCOS-II/Source/os_core.c",line 236,column 1,is
    1449 00000071       $C$L12:    
    1450 00000071 FE86          SUBB      SP,#6                 ; [CPU_ARAU] 
    1451                      .dwcfi  cfa_offset, -2
    1452              $C$DW$100       .dwtag  DW_TAG_TI_branch
    1453                      .dwattr $C$DW$100, DW_AT_low_pc(0x00)
    1454                      .dwattr $C$DW$100, DW_AT_TI_return
    1455              
    1456 00000072 0006          LRETR     ; [CPU_ALU] 
    1457                      ; return occurs ; [] 
    1458                      .dwattr $C$DW$91, DW_AT_TI_end_file("C:/ti/Workspace/PLC_certificate/Software/uCOS-II/Source/os_core.
    1459                      .dwattr $C$DW$91, DW_AT_TI_end_line(0xec)
    1460                      .dwattr $C$DW$91, DW_AT_TI_end_column(0x01)
    1461                      .dwendentry
    1462                      .dwendtag $C$DW$91
    1463              
    1464 00000073               .sect   ".text"
    1465                      .clink
    1466                      .global _OSEventPendMulti
    1467              
    1468              $C$DW$101       .dwtag  DW_TAG_subprogram
    1469                      .dwattr $C$DW$101, DW_AT_name("OSEventPendMulti")
    1470                      .dwattr $C$DW$101, DW_AT_low_pc(_OSEventPendMulti)
TMS320C2000 Assembler PC v20.2.1 Tue Feb 16 00:15:57 2021

Copyright (c) 1996-2018 Texas Instruments Incorporated
os_core.asm                                                          PAGE   28

    1471                      .dwattr $C$DW$101, DW_AT_high_pc(0x00)
    1472                      .dwattr $C$DW$101, DW_AT_TI_symbol_name("_OSEventPendMulti")
    1473                      .dwattr $C$DW$101, DW_AT_external
    1474                      .dwattr $C$DW$101, DW_AT_type(*$C$DW$T$20)
    1475                      .dwattr $C$DW$101, DW_AT_TI_begin_file("C:/ti/Workspace/PLC_certificate/Software/uCOS-II/Source/os_co
    1476                      .dwattr $C$DW$101, DW_AT_TI_begin_line(0x138)
    1477                      .dwattr $C$DW$101, DW_AT_TI_begin_column(0x09)
    1478                      .dwattr $C$DW$101, DW_AT_TI_max_frame_size(-18)
    1479                      .dwpsn  file "C:/ti/Workspace/PLC_certificate/Software/uCOS-II/Source/os_core.c",line 317,column 1,is
    1480              
    1481                      .dwfde $C$DW$CIE, _OSEventPendMulti
    1482              $C$DW$102       .dwtag  DW_TAG_formal_parameter
    1483                      .dwattr $C$DW$102, DW_AT_name("pevents_pend")
    1484                      .dwattr $C$DW$102, DW_AT_TI_symbol_name("_pevents_pend")
    1485                      .dwattr $C$DW$102, DW_AT_type(*$C$DW$T$39)
    1486                      .dwattr $C$DW$102, DW_AT_location[DW_OP_reg12]
    1487              
    1488              $C$DW$103       .dwtag  DW_TAG_formal_parameter
    1489                      .dwattr $C$DW$103, DW_AT_name("pevents_rdy")
    1490                      .dwattr $C$DW$103, DW_AT_TI_symbol_name("_pevents_rdy")
    1491                      .dwattr $C$DW$103, DW_AT_type(*$C$DW$T$39)
    1492                      .dwattr $C$DW$103, DW_AT_location[DW_OP_reg14]
    1493              
    1494              $C$DW$104       .dwtag  DW_TAG_formal_parameter
    1495                      .dwattr $C$DW$104, DW_AT_name("pmsgs_rdy")
    1496                      .dwattr $C$DW$104, DW_AT_TI_symbol_name("_pmsgs_rdy")
    1497                      .dwattr $C$DW$104, DW_AT_type(*$C$DW$T$31)
    1498                      .dwattr $C$DW$104, DW_AT_location[DW_OP_breg20 -20]
    1499              
    1500              $C$DW$105       .dwtag  DW_TAG_formal_parameter
    1501                      .dwattr $C$DW$105, DW_AT_name("timeout")
    1502                      .dwattr $C$DW$105, DW_AT_TI_symbol_name("_timeout")
    1503                      .dwattr $C$DW$105, DW_AT_type(*$C$DW$T$28)
    1504                      .dwattr $C$DW$105, DW_AT_location[DW_OP_reg0]
    1505              
    1506              $C$DW$106       .dwtag  DW_TAG_formal_parameter
    1507                      .dwattr $C$DW$106, DW_AT_name("perr")
    1508                      .dwattr $C$DW$106, DW_AT_TI_symbol_name("_perr")
    1509                      .dwattr $C$DW$106, DW_AT_type(*$C$DW$T$23)
    1510                      .dwattr $C$DW$106, DW_AT_location[DW_OP_breg20 -22]
    1511              
    1512              
    1513              ;***************************************************************
    1514              ;* FNAME: _OSEventPendMulti             FR SIZE:  16           *
    1515              ;*                                                             *
    1516              ;* FUNCTION ENVIRONMENT                                        *
    1517              ;*                                                             *
    1518              ;* FUNCTION PROPERTIES                                         *
    1519              ;*                            0 Parameter, 16 Auto,  0 SOE     *
    1520              ;***************************************************************
    1521              
    1522 00000073       _OSEventPendMulti:
    1523                      .dwcfi  cfa_offset, -2
    1524                      .dwcfi  save_reg_to_mem, 26, 0
    1525 00000073 FE10          ADDB      SP,#16                ; [CPU_ARAU] 
TMS320C2000 Assembler PC v20.2.1 Tue Feb 16 00:15:57 2021

Copyright (c) 1996-2018 Texas Instruments Incorporated
os_core.asm                                                          PAGE   29

    1526                      .dwcfi  cfa_offset, -18
    1527              $C$DW$107       .dwtag  DW_TAG_variable
    1528                      .dwattr $C$DW$107, DW_AT_name("pevents_pend")
    1529                      .dwattr $C$DW$107, DW_AT_TI_symbol_name("_pevents_pend")
    1530                      .dwattr $C$DW$107, DW_AT_type(*$C$DW$T$39)
    1531                      .dwattr $C$DW$107, DW_AT_location[DW_OP_breg20 -2]
    1532              
    1533              $C$DW$108       .dwtag  DW_TAG_variable
    1534                      .dwattr $C$DW$108, DW_AT_name("pevents_rdy")
    1535                      .dwattr $C$DW$108, DW_AT_TI_symbol_name("_pevents_rdy")
    1536                      .dwattr $C$DW$108, DW_AT_type(*$C$DW$T$39)
    1537                      .dwattr $C$DW$108, DW_AT_location[DW_OP_breg20 -4]
    1538              
    1539              $C$DW$109       .dwtag  DW_TAG_variable
    1540                      .dwattr $C$DW$109, DW_AT_name("timeout")
    1541                      .dwattr $C$DW$109, DW_AT_TI_symbol_name("_timeout")
    1542                      .dwattr $C$DW$109, DW_AT_type(*$C$DW$T$28)
    1543                      .dwattr $C$DW$109, DW_AT_location[DW_OP_breg20 -6]
    1544              
    1545              $C$DW$110       .dwtag  DW_TAG_variable
    1546                      .dwattr $C$DW$110, DW_AT_name("pevents")
    1547                      .dwattr $C$DW$110, DW_AT_TI_symbol_name("_pevents")
    1548                      .dwattr $C$DW$110, DW_AT_type(*$C$DW$T$39)
    1549                      .dwattr $C$DW$110, DW_AT_location[DW_OP_breg20 -8]
    1550              
    1551              $C$DW$111       .dwtag  DW_TAG_variable
    1552                      .dwattr $C$DW$111, DW_AT_name("pevent")
    1553                      .dwattr $C$DW$111, DW_AT_TI_symbol_name("_pevent")
    1554                      .dwattr $C$DW$111, DW_AT_type(*$C$DW$T$38)
    1555                      .dwattr $C$DW$111, DW_AT_location[DW_OP_breg20 -10]
    1556              
    1557              $C$DW$112       .dwtag  DW_TAG_variable
    1558                      .dwattr $C$DW$112, DW_AT_name("pq")
    1559                      .dwattr $C$DW$112, DW_AT_TI_symbol_name("_pq")
    1560                      .dwattr $C$DW$112, DW_AT_type(*$C$DW$T$108)
    1561                      .dwattr $C$DW$112, DW_AT_location[DW_OP_breg20 -12]
    1562              
    1563              $C$DW$113       .dwtag  DW_TAG_variable
    1564                      .dwattr $C$DW$113, DW_AT_name("events_rdy")
    1565                      .dwattr $C$DW$113, DW_AT_TI_symbol_name("_events_rdy")
    1566                      .dwattr $C$DW$113, DW_AT_type(*$C$DW$T$70)
    1567                      .dwattr $C$DW$113, DW_AT_location[DW_OP_breg20 -13]
    1568              
    1569              $C$DW$114       .dwtag  DW_TAG_variable
    1570                      .dwattr $C$DW$114, DW_AT_name("events_rdy_nbr")
    1571                      .dwattr $C$DW$114, DW_AT_TI_symbol_name("_events_rdy_nbr")
    1572                      .dwattr $C$DW$114, DW_AT_type(*$C$DW$T$20)
    1573                      .dwattr $C$DW$114, DW_AT_location[DW_OP_breg20 -14]
    1574              
    1575              $C$DW$115       .dwtag  DW_TAG_variable
    1576                      .dwattr $C$DW$115, DW_AT_name("events_stat")
    1577                      .dwattr $C$DW$115, DW_AT_TI_symbol_name("_events_stat")
    1578                      .dwattr $C$DW$115, DW_AT_type(*$C$DW$T$19)
    1579                      .dwattr $C$DW$115, DW_AT_location[DW_OP_breg20 -15]
    1580              
TMS320C2000 Assembler PC v20.2.1 Tue Feb 16 00:15:57 2021

Copyright (c) 1996-2018 Texas Instruments Incorporated
os_core.asm                                                          PAGE   30

    1581              $C$DW$116       .dwtag  DW_TAG_variable
    1582                      .dwattr $C$DW$116, DW_AT_name("cpu_sr")
    1583                      .dwattr $C$DW$116, DW_AT_TI_symbol_name("_cpu_sr")
    1584                      .dwattr $C$DW$116, DW_AT_type(*$C$DW$T$44)
    1585                      .dwattr $C$DW$116, DW_AT_location[DW_OP_breg20 -16]
    1586              
    1587 00000074 1E46          MOVL      *-SP[6],ACC           ; [CPU_ALU] |317| 
    1588 00000075 A044          MOVL      *-SP[4],XAR5          ; [CPU_ALU] |317| 
    1589 00000076 A842          MOVL      *-SP[2],XAR4          ; [CPU_ALU] |317| 
    1590                      .dwpsn  file "C:/ti/Workspace/PLC_certificate/Software/uCOS-II/Source/os_core.c",line 327,column 24,i
    1591 00000077 2B50          MOV       *-SP[16],#0           ; [CPU_ALU] |327| 
    1592                      .dwpsn  file "C:/ti/Workspace/PLC_certificate/Software/uCOS-II/Source/os_core.c",line 340,column 5,is
    1593 00000078 0642          MOVL      ACC,*-SP[2]           ; [CPU_ALU] |340| 
    1594 00000079 6007          B         $C$L13,NEQ            ; [CPU_ALU] |340| 
    1595                      ; branchcc occurs ; [] |340| 
    1596                      .dwpsn  file "C:/ti/Workspace/PLC_certificate/Software/uCOS-II/Source/os_core.c",line 341,column 8,is
    1597 0000007a 8A56          MOVL      XAR4,*-SP[22]         ; [CPU_ALU] |341| 
    1598 0000007b 56BF          MOVB      *+XAR4[0],#4,UNC      ; [CPU_ALU] |341| 
         0000007c 04C4 
    1599                      .dwpsn  file "C:/ti/Workspace/PLC_certificate/Software/uCOS-II/Source/os_core.c",line 342,column 9,is
    1600 0000007d 9A00          MOVB      AL,#0                 ; [CPU_ALU] |342| 
    1601 0000007e FFEF          B         $C$L51,UNC            ; [CPU_ALU] |342| 
         0000007f 01AD 
    1602                      ; branch occurs ; [] |342| 
    1603 00000080       $C$L13:    
    1604                      .dwpsn  file "C:/ti/Workspace/PLC_certificate/Software/uCOS-II/Source/os_core.c",line 344,column 5,is
    1605 00000080 06C4          MOVL      ACC,*+XAR4[0]         ; [CPU_ALU] |344| 
    1606 00000081 6007          B         $C$L14,NEQ            ; [CPU_ALU] |344| 
    1607                      ; branchcc occurs ; [] |344| 
    1608                      .dwpsn  file "C:/ti/Workspace/PLC_certificate/Software/uCOS-II/Source/os_core.c",line 345,column 8,is
    1609 00000082 8A56          MOVL      XAR4,*-SP[22]         ; [CPU_ALU] |345| 
    1610 00000083 56BF          MOVB      *+XAR4[0],#4,UNC      ; [CPU_ALU] |345| 
         00000084 04C4 
    1611                      .dwpsn  file "C:/ti/Workspace/PLC_certificate/Software/uCOS-II/Source/os_core.c",line 346,column 9,is
    1612 00000085 9A00          MOVB      AL,#0                 ; [CPU_ALU] |346| 
    1613 00000086 FFEF          B         $C$L51,UNC            ; [CPU_ALU] |346| 
         00000087 01A5 
    1614                      ; branch occurs ; [] |346| 
    1615 00000088       $C$L14:    
    1616                      .dwpsn  file "C:/ti/Workspace/PLC_certificate/Software/uCOS-II/Source/os_core.c",line 348,column 5,is
    1617 00000088 0644          MOVL      ACC,*-SP[4]           ; [CPU_ALU] |348| 
    1618 00000089 6007          B         $C$L15,NEQ            ; [CPU_ALU] |348| 
    1619                      ; branchcc occurs ; [] |348| 
    1620                      .dwpsn  file "C:/ti/Workspace/PLC_certificate/Software/uCOS-II/Source/os_core.c",line 349,column 8,is
    1621 0000008a 8A56          MOVL      XAR4,*-SP[22]         ; [CPU_ALU] |349| 
    1622 0000008b 56BF          MOVB      *+XAR4[0],#4,UNC      ; [CPU_ALU] |349| 
         0000008c 04C4 
    1623                      .dwpsn  file "C:/ti/Workspace/PLC_certificate/Software/uCOS-II/Source/os_core.c",line 350,column 9,is
    1624 0000008d 9A00          MOVB      AL,#0                 ; [CPU_ALU] |350| 
    1625 0000008e FFEF          B         $C$L51,UNC            ; [CPU_ALU] |350| 
         0000008f 019D 
    1626                      ; branch occurs ; [] |350| 
    1627 00000090       $C$L15:    
    1628                      .dwpsn  file "C:/ti/Workspace/PLC_certificate/Software/uCOS-II/Source/os_core.c",line 352,column 5,is
    1629 00000090 0654          MOVL      ACC,*-SP[20]          ; [CPU_ALU] |352| 
TMS320C2000 Assembler PC v20.2.1 Tue Feb 16 00:15:57 2021

Copyright (c) 1996-2018 Texas Instruments Incorporated
os_core.asm                                                          PAGE   31

    1630 00000091 6007          B         $C$L16,NEQ            ; [CPU_ALU] |352| 
    1631                      ; branchcc occurs ; [] |352| 
    1632                      .dwpsn  file "C:/ti/Workspace/PLC_certificate/Software/uCOS-II/Source/os_core.c",line 353,column 8,is
    1633 00000092 8A56          MOVL      XAR4,*-SP[22]         ; [CPU_ALU] |353| 
    1634 00000093 56BF          MOVB      *+XAR4[0],#4,UNC      ; [CPU_ALU] |353| 
         00000094 04C4 
    1635                      .dwpsn  file "C:/ti/Workspace/PLC_certificate/Software/uCOS-II/Source/os_core.c",line 354,column 9,is
    1636 00000095 9A00          MOVB      AL,#0                 ; [CPU_ALU] |354| 
    1637 00000096 FFEF          B         $C$L51,UNC            ; [CPU_ALU] |354| 
         00000097 0195 
    1638                      ; branch occurs ; [] |354| 
    1639 00000098       $C$L16:    
    1640                      .dwpsn  file "C:/ti/Workspace/PLC_certificate/Software/uCOS-II/Source/os_core.c",line 358,column 4,is
    1641 00000098 8A44          MOVL      XAR4,*-SP[4]          ; [CPU_ALU] |358| 
    1642 00000099 0200          MOVB      ACC,#0                ; [CPU_ALU] |358| 
    1643 0000009a 1EC4          MOVL      *+XAR4[0],ACC         ; [CPU_ALU] |358| 
    1644                      .dwpsn  file "C:/ti/Workspace/PLC_certificate/Software/uCOS-II/Source/os_core.c",line 360,column 5,is
    1645 0000009b 0642          MOVL      ACC,*-SP[2]           ; [CPU_ALU] |360| 
    1646 0000009c 1E48          MOVL      *-SP[8],ACC           ; [CPU_ALU] |360| 
    1647                      .dwpsn  file "C:/ti/Workspace/PLC_certificate/Software/uCOS-II/Source/os_core.c",line 361,column 5,is
    1648 0000009d 8A48          MOVL      XAR4,*-SP[8]          ; [CPU_ALU] |361| 
    1649 0000009e 06C4          MOVL      ACC,*+XAR4[0]         ; [CPU_ALU] |361| 
    1650 0000009f 1E4A          MOVL      *-SP[10],ACC          ; [CPU_ALU] |361| 
    1651                      .dwpsn  file "C:/ti/Workspace/PLC_certificate/Software/uCOS-II/Source/os_core.c",line 362,column 13,i
    1652 000000a0 064A          MOVL      ACC,*-SP[10]          ; [CPU_ALU] |362| 
    1653 000000a1 6120          B         $C$L21,EQ             ; [CPU_ALU] |362| 
    1654                      ; branchcc occurs ; [] |362| 
    1655                      .dwpsn  file "C:/ti/Workspace/PLC_certificate/Software/uCOS-II/Source/os_core.c",line 363,column 9,is
    1656 000000a2 6F07          B         $C$L18,UNC            ; [CPU_ALU] |363| 
    1657                      ; branch occurs ; [] |363| 
    1658 000000a3       $C$L17:    
    1659                      .dwpsn  file "C:/ti/Workspace/PLC_certificate/Software/uCOS-II/Source/os_core.c",line 380,column 17,i
    1660 000000a3 8A56          MOVL      XAR4,*-SP[22]         ; [CPU_ALU] |380| 
    1661 000000a4 56BF          MOVB      *+XAR4[0],#1,UNC      ; [CPU_ALU] |380| 
         000000a5 01C4 
    1662                      .dwpsn  file "C:/ti/Workspace/PLC_certificate/Software/uCOS-II/Source/os_core.c",line 381,column 18,i
    1663 000000a6 9A00          MOVB      AL,#0                 ; [CPU_ALU] |381| 
    1664 000000a7 FFEF          B         $C$L51,UNC            ; [CPU_ALU] |381| 
         000000a8 0184 
    1665                      ; branch occurs ; [] |381| 
    1666 000000a9       $C$L18:    
    1667                      .dwpsn  file "C:/ti/Workspace/PLC_certificate/Software/uCOS-II/Source/os_core.c",line 363,column 9,is
    1668 000000a9 8A4A          MOVL      XAR4,*-SP[10]         ; [CPU_ALU] |363| 
    1669 000000aa 92C4          MOV       AL,*+XAR4[0]          ; [CPU_ALU] |363| 
    1670 000000ab 5203          CMPB      AL,#3                 ; [CPU_ALU] |363| 
    1671 000000ac 6208          B         $C$L19,GT             ; [CPU_ALU] |363| 
    1672                      ; branchcc occurs ; [] |363| 
    1673 000000ad 5203          CMPB      AL,#3                 ; [CPU_ALU] |363| 
    1674 000000ae 610B          B         $C$L20,EQ             ; [CPU_ALU] |363| 
    1675                      ; branchcc occurs ; [] |363| 
    1676 000000af 5201          CMPB      AL,#1                 ; [CPU_ALU] |363| 
    1677 000000b0 6109          B         $C$L20,EQ             ; [CPU_ALU] |363| 
    1678                      ; branchcc occurs ; [] |363| 
    1679 000000b1 5202          CMPB      AL,#2                 ; [CPU_ALU] |363| 
    1680 000000b2 6107          B         $C$L20,EQ             ; [CPU_ALU] |363| 
TMS320C2000 Assembler PC v20.2.1 Tue Feb 16 00:15:57 2021

Copyright (c) 1996-2018 Texas Instruments Incorporated
os_core.asm                                                          PAGE   32

    1681                      ; branchcc occurs ; [] |363| 
    1682 000000b3 6FF0          B         $C$L17,UNC            ; [CPU_ALU] |363| 
    1683                      ; branch occurs ; [] |363| 
    1684 000000b4       $C$L19:    
    1685 000000b4 5204          CMPB      AL,#4                 ; [CPU_ALU] |363| 
    1686 000000b5 61EE          B         $C$L17,EQ             ; [CPU_ALU] |363| 
    1687                      ; branchcc occurs ; [] |363| 
    1688 000000b6 5205          CMPB      AL,#5                 ; [CPU_ALU] |363| 
    1689 000000b7 61EC          B         $C$L17,EQ             ; [CPU_ALU] |363| 
    1690                      ; branchcc occurs ; [] |363| 
    1691 000000b8 6FEB          B         $C$L17,UNC            ; [CPU_ALU] |363| 
    1692                      ; branch occurs ; [] |363| 
    1693 000000b9       $C$L20:    
    1694                      .dwpsn  file "C:/ti/Workspace/PLC_certificate/Software/uCOS-II/Source/os_core.c",line 383,column 9,is
    1695 000000b9 0202          MOVB      ACC,#2                ; [CPU_ALU] |383| 
    1696 000000ba 0748          ADDL      ACC,*-SP[8]           ; [CPU_ALU] |383| 
    1697 000000bb 1E48          MOVL      *-SP[8],ACC           ; [CPU_ALU] |383| 
    1698                      .dwpsn  file "C:/ti/Workspace/PLC_certificate/Software/uCOS-II/Source/os_core.c",line 384,column 9,is
    1699 000000bc 8A48          MOVL      XAR4,*-SP[8]          ; [CPU_ALU] |384| 
    1700 000000bd 06C4          MOVL      ACC,*+XAR4[0]         ; [CPU_ALU] |384| 
    1701 000000be 1E4A          MOVL      *-SP[10],ACC          ; [CPU_ALU] |384| 
    1702                      .dwpsn  file "C:/ti/Workspace/PLC_certificate/Software/uCOS-II/Source/os_core.c",line 362,column 13,i
    1703 000000bf 064A          MOVL      ACC,*-SP[10]          ; [CPU_ALU] |362| 
    1704 000000c0 60E9          B         $C$L18,NEQ            ; [CPU_ALU] |362| 
    1705                      ; branchcc occurs ; [] |362| 
    1706 000000c1       $C$L21:    
    1707                      .dwpsn  file "C:/ti/Workspace/PLC_certificate/Software/uCOS-II/Source/os_core.c",line 387,column 5,is
    1708 000000c1 761F-         MOVW      DP,#_OSIntNesting     ; [CPU_ARAU] 
         000000c2 0000 
    1709 000000c3 9202-         MOV       AL,@_OSIntNesting     ; [CPU_ALU] |387| 
    1710 000000c4 6107          B         $C$L22,EQ             ; [CPU_ALU] |387| 
    1711                      ; branchcc occurs ; [] |387| 
    1712                      .dwpsn  file "C:/ti/Workspace/PLC_certificate/Software/uCOS-II/Source/os_core.c",line 388,column 8,is
    1713 000000c5 8A56          MOVL      XAR4,*-SP[22]         ; [CPU_ALU] |388| 
    1714 000000c6 56BF          MOVB      *+XAR4[0],#2,UNC      ; [CPU_ALU] |388| 
         000000c7 02C4 
    1715                      .dwpsn  file "C:/ti/Workspace/PLC_certificate/Software/uCOS-II/Source/os_core.c",line 389,column 9,is
    1716 000000c8 9A00          MOVB      AL,#0                 ; [CPU_ALU] |389| 
    1717 000000c9 FFEF          B         $C$L51,UNC            ; [CPU_ALU] |389| 
         000000ca 0162 
    1718                      ; branch occurs ; [] |389| 
    1719 000000cb       $C$L22:    
    1720                      .dwpsn  file "C:/ti/Workspace/PLC_certificate/Software/uCOS-II/Source/os_core.c",line 391,column 5,is
    1721 000000cb 9203-         MOV       AL,@_OSLockNesting    ; [CPU_ALU] |391| 
    1722 000000cc 6107          B         $C$L23,EQ             ; [CPU_ALU] |391| 
    1723                      ; branchcc occurs ; [] |391| 
    1724                      .dwpsn  file "C:/ti/Workspace/PLC_certificate/Software/uCOS-II/Source/os_core.c",line 392,column 8,is
    1725 000000cd 8A56          MOVL      XAR4,*-SP[22]         ; [CPU_ALU] |392| 
    1726 000000ce 56BF          MOVB      *+XAR4[0],#13,UNC     ; [CPU_ALU] |392| 
         000000cf 0DC4 
    1727                      .dwpsn  file "C:/ti/Workspace/PLC_certificate/Software/uCOS-II/Source/os_core.c",line 393,column 9,is
    1728 000000d0 9A00          MOVB      AL,#0                 ; [CPU_ALU] |393| 
    1729 000000d1 FFEF          B         $C$L51,UNC            ; [CPU_ALU] |393| 
         000000d2 015A 
    1730                      ; branch occurs ; [] |393| 
TMS320C2000 Assembler PC v20.2.1 Tue Feb 16 00:15:57 2021

Copyright (c) 1996-2018 Texas Instruments Incorporated
os_core.asm                                                          PAGE   33

    1731 000000d3       $C$L23:    
    1732                      .dwpsn  file "C:/ti/Workspace/PLC_certificate/Software/uCOS-II/Source/os_core.c",line 397,column 5,is
    1733 000000d3 2B4D          MOV       *-SP[13],#0           ; [CPU_ALU] |397| 
    1734                      .dwpsn  file "C:/ti/Workspace/PLC_certificate/Software/uCOS-II/Source/os_core.c",line 398,column 5,is
    1735 000000d4 2B4E          MOV       *-SP[14],#0           ; [CPU_ALU] |398| 
    1736                      .dwpsn  file "C:/ti/Workspace/PLC_certificate/Software/uCOS-II/Source/os_core.c",line 399,column 5,is
    1737 000000d5 2B4F          MOV       *-SP[15],#0           ; [CPU_ALU] |399| 
    1738                      .dwpsn  file "C:/ti/Workspace/PLC_certificate/Software/uCOS-II/Source/os_core.c",line 400,column 5,is
    1739 000000d6 0642          MOVL      ACC,*-SP[2]           ; [CPU_ALU] |400| 
    1740 000000d7 1E48          MOVL      *-SP[8],ACC           ; [CPU_ALU] |400| 
    1741                      .dwpsn  file "C:/ti/Workspace/PLC_certificate/Software/uCOS-II/Source/os_core.c",line 401,column 5,is
    1742 000000d8 8A48          MOVL      XAR4,*-SP[8]          ; [CPU_ALU] |401| 
    1743 000000d9 06C4          MOVL      ACC,*+XAR4[0]         ; [CPU_ALU] |401| 
    1744 000000da 1E4A          MOVL      *-SP[10],ACC          ; [CPU_ALU] |401| 
    1745                      .dwpsn  file "C:/ti/Workspace/PLC_certificate/Software/uCOS-II/Source/os_core.c",line 402,column 5,is
    1746              $C$DW$117       .dwtag  DW_TAG_TI_branch
    1747                      .dwattr $C$DW$117, DW_AT_low_pc(0x00)
    1748                      .dwattr $C$DW$117, DW_AT_name("_OS_CPU_SR_Save")
    1749                      .dwattr $C$DW$117, DW_AT_TI_call
    1750              
    1751 000000db 7640!         LCR       #_OS_CPU_SR_Save      ; [CPU_ALU] |402| 
         000000dc 0000 
    1752                      ; call occurs [#_OS_CPU_SR_Save] ; [] |402| 
    1753 000000dd 9650          MOV       *-SP[16],AL           ; [CPU_ALU] |402| 
    1754                      .dwpsn  file "C:/ti/Workspace/PLC_certificate/Software/uCOS-II/Source/os_core.c",line 403,column 12,i
    1755 000000de 064A          MOVL      ACC,*-SP[10]          ; [CPU_ALU] |403| 
    1756 000000df FFE1          B         $C$L35,EQ             ; [CPU_ALU] |403| 
         000000e0 008A 
    1757                      ; branchcc occurs ; [] |403| 
    1758                      .dwpsn  file "C:/ti/Workspace/PLC_certificate/Software/uCOS-II/Source/os_core.c",line 404,column 9,is
    1759 000000e1 6F70          B         $C$L32,UNC            ; [CPU_ALU] |404| 
    1760                      ; branch occurs ; [] |404| 
    1761 000000e2       $C$L24:    
    1762                      .dwpsn  file "C:/ti/Workspace/PLC_certificate/Software/uCOS-II/Source/os_core.c",line 407,column 18,i
    1763 000000e2 92E4          MOV       AL,*+XAR4[4]          ; [CPU_ALU] |407| 
    1764 000000e3 6112          B         $C$L25,EQ             ; [CPU_ALU] |407| 
    1765                      ; branchcc occurs ; [] |407| 
    1766                      .dwpsn  file "C:/ti/Workspace/PLC_certificate/Software/uCOS-II/Source/os_core.c",line 408,column 22,i
    1767 000000e4 0BE4          DEC       *+XAR4[4]             ; [CPU_ALU] |408| 
    1768                      .dwpsn  file "C:/ti/Workspace/PLC_certificate/Software/uCOS-II/Source/os_core.c",line 409,column 21,i
    1769 000000e5 8A44          MOVL      XAR4,*-SP[4]          ; [CPU_ALU] |409| 
    1770 000000e6 A8A9          MOVL      ACC,XAR4              ; [CPU_ALU] |409| 
    1771 000000e7 0902          ADDB      ACC,#2                ; [CPU_ALU] |409| 
    1772 000000e8 1E44          MOVL      *-SP[4],ACC           ; [CPU_ALU] |409| 
    1773 000000e9 064A          MOVL      ACC,*-SP[10]          ; [CPU_ALU] |409| 
    1774 000000ea 1EC4          MOVL      *+XAR4[0],ACC         ; [CPU_ALU] |409| 
    1775                      .dwpsn  file "C:/ti/Workspace/PLC_certificate/Software/uCOS-II/Source/os_core.c",line 410,column 23,i
    1776 000000eb 56BF          MOVB      *-SP[13],#1,UNC       ; [CPU_ALU] |410| 
         000000ec 014D 
    1777                      .dwpsn  file "C:/ti/Workspace/PLC_certificate/Software/uCOS-II/Source/os_core.c",line 411,column 21,i
    1778 000000ed 8A54          MOVL      XAR4,*-SP[20]         ; [CPU_ALU] |411| 
    1779 000000ee A8A9          MOVL      ACC,XAR4              ; [CPU_ALU] |411| 
    1780 000000ef 0902          ADDB      ACC,#2                ; [CPU_ALU] |411| 
    1781 000000f0 1E54          MOVL      *-SP[20],ACC          ; [CPU_ALU] |411| 
    1782 000000f1 0200          MOVB      ACC,#0                ; [CPU_ALU] |411| 
TMS320C2000 Assembler PC v20.2.1 Tue Feb 16 00:15:57 2021

Copyright (c) 1996-2018 Texas Instruments Incorporated
os_core.asm                                                          PAGE   34

    1783 000000f2 1EC4          MOVL      *+XAR4[0],ACC         ; [CPU_ALU] |411| 
    1784                      .dwpsn  file "C:/ti/Workspace/PLC_certificate/Software/uCOS-II/Source/os_core.c",line 412,column 23,i
    1785 000000f3 0A4E          INC       *-SP[14]              ; [CPU_ALU] |412| 
    1786 000000f4 6F6D          B         $C$L34,UNC            ; [CPU_ALU] 
    1787                      ; branch occurs ; [] 
    1788 000000f5       $C$L25:    
    1789                      .dwpsn  file "C:/ti/Workspace/PLC_certificate/Software/uCOS-II/Source/os_core.c",line 415,column 23,i
    1790 000000f5 1A4F          OR        *-SP[15],#0x0001      ; [CPU_ALU] |415| 
         000000f6 0001 
    1791                      .dwpsn  file "C:/ti/Workspace/PLC_certificate/Software/uCOS-II/Source/os_core.c",line 417,column 18,i
    1792 000000f7 6F6A          B         $C$L34,UNC            ; [CPU_ALU] |417| 
    1793                      ; branch occurs ; [] |417| 
    1794 000000f8       $C$L26:    
    1795                      .dwpsn  file "C:/ti/Workspace/PLC_certificate/Software/uCOS-II/Source/os_core.c",line 422,column 18,i
    1796 000000f8 06D4          MOVL      ACC,*+XAR4[2]         ; [CPU_ALU] |422| 
    1797 000000f9 6115          B         $C$L27,EQ             ; [CPU_ALU] |422| 
    1798                      ; branchcc occurs ; [] |422| 
    1799                      .dwpsn  file "C:/ti/Workspace/PLC_certificate/Software/uCOS-II/Source/os_core.c",line 424,column 21,i
    1800 000000fa 8A54          MOVL      XAR4,*-SP[20]         ; [CPU_ALU] |424| 
    1801 000000fb 834A          MOVL      XAR5,*-SP[10]         ; [CPU_ALU] |424| 
    1802 000000fc A8A9          MOVL      ACC,XAR4              ; [CPU_ALU] |424| 
    1803 000000fd 0902          ADDB      ACC,#2                ; [CPU_ALU] |424| 
    1804 000000fe 1E54          MOVL      *-SP[20],ACC          ; [CPU_ALU] |424| 
    1805 000000ff 06D5          MOVL      ACC,*+XAR5[2]         ; [CPU_ALU] |424| 
    1806 00000100 1EC4          MOVL      *+XAR4[0],ACC         ; [CPU_ALU] |424| 
    1807                      .dwpsn  file "C:/ti/Workspace/PLC_certificate/Software/uCOS-II/Source/os_core.c",line 425,column 22,i
    1808 00000101 8A4A          MOVL      XAR4,*-SP[10]         ; [CPU_ALU] |425| 
    1809 00000102 0200          MOVB      ACC,#0                ; [CPU_ALU] |425| 
    1810 00000103 1ED4          MOVL      *+XAR4[2],ACC         ; [CPU_ALU] |425| 
    1811                      .dwpsn  file "C:/ti/Workspace/PLC_certificate/Software/uCOS-II/Source/os_core.c",line 426,column 21,i
    1812 00000104 8A44          MOVL      XAR4,*-SP[4]          ; [CPU_ALU] |426| 
    1813 00000105 A8A9          MOVL      ACC,XAR4              ; [CPU_ALU] |426| 
    1814 00000106 0902          ADDB      ACC,#2                ; [CPU_ALU] |426| 
    1815 00000107 1E44          MOVL      *-SP[4],ACC           ; [CPU_ALU] |426| 
    1816 00000108 064A          MOVL      ACC,*-SP[10]          ; [CPU_ALU] |426| 
    1817 00000109 1EC4          MOVL      *+XAR4[0],ACC         ; [CPU_ALU] |426| 
    1818                      .dwpsn  file "C:/ti/Workspace/PLC_certificate/Software/uCOS-II/Source/os_core.c",line 427,column 23,i
    1819 0000010a 56BF          MOVB      *-SP[13],#1,UNC       ; [CPU_ALU] |427| 
         0000010b 014D 
    1820                      .dwpsn  file "C:/ti/Workspace/PLC_certificate/Software/uCOS-II/Source/os_core.c",line 428,column 23,i
    1821 0000010c 0A4E          INC       *-SP[14]              ; [CPU_ALU] |428| 
    1822 0000010d 6F54          B         $C$L34,UNC            ; [CPU_ALU] 
    1823                      ; branch occurs ; [] 
    1824 0000010e       $C$L27:    
    1825                      .dwpsn  file "C:/ti/Workspace/PLC_certificate/Software/uCOS-II/Source/os_core.c",line 431,column 23,i
    1826 0000010e 1A4F          OR        *-SP[15],#0x0002      ; [CPU_ALU] |431| 
         0000010f 0002 
    1827                      .dwpsn  file "C:/ti/Workspace/PLC_certificate/Software/uCOS-II/Source/os_core.c",line 433,column 18,i
    1828 00000110 6F51          B         $C$L34,UNC            ; [CPU_ALU] |433| 
    1829                      ; branch occurs ; [] |433| 
    1830 00000111       $C$L28:    
    1831                      .dwpsn  file "C:/ti/Workspace/PLC_certificate/Software/uCOS-II/Source/os_core.c",line 438,column 18,i
    1832 00000111 06D4          MOVL      ACC,*+XAR4[2]         ; [CPU_ALU] |438| 
    1833 00000112 1E4C          MOVL      *-SP[12],ACC          ; [CPU_ALU] |438| 
    1834                      .dwpsn  file "C:/ti/Workspace/PLC_certificate/Software/uCOS-II/Source/os_core.c",line 439,column 18,i
TMS320C2000 Assembler PC v20.2.1 Tue Feb 16 00:15:57 2021

Copyright (c) 1996-2018 Texas Instruments Incorporated
os_core.asm                                                          PAGE   35

    1835 00000113 020B          MOVB      ACC,#11               ; [CPU_ALU] |439| 
    1836 00000114 074C          ADDL      ACC,*-SP[12]          ; [CPU_ALU] |439| 
    1837 00000115 8AA9          MOVL      XAR4,ACC              ; [CPU_ALU] |439| 
    1838 00000116 92C4          MOV       AL,*+XAR4[0]          ; [CPU_ALU] |439| 
    1839 00000117 612B          B         $C$L30,EQ             ; [CPU_ALU] |439| 
    1840                      ; branchcc occurs ; [] |439| 
    1841                      .dwpsn  file "C:/ti/Workspace/PLC_certificate/Software/uCOS-II/Source/os_core.c",line 441,column 21,i
    1842 00000118 0208          MOVB      ACC,#8                ; [CPU_ALU] |441| 
    1843 00000119 074C          ADDL      ACC,*-SP[12]          ; [CPU_ALU] |441| 
    1844 0000011a 8AA9          MOVL      XAR4,ACC              ; [CPU_ALU] |441| 
    1845 0000011b 83C4          MOVL      XAR5,*+XAR4[0]        ; [CPU_ALU] |441| 
    1846 0000011c 0208          MOVB      ACC,#8                ; [CPU_ALU] |441| 
    1847 0000011d 074C          ADDL      ACC,*-SP[12]          ; [CPU_ALU] |441| 
    1848 0000011e 8AA9          MOVL      XAR4,ACC              ; [CPU_ALU] |441| 
    1849 0000011f C485          MOVL      XAR6,*XAR5++          ; [CPU_ALU] |441| 
    1850 00000120 A0C4          MOVL      *+XAR4[0],XAR5        ; [CPU_ALU] |441| 
    1851 00000121 8A54          MOVL      XAR4,*-SP[20]         ; [CPU_ALU] |441| 
    1852 00000122 A8A9          MOVL      ACC,XAR4              ; [CPU_ALU] |441| 
    1853 00000123 0902          ADDB      ACC,#2                ; [CPU_ALU] |441| 
    1854 00000124 1E54          MOVL      *-SP[20],ACC          ; [CPU_ALU] |441| 
    1855 00000125 C2C4          MOVL      *+XAR4[0],XAR6        ; [CPU_ALU] |441| 
    1856                      .dwpsn  file "C:/ti/Workspace/PLC_certificate/Software/uCOS-II/Source/os_core.c",line 442,column 22,i
    1857 00000126 8A4C          MOVL      XAR4,*-SP[12]         ; [CPU_ALU] |442| 
    1858 00000127 C4E4          MOVL      XAR6,*+XAR4[4]        ; [CPU_ALU] |442| 
    1859 00000128 0208          MOVB      ACC,#8                ; [CPU_ALU] |442| 
    1860 00000129 074C          ADDL      ACC,*-SP[12]          ; [CPU_ALU] |442| 
    1861 0000012a 8AA9          MOVL      XAR4,ACC              ; [CPU_ALU] |442| 
    1862 0000012b 06A6          MOVL      ACC,XAR6              ; [CPU_ALU] |442| 
    1863 0000012c 0FC4          CMPL      ACC,*+XAR4[0]         ; [CPU_ALU] |442| 
    1864 0000012d 6007          B         $C$L29,NEQ            ; [CPU_ALU] |442| 
    1865                      ; branchcc occurs ; [] |442| 
    1866                      .dwpsn  file "C:/ti/Workspace/PLC_certificate/Software/uCOS-II/Source/os_core.c",line 443,column 26,i
    1867 0000012e 8A4C          MOVL      XAR4,*-SP[12]         ; [CPU_ALU] |443| 
    1868 0000012f C4D4          MOVL      XAR6,*+XAR4[2]        ; [CPU_ALU] |443| 
    1869 00000130 0208          MOVB      ACC,#8                ; [CPU_ALU] |443| 
    1870 00000131 074C          ADDL      ACC,*-SP[12]          ; [CPU_ALU] |443| 
    1871 00000132 8AA9          MOVL      XAR4,ACC              ; [CPU_ALU] |443| 
    1872 00000133 C2C4          MOVL      *+XAR4[0],XAR6        ; [CPU_ALU] |443| 
    1873 00000134       $C$L29:    
    1874                      .dwpsn  file "C:/ti/Workspace/PLC_certificate/Software/uCOS-II/Source/os_core.c",line 445,column 22,i
    1875 00000134 020B          MOVB      ACC,#11               ; [CPU_ALU] |445| 
    1876 00000135 074C          ADDL      ACC,*-SP[12]          ; [CPU_ALU] |445| 
    1877 00000136 8AA9          MOVL      XAR4,ACC              ; [CPU_ALU] |445| 
    1878 00000137 0BC4          DEC       *+XAR4[0]             ; [CPU_ALU] |445| 
    1879                      .dwpsn  file "C:/ti/Workspace/PLC_certificate/Software/uCOS-II/Source/os_core.c",line 446,column 21,i
    1880 00000138 8A44          MOVL      XAR4,*-SP[4]          ; [CPU_ALU] |446| 
    1881 00000139 A8A9          MOVL      ACC,XAR4              ; [CPU_ALU] |446| 
    1882 0000013a 0902          ADDB      ACC,#2                ; [CPU_ALU] |446| 
    1883 0000013b 1E44          MOVL      *-SP[4],ACC           ; [CPU_ALU] |446| 
    1884 0000013c 064A          MOVL      ACC,*-SP[10]          ; [CPU_ALU] |446| 
    1885 0000013d 1EC4          MOVL      *+XAR4[0],ACC         ; [CPU_ALU] |446| 
    1886                      .dwpsn  file "C:/ti/Workspace/PLC_certificate/Software/uCOS-II/Source/os_core.c",line 447,column 23,i
    1887 0000013e 56BF          MOVB      *-SP[13],#1,UNC       ; [CPU_ALU] |447| 
         0000013f 014D 
    1888                      .dwpsn  file "C:/ti/Workspace/PLC_certificate/Software/uCOS-II/Source/os_core.c",line 448,column 23,i
TMS320C2000 Assembler PC v20.2.1 Tue Feb 16 00:15:57 2021

Copyright (c) 1996-2018 Texas Instruments Incorporated
os_core.asm                                                          PAGE   36

    1889 00000140 0A4E          INC       *-SP[14]              ; [CPU_ALU] |448| 
    1890 00000141 6F20          B         $C$L34,UNC            ; [CPU_ALU] 
    1891                      ; branch occurs ; [] 
    1892 00000142       $C$L30:    
    1893                      .dwpsn  file "C:/ti/Workspace/PLC_certificate/Software/uCOS-II/Source/os_core.c",line 451,column 23,i
    1894 00000142 1A4F          OR        *-SP[15],#0x0004      ; [CPU_ALU] |451| 
         00000143 0004 
    1895                      .dwpsn  file "C:/ti/Workspace/PLC_certificate/Software/uCOS-II/Source/os_core.c",line 453,column 18,i
    1896 00000144 6F1D          B         $C$L34,UNC            ; [CPU_ALU] |453| 
    1897                      ; branch occurs ; [] |453| 
    1898 00000145       $C$L31:    
    1899                      .dwpsn  file "C:/ti/Workspace/PLC_certificate/Software/uCOS-II/Source/os_core.c",line 459,column 18,i
    1900 00000145 9250          MOV       AL,*-SP[16]           ; [CPU_ALU] |459| 
    1901              $C$DW$118       .dwtag  DW_TAG_TI_branch
    1902                      .dwattr $C$DW$118, DW_AT_low_pc(0x00)
    1903                      .dwattr $C$DW$118, DW_AT_name("_OS_CPU_SR_Restore")
    1904                      .dwattr $C$DW$118, DW_AT_TI_call
    1905              
    1906 00000146 7640!         LCR       #_OS_CPU_SR_Restore   ; [CPU_ALU] |459| 
         00000147 0000 
    1907                      ; call occurs [#_OS_CPU_SR_Restore] ; [] |459| 
    1908                      .dwpsn  file "C:/ti/Workspace/PLC_certificate/Software/uCOS-II/Source/os_core.c",line 460,column 17,i
    1909 00000148 8A44          MOVL      XAR4,*-SP[4]          ; [CPU_ALU] |460| 
    1910 00000149 0200          MOVB      ACC,#0                ; [CPU_ALU] |460| 
    1911 0000014a 1EC4          MOVL      *+XAR4[0],ACC         ; [CPU_ALU] |460| 
    1912                      .dwpsn  file "C:/ti/Workspace/PLC_certificate/Software/uCOS-II/Source/os_core.c",line 461,column 17,i
    1913 0000014b 8A56          MOVL      XAR4,*-SP[22]         ; [CPU_ALU] |461| 
    1914 0000014c 56BF          MOVB      *+XAR4[0],#1,UNC      ; [CPU_ALU] |461| 
         0000014d 01C4 
    1915                      .dwpsn  file "C:/ti/Workspace/PLC_certificate/Software/uCOS-II/Source/os_core.c",line 462,column 18,i
    1916 0000014e 924E          MOV       AL,*-SP[14]           ; [CPU_ALU] |462| 
    1917 0000014f FFEF          B         $C$L51,UNC            ; [CPU_ALU] |462| 
         00000150 00DC 
    1918                      ; branch occurs ; [] |462| 
    1919 00000151       $C$L32:    
    1920                      .dwpsn  file "C:/ti/Workspace/PLC_certificate/Software/uCOS-II/Source/os_core.c",line 404,column 9,is
    1921 00000151 8A4A          MOVL      XAR4,*-SP[10]         ; [CPU_ALU] |404| 
    1922 00000152 92C4          MOV       AL,*+XAR4[0]          ; [CPU_ALU] |404| 
    1923 00000153 5203          CMPB      AL,#3                 ; [CPU_ALU] |404| 
    1924 00000154 6208          B         $C$L33,GT             ; [CPU_ALU] |404| 
    1925                      ; branchcc occurs ; [] |404| 
    1926 00000155 5203          CMPB      AL,#3                 ; [CPU_ALU] |404| 
    1927 00000156 618C          B         $C$L24,EQ             ; [CPU_ALU] |404| 
    1928                      ; branchcc occurs ; [] |404| 
    1929 00000157 5201          CMPB      AL,#1                 ; [CPU_ALU] |404| 
    1930 00000158 61A0          B         $C$L26,EQ             ; [CPU_ALU] |404| 
    1931                      ; branchcc occurs ; [] |404| 
    1932 00000159 5202          CMPB      AL,#2                 ; [CPU_ALU] |404| 
    1933 0000015a 61B7          B         $C$L28,EQ             ; [CPU_ALU] |404| 
    1934                      ; branchcc occurs ; [] |404| 
    1935 0000015b 6FEA          B         $C$L31,UNC            ; [CPU_ALU] |404| 
    1936                      ; branch occurs ; [] |404| 
    1937 0000015c       $C$L33:    
    1938 0000015c 5204          CMPB      AL,#4                 ; [CPU_ALU] |404| 
    1939 0000015d 61E8          B         $C$L31,EQ             ; [CPU_ALU] |404| 
TMS320C2000 Assembler PC v20.2.1 Tue Feb 16 00:15:57 2021

Copyright (c) 1996-2018 Texas Instruments Incorporated
os_core.asm                                                          PAGE   37

    1940                      ; branchcc occurs ; [] |404| 
    1941 0000015e 5205          CMPB      AL,#5                 ; [CPU_ALU] |404| 
    1942 0000015f 61E6          B         $C$L31,EQ             ; [CPU_ALU] |404| 
    1943                      ; branchcc occurs ; [] |404| 
    1944 00000160 6FE5          B         $C$L31,UNC            ; [CPU_ALU] |404| 
    1945                      ; branch occurs ; [] |404| 
    1946 00000161       $C$L34:    
    1947                      .dwpsn  file "C:/ti/Workspace/PLC_certificate/Software/uCOS-II/Source/os_core.c",line 464,column 9,is
    1948 00000161 0202          MOVB      ACC,#2                ; [CPU_ALU] |464| 
    1949 00000162 0748          ADDL      ACC,*-SP[8]           ; [CPU_ALU] |464| 
    1950 00000163 1E48          MOVL      *-SP[8],ACC           ; [CPU_ALU] |464| 
    1951                      .dwpsn  file "C:/ti/Workspace/PLC_certificate/Software/uCOS-II/Source/os_core.c",line 465,column 9,is
    1952 00000164 8A48          MOVL      XAR4,*-SP[8]          ; [CPU_ALU] |465| 
    1953 00000165 06C4          MOVL      ACC,*+XAR4[0]         ; [CPU_ALU] |465| 
    1954 00000166 1E4A          MOVL      *-SP[10],ACC          ; [CPU_ALU] |465| 
    1955                      .dwpsn  file "C:/ti/Workspace/PLC_certificate/Software/uCOS-II/Source/os_core.c",line 403,column 12,i
    1956 00000167 064A          MOVL      ACC,*-SP[10]          ; [CPU_ALU] |403| 
    1957 00000168 60E9          B         $C$L32,NEQ            ; [CPU_ALU] |403| 
    1958                      ; branchcc occurs ; [] |403| 
    1959 00000169       $C$L35:    
    1960                      .dwpsn  file "C:/ti/Workspace/PLC_certificate/Software/uCOS-II/Source/os_core.c",line 468,column 5,is
    1961 00000169 924D          MOV       AL,*-SP[13]           ; [CPU_ALU] |468| 
    1962 0000016a 5201          CMPB      AL,#1                 ; [CPU_ALU] |468| 
    1963 0000016b 600C          B         $C$L36,NEQ            ; [CPU_ALU] |468| 
    1964                      ; branchcc occurs ; [] |468| 
    1965                      .dwpsn  file "C:/ti/Workspace/PLC_certificate/Software/uCOS-II/Source/os_core.c",line 469,column 8,is
    1966 0000016c 8A44          MOVL      XAR4,*-SP[4]          ; [CPU_ALU] |469| 
    1967 0000016d 0200          MOVB      ACC,#0                ; [CPU_ALU] |469| 
    1968 0000016e 1EC4          MOVL      *+XAR4[0],ACC         ; [CPU_ALU] |469| 
    1969                      .dwpsn  file "C:/ti/Workspace/PLC_certificate/Software/uCOS-II/Source/os_core.c",line 470,column 9,is
    1970 0000016f 9250          MOV       AL,*-SP[16]           ; [CPU_ALU] |470| 
    1971              $C$DW$119       .dwtag  DW_TAG_TI_branch
    1972                      .dwattr $C$DW$119, DW_AT_low_pc(0x00)
    1973                      .dwattr $C$DW$119, DW_AT_name("_OS_CPU_SR_Restore")
    1974                      .dwattr $C$DW$119, DW_AT_TI_call
    1975              
    1976 00000170 7640!         LCR       #_OS_CPU_SR_Restore   ; [CPU_ALU] |470| 
         00000171 0000 
    1977                      ; call occurs [#_OS_CPU_SR_Restore] ; [] |470| 
    1978                      .dwpsn  file "C:/ti/Workspace/PLC_certificate/Software/uCOS-II/Source/os_core.c",line 471,column 8,is
    1979 00000172 8A56          MOVL      XAR4,*-SP[22]         ; [CPU_ALU] |471| 
    1980 00000173 2BC4          MOV       *+XAR4[0],#0          ; [CPU_ALU] |471| 
    1981                      .dwpsn  file "C:/ti/Workspace/PLC_certificate/Software/uCOS-II/Source/os_core.c",line 472,column 9,is
    1982 00000174 924E          MOV       AL,*-SP[14]           ; [CPU_ALU] |472| 
    1983 00000175 FFEF          B         $C$L51,UNC            ; [CPU_ALU] |472| 
         00000176 00B6 
    1984                      ; branch occurs ; [] |472| 
    1985 00000177       $C$L36:    
    1986                      .dwpsn  file "C:/ti/Workspace/PLC_certificate/Software/uCOS-II/Source/os_core.c",line 476,column 5,is
    1987 00000177 021A          MOVB      ACC,#26               ; [CPU_ALU] |476| 
    1988 00000178 761F-         MOVW      DP,#_OSTCBCur         ; [CPU_ARAU] 
         00000179 0000 
    1989 0000017a 0718-         ADDL      ACC,@_OSTCBCur        ; [CPU_ALU] |476| 
    1990 0000017b 8AA9          MOVL      XAR4,ACC              ; [CPU_ALU] |476| 
    1991 0000017c 924F          MOV       AL,*-SP[15]           ; [CPU_ALU] |476| 
TMS320C2000 Assembler PC v20.2.1 Tue Feb 16 00:15:57 2021

Copyright (c) 1996-2018 Texas Instruments Incorporated
os_core.asm                                                          PAGE   38

    1992 0000017d CAC4          OR        AL,*+XAR4[0]          ; [CPU_ALU] |476| 
    1993 0000017e 5080          ORB       AL,#0x80              ; [CPU_ALU] |476| 
    1994 0000017f 96C4          MOV       *+XAR4[0],AL          ; [CPU_ALU] |476| 
    1995                      .dwpsn  file "C:/ti/Workspace/PLC_certificate/Software/uCOS-II/Source/os_core.c",line 478,column 5,is
    1996 00000180 021B          MOVB      ACC,#27               ; [CPU_ALU] |478| 
    1997 00000181 0718-         ADDL      ACC,@_OSTCBCur        ; [CPU_ALU] |478| 
    1998 00000182 8AA9          MOVL      XAR4,ACC              ; [CPU_ALU] |478| 
    1999 00000183 2BC4          MOV       *+XAR4[0],#0          ; [CPU_ALU] |478| 
    2000                      .dwpsn  file "C:/ti/Workspace/PLC_certificate/Software/uCOS-II/Source/os_core.c",line 479,column 5,is
    2001 00000184 C446          MOVL      XAR6,*-SP[6]          ; [CPU_ALU] |479| 
    2002 00000185 0218          MOVB      ACC,#24               ; [CPU_ALU] |479| 
    2003 00000186 0718-         ADDL      ACC,@_OSTCBCur        ; [CPU_ALU] |479| 
    2004 00000187 8AA9          MOVL      XAR4,ACC              ; [CPU_ALU] |479| 
    2005 00000188 C2C4          MOVL      *+XAR4[0],XAR6        ; [CPU_ALU] |479| 
    2006                      .dwpsn  file "C:/ti/Workspace/PLC_certificate/Software/uCOS-II/Source/os_core.c",line 480,column 5,is
    2007 00000189 8A42          MOVL      XAR4,*-SP[2]          ; [CPU_ALU] |480| 
    2008              $C$DW$120       .dwtag  DW_TAG_TI_branch
    2009                      .dwattr $C$DW$120, DW_AT_low_pc(0x00)
    2010                      .dwattr $C$DW$120, DW_AT_name("_OS_EventTaskWaitMulti")
    2011                      .dwattr $C$DW$120, DW_AT_TI_call
    2012              
    2013 0000018a 7640'         LCR       #_OS_EventTaskWaitMulti ; [CPU_ALU] |480| 
         0000018b 0416 
    2014                      ; call occurs [#_OS_EventTaskWaitMulti] ; [] |480| 
    2015                      .dwpsn  file "C:/ti/Workspace/PLC_certificate/Software/uCOS-II/Source/os_core.c",line 482,column 5,is
    2016 0000018c 9250          MOV       AL,*-SP[16]           ; [CPU_ALU] |482| 
    2017              $C$DW$121       .dwtag  DW_TAG_TI_branch
    2018                      .dwattr $C$DW$121, DW_AT_low_pc(0x00)
    2019                      .dwattr $C$DW$121, DW_AT_name("_OS_CPU_SR_Restore")
    2020                      .dwattr $C$DW$121, DW_AT_TI_call
    2021              
    2022 0000018d 7640!         LCR       #_OS_CPU_SR_Restore   ; [CPU_ALU] |482| 
         0000018e 0000 
    2023                      ; call occurs [#_OS_CPU_SR_Restore] ; [] |482| 
    2024                      .dwpsn  file "C:/ti/Workspace/PLC_certificate/Software/uCOS-II/Source/os_core.c",line 483,column 5,is
    2025              $C$DW$122       .dwtag  DW_TAG_TI_branch
    2026                      .dwattr $C$DW$122, DW_AT_low_pc(0x00)
    2027                      .dwattr $C$DW$122, DW_AT_name("_OS_Sched")
    2028                      .dwattr $C$DW$122, DW_AT_TI_call
    2029              
    2030 0000018f 7640'         LCR       #_OS_Sched            ; [CPU_ALU] |483| 
         00000190 05E8 
    2031                      ; call occurs [#_OS_Sched] ; [] |483| 
    2032                      .dwpsn  file "C:/ti/Workspace/PLC_certificate/Software/uCOS-II/Source/os_core.c",line 484,column 5,is
    2033              $C$DW$123       .dwtag  DW_TAG_TI_branch
    2034                      .dwattr $C$DW$123, DW_AT_low_pc(0x00)
    2035                      .dwattr $C$DW$123, DW_AT_name("_OS_CPU_SR_Save")
    2036                      .dwattr $C$DW$123, DW_AT_TI_call
    2037              
    2038 00000191 7640!         LCR       #_OS_CPU_SR_Save      ; [CPU_ALU] |484| 
         00000192 0000 
    2039                      ; call occurs [#_OS_CPU_SR_Save] ; [] |484| 
    2040 00000193 9650          MOV       *-SP[16],AL           ; [CPU_ALU] |484| 
    2041                      .dwpsn  file "C:/ti/Workspace/PLC_certificate/Software/uCOS-II/Source/os_core.c",line 486,column 5,is
    2042 00000194 6F23          B         $C$L40,UNC            ; [CPU_ALU] |486| 
TMS320C2000 Assembler PC v20.2.1 Tue Feb 16 00:15:57 2021

Copyright (c) 1996-2018 Texas Instruments Incorporated
os_core.asm                                                          PAGE   39

    2043                      ; branch occurs ; [] |486| 
    2044 00000195       $C$L37:    
    2045                      .dwpsn  file "C:/ti/Workspace/PLC_certificate/Software/uCOS-II/Source/os_core.c",line 489,column 14,i
    2046 00000195 020E          MOVB      ACC,#14               ; [CPU_ALU] |489| 
    2047 00000196 0718-         ADDL      ACC,@_OSTCBCur        ; [CPU_ALU] |489| 
    2048 00000197 8AA9          MOVL      XAR4,ACC              ; [CPU_ALU] |489| 
    2049 00000198 06C4          MOVL      ACC,*+XAR4[0]         ; [CPU_ALU] |489| 
    2050 00000199 1E4A          MOVL      *-SP[10],ACC          ; [CPU_ALU] |489| 
    2051                      .dwpsn  file "C:/ti/Workspace/PLC_certificate/Software/uCOS-II/Source/os_core.c",line 490,column 14,i
    2052 0000019a 064A          MOVL      ACC,*-SP[10]          ; [CPU_ALU] |490| 
    2053 0000019b 610D          B         $C$L38,EQ             ; [CPU_ALU] |490| 
    2054                      ; branchcc occurs ; [] |490| 
    2055                      .dwpsn  file "C:/ti/Workspace/PLC_certificate/Software/uCOS-II/Source/os_core.c",line 491,column 17,i
    2056 0000019c 8A44          MOVL      XAR4,*-SP[4]          ; [CPU_ALU] |491| 
    2057 0000019d A8A9          MOVL      ACC,XAR4              ; [CPU_ALU] |491| 
    2058 0000019e 0902          ADDB      ACC,#2                ; [CPU_ALU] |491| 
    2059 0000019f 1E44          MOVL      *-SP[4],ACC           ; [CPU_ALU] |491| 
    2060 000001a0 064A          MOVL      ACC,*-SP[10]          ; [CPU_ALU] |491| 
    2061 000001a1 1EC4          MOVL      *+XAR4[0],ACC         ; [CPU_ALU] |491| 
    2062                      .dwpsn  file "C:/ti/Workspace/PLC_certificate/Software/uCOS-II/Source/os_core.c",line 492,column 17,i
    2063 000001a2 8A44          MOVL      XAR4,*-SP[4]          ; [CPU_ALU] |492| 
    2064 000001a3 0200          MOVB      ACC,#0                ; [CPU_ALU] |492| 
    2065 000001a4 1EC4          MOVL      *+XAR4[0],ACC         ; [CPU_ALU] |492| 
    2066                      .dwpsn  file "C:/ti/Workspace/PLC_certificate/Software/uCOS-II/Source/os_core.c",line 493,column 19,i
    2067 000001a5 56BF          MOVB      *-SP[14],#1,UNC       ; [CPU_ALU] |493| 
         000001a6 014E 
    2068 000001a7 6F5F          B         $C$L49,UNC            ; [CPU_ALU] 
    2069                      ; branch occurs ; [] 
    2070 000001a8       $C$L38:    
    2071                      .dwpsn  file "C:/ti/Workspace/PLC_certificate/Software/uCOS-II/Source/os_core.c",line 496,column 18,i
    2072 000001a8 021B          MOVB      ACC,#27               ; [CPU_ALU] |496| 
    2073 000001a9 0718-         ADDL      ACC,@_OSTCBCur        ; [CPU_ALU] |496| 
    2074 000001aa 8AA9          MOVL      XAR4,ACC              ; [CPU_ALU] |496| 
    2075 000001ab 56BF          MOVB      *+XAR4[0],#1,UNC      ; [CPU_ALU] |496| 
         000001ac 01C4 
    2076                      .dwpsn  file "C:/ti/Workspace/PLC_certificate/Software/uCOS-II/Source/os_core.c",line 497,column 18,i
    2077 000001ad 8342          MOVL      XAR5,*-SP[2]          ; [CPU_ALU] |497| 
    2078 000001ae 8A18-         MOVL      XAR4,@_OSTCBCur       ; [CPU_ALU] |497| 
    2079              $C$DW$124       .dwtag  DW_TAG_TI_branch
    2080                      .dwattr $C$DW$124, DW_AT_low_pc(0x00)
    2081                      .dwattr $C$DW$124, DW_AT_name("_OS_EventTaskRemoveMulti")
    2082                      .dwattr $C$DW$124, DW_AT_TI_call
    2083              
    2084 000001af 7640'         LCR       #_OS_EventTaskRemoveMulti ; [CPU_ALU] |497| 
         000001b0 0488 
    2085                      ; call occurs [#_OS_EventTaskRemoveMulti] ; [] |497| 
    2086                      .dwpsn  file "C:/ti/Workspace/PLC_certificate/Software/uCOS-II/Source/os_core.c",line 499,column 14,i
    2087 000001b1 6F55          B         $C$L49,UNC            ; [CPU_ALU] |499| 
    2088                      ; branch occurs ; [] |499| 
    2089 000001b2       $C$L39:    
    2090                      .dwpsn  file "C:/ti/Workspace/PLC_certificate/Software/uCOS-II/Source/os_core.c",line 503,column 14,i
    2091 000001b2 8A18-         MOVL      XAR4,@_OSTCBCur       ; [CPU_ALU] |503| 
    2092 000001b3 8342          MOVL      XAR5,*-SP[2]          ; [CPU_ALU] |503| 
    2093              $C$DW$125       .dwtag  DW_TAG_TI_branch
    2094                      .dwattr $C$DW$125, DW_AT_low_pc(0x00)
TMS320C2000 Assembler PC v20.2.1 Tue Feb 16 00:15:57 2021

Copyright (c) 1996-2018 Texas Instruments Incorporated
os_core.asm                                                          PAGE   40

    2095                      .dwattr $C$DW$125, DW_AT_name("_OS_EventTaskRemoveMulti")
    2096                      .dwattr $C$DW$125, DW_AT_TI_call
    2097              
    2098 000001b4 7640'         LCR       #_OS_EventTaskRemoveMulti ; [CPU_ALU] |503| 
         000001b5 0488 
    2099                      ; call occurs [#_OS_EventTaskRemoveMulti] ; [] |503| 
    2100                      .dwpsn  file "C:/ti/Workspace/PLC_certificate/Software/uCOS-II/Source/os_core.c",line 504,column 14,i
    2101 000001b6 6F50          B         $C$L49,UNC            ; [CPU_ALU] |504| 
    2102                      ; branch occurs ; [] |504| 
    2103 000001b7       $C$L40:    
    2104                      .dwpsn  file "C:/ti/Workspace/PLC_certificate/Software/uCOS-II/Source/os_core.c",line 486,column 5,is
    2105 000001b7 021B          MOVB      ACC,#27               ; [CPU_ALU] |486| 
    2106 000001b8 761F-         MOVW      DP,#_OSTCBCur         ; [CPU_ARAU] 
         000001b9 0000 
    2107 000001ba 0718-         ADDL      ACC,@_OSTCBCur        ; [CPU_ALU] |486| 
    2108 000001bb 8AA9          MOVL      XAR4,ACC              ; [CPU_ALU] |486| 
    2109 000001bc 92C4          MOV       AL,*+XAR4[0]          ; [CPU_ALU] |486| 
    2110 000001bd 61D8          B         $C$L37,EQ             ; [CPU_ALU] |486| 
    2111                      ; branchcc occurs ; [] |486| 
    2112 000001be 5201          CMPB      AL,#1                 ; [CPU_ALU] |486| 
    2113 000001bf 61F3          B         $C$L39,EQ             ; [CPU_ALU] |486| 
    2114                      ; branchcc occurs ; [] |486| 
    2115 000001c0 5202          CMPB      AL,#2                 ; [CPU_ALU] |486| 
    2116 000001c1 61D4          B         $C$L37,EQ             ; [CPU_ALU] |486| 
    2117                      ; branchcc occurs ; [] |486| 
    2118 000001c2 6FF0          B         $C$L39,UNC            ; [CPU_ALU] |486| 
    2119                      ; branch occurs ; [] |486| 
    2120 000001c3       $C$L41:    
    2121                      .dwpsn  file "C:/ti/Workspace/PLC_certificate/Software/uCOS-II/Source/os_core.c",line 512,column 22,i
    2122 000001c3 8A54          MOVL      XAR4,*-SP[20]         ; [CPU_ALU] |512| 
    2123 000001c4 A8A9          MOVL      ACC,XAR4              ; [CPU_ALU] |512| 
    2124 000001c5 0902          ADDB      ACC,#2                ; [CPU_ALU] |512| 
    2125 000001c6 1E54          MOVL      *-SP[20],ACC          ; [CPU_ALU] |512| 
    2126 000001c7 0200          MOVB      ACC,#0                ; [CPU_ALU] |512| 
    2127 000001c8 1EC4          MOVL      *+XAR4[0],ACC         ; [CPU_ALU] |512| 
    2128                      .dwpsn  file "C:/ti/Workspace/PLC_certificate/Software/uCOS-II/Source/os_core.c",line 513,column 23,i
    2129 000001c9 6F26          B         $C$L46,UNC            ; [CPU_ALU] |513| 
    2130                      ; branch occurs ; [] |513| 
    2131 000001ca       $C$L42:    
    2132                      .dwpsn  file "C:/ti/Workspace/PLC_certificate/Software/uCOS-II/Source/os_core.c",line 520,column 22,i
    2133 000001ca 8354          MOVL      XAR5,*-SP[20]         ; [CPU_ALU] |520| 
    2134 000001cb A0A9          MOVL      ACC,XAR5              ; [CPU_ALU] |520| 
    2135 000001cc 0902          ADDB      ACC,#2                ; [CPU_ALU] |520| 
    2136 000001cd 1E54          MOVL      *-SP[20],ACC          ; [CPU_ALU] |520| 
    2137 000001ce 0212          MOVB      ACC,#18               ; [CPU_ALU] |520| 
    2138 000001cf 0718-         ADDL      ACC,@_OSTCBCur        ; [CPU_ALU] |520| 
    2139 000001d0 8AA9          MOVL      XAR4,ACC              ; [CPU_ALU] |520| 
    2140 000001d1 06C4          MOVL      ACC,*+XAR4[0]         ; [CPU_ALU] |520| 
    2141 000001d2 1EC5          MOVL      *+XAR5[0],ACC         ; [CPU_ALU] |520| 
    2142                      .dwpsn  file "C:/ti/Workspace/PLC_certificate/Software/uCOS-II/Source/os_core.c",line 521,column 23,i
    2143 000001d3 6F1C          B         $C$L46,UNC            ; [CPU_ALU] |521| 
    2144                      ; branch occurs ; [] |521| 
    2145 000001d4       $C$L43:    
    2146                      .dwpsn  file "C:/ti/Workspace/PLC_certificate/Software/uCOS-II/Source/os_core.c",line 527,column 23,i
    2147 000001d4 9250          MOV       AL,*-SP[16]           ; [CPU_ALU] |527| 
TMS320C2000 Assembler PC v20.2.1 Tue Feb 16 00:15:57 2021

Copyright (c) 1996-2018 Texas Instruments Incorporated
os_core.asm                                                          PAGE   41

    2148              $C$DW$126       .dwtag  DW_TAG_TI_branch
    2149                      .dwattr $C$DW$126, DW_AT_low_pc(0x00)
    2150                      .dwattr $C$DW$126, DW_AT_name("_OS_CPU_SR_Restore")
    2151                      .dwattr $C$DW$126, DW_AT_TI_call
    2152              
    2153 000001d5 7640!         LCR       #_OS_CPU_SR_Restore   ; [CPU_ALU] |527| 
         000001d6 0000 
    2154                      ; call occurs [#_OS_CPU_SR_Restore] ; [] |527| 
    2155                      .dwpsn  file "C:/ti/Workspace/PLC_certificate/Software/uCOS-II/Source/os_core.c",line 528,column 22,i
    2156 000001d7 8A44          MOVL      XAR4,*-SP[4]          ; [CPU_ALU] |528| 
    2157 000001d8 0200          MOVB      ACC,#0                ; [CPU_ALU] |528| 
    2158 000001d9 1EC4          MOVL      *+XAR4[0],ACC         ; [CPU_ALU] |528| 
    2159                      .dwpsn  file "C:/ti/Workspace/PLC_certificate/Software/uCOS-II/Source/os_core.c",line 529,column 22,i
    2160 000001da 8A56          MOVL      XAR4,*-SP[22]         ; [CPU_ALU] |529| 
    2161 000001db 56BF          MOVB      *+XAR4[0],#1,UNC      ; [CPU_ALU] |529| 
         000001dc 01C4 
    2162                      .dwpsn  file "C:/ti/Workspace/PLC_certificate/Software/uCOS-II/Source/os_core.c",line 530,column 23,i
    2163 000001dd 924E          MOV       AL,*-SP[14]           ; [CPU_ALU] |530| 
    2164 000001de 6F4D          B         $C$L51,UNC            ; [CPU_ALU] |530| 
    2165                      ; branch occurs ; [] |530| 
    2166 000001df       $C$L44:    
    2167                      .dwpsn  file "C:/ti/Workspace/PLC_certificate/Software/uCOS-II/Source/os_core.c",line 509,column 14,i
    2168 000001df 8A4A          MOVL      XAR4,*-SP[10]         ; [CPU_ALU] |509| 
    2169 000001e0 92C4          MOV       AL,*+XAR4[0]          ; [CPU_ALU] |509| 
    2170 000001e1 5203          CMPB      AL,#3                 ; [CPU_ALU] |509| 
    2171 000001e2 6208          B         $C$L45,GT             ; [CPU_ALU] |509| 
    2172                      ; branchcc occurs ; [] |509| 
    2173 000001e3 5203          CMPB      AL,#3                 ; [CPU_ALU] |509| 
    2174 000001e4 61DF          B         $C$L41,EQ             ; [CPU_ALU] |509| 
    2175                      ; branchcc occurs ; [] |509| 
    2176 000001e5 5201          CMPB      AL,#1                 ; [CPU_ALU] |509| 
    2177 000001e6 61E4          B         $C$L42,EQ             ; [CPU_ALU] |509| 
    2178                      ; branchcc occurs ; [] |509| 
    2179 000001e7 5202          CMPB      AL,#2                 ; [CPU_ALU] |509| 
    2180 000001e8 61E2          B         $C$L42,EQ             ; [CPU_ALU] |509| 
    2181                      ; branchcc occurs ; [] |509| 
    2182 000001e9 6FEB          B         $C$L43,UNC            ; [CPU_ALU] |509| 
    2183                      ; branch occurs ; [] |509| 
    2184 000001ea       $C$L45:    
    2185 000001ea 5204          CMPB      AL,#4                 ; [CPU_ALU] |509| 
    2186 000001eb 61E9          B         $C$L43,EQ             ; [CPU_ALU] |509| 
    2187                      ; branchcc occurs ; [] |509| 
    2188 000001ec 5205          CMPB      AL,#5                 ; [CPU_ALU] |509| 
    2189 000001ed 61E7          B         $C$L43,EQ             ; [CPU_ALU] |509| 
    2190                      ; branchcc occurs ; [] |509| 
    2191 000001ee 6FE6          B         $C$L43,UNC            ; [CPU_ALU] |509| 
    2192                      ; branch occurs ; [] |509| 
    2193 000001ef       $C$L46:    
    2194                      .dwpsn  file "C:/ti/Workspace/PLC_certificate/Software/uCOS-II/Source/os_core.c",line 532,column 13,i
    2195 000001ef 8A56          MOVL      XAR4,*-SP[22]         ; [CPU_ALU] |532| 
    2196 000001f0 2BC4          MOV       *+XAR4[0],#0          ; [CPU_ALU] |532| 
    2197                      .dwpsn  file "C:/ti/Workspace/PLC_certificate/Software/uCOS-II/Source/os_core.c",line 533,column 14,i
    2198 000001f1 6F21          B         $C$L50,UNC            ; [CPU_ALU] |533| 
    2199                      ; branch occurs ; [] |533| 
    2200 000001f2       $C$L47:    
TMS320C2000 Assembler PC v20.2.1 Tue Feb 16 00:15:57 2021

Copyright (c) 1996-2018 Texas Instruments Incorporated
os_core.asm                                                          PAGE   42

    2201                      .dwpsn  file "C:/ti/Workspace/PLC_certificate/Software/uCOS-II/Source/os_core.c",line 536,column 13,i
    2202 000001f2 8A54          MOVL      XAR4,*-SP[20]         ; [CPU_ALU] |536| 
    2203 000001f3 A8A9          MOVL      ACC,XAR4              ; [CPU_ALU] |536| 
    2204 000001f4 0902          ADDB      ACC,#2                ; [CPU_ALU] |536| 
    2205 000001f5 1E54          MOVL      *-SP[20],ACC          ; [CPU_ALU] |536| 
    2206 000001f6 0200          MOVB      ACC,#0                ; [CPU_ALU] |536| 
    2207 000001f7 1EC4          MOVL      *+XAR4[0],ACC         ; [CPU_ALU] |536| 
    2208                      .dwpsn  file "C:/ti/Workspace/PLC_certificate/Software/uCOS-II/Source/os_core.c",line 537,column 13,i
    2209 000001f8 8A56          MOVL      XAR4,*-SP[22]         ; [CPU_ALU] |537| 
    2210 000001f9 56BF          MOVB      *+XAR4[0],#14,UNC     ; [CPU_ALU] |537| 
         000001fa 0EC4 
    2211                      .dwpsn  file "C:/ti/Workspace/PLC_certificate/Software/uCOS-II/Source/os_core.c",line 538,column 14,i
    2212 000001fb 6F17          B         $C$L50,UNC            ; [CPU_ALU] |538| 
    2213                      ; branch occurs ; [] |538| 
    2214 000001fc       $C$L48:    
    2215                      .dwpsn  file "C:/ti/Workspace/PLC_certificate/Software/uCOS-II/Source/os_core.c",line 542,column 13,i
    2216 000001fc 8A54          MOVL      XAR4,*-SP[20]         ; [CPU_ALU] |542| 
    2217 000001fd A8A9          MOVL      ACC,XAR4              ; [CPU_ALU] |542| 
    2218 000001fe 0902          ADDB      ACC,#2                ; [CPU_ALU] |542| 
    2219 000001ff 1E54          MOVL      *-SP[20],ACC          ; [CPU_ALU] |542| 
    2220 00000200 0200          MOVB      ACC,#0                ; [CPU_ALU] |542| 
    2221 00000201 1EC4          MOVL      *+XAR4[0],ACC         ; [CPU_ALU] |542| 
    2222                      .dwpsn  file "C:/ti/Workspace/PLC_certificate/Software/uCOS-II/Source/os_core.c",line 543,column 13,i
    2223 00000202 8A56          MOVL      XAR4,*-SP[22]         ; [CPU_ALU] |543| 
    2224 00000203 56BF          MOVB      *+XAR4[0],#10,UNC     ; [CPU_ALU] |543| 
         00000204 0AC4 
    2225                      .dwpsn  file "C:/ti/Workspace/PLC_certificate/Software/uCOS-II/Source/os_core.c",line 544,column 14,i
    2226 00000205 6F0D          B         $C$L50,UNC            ; [CPU_ALU] |544| 
    2227                      ; branch occurs ; [] |544| 
    2228 00000206       $C$L49:    
    2229                      .dwpsn  file "C:/ti/Workspace/PLC_certificate/Software/uCOS-II/Source/os_core.c",line 507,column 5,is
    2230 00000206 021B          MOVB      ACC,#27               ; [CPU_ALU] |507| 
    2231 00000207 761F-         MOVW      DP,#_OSTCBCur         ; [CPU_ARAU] 
         00000208 0000 
    2232 00000209 0718-         ADDL      ACC,@_OSTCBCur        ; [CPU_ALU] |507| 
    2233 0000020a 8AA9          MOVL      XAR4,ACC              ; [CPU_ALU] |507| 
    2234 0000020b 92C4          MOV       AL,*+XAR4[0]          ; [CPU_ALU] |507| 
    2235 0000020c 61D3          B         $C$L44,EQ             ; [CPU_ALU] |507| 
    2236                      ; branchcc occurs ; [] |507| 
    2237 0000020d 5201          CMPB      AL,#1                 ; [CPU_ALU] |507| 
    2238 0000020e 61EE          B         $C$L48,EQ             ; [CPU_ALU] |507| 
    2239                      ; branchcc occurs ; [] |507| 
    2240 0000020f 5202          CMPB      AL,#2                 ; [CPU_ALU] |507| 
    2241 00000210 61E2          B         $C$L47,EQ             ; [CPU_ALU] |507| 
    2242                      ; branchcc occurs ; [] |507| 
    2243 00000211 6FEB          B         $C$L48,UNC            ; [CPU_ALU] |507| 
    2244                      ; branch occurs ; [] |507| 
    2245 00000212       $C$L50:    
    2246                      .dwpsn  file "C:/ti/Workspace/PLC_certificate/Software/uCOS-II/Source/os_core.c",line 547,column 5,is
    2247 00000212 021A          MOVB      ACC,#26               ; [CPU_ALU] |547| 
    2248 00000213 0718-         ADDL      ACC,@_OSTCBCur        ; [CPU_ALU] |547| 
    2249 00000214 8AA9          MOVL      XAR4,ACC              ; [CPU_ALU] |547| 
    2250 00000215 2BC4          MOV       *+XAR4[0],#0          ; [CPU_ALU] |547| 
    2251                      .dwpsn  file "C:/ti/Workspace/PLC_certificate/Software/uCOS-II/Source/os_core.c",line 548,column 5,is
    2252 00000216 021B          MOVB      ACC,#27               ; [CPU_ALU] |548| 
TMS320C2000 Assembler PC v20.2.1 Tue Feb 16 00:15:57 2021

Copyright (c) 1996-2018 Texas Instruments Incorporated
os_core.asm                                                          PAGE   43

    2253 00000217 0718-         ADDL      ACC,@_OSTCBCur        ; [CPU_ALU] |548| 
    2254 00000218 8AA9          MOVL      XAR4,ACC              ; [CPU_ALU] |548| 
    2255 00000219 2BC4          MOV       *+XAR4[0],#0          ; [CPU_ALU] |548| 
    2256                      .dwpsn  file "C:/ti/Workspace/PLC_certificate/Software/uCOS-II/Source/os_core.c",line 549,column 5,is
    2257 0000021a BE00          MOVB      XAR6,#0               ; [CPU_ALU] |549| 
    2258 0000021b 020E          MOVB      ACC,#14               ; [CPU_ALU] |549| 
    2259 0000021c 0718-         ADDL      ACC,@_OSTCBCur        ; [CPU_ALU] |549| 
    2260 0000021d 8AA9          MOVL      XAR4,ACC              ; [CPU_ALU] |549| 
    2261 0000021e C2C4          MOVL      *+XAR4[0],XAR6        ; [CPU_ALU] |549| 
    2262                      .dwpsn  file "C:/ti/Workspace/PLC_certificate/Software/uCOS-II/Source/os_core.c",line 550,column 5,is
    2263 0000021f 0210          MOVB      ACC,#16               ; [CPU_ALU] |550| 
    2264 00000220 0718-         ADDL      ACC,@_OSTCBCur        ; [CPU_ALU] |550| 
    2265 00000221 8AA9          MOVL      XAR4,ACC              ; [CPU_ALU] |550| 
    2266 00000222 C2C4          MOVL      *+XAR4[0],XAR6        ; [CPU_ALU] |550| 
    2267                      .dwpsn  file "C:/ti/Workspace/PLC_certificate/Software/uCOS-II/Source/os_core.c",line 553,column 5,is
    2268 00000223 0212          MOVB      ACC,#18               ; [CPU_ALU] |553| 
    2269 00000224 0718-         ADDL      ACC,@_OSTCBCur        ; [CPU_ALU] |553| 
    2270 00000225 8AA9          MOVL      XAR4,ACC              ; [CPU_ALU] |553| 
    2271 00000226 C2C4          MOVL      *+XAR4[0],XAR6        ; [CPU_ALU] |553| 
    2272                      .dwpsn  file "C:/ti/Workspace/PLC_certificate/Software/uCOS-II/Source/os_core.c",line 555,column 5,is
    2273 00000227 9250          MOV       AL,*-SP[16]           ; [CPU_ALU] |555| 
    2274              $C$DW$127       .dwtag  DW_TAG_TI_branch
    2275                      .dwattr $C$DW$127, DW_AT_low_pc(0x00)
    2276                      .dwattr $C$DW$127, DW_AT_name("_OS_CPU_SR_Restore")
    2277                      .dwattr $C$DW$127, DW_AT_TI_call
    2278              
    2279 00000228 7640!         LCR       #_OS_CPU_SR_Restore   ; [CPU_ALU] |555| 
         00000229 0000 
    2280                      ; call occurs [#_OS_CPU_SR_Restore] ; [] |555| 
    2281                      .dwpsn  file "C:/ti/Workspace/PLC_certificate/Software/uCOS-II/Source/os_core.c",line 557,column 5,is
    2282 0000022a 924E          MOV       AL,*-SP[14]           ; [CPU_ALU] |557| 
    2283 0000022b       $C$L51:    
    2284                      .dwpsn  file "C:/ti/Workspace/PLC_certificate/Software/uCOS-II/Source/os_core.c",line 558,column 1,is
    2285 0000022b FE90          SUBB      SP,#16                ; [CPU_ARAU] 
    2286                      .dwcfi  cfa_offset, -2
    2287              $C$DW$128       .dwtag  DW_TAG_TI_branch
    2288                      .dwattr $C$DW$128, DW_AT_low_pc(0x00)
    2289                      .dwattr $C$DW$128, DW_AT_TI_return
    2290              
    2291 0000022c 0006          LRETR     ; [CPU_ALU] 
    2292                      ; return occurs ; [] 
    2293                      .dwattr $C$DW$101, DW_AT_TI_end_file("C:/ti/Workspace/PLC_certificate/Software/uCOS-II/Source/os_core
    2294                      .dwattr $C$DW$101, DW_AT_TI_end_line(0x22e)
    2295                      .dwattr $C$DW$101, DW_AT_TI_end_column(0x01)
    2296                      .dwendentry
    2297                      .dwendtag $C$DW$101
    2298              
    2299 0000022d               .sect   ".text"
    2300                      .clink
    2301                      .global _OSInit
    2302              
    2303              $C$DW$129       .dwtag  DW_TAG_subprogram
    2304                      .dwattr $C$DW$129, DW_AT_name("OSInit")
    2305                      .dwattr $C$DW$129, DW_AT_low_pc(_OSInit)
    2306                      .dwattr $C$DW$129, DW_AT_high_pc(0x00)
TMS320C2000 Assembler PC v20.2.1 Tue Feb 16 00:15:57 2021

Copyright (c) 1996-2018 Texas Instruments Incorporated
os_core.asm                                                          PAGE   44

    2307                      .dwattr $C$DW$129, DW_AT_TI_symbol_name("_OSInit")
    2308                      .dwattr $C$DW$129, DW_AT_external
    2309                      .dwattr $C$DW$129, DW_AT_TI_begin_file("C:/ti/Workspace/PLC_certificate/Software/uCOS-II/Source/os_co
    2310                      .dwattr $C$DW$129, DW_AT_TI_begin_line(0x23f)
    2311                      .dwattr $C$DW$129, DW_AT_TI_begin_column(0x07)
    2312                      .dwattr $C$DW$129, DW_AT_TI_max_frame_size(-2)
    2313                      .dwpsn  file "C:/ti/Workspace/PLC_certificate/Software/uCOS-II/Source/os_core.c",line 576,column 1,is
    2314              
    2315                      .dwfde $C$DW$CIE, _OSInit
    2316              
    2317              ;***************************************************************
    2318              ;* FNAME: _OSInit                       FR SIZE:   0           *
    2319              ;*                                                             *
    2320              ;* FUNCTION ENVIRONMENT                                        *
    2321              ;*                                                             *
    2322              ;* FUNCTION PROPERTIES                                         *
    2323              ;*                            0 Parameter,  0 Auto,  0 SOE     *
    2324              ;***************************************************************
    2325              
    2326 0000022d       _OSInit:
    2327                      .dwcfi  cfa_offset, -2
    2328                      .dwcfi  save_reg_to_mem, 26, 0
    2329                      .dwpsn  file "C:/ti/Workspace/PLC_certificate/Software/uCOS-II/Source/os_core.c",line 583,column 5,is
    2330              $C$DW$130       .dwtag  DW_TAG_TI_branch
    2331                      .dwattr $C$DW$130, DW_AT_low_pc(0x00)
    2332                      .dwattr $C$DW$130, DW_AT_name("_OSInitHookBegin")
    2333                      .dwattr $C$DW$130, DW_AT_TI_call
    2334              
    2335 0000022d 7640!         LCR       #_OSInitHookBegin     ; [CPU_ALU] |583| 
         0000022e 0000 
    2336                      ; call occurs [#_OSInitHookBegin] ; [] |583| 
    2337                      .dwpsn  file "C:/ti/Workspace/PLC_certificate/Software/uCOS-II/Source/os_core.c",line 585,column 5,is
    2338              $C$DW$131       .dwtag  DW_TAG_TI_branch
    2339                      .dwattr $C$DW$131, DW_AT_low_pc(0x00)
    2340                      .dwattr $C$DW$131, DW_AT_name("_OS_InitMisc")
    2341                      .dwattr $C$DW$131, DW_AT_TI_call
    2342              
    2343 0000022f 7640'         LCR       #_OS_InitMisc         ; [CPU_ALU] |585| 
         00000230 0511 
    2344                      ; call occurs [#_OS_InitMisc] ; [] |585| 
    2345                      .dwpsn  file "C:/ti/Workspace/PLC_certificate/Software/uCOS-II/Source/os_core.c",line 587,column 5,is
    2346              $C$DW$132       .dwtag  DW_TAG_TI_branch
    2347                      .dwattr $C$DW$132, DW_AT_low_pc(0x00)
    2348                      .dwattr $C$DW$132, DW_AT_name("_OS_InitRdyList")
    2349                      .dwattr $C$DW$132, DW_AT_TI_call
    2350              
    2351 00000231 7640'         LCR       #_OS_InitRdyList      ; [CPU_ALU] |587| 
         00000232 0520 
    2352                      ; call occurs [#_OS_InitRdyList] ; [] |587| 
    2353                      .dwpsn  file "C:/ti/Workspace/PLC_certificate/Software/uCOS-II/Source/os_core.c",line 589,column 5,is
    2354              $C$DW$133       .dwtag  DW_TAG_TI_branch
    2355                      .dwattr $C$DW$133, DW_AT_low_pc(0x00)
    2356                      .dwattr $C$DW$133, DW_AT_name("_OS_InitTCBList")
    2357                      .dwattr $C$DW$133, DW_AT_TI_call
    2358              
TMS320C2000 Assembler PC v20.2.1 Tue Feb 16 00:15:57 2021

Copyright (c) 1996-2018 Texas Instruments Incorporated
os_core.asm                                                          PAGE   45

    2359 00000233 7640'         LCR       #_OS_InitTCBList      ; [CPU_ALU] |589| 
         00000234 057B 
    2360                      ; call occurs [#_OS_InitTCBList] ; [] |589| 
    2361                      .dwpsn  file "C:/ti/Workspace/PLC_certificate/Software/uCOS-II/Source/os_core.c",line 591,column 5,is
    2362              $C$DW$134       .dwtag  DW_TAG_TI_branch
    2363                      .dwattr $C$DW$134, DW_AT_low_pc(0x00)
    2364                      .dwattr $C$DW$134, DW_AT_name("_OS_InitEventList")
    2365                      .dwattr $C$DW$134, DW_AT_TI_call
    2366              
    2367 00000235 7640'         LCR       #_OS_InitEventList    ; [CPU_ALU] |591| 
         00000236 04CE 
    2368                      ; call occurs [#_OS_InitEventList] ; [] |591| 
    2369                      .dwpsn  file "C:/ti/Workspace/PLC_certificate/Software/uCOS-II/Source/os_core.c",line 595,column 5,is
    2370              $C$DW$135       .dwtag  DW_TAG_TI_branch
    2371                      .dwattr $C$DW$135, DW_AT_low_pc(0x00)
    2372                      .dwattr $C$DW$135, DW_AT_name("_OS_FlagInit")
    2373                      .dwattr $C$DW$135, DW_AT_TI_call
    2374              
    2375 00000237 7640!         LCR       #_OS_FlagInit         ; [CPU_ALU] |595| 
         00000238 0000 
    2376                      ; call occurs [#_OS_FlagInit] ; [] |595| 
    2377                      .dwpsn  file "C:/ti/Workspace/PLC_certificate/Software/uCOS-II/Source/os_core.c",line 599,column 5,is
    2378              $C$DW$136       .dwtag  DW_TAG_TI_branch
    2379                      .dwattr $C$DW$136, DW_AT_low_pc(0x00)
    2380                      .dwattr $C$DW$136, DW_AT_name("_OS_MemInit")
    2381                      .dwattr $C$DW$136, DW_AT_TI_call
    2382              
    2383 00000239 7640!         LCR       #_OS_MemInit          ; [CPU_ALU] |599| 
         0000023a 0000 
    2384                      ; call occurs [#_OS_MemInit] ; [] |599| 
    2385                      .dwpsn  file "C:/ti/Workspace/PLC_certificate/Software/uCOS-II/Source/os_core.c",line 603,column 5,is
    2386              $C$DW$137       .dwtag  DW_TAG_TI_branch
    2387                      .dwattr $C$DW$137, DW_AT_low_pc(0x00)
    2388                      .dwattr $C$DW$137, DW_AT_name("_OS_QInit")
    2389                      .dwattr $C$DW$137, DW_AT_TI_call
    2390              
    2391 0000023b 7640!         LCR       #_OS_QInit            ; [CPU_ALU] |603| 
         0000023c 0000 
    2392                      ; call occurs [#_OS_QInit] ; [] |603| 
    2393                      .dwpsn  file "C:/ti/Workspace/PLC_certificate/Software/uCOS-II/Source/os_core.c",line 615,column 5,is
    2394              $C$DW$138       .dwtag  DW_TAG_TI_branch
    2395                      .dwattr $C$DW$138, DW_AT_low_pc(0x00)
    2396                      .dwattr $C$DW$138, DW_AT_name("_OS_InitTaskIdle")
    2397                      .dwattr $C$DW$138, DW_AT_TI_call
    2398              
    2399 0000023d 7640'         LCR       #_OS_InitTaskIdle     ; [CPU_ALU] |615| 
         0000023e 0539 
    2400                      ; call occurs [#_OS_InitTaskIdle] ; [] |615| 
    2401                      .dwpsn  file "C:/ti/Workspace/PLC_certificate/Software/uCOS-II/Source/os_core.c",line 617,column 5,is
    2402              $C$DW$139       .dwtag  DW_TAG_TI_branch
    2403                      .dwattr $C$DW$139, DW_AT_low_pc(0x00)
    2404                      .dwattr $C$DW$139, DW_AT_name("_OS_InitTaskStat")
    2405                      .dwattr $C$DW$139, DW_AT_TI_call
    2406              
    2407 0000023f 7640'         LCR       #_OS_InitTaskStat     ; [CPU_ALU] |617| 
TMS320C2000 Assembler PC v20.2.1 Tue Feb 16 00:15:57 2021

Copyright (c) 1996-2018 Texas Instruments Incorporated
os_core.asm                                                          PAGE   46

         00000240 055A 
    2408                      ; call occurs [#_OS_InitTaskStat] ; [] |617| 
    2409                      .dwpsn  file "C:/ti/Workspace/PLC_certificate/Software/uCOS-II/Source/os_core.c",line 624,column 5,is
    2410              $C$DW$140       .dwtag  DW_TAG_TI_branch
    2411                      .dwattr $C$DW$140, DW_AT_low_pc(0x00)
    2412                      .dwattr $C$DW$140, DW_AT_name("_OSInitHookEnd")
    2413                      .dwattr $C$DW$140, DW_AT_TI_call
    2414              
    2415 00000241 7640!         LCR       #_OSInitHookEnd       ; [CPU_ALU] |624| 
         00000242 0000 
    2416                      ; call occurs [#_OSInitHookEnd] ; [] |624| 
    2417                      .dwpsn  file "C:/ti/Workspace/PLC_certificate/Software/uCOS-II/Source/os_core.c",line 627,column 5,is
    2418              $C$DW$141       .dwtag  DW_TAG_TI_branch
    2419                      .dwattr $C$DW$141, DW_AT_low_pc(0x00)
    2420                      .dwattr $C$DW$141, DW_AT_name("_OSDebugInit")
    2421                      .dwattr $C$DW$141, DW_AT_TI_call
    2422              
    2423 00000243 7640!         LCR       #_OSDebugInit         ; [CPU_ALU] |627| 
         00000244 0000 
    2424                      ; call occurs [#_OSDebugInit] ; [] |627| 
    2425                      .dwpsn  file "C:/ti/Workspace/PLC_certificate/Software/uCOS-II/Source/os_core.c",line 629,column 1,is
    2426              $C$DW$142       .dwtag  DW_TAG_TI_branch
    2427                      .dwattr $C$DW$142, DW_AT_low_pc(0x00)
    2428                      .dwattr $C$DW$142, DW_AT_TI_return
    2429              
    2430 00000245 0006          LRETR     ; [CPU_ALU] 
    2431                      ; return occurs ; [] 
    2432                      .dwattr $C$DW$129, DW_AT_TI_end_file("C:/ti/Workspace/PLC_certificate/Software/uCOS-II/Source/os_core
    2433                      .dwattr $C$DW$129, DW_AT_TI_end_line(0x275)
    2434                      .dwattr $C$DW$129, DW_AT_TI_end_column(0x01)
    2435                      .dwendentry
    2436                      .dwendtag $C$DW$129
    2437              
    2438 00000246               .sect   ".text"
    2439                      .clink
    2440                      .global _OSIntEnter
    2441              
    2442              $C$DW$143       .dwtag  DW_TAG_subprogram
    2443                      .dwattr $C$DW$143, DW_AT_name("OSIntEnter")
    2444                      .dwattr $C$DW$143, DW_AT_low_pc(_OSIntEnter)
    2445                      .dwattr $C$DW$143, DW_AT_high_pc(0x00)
    2446                      .dwattr $C$DW$143, DW_AT_TI_symbol_name("_OSIntEnter")
    2447                      .dwattr $C$DW$143, DW_AT_external
    2448                      .dwattr $C$DW$143, DW_AT_TI_begin_file("C:/ti/Workspace/PLC_certificate/Software/uCOS-II/Source/os_co
    2449                      .dwattr $C$DW$143, DW_AT_TI_begin_line(0x290)
    2450                      .dwattr $C$DW$143, DW_AT_TI_begin_column(0x07)
    2451                      .dwattr $C$DW$143, DW_AT_TI_max_frame_size(-2)
    2452                      .dwpsn  file "C:/ti/Workspace/PLC_certificate/Software/uCOS-II/Source/os_core.c",line 657,column 1,is
    2453              
    2454                      .dwfde $C$DW$CIE, _OSIntEnter
    2455              
    2456              ;***************************************************************
    2457              ;* FNAME: _OSIntEnter                   FR SIZE:   0           *
    2458              ;*                                                             *
    2459              ;* FUNCTION ENVIRONMENT                                        *
TMS320C2000 Assembler PC v20.2.1 Tue Feb 16 00:15:57 2021

Copyright (c) 1996-2018 Texas Instruments Incorporated
os_core.asm                                                          PAGE   47

    2460              ;*                                                             *
    2461              ;* FUNCTION PROPERTIES                                         *
    2462              ;*                            0 Parameter,  0 Auto,  0 SOE     *
    2463              ;***************************************************************
    2464              
    2465 00000246       _OSIntEnter:
    2466                      .dwcfi  cfa_offset, -2
    2467                      .dwcfi  save_reg_to_mem, 26, 0
    2468                      .dwpsn  file "C:/ti/Workspace/PLC_certificate/Software/uCOS-II/Source/os_core.c",line 658,column 5,is
    2469 00000246 761F-         MOVW      DP,#_OSRunning        ; [CPU_ARAU] 
         00000247 0000 
    2470 00000248 9207-         MOV       AL,@_OSRunning        ; [CPU_ALU] |658| 
    2471 00000249 5201          CMPB      AL,#1                 ; [CPU_ALU] |658| 
    2472 0000024a 6005          B         $C$L52,NEQ            ; [CPU_ALU] |658| 
    2473                      ; branchcc occurs ; [] |658| 
    2474                      .dwpsn  file "C:/ti/Workspace/PLC_certificate/Software/uCOS-II/Source/os_core.c",line 659,column 9,is
    2475 0000024b 9202-         MOV       AL,@_OSIntNesting     ; [CPU_ALU] |659| 
    2476 0000024c 52FF          CMPB      AL,#255               ; [CPU_ALU] |659| 
    2477 0000024d 6702          B         $C$L52,HIS            ; [CPU_ALU] |659| 
    2478                      ; branchcc occurs ; [] |659| 
    2479                      .dwpsn  file "C:/ti/Workspace/PLC_certificate/Software/uCOS-II/Source/os_core.c",line 660,column 13,i
    2480 0000024e 0A02-         INC       @_OSIntNesting        ; [CPU_ALU] |660| 
    2481                      .dwpsn  file "C:/ti/Workspace/PLC_certificate/Software/uCOS-II/Source/os_core.c",line 663,column 1,is
    2482              $C$L52:    
    2483              $C$DW$144       .dwtag  DW_TAG_TI_branch
    2484                      .dwattr $C$DW$144, DW_AT_low_pc(0x00)
    2485                      .dwattr $C$DW$144, DW_AT_TI_return
    2486              
    2487 0000024f 0006          LRETR     ; [CPU_ALU] 
    2488                      ; return occurs ; [] 
    2489                      .dwattr $C$DW$143, DW_AT_TI_end_file("C:/ti/Workspace/PLC_certificate/Software/uCOS-II/Source/os_core
    2490                      .dwattr $C$DW$143, DW_AT_TI_end_line(0x297)
    2491                      .dwattr $C$DW$143, DW_AT_TI_end_column(0x01)
    2492                      .dwendentry
    2493                      .dwendtag $C$DW$143
    2494              
    2495 00000250               .sect   ".text"
    2496                      .clink
    2497                      .global _OSIntExit
    2498              
    2499              $C$DW$145       .dwtag  DW_TAG_subprogram
    2500                      .dwattr $C$DW$145, DW_AT_name("OSIntExit")
    2501                      .dwattr $C$DW$145, DW_AT_low_pc(_OSIntExit)
    2502                      .dwattr $C$DW$145, DW_AT_high_pc(0x00)
    2503                      .dwattr $C$DW$145, DW_AT_TI_symbol_name("_OSIntExit")
    2504                      .dwattr $C$DW$145, DW_AT_external
    2505                      .dwattr $C$DW$145, DW_AT_TI_begin_file("C:/ti/Workspace/PLC_certificate/Software/uCOS-II/Source/os_co
    2506                      .dwattr $C$DW$145, DW_AT_TI_begin_line(0x2ac)
    2507                      .dwattr $C$DW$145, DW_AT_TI_begin_column(0x07)
    2508                      .dwattr $C$DW$145, DW_AT_TI_max_frame_size(-4)
    2509                      .dwpsn  file "C:/ti/Workspace/PLC_certificate/Software/uCOS-II/Source/os_core.c",line 685,column 1,is
    2510              
    2511                      .dwfde $C$DW$CIE, _OSIntExit
    2512              
    2513              ;***************************************************************
TMS320C2000 Assembler PC v20.2.1 Tue Feb 16 00:15:57 2021

Copyright (c) 1996-2018 Texas Instruments Incorporated
os_core.asm                                                          PAGE   48

    2514              ;* FNAME: _OSIntExit                    FR SIZE:   2           *
    2515              ;*                                                             *
    2516              ;* FUNCTION ENVIRONMENT                                        *
    2517              ;*                                                             *
    2518              ;* FUNCTION PROPERTIES                                         *
    2519              ;*                            0 Parameter,  1 Auto,  0 SOE     *
    2520              ;***************************************************************
    2521              
    2522 00000250       _OSIntExit:
    2523                      .dwcfi  cfa_offset, -2
    2524                      .dwcfi  save_reg_to_mem, 26, 0
    2525 00000250 FE02          ADDB      SP,#2                 ; [CPU_ARAU] 
    2526                      .dwcfi  cfa_offset, -4
    2527              $C$DW$146       .dwtag  DW_TAG_variable
    2528                      .dwattr $C$DW$146, DW_AT_name("cpu_sr")
    2529                      .dwattr $C$DW$146, DW_AT_TI_symbol_name("_cpu_sr")
    2530                      .dwattr $C$DW$146, DW_AT_type(*$C$DW$T$44)
    2531                      .dwattr $C$DW$146, DW_AT_location[DW_OP_breg20 -1]
    2532              
    2533                      .dwpsn  file "C:/ti/Workspace/PLC_certificate/Software/uCOS-II/Source/os_core.c",line 687,column 23,i
    2534 00000251 2B41          MOV       *-SP[1],#0            ; [CPU_ALU] |687| 
    2535                      .dwpsn  file "C:/ti/Workspace/PLC_certificate/Software/uCOS-II/Source/os_core.c",line 692,column 5,is
    2536 00000252 761F-         MOVW      DP,#_OSRunning        ; [CPU_ARAU] 
         00000253 0000 
    2537 00000254 9207-         MOV       AL,@_OSRunning        ; [CPU_ALU] |692| 
    2538 00000255 5201          CMPB      AL,#1                 ; [CPU_ALU] |692| 
    2539 00000256 602B          B         $C$L55,NEQ            ; [CPU_ALU] |692| 
    2540                      ; branchcc occurs ; [] |692| 
    2541                      .dwpsn  file "C:/ti/Workspace/PLC_certificate/Software/uCOS-II/Source/os_core.c",line 693,column 9,is
    2542              $C$DW$147       .dwtag  DW_TAG_TI_branch
    2543                      .dwattr $C$DW$147, DW_AT_low_pc(0x00)
    2544                      .dwattr $C$DW$147, DW_AT_name("_OS_CPU_SR_Save")
    2545                      .dwattr $C$DW$147, DW_AT_TI_call
    2546              
    2547 00000257 7640!         LCR       #_OS_CPU_SR_Save      ; [CPU_ALU] |693| 
         00000258 0000 
    2548                      ; call occurs [#_OS_CPU_SR_Save] ; [] |693| 
    2549 00000259 9641          MOV       *-SP[1],AL            ; [CPU_ALU] |693| 
    2550                      .dwpsn  file "C:/ti/Workspace/PLC_certificate/Software/uCOS-II/Source/os_core.c",line 694,column 9,is
    2551 0000025a 761F-         MOVW      DP,#_OSIntNesting     ; [CPU_ARAU] 
         0000025b 0000 
    2552 0000025c 9202-         MOV       AL,@_OSIntNesting     ; [CPU_ALU] |694| 
    2553 0000025d 6102          B         $C$L53,EQ             ; [CPU_ALU] |694| 
    2554                      ; branchcc occurs ; [] |694| 
    2555                      .dwpsn  file "C:/ti/Workspace/PLC_certificate/Software/uCOS-II/Source/os_core.c",line 695,column 13,i
    2556 0000025e 0B02-         DEC       @_OSIntNesting        ; [CPU_ALU] |695| 
    2557 0000025f       $C$L53:    
    2558                      .dwpsn  file "C:/ti/Workspace/PLC_certificate/Software/uCOS-II/Source/os_core.c",line 697,column 9,is
    2559 0000025f 9202-         MOV       AL,@_OSIntNesting     ; [CPU_ALU] |697| 
    2560 00000260 601D          B         $C$L54,NEQ            ; [CPU_ALU] |697| 
    2561                      ; branchcc occurs ; [] |697| 
    2562                      .dwpsn  file "C:/ti/Workspace/PLC_certificate/Software/uCOS-II/Source/os_core.c",line 698,column 13,i
    2563 00000261 9203-         MOV       AL,@_OSLockNesting    ; [CPU_ALU] |698| 
    2564 00000262 601B          B         $C$L54,NEQ            ; [CPU_ALU] |698| 
    2565                      ; branchcc occurs ; [] |698| 
TMS320C2000 Assembler PC v20.2.1 Tue Feb 16 00:15:57 2021

Copyright (c) 1996-2018 Texas Instruments Incorporated
os_core.asm                                                          PAGE   49

    2566                      .dwpsn  file "C:/ti/Workspace/PLC_certificate/Software/uCOS-II/Source/os_core.c",line 699,column 17,i
    2567              $C$DW$148       .dwtag  DW_TAG_TI_branch
    2568                      .dwattr $C$DW$148, DW_AT_low_pc(0x00)
    2569                      .dwattr $C$DW$148, DW_AT_name("_OS_SchedNew")
    2570                      .dwattr $C$DW$148, DW_AT_TI_call
    2571              
    2572 00000263 7640'         LCR       #_OS_SchedNew         ; [CPU_ALU] |699| 
         00000264 0613 
    2573                      ; call occurs [#_OS_SchedNew] ; [] |699| 
    2574                      .dwpsn  file "C:/ti/Workspace/PLC_certificate/Software/uCOS-II/Source/os_core.c",line 700,column 17,i
    2575 00000265 2901          CLRC      SXM                   ; [CPU_ALU] 
    2576 00000266 761F-         MOVW      DP,#_OSPrioHighRdy    ; [CPU_ARAU] 
         00000267 0000 
    2577 00000268 8F00-         MOVL      XAR4,#_OSTCBPrioTbl   ; [CPU_ARAU] |700| 
         00000269 0000 
    2578 0000026a 5603-         MOV       ACC,@_OSPrioHighRdy << 1 ; [CPU_ALU] |700| 
         0000026b 0105 
    2579 0000026c 5601          ADDL      XAR4,ACC              ; [CPU_ALU] |700| 
         0000026d 00A4 
    2580 0000026e 06C4          MOVL      ACC,*+XAR4[0]         ; [CPU_ALU] |700| 
    2581 0000026f 1E1C-         MOVL      @_OSTCBHighRdy,ACC    ; [CPU_ALU] |700| 
    2582                      .dwpsn  file "C:/ti/Workspace/PLC_certificate/Software/uCOS-II/Source/os_core.c",line 701,column 17,i
    2583 00000270 8805-         MOVZ      AR6,@_OSPrioHighRdy   ; [CPU_ALU] |701| 
    2584 00000271 0E04-         MOVU      ACC,@_OSPrioCur       ; [CPU_ALU] |701| 
    2585 00000272 0FA6          CMPL      ACC,XAR6              ; [CPU_ALU] |701| 
    2586 00000273 610A          B         $C$L54,EQ             ; [CPU_ALU] |701| 
    2587                      ; branchcc occurs ; [] |701| 
    2588                      .dwpsn  file "C:/ti/Workspace/PLC_certificate/Software/uCOS-II/Source/os_core.c",line 703,column 21,i
    2589 00000274 0222          MOVB      ACC,#34               ; [CPU_ALU] |703| 
    2590 00000275 071C-         ADDL      ACC,@_OSTCBHighRdy    ; [CPU_ALU] |703| 
    2591 00000276 8AA9          MOVL      XAR4,ACC              ; [CPU_ALU] |703| 
    2592 00000277 0201          MOVB      ACC,#1                ; [CPU_ALU] |703| 
    2593 00000278 5601          ADDL      *+XAR4[0],ACC         ; [CPU_ALU] |703| 
         00000279 00C4 
    2594                      .dwpsn  file "C:/ti/Workspace/PLC_certificate/Software/uCOS-II/Source/os_core.c",line 705,column 21,i
    2595 0000027a 5601-         ADDL      @_OSCtxSwCtr,ACC      ; [CPU_ALU] |705| 
         0000027b 000C 
    2596                      .dwpsn  file "C:/ti/Workspace/PLC_certificate/Software/uCOS-II/Source/os_core.c",line 713,column 21,i
    2597 0000027c 0030   TRAP #16
    2598 0000027d       $C$L54:    
    2599                      .dwpsn  file "C:/ti/Workspace/PLC_certificate/Software/uCOS-II/Source/os_core.c",line 717,column 9,is
    2600 0000027d 9241          MOV       AL,*-SP[1]            ; [CPU_ALU] |717| 
    2601 0000027e FF69          SPM       #0                    ; [CPU_ALU] 
    2602              $C$DW$149       .dwtag  DW_TAG_TI_branch
    2603                      .dwattr $C$DW$149, DW_AT_low_pc(0x00)
    2604                      .dwattr $C$DW$149, DW_AT_name("_OS_CPU_SR_Restore")
    2605                      .dwattr $C$DW$149, DW_AT_TI_call
    2606              
    2607 0000027f 7640!         LCR       #_OS_CPU_SR_Restore   ; [CPU_ALU] |717| 
         00000280 0000 
    2608                      ; call occurs [#_OS_CPU_SR_Restore] ; [] |717| 
    2609                      .dwpsn  file "C:/ti/Workspace/PLC_certificate/Software/uCOS-II/Source/os_core.c",line 719,column 1,is
    2610 00000281       $C$L55:    
    2611 00000281 FE82          SUBB      SP,#2                 ; [CPU_ARAU] 
    2612                      .dwcfi  cfa_offset, -2
TMS320C2000 Assembler PC v20.2.1 Tue Feb 16 00:15:57 2021

Copyright (c) 1996-2018 Texas Instruments Incorporated
os_core.asm                                                          PAGE   50

    2613              $C$DW$150       .dwtag  DW_TAG_TI_branch
    2614                      .dwattr $C$DW$150, DW_AT_low_pc(0x00)
    2615                      .dwattr $C$DW$150, DW_AT_TI_return
    2616              
    2617 00000282 0006          LRETR     ; [CPU_ALU] 
    2618                      ; return occurs ; [] 
    2619                      .dwattr $C$DW$145, DW_AT_TI_end_file("C:/ti/Workspace/PLC_certificate/Software/uCOS-II/Source/os_core
    2620                      .dwattr $C$DW$145, DW_AT_TI_end_line(0x2cf)
    2621                      .dwattr $C$DW$145, DW_AT_TI_end_column(0x01)
    2622                      .dwendentry
    2623                      .dwendtag $C$DW$145
    2624              
    2625 00000283               .sect   ".text"
    2626                      .clink
    2627                      .global _OSSchedLock
    2628              
    2629              $C$DW$151       .dwtag  DW_TAG_subprogram
    2630                      .dwattr $C$DW$151, DW_AT_name("OSSchedLock")
    2631                      .dwattr $C$DW$151, DW_AT_low_pc(_OSSchedLock)
    2632                      .dwattr $C$DW$151, DW_AT_high_pc(0x00)
    2633                      .dwattr $C$DW$151, DW_AT_TI_symbol_name("_OSSchedLock")
    2634                      .dwattr $C$DW$151, DW_AT_external
    2635                      .dwattr $C$DW$151, DW_AT_TI_begin_file("C:/ti/Workspace/PLC_certificate/Software/uCOS-II/Source/os_co
    2636                      .dwattr $C$DW$151, DW_AT_TI_begin_line(0x2fc)
    2637                      .dwattr $C$DW$151, DW_AT_TI_begin_column(0x07)
    2638                      .dwattr $C$DW$151, DW_AT_TI_max_frame_size(-4)
    2639                      .dwpsn  file "C:/ti/Workspace/PLC_certificate/Software/uCOS-II/Source/os_core.c",line 765,column 1,is
    2640              
    2641                      .dwfde $C$DW$CIE, _OSSchedLock
    2642              
    2643              ;***************************************************************
    2644              ;* FNAME: _OSSchedLock                  FR SIZE:   2           *
    2645              ;*                                                             *
    2646              ;* FUNCTION ENVIRONMENT                                        *
    2647              ;*                                                             *
    2648              ;* FUNCTION PROPERTIES                                         *
    2649              ;*                            0 Parameter,  1 Auto,  0 SOE     *
    2650              ;***************************************************************
    2651              
    2652 00000283       _OSSchedLock:
    2653                      .dwcfi  cfa_offset, -2
    2654                      .dwcfi  save_reg_to_mem, 26, 0
    2655 00000283 FE02          ADDB      SP,#2                 ; [CPU_ARAU] 
    2656                      .dwcfi  cfa_offset, -4
    2657              $C$DW$152       .dwtag  DW_TAG_variable
    2658                      .dwattr $C$DW$152, DW_AT_name("cpu_sr")
    2659                      .dwattr $C$DW$152, DW_AT_TI_symbol_name("_cpu_sr")
    2660                      .dwattr $C$DW$152, DW_AT_type(*$C$DW$T$44)
    2661                      .dwattr $C$DW$152, DW_AT_location[DW_OP_breg20 -1]
    2662              
    2663                      .dwpsn  file "C:/ti/Workspace/PLC_certificate/Software/uCOS-II/Source/os_core.c",line 767,column 23,i
    2664 00000284 2B41          MOV       *-SP[1],#0            ; [CPU_ALU] |767| 
    2665                      .dwpsn  file "C:/ti/Workspace/PLC_certificate/Software/uCOS-II/Source/os_core.c",line 772,column 5,is
    2666 00000285 761F-         MOVW      DP,#_OSRunning        ; [CPU_ARAU] 
         00000286 0000 
TMS320C2000 Assembler PC v20.2.1 Tue Feb 16 00:15:57 2021

Copyright (c) 1996-2018 Texas Instruments Incorporated
os_core.asm                                                          PAGE   51

    2667 00000287 9207-         MOV       AL,@_OSRunning        ; [CPU_ALU] |772| 
    2668 00000288 5201          CMPB      AL,#1                 ; [CPU_ALU] |772| 
    2669 00000289 600F          B         $C$L57,NEQ            ; [CPU_ALU] |772| 
    2670                      ; branchcc occurs ; [] |772| 
    2671                      .dwpsn  file "C:/ti/Workspace/PLC_certificate/Software/uCOS-II/Source/os_core.c",line 773,column 9,is
    2672              $C$DW$153       .dwtag  DW_TAG_TI_branch
    2673                      .dwattr $C$DW$153, DW_AT_low_pc(0x00)
    2674                      .dwattr $C$DW$153, DW_AT_name("_OS_CPU_SR_Save")
    2675                      .dwattr $C$DW$153, DW_AT_TI_call
    2676              
    2677 0000028a 7640!         LCR       #_OS_CPU_SR_Save      ; [CPU_ALU] |773| 
         0000028b 0000 
    2678                      ; call occurs [#_OS_CPU_SR_Save] ; [] |773| 
    2679 0000028c 9641          MOV       *-SP[1],AL            ; [CPU_ALU] |773| 
    2680                      .dwpsn  file "C:/ti/Workspace/PLC_certificate/Software/uCOS-II/Source/os_core.c",line 774,column 9,is
    2681 0000028d 761F-         MOVW      DP,#_OSIntNesting     ; [CPU_ARAU] 
         0000028e 0000 
    2682 0000028f 9202-         MOV       AL,@_OSIntNesting     ; [CPU_ALU] |774| 
    2683 00000290 6005          B         $C$L56,NEQ            ; [CPU_ALU] |774| 
    2684                      ; branchcc occurs ; [] |774| 
    2685                      .dwpsn  file "C:/ti/Workspace/PLC_certificate/Software/uCOS-II/Source/os_core.c",line 775,column 13,i
    2686 00000291 9203-         MOV       AL,@_OSLockNesting    ; [CPU_ALU] |775| 
    2687 00000292 52FF          CMPB      AL,#255               ; [CPU_ALU] |775| 
    2688 00000293 6702          B         $C$L56,HIS            ; [CPU_ALU] |775| 
    2689                      ; branchcc occurs ; [] |775| 
    2690                      .dwpsn  file "C:/ti/Workspace/PLC_certificate/Software/uCOS-II/Source/os_core.c",line 776,column 17,i
    2691 00000294 0A03-         INC       @_OSLockNesting       ; [CPU_ALU] |776| 
    2692 00000295       $C$L56:    
    2693                      .dwpsn  file "C:/ti/Workspace/PLC_certificate/Software/uCOS-II/Source/os_core.c",line 779,column 9,is
    2694 00000295 9241          MOV       AL,*-SP[1]            ; [CPU_ALU] |779| 
    2695              $C$DW$154       .dwtag  DW_TAG_TI_branch
    2696                      .dwattr $C$DW$154, DW_AT_low_pc(0x00)
    2697                      .dwattr $C$DW$154, DW_AT_name("_OS_CPU_SR_Restore")
    2698                      .dwattr $C$DW$154, DW_AT_TI_call
    2699              
    2700 00000296 7640!         LCR       #_OS_CPU_SR_Restore   ; [CPU_ALU] |779| 
         00000297 0000 
    2701                      ; call occurs [#_OS_CPU_SR_Restore] ; [] |779| 
    2702                      .dwpsn  file "C:/ti/Workspace/PLC_certificate/Software/uCOS-II/Source/os_core.c",line 781,column 1,is
    2703 00000298       $C$L57:    
    2704 00000298 FE82          SUBB      SP,#2                 ; [CPU_ARAU] 
    2705                      .dwcfi  cfa_offset, -2
    2706              $C$DW$155       .dwtag  DW_TAG_TI_branch
    2707                      .dwattr $C$DW$155, DW_AT_low_pc(0x00)
    2708                      .dwattr $C$DW$155, DW_AT_TI_return
    2709              
    2710 00000299 0006          LRETR     ; [CPU_ALU] 
    2711                      ; return occurs ; [] 
    2712                      .dwattr $C$DW$151, DW_AT_TI_end_file("C:/ti/Workspace/PLC_certificate/Software/uCOS-II/Source/os_core
    2713                      .dwattr $C$DW$151, DW_AT_TI_end_line(0x30d)
    2714                      .dwattr $C$DW$151, DW_AT_TI_end_column(0x01)
    2715                      .dwendentry
    2716                      .dwendtag $C$DW$151
    2717              
    2718 0000029a               .sect   ".text"
TMS320C2000 Assembler PC v20.2.1 Tue Feb 16 00:15:57 2021

Copyright (c) 1996-2018 Texas Instruments Incorporated
os_core.asm                                                          PAGE   52

    2719                      .clink
    2720                      .global _OSSchedUnlock
    2721              
    2722              $C$DW$156       .dwtag  DW_TAG_subprogram
    2723                      .dwattr $C$DW$156, DW_AT_name("OSSchedUnlock")
    2724                      .dwattr $C$DW$156, DW_AT_low_pc(_OSSchedUnlock)
    2725                      .dwattr $C$DW$156, DW_AT_high_pc(0x00)
    2726                      .dwattr $C$DW$156, DW_AT_TI_symbol_name("_OSSchedUnlock")
    2727                      .dwattr $C$DW$156, DW_AT_external
    2728                      .dwattr $C$DW$156, DW_AT_TI_begin_file("C:/ti/Workspace/PLC_certificate/Software/uCOS-II/Source/os_co
    2729                      .dwattr $C$DW$156, DW_AT_TI_begin_line(0x321)
    2730                      .dwattr $C$DW$156, DW_AT_TI_begin_column(0x07)
    2731                      .dwattr $C$DW$156, DW_AT_TI_max_frame_size(-4)
    2732                      .dwpsn  file "C:/ti/Workspace/PLC_certificate/Software/uCOS-II/Source/os_core.c",line 802,column 1,is
    2733              
    2734                      .dwfde $C$DW$CIE, _OSSchedUnlock
    2735              
    2736              ;***************************************************************
    2737              ;* FNAME: _OSSchedUnlock                FR SIZE:   2           *
    2738              ;*                                                             *
    2739              ;* FUNCTION ENVIRONMENT                                        *
    2740              ;*                                                             *
    2741              ;* FUNCTION PROPERTIES                                         *
    2742              ;*                            0 Parameter,  1 Auto,  0 SOE     *
    2743              ;***************************************************************
    2744              
    2745 0000029a       _OSSchedUnlock:
    2746                      .dwcfi  cfa_offset, -2
    2747                      .dwcfi  save_reg_to_mem, 26, 0
    2748 0000029a FE02          ADDB      SP,#2                 ; [CPU_ARAU] 
    2749                      .dwcfi  cfa_offset, -4
    2750              $C$DW$157       .dwtag  DW_TAG_variable
    2751                      .dwattr $C$DW$157, DW_AT_name("cpu_sr")
    2752                      .dwattr $C$DW$157, DW_AT_TI_symbol_name("_cpu_sr")
    2753                      .dwattr $C$DW$157, DW_AT_type(*$C$DW$T$44)
    2754                      .dwattr $C$DW$157, DW_AT_location[DW_OP_breg20 -1]
    2755              
    2756                      .dwpsn  file "C:/ti/Workspace/PLC_certificate/Software/uCOS-II/Source/os_core.c",line 804,column 23,i
    2757 0000029b 2B41          MOV       *-SP[1],#0            ; [CPU_ALU] |804| 
    2758                      .dwpsn  file "C:/ti/Workspace/PLC_certificate/Software/uCOS-II/Source/os_core.c",line 809,column 5,is
    2759 0000029c 761F-         MOVW      DP,#_OSRunning        ; [CPU_ARAU] 
         0000029d 0000 
    2760 0000029e 9207-         MOV       AL,@_OSRunning        ; [CPU_ALU] |809| 
    2761 0000029f 5201          CMPB      AL,#1                 ; [CPU_ALU] |809| 
    2762 000002a0 601E          B         $C$L61,NEQ            ; [CPU_ALU] |809| 
    2763                      ; branchcc occurs ; [] |809| 
    2764                      .dwpsn  file "C:/ti/Workspace/PLC_certificate/Software/uCOS-II/Source/os_core.c",line 810,column 9,is
    2765              $C$DW$158       .dwtag  DW_TAG_TI_branch
    2766                      .dwattr $C$DW$158, DW_AT_low_pc(0x00)
    2767                      .dwattr $C$DW$158, DW_AT_name("_OS_CPU_SR_Save")
    2768                      .dwattr $C$DW$158, DW_AT_TI_call
    2769              
    2770 000002a1 7640!         LCR       #_OS_CPU_SR_Save      ; [CPU_ALU] |810| 
         000002a2 0000 
    2771                      ; call occurs [#_OS_CPU_SR_Save] ; [] |810| 
TMS320C2000 Assembler PC v20.2.1 Tue Feb 16 00:15:57 2021

Copyright (c) 1996-2018 Texas Instruments Incorporated
os_core.asm                                                          PAGE   53

    2772 000002a3 9641          MOV       *-SP[1],AL            ; [CPU_ALU] |810| 
    2773                      .dwpsn  file "C:/ti/Workspace/PLC_certificate/Software/uCOS-II/Source/os_core.c",line 811,column 9,is
    2774 000002a4 761F-         MOVW      DP,#_OSIntNesting     ; [CPU_ARAU] 
         000002a5 0000 
    2775 000002a6 9202-         MOV       AL,@_OSIntNesting     ; [CPU_ALU] |811| 
    2776 000002a7 6014          B         $C$L60,NEQ            ; [CPU_ALU] |811| 
    2777                      ; branchcc occurs ; [] |811| 
    2778                      .dwpsn  file "C:/ti/Workspace/PLC_certificate/Software/uCOS-II/Source/os_core.c",line 812,column 13,i
    2779 000002a8 9203-         MOV       AL,@_OSLockNesting    ; [CPU_ALU] |812| 
    2780 000002a9 610E          B         $C$L59,EQ             ; [CPU_ALU] |812| 
    2781                      ; branchcc occurs ; [] |812| 
    2782                      .dwpsn  file "C:/ti/Workspace/PLC_certificate/Software/uCOS-II/Source/os_core.c",line 813,column 17,i
    2783 000002aa 0B03-         DEC       @_OSLockNesting       ; [CPU_ALU] |813| 
    2784                      .dwpsn  file "C:/ti/Workspace/PLC_certificate/Software/uCOS-II/Source/os_core.c",line 814,column 17,i
    2785 000002ab 9203-         MOV       AL,@_OSLockNesting    ; [CPU_ALU] |814| 
    2786 000002ac 6007          B         $C$L58,NEQ            ; [CPU_ALU] |814| 
    2787                      ; branchcc occurs ; [] |814| 
    2788                      .dwpsn  file "C:/ti/Workspace/PLC_certificate/Software/uCOS-II/Source/os_core.c",line 815,column 21,i
    2789 000002ad 9241          MOV       AL,*-SP[1]            ; [CPU_ALU] |815| 
    2790              $C$DW$159       .dwtag  DW_TAG_TI_branch
    2791                      .dwattr $C$DW$159, DW_AT_low_pc(0x00)
    2792                      .dwattr $C$DW$159, DW_AT_name("_OS_CPU_SR_Restore")
    2793                      .dwattr $C$DW$159, DW_AT_TI_call
    2794              
    2795 000002ae 7640!         LCR       #_OS_CPU_SR_Restore   ; [CPU_ALU] |815| 
         000002af 0000 
    2796                      ; call occurs [#_OS_CPU_SR_Restore] ; [] |815| 
    2797                      .dwpsn  file "C:/ti/Workspace/PLC_certificate/Software/uCOS-II/Source/os_core.c",line 816,column 21,i
    2798              $C$DW$160       .dwtag  DW_TAG_TI_branch
    2799                      .dwattr $C$DW$160, DW_AT_low_pc(0x00)
    2800                      .dwattr $C$DW$160, DW_AT_name("_OS_Sched")
    2801                      .dwattr $C$DW$160, DW_AT_TI_call
    2802              
    2803 000002b0 7640'         LCR       #_OS_Sched            ; [CPU_ALU] |816| 
         000002b1 05E8 
    2804                      ; call occurs [#_OS_Sched] ; [] |816| 
    2805 000002b2 6F0C          B         $C$L61,UNC            ; [CPU_ALU] 
    2806                      ; branch occurs ; [] 
    2807 000002b3       $C$L58:    
    2808                      .dwpsn  file "C:/ti/Workspace/PLC_certificate/Software/uCOS-II/Source/os_core.c",line 818,column 21,i
    2809 000002b3 9241          MOV       AL,*-SP[1]            ; [CPU_ALU] |818| 
    2810              $C$DW$161       .dwtag  DW_TAG_TI_branch
    2811                      .dwattr $C$DW$161, DW_AT_low_pc(0x00)
    2812                      .dwattr $C$DW$161, DW_AT_name("_OS_CPU_SR_Restore")
    2813                      .dwattr $C$DW$161, DW_AT_TI_call
    2814              
    2815 000002b4 7640!         LCR       #_OS_CPU_SR_Restore   ; [CPU_ALU] |818| 
         000002b5 0000 
    2816                      ; call occurs [#_OS_CPU_SR_Restore] ; [] |818| 
    2817 000002b6 6F08          B         $C$L61,UNC            ; [CPU_ALU] 
    2818                      ; branch occurs ; [] 
    2819 000002b7       $C$L59:    
    2820                      .dwpsn  file "C:/ti/Workspace/PLC_certificate/Software/uCOS-II/Source/os_core.c",line 821,column 17,i
    2821 000002b7 9241          MOV       AL,*-SP[1]            ; [CPU_ALU] |821| 
    2822              $C$DW$162       .dwtag  DW_TAG_TI_branch
TMS320C2000 Assembler PC v20.2.1 Tue Feb 16 00:15:57 2021

Copyright (c) 1996-2018 Texas Instruments Incorporated
os_core.asm                                                          PAGE   54

    2823                      .dwattr $C$DW$162, DW_AT_low_pc(0x00)
    2824                      .dwattr $C$DW$162, DW_AT_name("_OS_CPU_SR_Restore")
    2825                      .dwattr $C$DW$162, DW_AT_TI_call
    2826              
    2827 000002b8 7640!         LCR       #_OS_CPU_SR_Restore   ; [CPU_ALU] |821| 
         000002b9 0000 
    2828                      ; call occurs [#_OS_CPU_SR_Restore] ; [] |821| 
    2829 000002ba 6F04          B         $C$L61,UNC            ; [CPU_ALU] 
    2830                      ; branch occurs ; [] 
    2831 000002bb       $C$L60:    
    2832                      .dwpsn  file "C:/ti/Workspace/PLC_certificate/Software/uCOS-II/Source/os_core.c",line 824,column 13,i
    2833 000002bb 9241          MOV       AL,*-SP[1]            ; [CPU_ALU] |824| 
    2834              $C$DW$163       .dwtag  DW_TAG_TI_branch
    2835                      .dwattr $C$DW$163, DW_AT_low_pc(0x00)
    2836                      .dwattr $C$DW$163, DW_AT_name("_OS_CPU_SR_Restore")
    2837                      .dwattr $C$DW$163, DW_AT_TI_call
    2838              
    2839 000002bc 7640!         LCR       #_OS_CPU_SR_Restore   ; [CPU_ALU] |824| 
         000002bd 0000 
    2840                      ; call occurs [#_OS_CPU_SR_Restore] ; [] |824| 
    2841                      .dwpsn  file "C:/ti/Workspace/PLC_certificate/Software/uCOS-II/Source/os_core.c",line 827,column 1,is
    2842 000002be       $C$L61:    
    2843 000002be FE82          SUBB      SP,#2                 ; [CPU_ARAU] 
    2844                      .dwcfi  cfa_offset, -2
    2845              $C$DW$164       .dwtag  DW_TAG_TI_branch
    2846                      .dwattr $C$DW$164, DW_AT_low_pc(0x00)
    2847                      .dwattr $C$DW$164, DW_AT_TI_return
    2848              
    2849 000002bf 0006          LRETR     ; [CPU_ALU] 
    2850                      ; return occurs ; [] 
    2851                      .dwattr $C$DW$156, DW_AT_TI_end_file("C:/ti/Workspace/PLC_certificate/Software/uCOS-II/Source/os_core
    2852                      .dwattr $C$DW$156, DW_AT_TI_end_line(0x33b)
    2853                      .dwattr $C$DW$156, DW_AT_TI_end_column(0x01)
    2854                      .dwendentry
    2855                      .dwendtag $C$DW$156
    2856              
    2857 000002c0               .sect   ".text"
    2858                      .clink
    2859                      .global _OSStart
    2860              
    2861              $C$DW$165       .dwtag  DW_TAG_subprogram
    2862                      .dwattr $C$DW$165, DW_AT_name("OSStart")
    2863                      .dwattr $C$DW$165, DW_AT_low_pc(_OSStart)
    2864                      .dwattr $C$DW$165, DW_AT_high_pc(0x00)
    2865                      .dwattr $C$DW$165, DW_AT_TI_symbol_name("_OSStart")
    2866                      .dwattr $C$DW$165, DW_AT_external
    2867                      .dwattr $C$DW$165, DW_AT_TI_begin_file("C:/ti/Workspace/PLC_certificate/Software/uCOS-II/Source/os_co
    2868                      .dwattr $C$DW$165, DW_AT_TI_begin_line(0x353)
    2869                      .dwattr $C$DW$165, DW_AT_TI_begin_column(0x07)
    2870                      .dwattr $C$DW$165, DW_AT_TI_max_frame_size(-2)
    2871                      .dwpsn  file "C:/ti/Workspace/PLC_certificate/Software/uCOS-II/Source/os_core.c",line 852,column 1,is
    2872              
    2873                      .dwfde $C$DW$CIE, _OSStart
    2874              
    2875              ;***************************************************************
TMS320C2000 Assembler PC v20.2.1 Tue Feb 16 00:15:57 2021

Copyright (c) 1996-2018 Texas Instruments Incorporated
os_core.asm                                                          PAGE   55

    2876              ;* FNAME: _OSStart                      FR SIZE:   0           *
    2877              ;*                                                             *
    2878              ;* FUNCTION ENVIRONMENT                                        *
    2879              ;*                                                             *
    2880              ;* FUNCTION PROPERTIES                                         *
    2881              ;*                            0 Parameter,  0 Auto,  0 SOE     *
    2882              ;***************************************************************
    2883              
    2884 000002c0       _OSStart:
    2885                      .dwcfi  cfa_offset, -2
    2886                      .dwcfi  save_reg_to_mem, 26, 0
    2887                      .dwpsn  file "C:/ti/Workspace/PLC_certificate/Software/uCOS-II/Source/os_core.c",line 853,column 5,is
    2888 000002c0 761F-         MOVW      DP,#_OSRunning        ; [CPU_ARAU] 
         000002c1 0000 
    2889 000002c2 9207-         MOV       AL,@_OSRunning        ; [CPU_ALU] |853| 
    2890 000002c3 6013          B         $C$L62,NEQ            ; [CPU_ALU] |853| 
    2891                      ; branchcc occurs ; [] |853| 
    2892                      .dwpsn  file "C:/ti/Workspace/PLC_certificate/Software/uCOS-II/Source/os_core.c",line 854,column 9,is
    2893              $C$DW$166       .dwtag  DW_TAG_TI_branch
    2894                      .dwattr $C$DW$166, DW_AT_low_pc(0x00)
    2895                      .dwattr $C$DW$166, DW_AT_name("_OS_SchedNew")
    2896                      .dwattr $C$DW$166, DW_AT_TI_call
    2897              
    2898 000002c4 7640'         LCR       #_OS_SchedNew         ; [CPU_ALU] |854| 
         000002c5 0613 
    2899                      ; call occurs [#_OS_SchedNew] ; [] |854| 
    2900                      .dwpsn  file "C:/ti/Workspace/PLC_certificate/Software/uCOS-II/Source/os_core.c",line 855,column 9,is
    2901 000002c6 761F-         MOVW      DP,#_OSPrioHighRdy    ; [CPU_ARAU] 
         000002c7 0000 
    2902 000002c8 9205-         MOV       AL,@_OSPrioHighRdy    ; [CPU_ALU] |855| 
    2903 000002c9 9604-         MOV       @_OSPrioCur,AL        ; [CPU_ALU] |855| 
    2904                      .dwpsn  file "C:/ti/Workspace/PLC_certificate/Software/uCOS-II/Source/os_core.c",line 856,column 9,is
    2905 000002ca 2901          CLRC      SXM                   ; [CPU_ALU] 
    2906 000002cb 8F00-         MOVL      XAR4,#_OSTCBPrioTbl   ; [CPU_ARAU] |856| 
         000002cc 0000 
    2907 000002cd 5603-         MOV       ACC,@_OSPrioHighRdy << 1 ; [CPU_ALU] |856| 
         000002ce 0105 
    2908 000002cf 5601          ADDL      XAR4,ACC              ; [CPU_ALU] |856| 
         000002d0 00A4 
    2909 000002d1 06C4          MOVL      ACC,*+XAR4[0]         ; [CPU_ALU] |856| 
    2910 000002d2 1E1C-         MOVL      @_OSTCBHighRdy,ACC    ; [CPU_ALU] |856| 
    2911                      .dwpsn  file "C:/ti/Workspace/PLC_certificate/Software/uCOS-II/Source/os_core.c",line 857,column 9,is
    2912 000002d3 1E18-         MOVL      @_OSTCBCur,ACC        ; [CPU_ALU] |857| 
    2913                      .dwpsn  file "C:/ti/Workspace/PLC_certificate/Software/uCOS-II/Source/os_core.c",line 858,column 9,is
    2914              $C$DW$167       .dwtag  DW_TAG_TI_branch
    2915                      .dwattr $C$DW$167, DW_AT_low_pc(0x00)
    2916                      .dwattr $C$DW$167, DW_AT_name("_OSStartHighRdy")
    2917                      .dwattr $C$DW$167, DW_AT_TI_call
    2918              
    2919 000002d4 7640!         LCR       #_OSStartHighRdy      ; [CPU_ALU] |858| 
         000002d5 0000 
    2920                      ; call occurs [#_OSStartHighRdy] ; [] |858| 
    2921                      .dwpsn  file "C:/ti/Workspace/PLC_certificate/Software/uCOS-II/Source/os_core.c",line 860,column 1,is
    2922              $C$L62:    
    2923              $C$DW$168       .dwtag  DW_TAG_TI_branch
TMS320C2000 Assembler PC v20.2.1 Tue Feb 16 00:15:57 2021

Copyright (c) 1996-2018 Texas Instruments Incorporated
os_core.asm                                                          PAGE   56

    2924                      .dwattr $C$DW$168, DW_AT_low_pc(0x00)
    2925                      .dwattr $C$DW$168, DW_AT_TI_return
    2926              
    2927 000002d6 0006          LRETR     ; [CPU_ALU] 
    2928                      ; return occurs ; [] 
    2929                      .dwattr $C$DW$165, DW_AT_TI_end_file("C:/ti/Workspace/PLC_certificate/Software/uCOS-II/Source/os_core
    2930                      .dwattr $C$DW$165, DW_AT_TI_end_line(0x35c)
    2931                      .dwattr $C$DW$165, DW_AT_TI_end_column(0x01)
    2932                      .dwendentry
    2933                      .dwendtag $C$DW$165
    2934              
    2935 000002d7               .sect   ".text"
    2936                      .clink
    2937                      .global _OSStatInit
    2938              
    2939              $C$DW$169       .dwtag  DW_TAG_subprogram
    2940                      .dwattr $C$DW$169, DW_AT_name("OSStatInit")
    2941                      .dwattr $C$DW$169, DW_AT_low_pc(_OSStatInit)
    2942                      .dwattr $C$DW$169, DW_AT_high_pc(0x00)
    2943                      .dwattr $C$DW$169, DW_AT_TI_symbol_name("_OSStatInit")
    2944                      .dwattr $C$DW$169, DW_AT_external
    2945                      .dwattr $C$DW$169, DW_AT_TI_begin_file("C:/ti/Workspace/PLC_certificate/Software/uCOS-II/Source/os_co
    2946                      .dwattr $C$DW$169, DW_AT_TI_begin_line(0x373)
    2947                      .dwattr $C$DW$169, DW_AT_TI_begin_column(0x07)
    2948                      .dwattr $C$DW$169, DW_AT_TI_max_frame_size(-4)
    2949                      .dwpsn  file "C:/ti/Workspace/PLC_certificate/Software/uCOS-II/Source/os_core.c",line 884,column 1,is
    2950              
    2951                      .dwfde $C$DW$CIE, _OSStatInit
    2952              
    2953              ;***************************************************************
    2954              ;* FNAME: _OSStatInit                   FR SIZE:   2           *
    2955              ;*                                                             *
    2956              ;* FUNCTION ENVIRONMENT                                        *
    2957              ;*                                                             *
    2958              ;* FUNCTION PROPERTIES                                         *
    2959              ;*                            0 Parameter,  1 Auto,  0 SOE     *
    2960              ;***************************************************************
    2961              
    2962 000002d7       _OSStatInit:
    2963                      .dwcfi  cfa_offset, -2
    2964                      .dwcfi  save_reg_to_mem, 26, 0
    2965 000002d7 FE02          ADDB      SP,#2                 ; [CPU_ARAU] 
    2966                      .dwcfi  cfa_offset, -4
    2967              $C$DW$170       .dwtag  DW_TAG_variable
    2968                      .dwattr $C$DW$170, DW_AT_name("cpu_sr")
    2969                      .dwattr $C$DW$170, DW_AT_TI_symbol_name("_cpu_sr")
    2970                      .dwattr $C$DW$170, DW_AT_type(*$C$DW$T$44)
    2971                      .dwattr $C$DW$170, DW_AT_location[DW_OP_breg20 -1]
    2972              
    2973                      .dwpsn  file "C:/ti/Workspace/PLC_certificate/Software/uCOS-II/Source/os_core.c",line 886,column 23,i
    2974 000002d8 2B41          MOV       *-SP[1],#0            ; [CPU_ALU] |886| 
    2975                      .dwpsn  file "C:/ti/Workspace/PLC_certificate/Software/uCOS-II/Source/os_core.c",line 891,column 5,is
    2976 000002d9 0202          MOVB      ACC,#2                ; [CPU_ALU] |891| 
    2977              $C$DW$171       .dwtag  DW_TAG_TI_branch
    2978                      .dwattr $C$DW$171, DW_AT_low_pc(0x00)
TMS320C2000 Assembler PC v20.2.1 Tue Feb 16 00:15:57 2021

Copyright (c) 1996-2018 Texas Instruments Incorporated
os_core.asm                                                          PAGE   57

    2979                      .dwattr $C$DW$171, DW_AT_name("_OSTimeDly")
    2980                      .dwattr $C$DW$171, DW_AT_TI_call
    2981              
    2982 000002da 7640!         LCR       #_OSTimeDly           ; [CPU_ALU] |891| 
         000002db 0000 
    2983                      ; call occurs [#_OSTimeDly] ; [] |891| 
    2984                      .dwpsn  file "C:/ti/Workspace/PLC_certificate/Software/uCOS-II/Source/os_core.c",line 892,column 5,is
    2985              $C$DW$172       .dwtag  DW_TAG_TI_branch
    2986                      .dwattr $C$DW$172, DW_AT_low_pc(0x00)
    2987                      .dwattr $C$DW$172, DW_AT_name("_OS_CPU_SR_Save")
    2988                      .dwattr $C$DW$172, DW_AT_TI_call
    2989              
    2990 000002dc 7640!         LCR       #_OS_CPU_SR_Save      ; [CPU_ALU] |892| 
         000002dd 0000 
    2991                      ; call occurs [#_OS_CPU_SR_Save] ; [] |892| 
    2992 000002de 9641          MOV       *-SP[1],AL            ; [CPU_ALU] |892| 
    2993                      .dwpsn  file "C:/ti/Workspace/PLC_certificate/Software/uCOS-II/Source/os_core.c",line 893,column 5,is
    2994 000002df 761F-         MOVW      DP,#_OSIdleCtr        ; [CPU_ARAU] 
         000002e0 0000 
    2995 000002e1 0200          MOVB      ACC,#0                ; [CPU_ALU] |893| 
    2996 000002e2 1E16-         MOVL      @_OSIdleCtr,ACC       ; [CPU_ALU] |893| 
    2997                      .dwpsn  file "C:/ti/Workspace/PLC_certificate/Software/uCOS-II/Source/os_core.c",line 894,column 5,is
    2998 000002e3 9241          MOV       AL,*-SP[1]            ; [CPU_ALU] |894| 
    2999              $C$DW$173       .dwtag  DW_TAG_TI_branch
    3000                      .dwattr $C$DW$173, DW_AT_low_pc(0x00)
    3001                      .dwattr $C$DW$173, DW_AT_name("_OS_CPU_SR_Restore")
    3002                      .dwattr $C$DW$173, DW_AT_TI_call
    3003              
    3004 000002e4 7640!         LCR       #_OS_CPU_SR_Restore   ; [CPU_ALU] |894| 
         000002e5 0000 
    3005                      ; call occurs [#_OS_CPU_SR_Restore] ; [] |894| 
    3006                      .dwpsn  file "C:/ti/Workspace/PLC_certificate/Software/uCOS-II/Source/os_core.c",line 895,column 5,is
    3007 000002e6 0264          MOVB      ACC,#100              ; [CPU_ALU] |895| 
    3008              $C$DW$174       .dwtag  DW_TAG_TI_branch
    3009                      .dwattr $C$DW$174, DW_AT_low_pc(0x00)
    3010                      .dwattr $C$DW$174, DW_AT_name("_OSTimeDly")
    3011                      .dwattr $C$DW$174, DW_AT_TI_call
    3012              
    3013 000002e7 7640!         LCR       #_OSTimeDly           ; [CPU_ALU] |895| 
         000002e8 0000 
    3014                      ; call occurs [#_OSTimeDly] ; [] |895| 
    3015                      .dwpsn  file "C:/ti/Workspace/PLC_certificate/Software/uCOS-II/Source/os_core.c",line 896,column 5,is
    3016              $C$DW$175       .dwtag  DW_TAG_TI_branch
    3017                      .dwattr $C$DW$175, DW_AT_low_pc(0x00)
    3018                      .dwattr $C$DW$175, DW_AT_name("_OS_CPU_SR_Save")
    3019                      .dwattr $C$DW$175, DW_AT_TI_call
    3020              
    3021 000002e9 7640!         LCR       #_OS_CPU_SR_Save      ; [CPU_ALU] |896| 
         000002ea 0000 
    3022                      ; call occurs [#_OS_CPU_SR_Save] ; [] |896| 
    3023 000002eb 9641          MOV       *-SP[1],AL            ; [CPU_ALU] |896| 
    3024                      .dwpsn  file "C:/ti/Workspace/PLC_certificate/Software/uCOS-II/Source/os_core.c",line 897,column 5,is
    3025 000002ec 761F-         MOVW      DP,#_OSIdleCtr        ; [CPU_ARAU] 
         000002ed 0000 
    3026 000002ee 0616-         MOVL      ACC,@_OSIdleCtr       ; [CPU_ALU] |897| 
TMS320C2000 Assembler PC v20.2.1 Tue Feb 16 00:15:57 2021

Copyright (c) 1996-2018 Texas Instruments Incorporated
os_core.asm                                                          PAGE   58

    3027 000002ef 1E12-         MOVL      @_OSIdleCtrMax,ACC    ; [CPU_ALU] |897| 
    3028                      .dwpsn  file "C:/ti/Workspace/PLC_certificate/Software/uCOS-II/Source/os_core.c",line 898,column 5,is
    3029 000002f0 56BF-         MOVB      @_OSStatRdy,#1,UNC    ; [CPU_ALU] |898| 
         000002f1 0101 
    3030                      .dwpsn  file "C:/ti/Workspace/PLC_certificate/Software/uCOS-II/Source/os_core.c",line 899,column 5,is
    3031 000002f2 9241          MOV       AL,*-SP[1]            ; [CPU_ALU] |899| 
    3032              $C$DW$176       .dwtag  DW_TAG_TI_branch
    3033                      .dwattr $C$DW$176, DW_AT_low_pc(0x00)
    3034                      .dwattr $C$DW$176, DW_AT_name("_OS_CPU_SR_Restore")
    3035                      .dwattr $C$DW$176, DW_AT_TI_call
    3036              
    3037 000002f3 7640!         LCR       #_OS_CPU_SR_Restore   ; [CPU_ALU] |899| 
         000002f4 0000 
    3038                      ; call occurs [#_OS_CPU_SR_Restore] ; [] |899| 
    3039                      .dwpsn  file "C:/ti/Workspace/PLC_certificate/Software/uCOS-II/Source/os_core.c",line 900,column 1,is
    3040 000002f5 FE82          SUBB      SP,#2                 ; [CPU_ARAU] 
    3041                      .dwcfi  cfa_offset, -2
    3042              $C$DW$177       .dwtag  DW_TAG_TI_branch
    3043                      .dwattr $C$DW$177, DW_AT_low_pc(0x00)
    3044                      .dwattr $C$DW$177, DW_AT_TI_return
    3045              
    3046 000002f6 0006          LRETR     ; [CPU_ALU] 
    3047                      ; return occurs ; [] 
    3048                      .dwattr $C$DW$169, DW_AT_TI_end_file("C:/ti/Workspace/PLC_certificate/Software/uCOS-II/Source/os_core
    3049                      .dwattr $C$DW$169, DW_AT_TI_end_line(0x384)
    3050                      .dwattr $C$DW$169, DW_AT_TI_end_column(0x01)
    3051                      .dwendentry
    3052                      .dwendtag $C$DW$169
    3053              
    3054 000002f7               .sect   ".text"
    3055                      .clink
    3056                      .global _OSTimeTick
    3057              
    3058              $C$DW$178       .dwtag  DW_TAG_subprogram
    3059                      .dwattr $C$DW$178, DW_AT_name("OSTimeTick")
    3060                      .dwattr $C$DW$178, DW_AT_low_pc(_OSTimeTick)
    3061                      .dwattr $C$DW$178, DW_AT_high_pc(0x00)
    3062                      .dwattr $C$DW$178, DW_AT_TI_symbol_name("_OSTimeTick")
    3063                      .dwattr $C$DW$178, DW_AT_external
    3064                      .dwattr $C$DW$178, DW_AT_TI_begin_file("C:/ti/Workspace/PLC_certificate/Software/uCOS-II/Source/os_co
    3065                      .dwattr $C$DW$178, DW_AT_TI_begin_line(0x395)
    3066                      .dwattr $C$DW$178, DW_AT_TI_begin_column(0x07)
    3067                      .dwattr $C$DW$178, DW_AT_TI_max_frame_size(-6)
    3068                      .dwpsn  file "C:/ti/Workspace/PLC_certificate/Software/uCOS-II/Source/os_core.c",line 918,column 1,is
    3069              
    3070                      .dwfde $C$DW$CIE, _OSTimeTick
    3071              
    3072              ;***************************************************************
    3073              ;* FNAME: _OSTimeTick                   FR SIZE:   4           *
    3074              ;*                                                             *
    3075              ;* FUNCTION ENVIRONMENT                                        *
    3076              ;*                                                             *
    3077              ;* FUNCTION PROPERTIES                                         *
    3078              ;*                            0 Parameter,  4 Auto,  0 SOE     *
    3079              ;***************************************************************
TMS320C2000 Assembler PC v20.2.1 Tue Feb 16 00:15:57 2021

Copyright (c) 1996-2018 Texas Instruments Incorporated
os_core.asm                                                          PAGE   59

    3080              
    3081 000002f7       _OSTimeTick:
    3082                      .dwcfi  cfa_offset, -2
    3083                      .dwcfi  save_reg_to_mem, 26, 0
    3084 000002f7 FE04          ADDB      SP,#4                 ; [CPU_ARAU] 
    3085                      .dwcfi  cfa_offset, -6
    3086              $C$DW$179       .dwtag  DW_TAG_variable
    3087                      .dwattr $C$DW$179, DW_AT_name("ptcb")
    3088                      .dwattr $C$DW$179, DW_AT_TI_symbol_name("_ptcb")
    3089                      .dwattr $C$DW$179, DW_AT_type(*$C$DW$T$56)
    3090                      .dwattr $C$DW$179, DW_AT_location[DW_OP_breg20 -2]
    3091              
    3092              $C$DW$180       .dwtag  DW_TAG_variable
    3093                      .dwattr $C$DW$180, DW_AT_name("step")
    3094                      .dwattr $C$DW$180, DW_AT_TI_symbol_name("_step")
    3095                      .dwattr $C$DW$180, DW_AT_type(*$C$DW$T$70)
    3096                      .dwattr $C$DW$180, DW_AT_location[DW_OP_breg20 -3]
    3097              
    3098              $C$DW$181       .dwtag  DW_TAG_variable
    3099                      .dwattr $C$DW$181, DW_AT_name("cpu_sr")
    3100                      .dwattr $C$DW$181, DW_AT_TI_symbol_name("_cpu_sr")
    3101                      .dwattr $C$DW$181, DW_AT_type(*$C$DW$T$44)
    3102                      .dwattr $C$DW$181, DW_AT_location[DW_OP_breg20 -4]
    3103              
    3104                      .dwpsn  file "C:/ti/Workspace/PLC_certificate/Software/uCOS-II/Source/os_core.c",line 924,column 23,i
    3105 000002f8 2B44          MOV       *-SP[4],#0            ; [CPU_ALU] |924| 
    3106                      .dwpsn  file "C:/ti/Workspace/PLC_certificate/Software/uCOS-II/Source/os_core.c",line 930,column 5,is
    3107              $C$DW$182       .dwtag  DW_TAG_TI_branch
    3108                      .dwattr $C$DW$182, DW_AT_low_pc(0x00)
    3109                      .dwattr $C$DW$182, DW_AT_name("_OSTimeTickHook")
    3110                      .dwattr $C$DW$182, DW_AT_TI_call
    3111              
    3112 000002f9 7640!         LCR       #_OSTimeTickHook      ; [CPU_ALU] |930| 
         000002fa 0000 
    3113                      ; call occurs [#_OSTimeTickHook] ; [] |930| 
    3114                      .dwpsn  file "C:/ti/Workspace/PLC_certificate/Software/uCOS-II/Source/os_core.c",line 933,column 5,is
    3115              $C$DW$183       .dwtag  DW_TAG_TI_branch
    3116                      .dwattr $C$DW$183, DW_AT_low_pc(0x00)
    3117                      .dwattr $C$DW$183, DW_AT_name("_OS_CPU_SR_Save")
    3118                      .dwattr $C$DW$183, DW_AT_TI_call
    3119              
    3120 000002fb 7640!         LCR       #_OS_CPU_SR_Save      ; [CPU_ALU] |933| 
         000002fc 0000 
    3121                      ; call occurs [#_OS_CPU_SR_Save] ; [] |933| 
    3122 000002fd 9644          MOV       *-SP[4],AL            ; [CPU_ALU] |933| 
    3123                      .dwpsn  file "C:/ti/Workspace/PLC_certificate/Software/uCOS-II/Source/os_core.c",line 934,column 5,is
    3124 000002fe 761F-         MOVW      DP,#_OSTime           ; [CPU_ARAU] 
         000002ff 0000 
    3125 00000300 0201          MOVB      ACC,#1                ; [CPU_ALU] |934| 
    3126 00000301 5601-         ADDL      @_OSTime,ACC          ; [CPU_ALU] |934| 
         00000302 0024 
    3127                      .dwpsn  file "C:/ti/Workspace/PLC_certificate/Software/uCOS-II/Source/os_core.c",line 935,column 5,is
    3128 00000303 9244          MOV       AL,*-SP[4]            ; [CPU_ALU] |935| 
    3129              $C$DW$184       .dwtag  DW_TAG_TI_branch
    3130                      .dwattr $C$DW$184, DW_AT_low_pc(0x00)
TMS320C2000 Assembler PC v20.2.1 Tue Feb 16 00:15:57 2021

Copyright (c) 1996-2018 Texas Instruments Incorporated
os_core.asm                                                          PAGE   60

    3131                      .dwattr $C$DW$184, DW_AT_name("_OS_CPU_SR_Restore")
    3132                      .dwattr $C$DW$184, DW_AT_TI_call
    3133              
    3134 00000304 7640!         LCR       #_OS_CPU_SR_Restore   ; [CPU_ALU] |935| 
         00000305 0000 
    3135                      ; call occurs [#_OS_CPU_SR_Restore] ; [] |935| 
    3136                      .dwpsn  file "C:/ti/Workspace/PLC_certificate/Software/uCOS-II/Source/os_core.c",line 937,column 5,is
    3137 00000306 761F-         MOVW      DP,#_OSRunning        ; [CPU_ARAU] 
         00000307 0000 
    3138 00000308 9207-         MOV       AL,@_OSRunning        ; [CPU_ALU] |937| 
    3139 00000309 5201          CMPB      AL,#1                 ; [CPU_ALU] |937| 
    3140 0000030a 606B          B         $C$L74,NEQ            ; [CPU_ALU] |937| 
    3141                      ; branchcc occurs ; [] |937| 
    3142                      .dwpsn  file "C:/ti/Workspace/PLC_certificate/Software/uCOS-II/Source/os_core.c",line 939,column 9,is
    3143 0000030b 6F0F          B         $C$L67,UNC            ; [CPU_ALU] |939| 
    3144                      ; branch occurs ; [] |939| 
    3145 0000030c       $C$L63:    
    3146                      .dwpsn  file "C:/ti/Workspace/PLC_certificate/Software/uCOS-II/Source/os_core.c",line 941,column 18,i
    3147 0000030c 56BF          MOVB      *-SP[3],#1,UNC        ; [CPU_ALU] |941| 
         0000030d 0143 
    3148                      .dwpsn  file "C:/ti/Workspace/PLC_certificate/Software/uCOS-II/Source/os_core.c",line 942,column 18,i
    3149 0000030e 6F13          B         $C$L68,UNC            ; [CPU_ALU] |942| 
    3150                      ; branch occurs ; [] |942| 
    3151 0000030f       $C$L64:    
    3152                      .dwpsn  file "C:/ti/Workspace/PLC_certificate/Software/uCOS-II/Source/os_core.c",line 945,column 18,i
    3153 0000030f 2B43          MOV       *-SP[3],#0            ; [CPU_ALU] |945| 
    3154                      .dwpsn  file "C:/ti/Workspace/PLC_certificate/Software/uCOS-II/Source/os_core.c",line 946,column 18,i
    3155 00000310 6F11          B         $C$L68,UNC            ; [CPU_ALU] |946| 
    3156                      ; branch occurs ; [] |946| 
    3157 00000311       $C$L65:    
    3158                      .dwpsn  file "C:/ti/Workspace/PLC_certificate/Software/uCOS-II/Source/os_core.c",line 949,column 18,i
    3159 00000311 56BF          MOVB      *-SP[3],#1,UNC        ; [CPU_ALU] |949| 
         00000312 0143 
    3160                      .dwpsn  file "C:/ti/Workspace/PLC_certificate/Software/uCOS-II/Source/os_core.c",line 950,column 18,i
    3161 00000313 56BF-         MOVB      @_OSTickStepState,#1,UNC ; [CPU_ALU] |950| 
         00000314 0109 
    3162                      .dwpsn  file "C:/ti/Workspace/PLC_certificate/Software/uCOS-II/Source/os_core.c",line 951,column 18,i
    3163 00000315 6F0C          B         $C$L68,UNC            ; [CPU_ALU] |951| 
    3164                      ; branch occurs ; [] |951| 
    3165 00000316       $C$L66:    
    3166                      .dwpsn  file "C:/ti/Workspace/PLC_certificate/Software/uCOS-II/Source/os_core.c",line 954,column 18,i
    3167 00000316 56BF          MOVB      *-SP[3],#1,UNC        ; [CPU_ALU] |954| 
         00000317 0143 
    3168                      .dwpsn  file "C:/ti/Workspace/PLC_certificate/Software/uCOS-II/Source/os_core.c",line 955,column 18,i
    3169 00000318 2B09-         MOV       @_OSTickStepState,#0  ; [CPU_ALU] |955| 
    3170                      .dwpsn  file "C:/ti/Workspace/PLC_certificate/Software/uCOS-II/Source/os_core.c",line 956,column 18,i
    3171 00000319 6F08          B         $C$L68,UNC            ; [CPU_ALU] |956| 
    3172                      ; branch occurs ; [] |956| 
    3173 0000031a       $C$L67:    
    3174                      .dwpsn  file "C:/ti/Workspace/PLC_certificate/Software/uCOS-II/Source/os_core.c",line 939,column 9,is
    3175 0000031a 9209-         MOV       AL,@_OSTickStepState  ; [CPU_ALU] |939| 
    3176 0000031b 61F1          B         $C$L63,EQ             ; [CPU_ALU] |939| 
    3177                      ; branchcc occurs ; [] |939| 
    3178 0000031c 5201          CMPB      AL,#1                 ; [CPU_ALU] |939| 
    3179 0000031d 61F2          B         $C$L64,EQ             ; [CPU_ALU] |939| 
TMS320C2000 Assembler PC v20.2.1 Tue Feb 16 00:15:57 2021

Copyright (c) 1996-2018 Texas Instruments Incorporated
os_core.asm                                                          PAGE   61

    3180                      ; branchcc occurs ; [] |939| 
    3181 0000031e 5202          CMPB      AL,#2                 ; [CPU_ALU] |939| 
    3182 0000031f 61F2          B         $C$L65,EQ             ; [CPU_ALU] |939| 
    3183                      ; branchcc occurs ; [] |939| 
    3184 00000320 6FF6          B         $C$L66,UNC            ; [CPU_ALU] |939| 
    3185                      ; branch occurs ; [] |939| 
    3186 00000321       $C$L68:    
    3187                      .dwpsn  file "C:/ti/Workspace/PLC_certificate/Software/uCOS-II/Source/os_core.c",line 958,column 9,is
    3188 00000321 9243          MOV       AL,*-SP[3]            ; [CPU_ALU] |958| 
    3189 00000322 6153          B         $C$L74,EQ             ; [CPU_ALU] |958| 
    3190                      ; branchcc occurs ; [] |958| 
    3191                      .dwpsn  file "C:/ti/Workspace/PLC_certificate/Software/uCOS-II/Source/os_core.c",line 959,column 13,i
    3192                      .dwpsn  file "C:/ti/Workspace/PLC_certificate/Software/uCOS-II/Source/os_core.c",line 962,column 9,is
    3193 00000323 061E-         MOVL      ACC,@_OSTCBList       ; [CPU_ALU] |962| 
    3194 00000324 1E42          MOVL      *-SP[2],ACC           ; [CPU_ALU] |962| 
    3195                      .dwpsn  file "C:/ti/Workspace/PLC_certificate/Software/uCOS-II/Source/os_core.c",line 963,column 9,is
    3196 00000325 6F4A          B         $C$L73,UNC            ; [CPU_ALU] |963| 
    3197                      ; branch occurs ; [] |963| 
    3198 00000326       $C$L69:    
    3199                      .dwpsn  file "C:/ti/Workspace/PLC_certificate/Software/uCOS-II/Source/os_core.c",line 964,column 13,i
    3200              $C$DW$185       .dwtag  DW_TAG_TI_branch
    3201                      .dwattr $C$DW$185, DW_AT_low_pc(0x00)
    3202                      .dwattr $C$DW$185, DW_AT_name("_OS_CPU_SR_Save")
    3203                      .dwattr $C$DW$185, DW_AT_TI_call
    3204              
    3205 00000326 7640!         LCR       #_OS_CPU_SR_Save      ; [CPU_ALU] |964| 
         00000327 0000 
    3206                      ; call occurs [#_OS_CPU_SR_Save] ; [] |964| 
    3207 00000328 9644          MOV       *-SP[4],AL            ; [CPU_ALU] |964| 
    3208                      .dwpsn  file "C:/ti/Workspace/PLC_certificate/Software/uCOS-II/Source/os_core.c",line 965,column 13,i
    3209 00000329 0218          MOVB      ACC,#24               ; [CPU_ALU] |965| 
    3210 0000032a 0742          ADDL      ACC,*-SP[2]           ; [CPU_ALU] |965| 
    3211 0000032b 8AA9          MOVL      XAR4,ACC              ; [CPU_ALU] |965| 
    3212 0000032c 06C4          MOVL      ACC,*+XAR4[0]         ; [CPU_ALU] |965| 
    3213 0000032d 613A          B         $C$L72,EQ             ; [CPU_ALU] |965| 
    3214                      ; branchcc occurs ; [] |965| 
    3215                      .dwpsn  file "C:/ti/Workspace/PLC_certificate/Software/uCOS-II/Source/os_core.c",line 966,column 17,i
    3216 0000032e 0218          MOVB      ACC,#24               ; [CPU_ALU] |966| 
    3217 0000032f 0742          ADDL      ACC,*-SP[2]           ; [CPU_ALU] |966| 
    3218 00000330 8AA9          MOVL      XAR4,ACC              ; [CPU_ALU] |966| 
    3219 00000331 0201          MOVB      ACC,#1                ; [CPU_ALU] |966| 
    3220 00000332 5641          SUBL      *+XAR4[0],ACC         ; [CPU_ALU] |966| 
         00000333 00C4 
    3221                      .dwpsn  file "C:/ti/Workspace/PLC_certificate/Software/uCOS-II/Source/os_core.c",line 967,column 17,i
    3222 00000334 0218          MOVB      ACC,#24               ; [CPU_ALU] |967| 
    3223 00000335 0742          ADDL      ACC,*-SP[2]           ; [CPU_ALU] |967| 
    3224 00000336 8AA9          MOVL      XAR4,ACC              ; [CPU_ALU] |967| 
    3225 00000337 06C4          MOVL      ACC,*+XAR4[0]         ; [CPU_ALU] |967| 
    3226 00000338 602F          B         $C$L72,NEQ            ; [CPU_ALU] |967| 
    3227                      ; branchcc occurs ; [] |967| 
    3228                      .dwpsn  file "C:/ti/Workspace/PLC_certificate/Software/uCOS-II/Source/os_core.c",line 969,column 21,i
    3229 00000339 021A          MOVB      ACC,#26               ; [CPU_ALU] |969| 
    3230 0000033a 0742          ADDL      ACC,*-SP[2]           ; [CPU_ALU] |969| 
    3231 0000033b 8AA9          MOVL      XAR4,ACC              ; [CPU_ALU] |969| 
    3232 0000033c 92C4          MOV       AL,*+XAR4[0]          ; [CPU_ALU] |969| 
TMS320C2000 Assembler PC v20.2.1 Tue Feb 16 00:15:57 2021

Copyright (c) 1996-2018 Texas Instruments Incorporated
os_core.asm                                                          PAGE   62

    3233 0000033d 9037          ANDB      AL,#0x37              ; [CPU_ALU] |969| 
    3234 0000033e 610C          B         $C$L70,EQ             ; [CPU_ALU] |969| 
    3235                      ; branchcc occurs ; [] |969| 
    3236                      .dwpsn  file "C:/ti/Workspace/PLC_certificate/Software/uCOS-II/Source/os_core.c",line 970,column 25,i
    3237 0000033f 021A          MOVB      ACC,#26               ; [CPU_ALU] |970| 
    3238 00000340 0742          ADDL      ACC,*-SP[2]           ; [CPU_ALU] |970| 
    3239 00000341 8AA9          MOVL      XAR4,ACC              ; [CPU_ALU] |970| 
    3240 00000342 18C4          AND       *+XAR4[0],#0xffc8     ; [CPU_ALU] |970| 
         00000343 FFC8 
    3241                      .dwpsn  file "C:/ti/Workspace/PLC_certificate/Software/uCOS-II/Source/os_core.c",line 971,column 25,i
    3242 00000344 021B          MOVB      ACC,#27               ; [CPU_ALU] |971| 
    3243 00000345 0742          ADDL      ACC,*-SP[2]           ; [CPU_ALU] |971| 
    3244 00000346 8AA9          MOVL      XAR4,ACC              ; [CPU_ALU] |971| 
    3245 00000347 56BF          MOVB      *+XAR4[0],#1,UNC      ; [CPU_ALU] |971| 
         00000348 01C4 
    3246 00000349 6F05          B         $C$L71,UNC            ; [CPU_ALU] 
    3247                      ; branch occurs ; [] 
    3248 0000034a       $C$L70:    
    3249                      .dwpsn  file "C:/ti/Workspace/PLC_certificate/Software/uCOS-II/Source/os_core.c",line 973,column 25,i
    3250 0000034a 021B          MOVB      ACC,#27               ; [CPU_ALU] |973| 
    3251 0000034b 0742          ADDL      ACC,*-SP[2]           ; [CPU_ALU] |973| 
    3252 0000034c 8AA9          MOVL      XAR4,ACC              ; [CPU_ALU] |973| 
    3253 0000034d 2BC4          MOV       *+XAR4[0],#0          ; [CPU_ALU] |973| 
    3254 0000034e       $C$L71:    
    3255                      .dwpsn  file "C:/ti/Workspace/PLC_certificate/Software/uCOS-II/Source/os_core.c",line 976,column 21,i
    3256 0000034e 021A          MOVB      ACC,#26               ; [CPU_ALU] |976| 
    3257 0000034f 0742          ADDL      ACC,*-SP[2]           ; [CPU_ALU] |976| 
    3258 00000350 8AA9          MOVL      XAR4,ACC              ; [CPU_ALU] |976| 
    3259 00000351 43C4          TBIT      *+XAR4[0],#3          ; [CPU_ALU] |976| 
    3260 00000352 6D15          B         $C$L72,TC             ; [CPU_ALU] |976| 
    3261                      ; branchcc occurs ; [] |976| 
    3262                      .dwpsn  file "C:/ti/Workspace/PLC_certificate/Software/uCOS-II/Source/os_core.c",line 977,column 25,i
    3263 00000353 0220          MOVB      ACC,#32               ; [CPU_ALU] |977| 
    3264 00000354 0742          ADDL      ACC,*-SP[2]           ; [CPU_ALU] |977| 
    3265 00000355 8AA9          MOVL      XAR4,ACC              ; [CPU_ALU] |977| 
    3266 00000356 761F-         MOVW      DP,#_OSRdyGrp         ; [CPU_ARAU] 
         00000357 0000 
    3267 00000358 92C4          MOV       AL,*+XAR4[0]          ; [CPU_ALU] |977| 
    3268 00000359 9806-         OR        @_OSRdyGrp,AL         ; [CPU_ALU] |977| 
    3269                      .dwpsn  file "C:/ti/Workspace/PLC_certificate/Software/uCOS-II/Source/os_core.c",line 978,column 25,i
    3270 0000035a 021E          MOVB      ACC,#30               ; [CPU_ALU] |978| 
    3271 0000035b 0742          ADDL      ACC,*-SP[2]           ; [CPU_ALU] |978| 
    3272 0000035c 8AA9          MOVL      XAR4,ACC              ; [CPU_ALU] |978| 
    3273 0000035d 8F40-         MOVL      XAR5,#_OSRdyTbl       ; [CPU_ARAU] |978| 
         0000035e 0000 
    3274 0000035f A0A9          MOVL      ACC,XAR5              ; [CPU_ALU] |978| 
    3275 00000360 0DC4          ADDU      ACC,*+XAR4[0]         ; [CPU_ALU] |978| 
    3276 00000361 83A9          MOVL      XAR5,ACC              ; [CPU_ALU] |978| 
    3277 00000362 021F          MOVB      ACC,#31               ; [CPU_ALU] |978| 
    3278 00000363 0742          ADDL      ACC,*-SP[2]           ; [CPU_ALU] |978| 
    3279 00000364 8AA9          MOVL      XAR4,ACC              ; [CPU_ALU] |978| 
    3280 00000365 92C4          MOV       AL,*+XAR4[0]          ; [CPU_ALU] |978| 
    3281 00000366 98C5          OR        *+XAR5[0],AL          ; [CPU_ALU] |978| 
    3282 00000367       $C$L72:    
    3283                      .dwpsn  file "C:/ti/Workspace/PLC_certificate/Software/uCOS-II/Source/os_core.c",line 982,column 13,i
TMS320C2000 Assembler PC v20.2.1 Tue Feb 16 00:15:57 2021

Copyright (c) 1996-2018 Texas Instruments Incorporated
os_core.asm                                                          PAGE   63

    3284 00000367 020A          MOVB      ACC,#10               ; [CPU_ALU] |982| 
    3285 00000368 0742          ADDL      ACC,*-SP[2]           ; [CPU_ALU] |982| 
    3286 00000369 8AA9          MOVL      XAR4,ACC              ; [CPU_ALU] |982| 
    3287 0000036a 06C4          MOVL      ACC,*+XAR4[0]         ; [CPU_ALU] |982| 
    3288 0000036b 1E42          MOVL      *-SP[2],ACC           ; [CPU_ALU] |982| 
    3289                      .dwpsn  file "C:/ti/Workspace/PLC_certificate/Software/uCOS-II/Source/os_core.c",line 983,column 13,i
    3290 0000036c 9244          MOV       AL,*-SP[4]            ; [CPU_ALU] |983| 
    3291              $C$DW$186       .dwtag  DW_TAG_TI_branch
    3292                      .dwattr $C$DW$186, DW_AT_low_pc(0x00)
    3293                      .dwattr $C$DW$186, DW_AT_name("_OS_CPU_SR_Restore")
    3294                      .dwattr $C$DW$186, DW_AT_TI_call
    3295              
    3296 0000036d 7640!         LCR       #_OS_CPU_SR_Restore   ; [CPU_ALU] |983| 
         0000036e 0000 
    3297                      ; call occurs [#_OS_CPU_SR_Restore] ; [] |983| 
    3298 0000036f       $C$L73:    
    3299                      .dwpsn  file "C:/ti/Workspace/PLC_certificate/Software/uCOS-II/Source/os_core.c",line 963,column 16,i
    3300 0000036f 021C          MOVB      ACC,#28               ; [CPU_ALU] |963| 
    3301 00000370 0742          ADDL      ACC,*-SP[2]           ; [CPU_ALU] |963| 
    3302 00000371 8AA9          MOVL      XAR4,ACC              ; [CPU_ALU] |963| 
    3303 00000372 92C4          MOV       AL,*+XAR4[0]          ; [CPU_ALU] |963| 
    3304 00000373 523F          CMPB      AL,#63                ; [CPU_ALU] |963| 
    3305 00000374 60B2          B         $C$L69,NEQ            ; [CPU_ALU] |963| 
    3306                      ; branchcc occurs ; [] |963| 
    3307                      .dwpsn  file "C:/ti/Workspace/PLC_certificate/Software/uCOS-II/Source/os_core.c",line 986,column 1,is
    3308 00000375       $C$L74:    
    3309 00000375 FE84          SUBB      SP,#4                 ; [CPU_ARAU] 
    3310                      .dwcfi  cfa_offset, -2
    3311              $C$DW$187       .dwtag  DW_TAG_TI_branch
    3312                      .dwattr $C$DW$187, DW_AT_low_pc(0x00)
    3313                      .dwattr $C$DW$187, DW_AT_TI_return
    3314              
    3315 00000376 0006          LRETR     ; [CPU_ALU] 
    3316                      ; return occurs ; [] 
    3317                      .dwattr $C$DW$178, DW_AT_TI_end_file("C:/ti/Workspace/PLC_certificate/Software/uCOS-II/Source/os_core
    3318                      .dwattr $C$DW$178, DW_AT_TI_end_line(0x3da)
    3319                      .dwattr $C$DW$178, DW_AT_TI_end_column(0x01)
    3320                      .dwendentry
    3321                      .dwendtag $C$DW$178
    3322              
    3323 00000377               .sect   ".text"
    3324                      .clink
    3325                      .global _OSVersion
    3326              
    3327              $C$DW$188       .dwtag  DW_TAG_subprogram
    3328                      .dwattr $C$DW$188, DW_AT_name("OSVersion")
    3329                      .dwattr $C$DW$188, DW_AT_low_pc(_OSVersion)
    3330                      .dwattr $C$DW$188, DW_AT_high_pc(0x00)
    3331                      .dwattr $C$DW$188, DW_AT_TI_symbol_name("_OSVersion")
    3332                      .dwattr $C$DW$188, DW_AT_external
    3333                      .dwattr $C$DW$188, DW_AT_type(*$C$DW$T$20)
    3334                      .dwattr $C$DW$188, DW_AT_TI_begin_file("C:/ti/Workspace/PLC_certificate/Software/uCOS-II/Source/os_co
    3335                      .dwattr $C$DW$188, DW_AT_TI_begin_line(0x3eb)
    3336                      .dwattr $C$DW$188, DW_AT_TI_begin_column(0x09)
    3337                      .dwattr $C$DW$188, DW_AT_TI_max_frame_size(-2)
TMS320C2000 Assembler PC v20.2.1 Tue Feb 16 00:15:57 2021

Copyright (c) 1996-2018 Texas Instruments Incorporated
os_core.asm                                                          PAGE   64

    3338                      .dwpsn  file "C:/ti/Workspace/PLC_certificate/Software/uCOS-II/Source/os_core.c",line 1004,column 1,i
    3339              
    3340                      .dwfde $C$DW$CIE, _OSVersion
    3341              
    3342              ;***************************************************************
    3343              ;* FNAME: _OSVersion                    FR SIZE:   0           *
    3344              ;*                                                             *
    3345              ;* FUNCTION ENVIRONMENT                                        *
    3346              ;*                                                             *
    3347              ;* FUNCTION PROPERTIES                                         *
    3348              ;*                            0 Parameter,  0 Auto,  0 SOE     *
    3349              ;***************************************************************
    3350              
    3351 00000377       _OSVersion:
    3352                      .dwcfi  cfa_offset, -2
    3353                      .dwcfi  save_reg_to_mem, 26, 0
    3354                      .dwpsn  file "C:/ti/Workspace/PLC_certificate/Software/uCOS-II/Source/os_core.c",line 1005,column 5,i
    3355 00000377 28A9          MOV       AL,#29211             ; [CPU_ALU] |1005| 
         00000378 721B 
    3356                      .dwpsn  file "C:/ti/Workspace/PLC_certificate/Software/uCOS-II/Source/os_core.c",line 1006,column 1,i
    3357              $C$DW$189       .dwtag  DW_TAG_TI_branch
    3358                      .dwattr $C$DW$189, DW_AT_low_pc(0x00)
    3359                      .dwattr $C$DW$189, DW_AT_TI_return
    3360              
    3361 00000379 0006          LRETR     ; [CPU_ALU] 
    3362                      ; return occurs ; [] 
    3363                      .dwattr $C$DW$188, DW_AT_TI_end_file("C:/ti/Workspace/PLC_certificate/Software/uCOS-II/Source/os_core
    3364                      .dwattr $C$DW$188, DW_AT_TI_end_line(0x3ee)
    3365                      .dwattr $C$DW$188, DW_AT_TI_end_column(0x01)
    3366                      .dwendentry
    3367                      .dwendtag $C$DW$188
    3368              
    3369 0000037a               .sect   ".text"
    3370                      .clink
    3371                      .global _OS_Dummy
    3372              
    3373              $C$DW$190       .dwtag  DW_TAG_subprogram
    3374                      .dwattr $C$DW$190, DW_AT_name("OS_Dummy")
    3375                      .dwattr $C$DW$190, DW_AT_low_pc(_OS_Dummy)
    3376                      .dwattr $C$DW$190, DW_AT_high_pc(0x00)
    3377                      .dwattr $C$DW$190, DW_AT_TI_symbol_name("_OS_Dummy")
    3378                      .dwattr $C$DW$190, DW_AT_external
    3379                      .dwattr $C$DW$190, DW_AT_TI_begin_file("C:/ti/Workspace/PLC_certificate/Software/uCOS-II/Source/os_co
    3380                      .dwattr $C$DW$190, DW_AT_TI_begin_line(0x3fe)
    3381                      .dwattr $C$DW$190, DW_AT_TI_begin_column(0x07)
    3382                      .dwattr $C$DW$190, DW_AT_TI_max_frame_size(-2)
    3383                      .dwpsn  file "C:/ti/Workspace/PLC_certificate/Software/uCOS-II/Source/os_core.c",line 1023,column 1,i
    3384              
    3385                      .dwfde $C$DW$CIE, _OS_Dummy
    3386              
    3387              ;***************************************************************
    3388              ;* FNAME: _OS_Dummy                     FR SIZE:   0           *
    3389              ;*                                                             *
    3390              ;* FUNCTION ENVIRONMENT                                        *
    3391              ;*                                                             *
TMS320C2000 Assembler PC v20.2.1 Tue Feb 16 00:15:57 2021

Copyright (c) 1996-2018 Texas Instruments Incorporated
os_core.asm                                                          PAGE   65

    3392              ;* FUNCTION PROPERTIES                                         *
    3393              ;*                            0 Parameter,  0 Auto,  0 SOE     *
    3394              ;***************************************************************
    3395              
    3396 0000037a       _OS_Dummy:
    3397                      .dwcfi  cfa_offset, -2
    3398                      .dwcfi  save_reg_to_mem, 26, 0
    3399                      .dwpsn  file "C:/ti/Workspace/PLC_certificate/Software/uCOS-II/Source/os_core.c",line 1024,column 1,i
    3400              $C$DW$191       .dwtag  DW_TAG_TI_branch
    3401                      .dwattr $C$DW$191, DW_AT_low_pc(0x00)
    3402                      .dwattr $C$DW$191, DW_AT_TI_return
    3403              
    3404 0000037a 0006          LRETR     ; [CPU_ALU] 
    3405                      ; return occurs ; [] 
    3406                      .dwattr $C$DW$190, DW_AT_TI_end_file("C:/ti/Workspace/PLC_certificate/Software/uCOS-II/Source/os_core
    3407                      .dwattr $C$DW$190, DW_AT_TI_end_line(0x400)
    3408                      .dwattr $C$DW$190, DW_AT_TI_end_column(0x01)
    3409                      .dwendentry
    3410                      .dwendtag $C$DW$190
    3411              
    3412 0000037b               .sect   ".text"
    3413                      .clink
    3414                      .global _OS_EventTaskRdy
    3415              
    3416              $C$DW$192       .dwtag  DW_TAG_subprogram
    3417                      .dwattr $C$DW$192, DW_AT_name("OS_EventTaskRdy")
    3418                      .dwattr $C$DW$192, DW_AT_low_pc(_OS_EventTaskRdy)
    3419                      .dwattr $C$DW$192, DW_AT_high_pc(0x00)
    3420                      .dwattr $C$DW$192, DW_AT_TI_symbol_name("_OS_EventTaskRdy")
    3421                      .dwattr $C$DW$192, DW_AT_external
    3422                      .dwattr $C$DW$192, DW_AT_type(*$C$DW$T$19)
    3423                      .dwattr $C$DW$192, DW_AT_TI_begin_file("C:/ti/Workspace/PLC_certificate/Software/uCOS-II/Source/os_co
    3424                      .dwattr $C$DW$192, DW_AT_TI_begin_line(0x420)
    3425                      .dwattr $C$DW$192, DW_AT_TI_begin_column(0x08)
    3426                      .dwattr $C$DW$192, DW_AT_TI_max_frame_size(-14)
    3427                      .dwpsn  file "C:/ti/Workspace/PLC_certificate/Software/uCOS-II/Source/os_core.c",line 1060,column 1,i
    3428              
    3429                      .dwfde $C$DW$CIE, _OS_EventTaskRdy
    3430              $C$DW$193       .dwtag  DW_TAG_formal_parameter
    3431                      .dwattr $C$DW$193, DW_AT_name("pevent")
    3432                      .dwattr $C$DW$193, DW_AT_TI_symbol_name("_pevent")
    3433                      .dwattr $C$DW$193, DW_AT_type(*$C$DW$T$38)
    3434                      .dwattr $C$DW$193, DW_AT_location[DW_OP_reg12]
    3435              
    3436              $C$DW$194       .dwtag  DW_TAG_formal_parameter
    3437                      .dwattr $C$DW$194, DW_AT_name("pmsg")
    3438                      .dwattr $C$DW$194, DW_AT_TI_symbol_name("_pmsg")
    3439                      .dwattr $C$DW$194, DW_AT_type(*$C$DW$T$3)
    3440                      .dwattr $C$DW$194, DW_AT_location[DW_OP_reg14]
    3441              
    3442              $C$DW$195       .dwtag  DW_TAG_formal_parameter
    3443                      .dwattr $C$DW$195, DW_AT_name("msk")
    3444                      .dwattr $C$DW$195, DW_AT_TI_symbol_name("_msk")
    3445                      .dwattr $C$DW$195, DW_AT_type(*$C$DW$T$19)
    3446                      .dwattr $C$DW$195, DW_AT_location[DW_OP_reg0]
TMS320C2000 Assembler PC v20.2.1 Tue Feb 16 00:15:57 2021

Copyright (c) 1996-2018 Texas Instruments Incorporated
os_core.asm                                                          PAGE   66

    3447              
    3448              $C$DW$196       .dwtag  DW_TAG_formal_parameter
    3449                      .dwattr $C$DW$196, DW_AT_name("pend_stat")
    3450                      .dwattr $C$DW$196, DW_AT_TI_symbol_name("_pend_stat")
    3451                      .dwattr $C$DW$196, DW_AT_type(*$C$DW$T$19)
    3452                      .dwattr $C$DW$196, DW_AT_location[DW_OP_reg1]
    3453              
    3454              
    3455              ;***************************************************************
    3456              ;* FNAME: _OS_EventTaskRdy              FR SIZE:  12           *
    3457              ;*                                                             *
    3458              ;* FUNCTION ENVIRONMENT                                        *
    3459              ;*                                                             *
    3460              ;* FUNCTION PROPERTIES                                         *
    3461              ;*                            0 Parameter, 11 Auto,  0 SOE     *
    3462              ;***************************************************************
    3463              
    3464 0000037b       _OS_EventTaskRdy:
    3465                      .dwcfi  cfa_offset, -2
    3466                      .dwcfi  save_reg_to_mem, 26, 0
    3467 0000037b FE0C          ADDB      SP,#12                ; [CPU_ARAU] 
    3468                      .dwcfi  cfa_offset, -14
    3469              $C$DW$197       .dwtag  DW_TAG_variable
    3470                      .dwattr $C$DW$197, DW_AT_name("pevent")
    3471                      .dwattr $C$DW$197, DW_AT_TI_symbol_name("_pevent")
    3472                      .dwattr $C$DW$197, DW_AT_type(*$C$DW$T$38)
    3473                      .dwattr $C$DW$197, DW_AT_location[DW_OP_breg20 -2]
    3474              
    3475              $C$DW$198       .dwtag  DW_TAG_variable
    3476                      .dwattr $C$DW$198, DW_AT_name("pmsg")
    3477                      .dwattr $C$DW$198, DW_AT_TI_symbol_name("_pmsg")
    3478                      .dwattr $C$DW$198, DW_AT_type(*$C$DW$T$3)
    3479                      .dwattr $C$DW$198, DW_AT_location[DW_OP_breg20 -4]
    3480              
    3481              $C$DW$199       .dwtag  DW_TAG_variable
    3482                      .dwattr $C$DW$199, DW_AT_name("ptcb")
    3483                      .dwattr $C$DW$199, DW_AT_TI_symbol_name("_ptcb")
    3484                      .dwattr $C$DW$199, DW_AT_type(*$C$DW$T$56)
    3485                      .dwattr $C$DW$199, DW_AT_location[DW_OP_breg20 -6]
    3486              
    3487              $C$DW$200       .dwtag  DW_TAG_variable
    3488                      .dwattr $C$DW$200, DW_AT_name("msk")
    3489                      .dwattr $C$DW$200, DW_AT_TI_symbol_name("_msk")
    3490                      .dwattr $C$DW$200, DW_AT_type(*$C$DW$T$19)
    3491                      .dwattr $C$DW$200, DW_AT_location[DW_OP_breg20 -7]
    3492              
    3493              $C$DW$201       .dwtag  DW_TAG_variable
    3494                      .dwattr $C$DW$201, DW_AT_name("pend_stat")
    3495                      .dwattr $C$DW$201, DW_AT_TI_symbol_name("_pend_stat")
    3496                      .dwattr $C$DW$201, DW_AT_type(*$C$DW$T$19)
    3497                      .dwattr $C$DW$201, DW_AT_location[DW_OP_breg20 -8]
    3498              
    3499              $C$DW$202       .dwtag  DW_TAG_variable
    3500                      .dwattr $C$DW$202, DW_AT_name("y")
    3501                      .dwattr $C$DW$202, DW_AT_TI_symbol_name("_y")
TMS320C2000 Assembler PC v20.2.1 Tue Feb 16 00:15:57 2021

Copyright (c) 1996-2018 Texas Instruments Incorporated
os_core.asm                                                          PAGE   67

    3502                      .dwattr $C$DW$202, DW_AT_type(*$C$DW$T$19)
    3503                      .dwattr $C$DW$202, DW_AT_location[DW_OP_breg20 -9]
    3504              
    3505              $C$DW$203       .dwtag  DW_TAG_variable
    3506                      .dwattr $C$DW$203, DW_AT_name("x")
    3507                      .dwattr $C$DW$203, DW_AT_TI_symbol_name("_x")
    3508                      .dwattr $C$DW$203, DW_AT_type(*$C$DW$T$19)
    3509                      .dwattr $C$DW$203, DW_AT_location[DW_OP_breg20 -10]
    3510              
    3511              $C$DW$204       .dwtag  DW_TAG_variable
    3512                      .dwattr $C$DW$204, DW_AT_name("prio")
    3513                      .dwattr $C$DW$204, DW_AT_TI_symbol_name("_prio")
    3514                      .dwattr $C$DW$204, DW_AT_type(*$C$DW$T$19)
    3515                      .dwattr $C$DW$204, DW_AT_location[DW_OP_breg20 -11]
    3516              
    3517 0000037c 9748          MOV       *-SP[8],AH            ; [CPU_ALU] |1060| 
    3518 0000037d 9647          MOV       *-SP[7],AL            ; [CPU_ALU] |1060| 
    3519 0000037e A044          MOVL      *-SP[4],XAR5          ; [CPU_ALU] |1060| 
    3520 0000037f A842          MOVL      *-SP[2],XAR4          ; [CPU_ALU] |1060| 
    3521                      .dwpsn  file "C:/ti/Workspace/PLC_certificate/Software/uCOS-II/Source/os_core.c",line 1071,column 5,i
    3522 00000380 58EC          MOVZ      AR0,*+XAR4[5]         ; [CPU_ALU] |1071| 
    3523 00000381 8F00+         MOVL      XAR4,#_OSUnMapTbl     ; [CPU_ARAU] |1071| 
         00000382 0000 
    3524 00000383 9294          MOV       AL,*+XAR4[AR0]        ; [CPU_ALU] |1071| 
    3525 00000384 9649          MOV       *-SP[9],AL            ; [CPU_ALU] |1071| 
    3526                      .dwpsn  file "C:/ti/Workspace/PLC_certificate/Software/uCOS-II/Source/os_core.c",line 1072,column 5,i
    3527 00000385 5C49          MOVZ      AR4,*-SP[9]           ; [CPU_ALU] |1072| 
    3528 00000386 A8A9          MOVL      ACC,XAR4              ; [CPU_ALU] |1072| 
    3529 00000387 0742          ADDL      ACC,*-SP[2]           ; [CPU_ALU] |1072| 
    3530 00000388 8AA9          MOVL      XAR4,ACC              ; [CPU_ALU] |1072| 
    3531 00000389 58F4          MOVZ      AR0,*+XAR4[6]         ; [CPU_ALU] |1072| 
    3532 0000038a 8F00+         MOVL      XAR4,#_OSUnMapTbl     ; [CPU_ARAU] |1072| 
         0000038b 0000 
    3533 0000038c 9294          MOV       AL,*+XAR4[AR0]        ; [CPU_ALU] |1072| 
    3534 0000038d 964A          MOV       *-SP[10],AL           ; [CPU_ALU] |1072| 
    3535                      .dwpsn  file "C:/ti/Workspace/PLC_certificate/Software/uCOS-II/Source/os_core.c",line 1073,column 5,i
    3536 0000038e 5603          MOV       ACC,*-SP[9] << #3     ; [CPU_ALU] |1073| 
         0000038f 0349 
    3537 00000390 944A          ADD       AL,*-SP[10]           ; [CPU_ALU] |1073| 
    3538 00000391 964B          MOV       *-SP[11],AL           ; [CPU_ALU] |1073| 
    3539                      .dwpsn  file "C:/ti/Workspace/PLC_certificate/Software/uCOS-II/Source/os_core.c",line 1089,column 5,i
    3540 00000392 2901          CLRC      SXM                   ; [CPU_ALU] 
    3541 00000393 8F00-         MOVL      XAR4,#_OSTCBPrioTbl   ; [CPU_ARAU] |1089| 
         00000394 0000 
    3542 00000395 5603          MOV       ACC,*-SP[11] << 1     ; [CPU_ALU] |1089| 
         00000396 014B 
    3543 00000397 5601          ADDL      XAR4,ACC              ; [CPU_ALU] |1089| 
         00000398 00A4 
    3544 00000399 06C4          MOVL      ACC,*+XAR4[0]         ; [CPU_ALU] |1089| 
    3545 0000039a 1E46          MOVL      *-SP[6],ACC           ; [CPU_ALU] |1089| 
    3546                      .dwpsn  file "C:/ti/Workspace/PLC_certificate/Software/uCOS-II/Source/os_core.c",line 1090,column 5,i
    3547 0000039b BE00          MOVB      XAR6,#0               ; [CPU_ALU] |1090| 
    3548 0000039c 0218          MOVB      ACC,#24               ; [CPU_ALU] |1090| 
    3549 0000039d 0746          ADDL      ACC,*-SP[6]           ; [CPU_ALU] |1090| 
    3550 0000039e 8AA9          MOVL      XAR4,ACC              ; [CPU_ALU] |1090| 
TMS320C2000 Assembler PC v20.2.1 Tue Feb 16 00:15:57 2021

Copyright (c) 1996-2018 Texas Instruments Incorporated
os_core.asm                                                          PAGE   68

    3551 0000039f C2C4          MOVL      *+XAR4[0],XAR6        ; [CPU_ALU] |1090| 
    3552                      .dwpsn  file "C:/ti/Workspace/PLC_certificate/Software/uCOS-II/Source/os_core.c",line 1092,column 5,i
    3553 000003a0 C444          MOVL      XAR6,*-SP[4]          ; [CPU_ALU] |1092| 
    3554 000003a1 0212          MOVB      ACC,#18               ; [CPU_ALU] |1092| 
    3555 000003a2 0746          ADDL      ACC,*-SP[6]           ; [CPU_ALU] |1092| 
    3556 000003a3 8AA9          MOVL      XAR4,ACC              ; [CPU_ALU] |1092| 
    3557 000003a4 C2C4          MOVL      *+XAR4[0],XAR6        ; [CPU_ALU] |1092| 
    3558                      .dwpsn  file "C:/ti/Workspace/PLC_certificate/Software/uCOS-II/Source/os_core.c",line 1096,column 5,i
    3559 000003a5 021A          MOVB      ACC,#26               ; [CPU_ALU] |1096| 
    3560 000003a6 0746          ADDL      ACC,*-SP[6]           ; [CPU_ALU] |1096| 
    3561 000003a7 8AA9          MOVL      XAR4,ACC              ; [CPU_ALU] |1096| 
    3562 000003a8 9247          MOV       AL,*-SP[7]            ; [CPU_ALU] |1096| 
    3563 000003a9 FF5E          NOT       AL                    ; [CPU_ALU] |1096| 
    3564 000003aa C0C4          AND       *+XAR4[0],AL          ; [CPU_ALU] |1096| 
    3565                      .dwpsn  file "C:/ti/Workspace/PLC_certificate/Software/uCOS-II/Source/os_core.c",line 1097,column 5,i
    3566 000003ab 021B          MOVB      ACC,#27               ; [CPU_ALU] |1097| 
    3567 000003ac 0746          ADDL      ACC,*-SP[6]           ; [CPU_ALU] |1097| 
    3568 000003ad 1EA7          MOVL      XAR7,ACC              ; [CPU_ALU] |1097| 
    3569 000003ae 9248          MOV       AL,*-SP[8]            ; [CPU_ALU] |1097| 
    3570 000003af 96C7          MOV       *+XAR7[0],AL          ; [CPU_ALU] |1097| 
    3571                      .dwpsn  file "C:/ti/Workspace/PLC_certificate/Software/uCOS-II/Source/os_core.c",line 1099,column 5,i
    3572 000003b0 021A          MOVB      ACC,#26               ; [CPU_ALU] |1099| 
    3573 000003b1 0746          ADDL      ACC,*-SP[6]           ; [CPU_ALU] |1099| 
    3574 000003b2 8AA9          MOVL      XAR4,ACC              ; [CPU_ALU] |1099| 
    3575 000003b3 43C4          TBIT      *+XAR4[0],#3          ; [CPU_ALU] |1099| 
    3576 000003b4 6D12          B         $C$L75,TC             ; [CPU_ALU] |1099| 
    3577                      ; branchcc occurs ; [] |1099| 
    3578                      .dwpsn  file "C:/ti/Workspace/PLC_certificate/Software/uCOS-II/Source/os_core.c",line 1100,column 9,i
    3579 000003b5 0220          MOVB      ACC,#32               ; [CPU_ALU] |1100| 
    3580 000003b6 0746          ADDL      ACC,*-SP[6]           ; [CPU_ALU] |1100| 
    3581 000003b7 8AA9          MOVL      XAR4,ACC              ; [CPU_ALU] |1100| 
    3582 000003b8 761F-         MOVW      DP,#_OSRdyGrp         ; [CPU_ARAU] 
         000003b9 0000 
    3583 000003ba 92C4          MOV       AL,*+XAR4[0]          ; [CPU_ALU] |1100| 
    3584 000003bb 9806-         OR        @_OSRdyGrp,AL         ; [CPU_ALU] |1100| 
    3585                      .dwpsn  file "C:/ti/Workspace/PLC_certificate/Software/uCOS-II/Source/os_core.c",line 1101,column 9,i
    3586 000003bc 8F00-         MOVL      XAR4,#_OSRdyTbl       ; [CPU_ARAU] |1101| 
         000003bd 0000 
    3587 000003be A8A9          MOVL      ACC,XAR4              ; [CPU_ALU] |1101| 
    3588 000003bf 0D49          ADDU      ACC,*-SP[9]           ; [CPU_ALU] |1101| 
    3589 000003c0 83A9          MOVL      XAR5,ACC              ; [CPU_ALU] |1101| 
    3590 000003c1 021F          MOVB      ACC,#31               ; [CPU_ALU] |1101| 
    3591 000003c2 0746          ADDL      ACC,*-SP[6]           ; [CPU_ALU] |1101| 
    3592 000003c3 8AA9          MOVL      XAR4,ACC              ; [CPU_ALU] |1101| 
    3593 000003c4 92C4          MOV       AL,*+XAR4[0]          ; [CPU_ALU] |1101| 
    3594 000003c5 98C5          OR        *+XAR5[0],AL          ; [CPU_ALU] |1101| 
    3595 000003c6       $C$L75:    
    3596                      .dwpsn  file "C:/ti/Workspace/PLC_certificate/Software/uCOS-II/Source/os_core.c",line 1104,column 5,i
    3597 000003c6 8A46          MOVL      XAR4,*-SP[6]          ; [CPU_ALU] |1104| 
    3598 000003c7 8342          MOVL      XAR5,*-SP[2]          ; [CPU_ALU] |1104| 
    3599              $C$DW$205       .dwtag  DW_TAG_TI_branch
    3600                      .dwattr $C$DW$205, DW_AT_low_pc(0x00)
    3601                      .dwattr $C$DW$205, DW_AT_name("_OS_EventTaskRemove")
    3602                      .dwattr $C$DW$205, DW_AT_TI_call
    3603              
TMS320C2000 Assembler PC v20.2.1 Tue Feb 16 00:15:57 2021

Copyright (c) 1996-2018 Texas Instruments Incorporated
os_core.asm                                                          PAGE   69

    3604 000003c8 7640'         LCR       #_OS_EventTaskRemove  ; [CPU_ALU] |1104| 
         000003c9 0462 
    3605                      ; call occurs [#_OS_EventTaskRemove] ; [] |1104| 
    3606                      .dwpsn  file "C:/ti/Workspace/PLC_certificate/Software/uCOS-II/Source/os_core.c",line 1106,column 5,i
    3607 000003ca 0210          MOVB      ACC,#16               ; [CPU_ALU] |1106| 
    3608 000003cb 0746          ADDL      ACC,*-SP[6]           ; [CPU_ALU] |1106| 
    3609 000003cc 8AA9          MOVL      XAR4,ACC              ; [CPU_ALU] |1106| 
    3610 000003cd 06C4          MOVL      ACC,*+XAR4[0]         ; [CPU_ALU] |1106| 
    3611 000003ce 610D          B         $C$L76,EQ             ; [CPU_ALU] |1106| 
    3612                      ; branchcc occurs ; [] |1106| 
    3613                      .dwpsn  file "C:/ti/Workspace/PLC_certificate/Software/uCOS-II/Source/os_core.c",line 1107,column 9,i
    3614 000003cf 0210          MOVB      ACC,#16               ; [CPU_ALU] |1107| 
    3615 000003d0 0746          ADDL      ACC,*-SP[6]           ; [CPU_ALU] |1107| 
    3616 000003d1 8AA9          MOVL      XAR4,ACC              ; [CPU_ALU] |1107| 
    3617 000003d2 83C4          MOVL      XAR5,*+XAR4[0]        ; [CPU_ALU] |1107| 
    3618 000003d3 8A46          MOVL      XAR4,*-SP[6]          ; [CPU_ALU] |1107| 
    3619              $C$DW$206       .dwtag  DW_TAG_TI_branch
    3620                      .dwattr $C$DW$206, DW_AT_low_pc(0x00)
    3621                      .dwattr $C$DW$206, DW_AT_name("_OS_EventTaskRemoveMulti")
    3622                      .dwattr $C$DW$206, DW_AT_TI_call
    3623              
    3624 000003d4 7640'         LCR       #_OS_EventTaskRemoveMulti ; [CPU_ALU] |1107| 
         000003d5 0488 
    3625                      ; call occurs [#_OS_EventTaskRemoveMulti] ; [] |1107| 
    3626                      .dwpsn  file "C:/ti/Workspace/PLC_certificate/Software/uCOS-II/Source/os_core.c",line 1108,column 9,i
    3627 000003d6 C442          MOVL      XAR6,*-SP[2]          ; [CPU_ALU] |1108| 
    3628 000003d7 020E          MOVB      ACC,#14               ; [CPU_ALU] |1108| 
    3629 000003d8 0746          ADDL      ACC,*-SP[6]           ; [CPU_ALU] |1108| 
    3630 000003d9 8AA9          MOVL      XAR4,ACC              ; [CPU_ALU] |1108| 
    3631 000003da C2C4          MOVL      *+XAR4[0],XAR6        ; [CPU_ALU] |1108| 
    3632 000003db       $C$L76:    
    3633                      .dwpsn  file "C:/ti/Workspace/PLC_certificate/Software/uCOS-II/Source/os_core.c",line 1112,column 5,i
    3634 000003db 924B          MOV       AL,*-SP[11]           ; [CPU_ALU] |1112| 
    3635                      .dwpsn  file "C:/ti/Workspace/PLC_certificate/Software/uCOS-II/Source/os_core.c",line 1113,column 1,i
    3636 000003dc FE8C          SUBB      SP,#12                ; [CPU_ARAU] 
    3637                      .dwcfi  cfa_offset, -2
    3638              $C$DW$207       .dwtag  DW_TAG_TI_branch
    3639                      .dwattr $C$DW$207, DW_AT_low_pc(0x00)
    3640                      .dwattr $C$DW$207, DW_AT_TI_return
    3641              
    3642 000003dd 0006          LRETR     ; [CPU_ALU] 
    3643                      ; return occurs ; [] 
    3644                      .dwattr $C$DW$192, DW_AT_TI_end_file("C:/ti/Workspace/PLC_certificate/Software/uCOS-II/Source/os_core
    3645                      .dwattr $C$DW$192, DW_AT_TI_end_line(0x459)
    3646                      .dwattr $C$DW$192, DW_AT_TI_end_column(0x01)
    3647                      .dwendentry
    3648                      .dwendtag $C$DW$192
    3649              
    3650 000003de               .sect   ".text"
    3651                      .clink
    3652                      .global _OS_EventTaskWait
    3653              
    3654              $C$DW$208       .dwtag  DW_TAG_subprogram
    3655                      .dwattr $C$DW$208, DW_AT_name("OS_EventTaskWait")
    3656                      .dwattr $C$DW$208, DW_AT_low_pc(_OS_EventTaskWait)
TMS320C2000 Assembler PC v20.2.1 Tue Feb 16 00:15:57 2021

Copyright (c) 1996-2018 Texas Instruments Incorporated
os_core.asm                                                          PAGE   70

    3657                      .dwattr $C$DW$208, DW_AT_high_pc(0x00)
    3658                      .dwattr $C$DW$208, DW_AT_TI_symbol_name("_OS_EventTaskWait")
    3659                      .dwattr $C$DW$208, DW_AT_external
    3660                      .dwattr $C$DW$208, DW_AT_TI_begin_file("C:/ti/Workspace/PLC_certificate/Software/uCOS-II/Source/os_co
    3661                      .dwattr $C$DW$208, DW_AT_TI_begin_line(0x46b)
    3662                      .dwattr $C$DW$208, DW_AT_TI_begin_column(0x07)
    3663                      .dwattr $C$DW$208, DW_AT_TI_max_frame_size(-6)
    3664                      .dwpsn  file "C:/ti/Workspace/PLC_certificate/Software/uCOS-II/Source/os_core.c",line 1132,column 1,i
    3665              
    3666                      .dwfde $C$DW$CIE, _OS_EventTaskWait
    3667              $C$DW$209       .dwtag  DW_TAG_formal_parameter
    3668                      .dwattr $C$DW$209, DW_AT_name("pevent")
    3669                      .dwattr $C$DW$209, DW_AT_TI_symbol_name("_pevent")
    3670                      .dwattr $C$DW$209, DW_AT_type(*$C$DW$T$38)
    3671                      .dwattr $C$DW$209, DW_AT_location[DW_OP_reg12]
    3672              
    3673              
    3674              ;***************************************************************
    3675              ;* FNAME: _OS_EventTaskWait             FR SIZE:   4           *
    3676              ;*                                                             *
    3677              ;* FUNCTION ENVIRONMENT                                        *
    3678              ;*                                                             *
    3679              ;* FUNCTION PROPERTIES                                         *
    3680              ;*                            0 Parameter,  3 Auto,  0 SOE     *
    3681              ;***************************************************************
    3682              
    3683 000003de       _OS_EventTaskWait:
    3684                      .dwcfi  cfa_offset, -2
    3685                      .dwcfi  save_reg_to_mem, 26, 0
    3686 000003de FE04          ADDB      SP,#4                 ; [CPU_ARAU] 
    3687                      .dwcfi  cfa_offset, -6
    3688              $C$DW$210       .dwtag  DW_TAG_variable
    3689                      .dwattr $C$DW$210, DW_AT_name("pevent")
    3690                      .dwattr $C$DW$210, DW_AT_TI_symbol_name("_pevent")
    3691                      .dwattr $C$DW$210, DW_AT_type(*$C$DW$T$38)
    3692                      .dwattr $C$DW$210, DW_AT_location[DW_OP_breg20 -2]
    3693              
    3694              $C$DW$211       .dwtag  DW_TAG_variable
    3695                      .dwattr $C$DW$211, DW_AT_name("y")
    3696                      .dwattr $C$DW$211, DW_AT_TI_symbol_name("_y")
    3697                      .dwattr $C$DW$211, DW_AT_type(*$C$DW$T$19)
    3698                      .dwattr $C$DW$211, DW_AT_location[DW_OP_breg20 -3]
    3699              
    3700 000003df A842          MOVL      *-SP[2],XAR4          ; [CPU_ALU] |1132| 
    3701                      .dwpsn  file "C:/ti/Workspace/PLC_certificate/Software/uCOS-II/Source/os_core.c",line 1136,column 5,i
    3702 000003e0 020E          MOVB      ACC,#14               ; [CPU_ALU] |1136| 
    3703 000003e1 C442          MOVL      XAR6,*-SP[2]          ; [CPU_ALU] |1136| 
    3704 000003e2 761F-         MOVW      DP,#_OSTCBCur         ; [CPU_ARAU] 
         000003e3 0000 
    3705 000003e4 0718-         ADDL      ACC,@_OSTCBCur        ; [CPU_ALU] |1136| 
    3706 000003e5 8AA9          MOVL      XAR4,ACC              ; [CPU_ALU] |1136| 
    3707 000003e6 C2C4          MOVL      *+XAR4[0],XAR6        ; [CPU_ALU] |1136| 
    3708                      .dwpsn  file "C:/ti/Workspace/PLC_certificate/Software/uCOS-II/Source/os_core.c",line 1138,column 5,i
    3709 000003e7 021E          MOVB      ACC,#30               ; [CPU_ALU] |1138| 
    3710 000003e8 0718-         ADDL      ACC,@_OSTCBCur        ; [CPU_ALU] |1138| 
TMS320C2000 Assembler PC v20.2.1 Tue Feb 16 00:15:57 2021

Copyright (c) 1996-2018 Texas Instruments Incorporated
os_core.asm                                                          PAGE   71

    3711 000003e9 8AA9          MOVL      XAR4,ACC              ; [CPU_ALU] |1138| 
    3712 000003ea 0EC4          MOVU      ACC,*+XAR4[0]         ; [CPU_ALU] |1138| 
    3713 000003eb 0742          ADDL      ACC,*-SP[2]           ; [CPU_ALU] |1138| 
    3714 000003ec 0906          ADDB      ACC,#6                ; [CPU_ALU] |1138| 
    3715 000003ed 83A9          MOVL      XAR5,ACC              ; [CPU_ALU] |1138| 
    3716 000003ee 021F          MOVB      ACC,#31               ; [CPU_ALU] |1138| 
    3717 000003ef 0718-         ADDL      ACC,@_OSTCBCur        ; [CPU_ALU] |1138| 
    3718 000003f0 8AA9          MOVL      XAR4,ACC              ; [CPU_ALU] |1138| 
    3719 000003f1 92C4          MOV       AL,*+XAR4[0]          ; [CPU_ALU] |1138| 
    3720 000003f2 98C5          OR        *+XAR5[0],AL          ; [CPU_ALU] |1138| 
    3721                      .dwpsn  file "C:/ti/Workspace/PLC_certificate/Software/uCOS-II/Source/os_core.c",line 1139,column 5,i
    3722 000003f3 0220          MOVB      ACC,#32               ; [CPU_ALU] |1139| 
    3723 000003f4 0718-         ADDL      ACC,@_OSTCBCur        ; [CPU_ALU] |1139| 
    3724 000003f5 8AA9          MOVL      XAR4,ACC              ; [CPU_ALU] |1139| 
    3725 000003f6 8342          MOVL      XAR5,*-SP[2]          ; [CPU_ALU] |1139| 
    3726 000003f7 92C4          MOV       AL,*+XAR4[0]          ; [CPU_ALU] |1139| 
    3727 000003f8 98ED          OR        *+XAR5[5],AL          ; [CPU_ALU] |1139| 
    3728                      .dwpsn  file "C:/ti/Workspace/PLC_certificate/Software/uCOS-II/Source/os_core.c",line 1141,column 5,i
    3729 000003f9 021E          MOVB      ACC,#30               ; [CPU_ALU] |1141| 
    3730 000003fa 0718-         ADDL      ACC,@_OSTCBCur        ; [CPU_ALU] |1141| 
    3731 000003fb 1EA7          MOVL      XAR7,ACC              ; [CPU_ALU] |1141| 
    3732 000003fc 92C7          MOV       AL,*+XAR7[0]          ; [CPU_ALU] |1141| 
    3733 000003fd 9643          MOV       *-SP[3],AL            ; [CPU_ALU] |1141| 
    3734                      .dwpsn  file "C:/ti/Workspace/PLC_certificate/Software/uCOS-II/Source/os_core.c",line 1142,column 5,i
    3735 000003fe 8F00-         MOVL      XAR4,#_OSRdyTbl       ; [CPU_ARAU] |1142| 
         000003ff 0000 
    3736 00000400 A8A9          MOVL      ACC,XAR4              ; [CPU_ALU] |1142| 
    3737 00000401 0D43          ADDU      ACC,*-SP[3]           ; [CPU_ALU] |1142| 
    3738 00000402 83A9          MOVL      XAR5,ACC              ; [CPU_ALU] |1142| 
    3739 00000403 021F          MOVB      ACC,#31               ; [CPU_ALU] |1142| 
    3740 00000404 0718-         ADDL      ACC,@_OSTCBCur        ; [CPU_ALU] |1142| 
    3741 00000405 8AA9          MOVL      XAR4,ACC              ; [CPU_ALU] |1142| 
    3742 00000406 92C4          MOV       AL,*+XAR4[0]          ; [CPU_ALU] |1142| 
    3743 00000407 FF5E          NOT       AL                    ; [CPU_ALU] |1142| 
    3744 00000408 C0C5          AND       *+XAR5[0],AL          ; [CPU_ALU] |1142| 
    3745                      .dwpsn  file "C:/ti/Workspace/PLC_certificate/Software/uCOS-II/Source/os_core.c",line 1143,column 5,i
    3746 00000409 5843          MOVZ      AR0,*-SP[3]           ; [CPU_ALU] |1143| 
    3747 0000040a 8F00-         MOVL      XAR4,#_OSRdyTbl       ; [CPU_ARAU] |1143| 
         0000040b 0000 
    3748 0000040c 9294          MOV       AL,*+XAR4[AR0]        ; [CPU_ALU] |1143| 
    3749 0000040d 6007          B         $C$L77,NEQ            ; [CPU_ALU] |1143| 
    3750                      ; branchcc occurs ; [] |1143| 
    3751                      .dwpsn  file "C:/ti/Workspace/PLC_certificate/Software/uCOS-II/Source/os_core.c",line 1144,column 9,i
    3752 0000040e 0220          MOVB      ACC,#32               ; [CPU_ALU] |1144| 
    3753 0000040f 0718-         ADDL      ACC,@_OSTCBCur        ; [CPU_ALU] |1144| 
    3754 00000410 8AA9          MOVL      XAR4,ACC              ; [CPU_ALU] |1144| 
    3755 00000411 92C4          MOV       AL,*+XAR4[0]          ; [CPU_ALU] |1144| 
    3756 00000412 FF5E          NOT       AL                    ; [CPU_ALU] |1144| 
    3757 00000413 C006-         AND       @_OSRdyGrp,AL         ; [CPU_ALU] |1144| 
    3758                      .dwpsn  file "C:/ti/Workspace/PLC_certificate/Software/uCOS-II/Source/os_core.c",line 1146,column 1,i
    3759 00000414       $C$L77:    
    3760 00000414 FE84          SUBB      SP,#4                 ; [CPU_ARAU] 
    3761                      .dwcfi  cfa_offset, -2
    3762              $C$DW$212       .dwtag  DW_TAG_TI_branch
    3763                      .dwattr $C$DW$212, DW_AT_low_pc(0x00)
TMS320C2000 Assembler PC v20.2.1 Tue Feb 16 00:15:57 2021

Copyright (c) 1996-2018 Texas Instruments Incorporated
os_core.asm                                                          PAGE   72

    3764                      .dwattr $C$DW$212, DW_AT_TI_return
    3765              
    3766 00000415 0006          LRETR     ; [CPU_ALU] 
    3767                      ; return occurs ; [] 
    3768                      .dwattr $C$DW$208, DW_AT_TI_end_file("C:/ti/Workspace/PLC_certificate/Software/uCOS-II/Source/os_core
    3769                      .dwattr $C$DW$208, DW_AT_TI_end_line(0x47a)
    3770                      .dwattr $C$DW$208, DW_AT_TI_end_column(0x01)
    3771                      .dwendentry
    3772                      .dwendtag $C$DW$208
    3773              
    3774 00000416               .sect   ".text"
    3775                      .clink
    3776                      .global _OS_EventTaskWaitMulti
    3777              
    3778              $C$DW$213       .dwtag  DW_TAG_subprogram
    3779                      .dwattr $C$DW$213, DW_AT_name("OS_EventTaskWaitMulti")
    3780                      .dwattr $C$DW$213, DW_AT_low_pc(_OS_EventTaskWaitMulti)
    3781                      .dwattr $C$DW$213, DW_AT_high_pc(0x00)
    3782                      .dwattr $C$DW$213, DW_AT_TI_symbol_name("_OS_EventTaskWaitMulti")
    3783                      .dwattr $C$DW$213, DW_AT_external
    3784                      .dwattr $C$DW$213, DW_AT_TI_begin_file("C:/ti/Workspace/PLC_certificate/Software/uCOS-II/Source/os_co
    3785                      .dwattr $C$DW$213, DW_AT_TI_begin_line(0x48d)
    3786                      .dwattr $C$DW$213, DW_AT_TI_begin_column(0x07)
    3787                      .dwattr $C$DW$213, DW_AT_TI_max_frame_size(-10)
    3788                      .dwpsn  file "C:/ti/Workspace/PLC_certificate/Software/uCOS-II/Source/os_core.c",line 1166,column 1,i
    3789              
    3790                      .dwfde $C$DW$CIE, _OS_EventTaskWaitMulti
    3791              $C$DW$214       .dwtag  DW_TAG_formal_parameter
    3792                      .dwattr $C$DW$214, DW_AT_name("pevents_wait")
    3793                      .dwattr $C$DW$214, DW_AT_TI_symbol_name("_pevents_wait")
    3794                      .dwattr $C$DW$214, DW_AT_type(*$C$DW$T$39)
    3795                      .dwattr $C$DW$214, DW_AT_location[DW_OP_reg12]
    3796              
    3797              
    3798              ;***************************************************************
    3799              ;* FNAME: _OS_EventTaskWaitMulti        FR SIZE:   8           *
    3800              ;*                                                             *
    3801              ;* FUNCTION ENVIRONMENT                                        *
    3802              ;*                                                             *
    3803              ;* FUNCTION PROPERTIES                                         *
    3804              ;*                            0 Parameter,  7 Auto,  0 SOE     *
    3805              ;***************************************************************
    3806              
    3807 00000416       _OS_EventTaskWaitMulti:
    3808                      .dwcfi  cfa_offset, -2
    3809                      .dwcfi  save_reg_to_mem, 26, 0
    3810 00000416 FE08          ADDB      SP,#8                 ; [CPU_ARAU] 
    3811                      .dwcfi  cfa_offset, -10
    3812              $C$DW$215       .dwtag  DW_TAG_variable
    3813                      .dwattr $C$DW$215, DW_AT_name("pevents_wait")
    3814                      .dwattr $C$DW$215, DW_AT_TI_symbol_name("_pevents_wait")
    3815                      .dwattr $C$DW$215, DW_AT_type(*$C$DW$T$39)
    3816                      .dwattr $C$DW$215, DW_AT_location[DW_OP_breg20 -2]
    3817              
    3818              $C$DW$216       .dwtag  DW_TAG_variable
TMS320C2000 Assembler PC v20.2.1 Tue Feb 16 00:15:57 2021

Copyright (c) 1996-2018 Texas Instruments Incorporated
os_core.asm                                                          PAGE   73

    3819                      .dwattr $C$DW$216, DW_AT_name("pevents")
    3820                      .dwattr $C$DW$216, DW_AT_TI_symbol_name("_pevents")
    3821                      .dwattr $C$DW$216, DW_AT_type(*$C$DW$T$39)
    3822                      .dwattr $C$DW$216, DW_AT_location[DW_OP_breg20 -4]
    3823              
    3824              $C$DW$217       .dwtag  DW_TAG_variable
    3825                      .dwattr $C$DW$217, DW_AT_name("pevent")
    3826                      .dwattr $C$DW$217, DW_AT_TI_symbol_name("_pevent")
    3827                      .dwattr $C$DW$217, DW_AT_type(*$C$DW$T$38)
    3828                      .dwattr $C$DW$217, DW_AT_location[DW_OP_breg20 -6]
    3829              
    3830              $C$DW$218       .dwtag  DW_TAG_variable
    3831                      .dwattr $C$DW$218, DW_AT_name("y")
    3832                      .dwattr $C$DW$218, DW_AT_TI_symbol_name("_y")
    3833                      .dwattr $C$DW$218, DW_AT_type(*$C$DW$T$19)
    3834                      .dwattr $C$DW$218, DW_AT_location[DW_OP_breg20 -7]
    3835              
    3836 00000417 A842          MOVL      *-SP[2],XAR4          ; [CPU_ALU] |1166| 
    3837                      .dwpsn  file "C:/ti/Workspace/PLC_certificate/Software/uCOS-II/Source/os_core.c",line 1172,column 5,i
    3838 00000418 020E          MOVB      ACC,#14               ; [CPU_ALU] |1172| 
    3839 00000419 BE00          MOVB      XAR6,#0               ; [CPU_ALU] |1172| 
    3840 0000041a 761F-         MOVW      DP,#_OSTCBCur         ; [CPU_ARAU] 
         0000041b 0000 
    3841 0000041c 0718-         ADDL      ACC,@_OSTCBCur        ; [CPU_ALU] |1172| 
    3842 0000041d 8AA9          MOVL      XAR4,ACC              ; [CPU_ALU] |1172| 
    3843 0000041e C2C4          MOVL      *+XAR4[0],XAR6        ; [CPU_ALU] |1172| 
    3844                      .dwpsn  file "C:/ti/Workspace/PLC_certificate/Software/uCOS-II/Source/os_core.c",line 1173,column 5,i
    3845 0000041f C442          MOVL      XAR6,*-SP[2]          ; [CPU_ALU] |1173| 
    3846 00000420 0210          MOVB      ACC,#16               ; [CPU_ALU] |1173| 
    3847 00000421 0718-         ADDL      ACC,@_OSTCBCur        ; [CPU_ALU] |1173| 
    3848 00000422 8AA9          MOVL      XAR4,ACC              ; [CPU_ALU] |1173| 
    3849 00000423 C2C4          MOVL      *+XAR4[0],XAR6        ; [CPU_ALU] |1173| 
    3850                      .dwpsn  file "C:/ti/Workspace/PLC_certificate/Software/uCOS-II/Source/os_core.c",line 1175,column 5,i
    3851 00000424 0642          MOVL      ACC,*-SP[2]           ; [CPU_ALU] |1175| 
    3852 00000425 1E44          MOVL      *-SP[4],ACC           ; [CPU_ALU] |1175| 
    3853                      .dwpsn  file "C:/ti/Workspace/PLC_certificate/Software/uCOS-II/Source/os_core.c",line 1176,column 5,i
    3854 00000426 8A44          MOVL      XAR4,*-SP[4]          ; [CPU_ALU] |1176| 
    3855 00000427 06C4          MOVL      ACC,*+XAR4[0]         ; [CPU_ALU] |1176| 
    3856 00000428 1E46          MOVL      *-SP[6],ACC           ; [CPU_ALU] |1176| 
    3857                      .dwpsn  file "C:/ti/Workspace/PLC_certificate/Software/uCOS-II/Source/os_core.c",line 1177,column 12,
    3858 00000429 0646          MOVL      ACC,*-SP[6]           ; [CPU_ALU] |1177| 
    3859 0000042a 611B          B         $C$L79,EQ             ; [CPU_ALU] |1177| 
    3860                      ; branchcc occurs ; [] |1177| 
    3861 0000042b       $C$L78:    
    3862                      .dwpsn  file "C:/ti/Workspace/PLC_certificate/Software/uCOS-II/Source/os_core.c",line 1178,column 9,i
    3863 0000042b 021E          MOVB      ACC,#30               ; [CPU_ALU] |1178| 
    3864 0000042c 0718-         ADDL      ACC,@_OSTCBCur        ; [CPU_ALU] |1178| 
    3865 0000042d 8AA9          MOVL      XAR4,ACC              ; [CPU_ALU] |1178| 
    3866 0000042e 0EC4          MOVU      ACC,*+XAR4[0]         ; [CPU_ALU] |1178| 
    3867 0000042f 0746          ADDL      ACC,*-SP[6]           ; [CPU_ALU] |1178| 
    3868 00000430 0906          ADDB      ACC,#6                ; [CPU_ALU] |1178| 
    3869 00000431 83A9          MOVL      XAR5,ACC              ; [CPU_ALU] |1178| 
    3870 00000432 021F          MOVB      ACC,#31               ; [CPU_ALU] |1178| 
    3871 00000433 0718-         ADDL      ACC,@_OSTCBCur        ; [CPU_ALU] |1178| 
    3872 00000434 8AA9          MOVL      XAR4,ACC              ; [CPU_ALU] |1178| 
TMS320C2000 Assembler PC v20.2.1 Tue Feb 16 00:15:57 2021

Copyright (c) 1996-2018 Texas Instruments Incorporated
os_core.asm                                                          PAGE   74

    3873 00000435 92C4          MOV       AL,*+XAR4[0]          ; [CPU_ALU] |1178| 
    3874 00000436 98C5          OR        *+XAR5[0],AL          ; [CPU_ALU] |1178| 
    3875                      .dwpsn  file "C:/ti/Workspace/PLC_certificate/Software/uCOS-II/Source/os_core.c",line 1179,column 9,i
    3876 00000437 0220          MOVB      ACC,#32               ; [CPU_ALU] |1179| 
    3877 00000438 0718-         ADDL      ACC,@_OSTCBCur        ; [CPU_ALU] |1179| 
    3878 00000439 8AA9          MOVL      XAR4,ACC              ; [CPU_ALU] |1179| 
    3879 0000043a 8346          MOVL      XAR5,*-SP[6]          ; [CPU_ALU] |1179| 
    3880 0000043b 92C4          MOV       AL,*+XAR4[0]          ; [CPU_ALU] |1179| 
    3881 0000043c 98ED          OR        *+XAR5[5],AL          ; [CPU_ALU] |1179| 
    3882                      .dwpsn  file "C:/ti/Workspace/PLC_certificate/Software/uCOS-II/Source/os_core.c",line 1180,column 9,i
    3883 0000043d 0202          MOVB      ACC,#2                ; [CPU_ALU] |1180| 
    3884 0000043e 0744          ADDL      ACC,*-SP[4]           ; [CPU_ALU] |1180| 
    3885 0000043f 1E44          MOVL      *-SP[4],ACC           ; [CPU_ALU] |1180| 
    3886                      .dwpsn  file "C:/ti/Workspace/PLC_certificate/Software/uCOS-II/Source/os_core.c",line 1181,column 9,i
    3887 00000440 8A44          MOVL      XAR4,*-SP[4]          ; [CPU_ALU] |1181| 
    3888 00000441 06C4          MOVL      ACC,*+XAR4[0]         ; [CPU_ALU] |1181| 
    3889 00000442 1E46          MOVL      *-SP[6],ACC           ; [CPU_ALU] |1181| 
    3890                      .dwpsn  file "C:/ti/Workspace/PLC_certificate/Software/uCOS-II/Source/os_core.c",line 1177,column 12,
    3891 00000443 0646          MOVL      ACC,*-SP[6]           ; [CPU_ALU] |1177| 
    3892 00000444 60E7          B         $C$L78,NEQ            ; [CPU_ALU] |1177| 
    3893                      ; branchcc occurs ; [] |1177| 
    3894 00000445       $C$L79:    
    3895                      .dwpsn  file "C:/ti/Workspace/PLC_certificate/Software/uCOS-II/Source/os_core.c",line 1184,column 5,i
    3896 00000445 021E          MOVB      ACC,#30               ; [CPU_ALU] |1184| 
    3897 00000446 0718-         ADDL      ACC,@_OSTCBCur        ; [CPU_ALU] |1184| 
    3898 00000447 1EA7          MOVL      XAR7,ACC              ; [CPU_ALU] |1184| 
    3899 00000448 92C7          MOV       AL,*+XAR7[0]          ; [CPU_ALU] |1184| 
    3900 00000449 9647          MOV       *-SP[7],AL            ; [CPU_ALU] |1184| 
    3901                      .dwpsn  file "C:/ti/Workspace/PLC_certificate/Software/uCOS-II/Source/os_core.c",line 1185,column 5,i
    3902 0000044a 8F00-         MOVL      XAR4,#_OSRdyTbl       ; [CPU_ARAU] |1185| 
         0000044b 0000 
    3903 0000044c A8A9          MOVL      ACC,XAR4              ; [CPU_ALU] |1185| 
    3904 0000044d 0D47          ADDU      ACC,*-SP[7]           ; [CPU_ALU] |1185| 
    3905 0000044e 83A9          MOVL      XAR5,ACC              ; [CPU_ALU] |1185| 
    3906 0000044f 021F          MOVB      ACC,#31               ; [CPU_ALU] |1185| 
    3907 00000450 0718-         ADDL      ACC,@_OSTCBCur        ; [CPU_ALU] |1185| 
    3908 00000451 8AA9          MOVL      XAR4,ACC              ; [CPU_ALU] |1185| 
    3909 00000452 92C4          MOV       AL,*+XAR4[0]          ; [CPU_ALU] |1185| 
    3910 00000453 FF5E          NOT       AL                    ; [CPU_ALU] |1185| 
    3911 00000454 C0C5          AND       *+XAR5[0],AL          ; [CPU_ALU] |1185| 
    3912                      .dwpsn  file "C:/ti/Workspace/PLC_certificate/Software/uCOS-II/Source/os_core.c",line 1186,column 5,i
    3913 00000455 5847          MOVZ      AR0,*-SP[7]           ; [CPU_ALU] |1186| 
    3914 00000456 8F00-         MOVL      XAR4,#_OSRdyTbl       ; [CPU_ARAU] |1186| 
         00000457 0000 
    3915 00000458 9294          MOV       AL,*+XAR4[AR0]        ; [CPU_ALU] |1186| 
    3916 00000459 6007          B         $C$L80,NEQ            ; [CPU_ALU] |1186| 
    3917                      ; branchcc occurs ; [] |1186| 
    3918                      .dwpsn  file "C:/ti/Workspace/PLC_certificate/Software/uCOS-II/Source/os_core.c",line 1187,column 9,i
    3919 0000045a 0220          MOVB      ACC,#32               ; [CPU_ALU] |1187| 
    3920 0000045b 0718-         ADDL      ACC,@_OSTCBCur        ; [CPU_ALU] |1187| 
    3921 0000045c 8AA9          MOVL      XAR4,ACC              ; [CPU_ALU] |1187| 
    3922 0000045d 92C4          MOV       AL,*+XAR4[0]          ; [CPU_ALU] |1187| 
    3923 0000045e FF5E          NOT       AL                    ; [CPU_ALU] |1187| 
    3924 0000045f C006-         AND       @_OSRdyGrp,AL         ; [CPU_ALU] |1187| 
    3925                      .dwpsn  file "C:/ti/Workspace/PLC_certificate/Software/uCOS-II/Source/os_core.c",line 1189,column 1,i
TMS320C2000 Assembler PC v20.2.1 Tue Feb 16 00:15:57 2021

Copyright (c) 1996-2018 Texas Instruments Incorporated
os_core.asm                                                          PAGE   75

    3926 00000460       $C$L80:    
    3927 00000460 FE88          SUBB      SP,#8                 ; [CPU_ARAU] 
    3928                      .dwcfi  cfa_offset, -2
    3929              $C$DW$219       .dwtag  DW_TAG_TI_branch
    3930                      .dwattr $C$DW$219, DW_AT_low_pc(0x00)
    3931                      .dwattr $C$DW$219, DW_AT_TI_return
    3932              
    3933 00000461 0006          LRETR     ; [CPU_ALU] 
    3934                      ; return occurs ; [] 
    3935                      .dwattr $C$DW$213, DW_AT_TI_end_file("C:/ti/Workspace/PLC_certificate/Software/uCOS-II/Source/os_core
    3936                      .dwattr $C$DW$213, DW_AT_TI_end_line(0x4a5)
    3937                      .dwattr $C$DW$213, DW_AT_TI_end_column(0x01)
    3938                      .dwendentry
    3939                      .dwendtag $C$DW$213
    3940              
    3941 00000462               .sect   ".text"
    3942                      .clink
    3943                      .global _OS_EventTaskRemove
    3944              
    3945              $C$DW$220       .dwtag  DW_TAG_subprogram
    3946                      .dwattr $C$DW$220, DW_AT_name("OS_EventTaskRemove")
    3947                      .dwattr $C$DW$220, DW_AT_low_pc(_OS_EventTaskRemove)
    3948                      .dwattr $C$DW$220, DW_AT_high_pc(0x00)
    3949                      .dwattr $C$DW$220, DW_AT_TI_symbol_name("_OS_EventTaskRemove")
    3950                      .dwattr $C$DW$220, DW_AT_external
    3951                      .dwattr $C$DW$220, DW_AT_TI_begin_file("C:/ti/Workspace/PLC_certificate/Software/uCOS-II/Source/os_co
    3952                      .dwattr $C$DW$220, DW_AT_TI_begin_line(0x4b8)
    3953                      .dwattr $C$DW$220, DW_AT_TI_begin_column(0x07)
    3954                      .dwattr $C$DW$220, DW_AT_TI_max_frame_size(-8)
    3955                      .dwpsn  file "C:/ti/Workspace/PLC_certificate/Software/uCOS-II/Source/os_core.c",line 1210,column 1,i
    3956              
    3957                      .dwfde $C$DW$CIE, _OS_EventTaskRemove
    3958              $C$DW$221       .dwtag  DW_TAG_formal_parameter
    3959                      .dwattr $C$DW$221, DW_AT_name("ptcb")
    3960                      .dwattr $C$DW$221, DW_AT_TI_symbol_name("_ptcb")
    3961                      .dwattr $C$DW$221, DW_AT_type(*$C$DW$T$56)
    3962                      .dwattr $C$DW$221, DW_AT_location[DW_OP_reg12]
    3963              
    3964              $C$DW$222       .dwtag  DW_TAG_formal_parameter
    3965                      .dwattr $C$DW$222, DW_AT_name("pevent")
    3966                      .dwattr $C$DW$222, DW_AT_TI_symbol_name("_pevent")
    3967                      .dwattr $C$DW$222, DW_AT_type(*$C$DW$T$38)
    3968                      .dwattr $C$DW$222, DW_AT_location[DW_OP_reg14]
    3969              
    3970              
    3971              ;***************************************************************
    3972              ;* FNAME: _OS_EventTaskRemove           FR SIZE:   6           *
    3973              ;*                                                             *
    3974              ;* FUNCTION ENVIRONMENT                                        *
    3975              ;*                                                             *
    3976              ;* FUNCTION PROPERTIES                                         *
    3977              ;*                            0 Parameter,  5 Auto,  0 SOE     *
    3978              ;***************************************************************
    3979              
    3980 00000462       _OS_EventTaskRemove:
TMS320C2000 Assembler PC v20.2.1 Tue Feb 16 00:15:57 2021

Copyright (c) 1996-2018 Texas Instruments Incorporated
os_core.asm                                                          PAGE   76

    3981                      .dwcfi  cfa_offset, -2
    3982                      .dwcfi  save_reg_to_mem, 26, 0
    3983 00000462 FE06          ADDB      SP,#6                 ; [CPU_ARAU] 
    3984                      .dwcfi  cfa_offset, -8
    3985              $C$DW$223       .dwtag  DW_TAG_variable
    3986                      .dwattr $C$DW$223, DW_AT_name("ptcb")
    3987                      .dwattr $C$DW$223, DW_AT_TI_symbol_name("_ptcb")
    3988                      .dwattr $C$DW$223, DW_AT_type(*$C$DW$T$56)
    3989                      .dwattr $C$DW$223, DW_AT_location[DW_OP_breg20 -2]
    3990              
    3991              $C$DW$224       .dwtag  DW_TAG_variable
    3992                      .dwattr $C$DW$224, DW_AT_name("pevent")
    3993                      .dwattr $C$DW$224, DW_AT_TI_symbol_name("_pevent")
    3994                      .dwattr $C$DW$224, DW_AT_type(*$C$DW$T$38)
    3995                      .dwattr $C$DW$224, DW_AT_location[DW_OP_breg20 -4]
    3996              
    3997              $C$DW$225       .dwtag  DW_TAG_variable
    3998                      .dwattr $C$DW$225, DW_AT_name("y")
    3999                      .dwattr $C$DW$225, DW_AT_TI_symbol_name("_y")
    4000                      .dwattr $C$DW$225, DW_AT_type(*$C$DW$T$19)
    4001                      .dwattr $C$DW$225, DW_AT_location[DW_OP_breg20 -5]
    4002              
    4003 00000463 A044          MOVL      *-SP[4],XAR5          ; [CPU_ALU] |1210| 
    4004 00000464 A842          MOVL      *-SP[2],XAR4          ; [CPU_ALU] |1210| 
    4005                      .dwpsn  file "C:/ti/Workspace/PLC_certificate/Software/uCOS-II/Source/os_core.c",line 1214,column 5,i
    4006 00000465 021E          MOVB      ACC,#30               ; [CPU_ALU] |1214| 
    4007 00000466 0742          ADDL      ACC,*-SP[2]           ; [CPU_ALU] |1214| 
    4008 00000467 1EA7          MOVL      XAR7,ACC              ; [CPU_ALU] |1214| 
    4009 00000468 92C7          MOV       AL,*+XAR7[0]          ; [CPU_ALU] |1214| 
    4010 00000469 9645          MOV       *-SP[5],AL            ; [CPU_ALU] |1214| 
    4011                      .dwpsn  file "C:/ti/Workspace/PLC_certificate/Software/uCOS-II/Source/os_core.c",line 1215,column 5,i
    4012 0000046a 0E45          MOVU      ACC,*-SP[5]           ; [CPU_ALU] |1215| 
    4013 0000046b 0744          ADDL      ACC,*-SP[4]           ; [CPU_ALU] |1215| 
    4014 0000046c 0906          ADDB      ACC,#6                ; [CPU_ALU] |1215| 
    4015 0000046d 83A9          MOVL      XAR5,ACC              ; [CPU_ALU] |1215| 
    4016 0000046e 021F          MOVB      ACC,#31               ; [CPU_ALU] |1215| 
    4017 0000046f 0742          ADDL      ACC,*-SP[2]           ; [CPU_ALU] |1215| 
    4018 00000470 8AA9          MOVL      XAR4,ACC              ; [CPU_ALU] |1215| 
    4019 00000471 92C4          MOV       AL,*+XAR4[0]          ; [CPU_ALU] |1215| 
    4020 00000472 FF5E          NOT       AL                    ; [CPU_ALU] |1215| 
    4021 00000473 C0C5          AND       *+XAR5[0],AL          ; [CPU_ALU] |1215| 
    4022                      .dwpsn  file "C:/ti/Workspace/PLC_certificate/Software/uCOS-II/Source/os_core.c",line 1216,column 5,i
    4023 00000474 5C45          MOVZ      AR4,*-SP[5]           ; [CPU_ALU] |1216| 
    4024 00000475 A8A9          MOVL      ACC,XAR4              ; [CPU_ALU] |1216| 
    4025 00000476 0744          ADDL      ACC,*-SP[4]           ; [CPU_ALU] |1216| 
    4026 00000477 8AA9          MOVL      XAR4,ACC              ; [CPU_ALU] |1216| 
    4027 00000478 92F4          MOV       AL,*+XAR4[6]          ; [CPU_ALU] |1216| 
    4028 00000479 6008          B         $C$L81,NEQ            ; [CPU_ALU] |1216| 
    4029                      ; branchcc occurs ; [] |1216| 
    4030                      .dwpsn  file "C:/ti/Workspace/PLC_certificate/Software/uCOS-II/Source/os_core.c",line 1217,column 9,i
    4031 0000047a 0220          MOVB      ACC,#32               ; [CPU_ALU] |1217| 
    4032 0000047b 0742          ADDL      ACC,*-SP[2]           ; [CPU_ALU] |1217| 
    4033 0000047c 8AA9          MOVL      XAR4,ACC              ; [CPU_ALU] |1217| 
    4034 0000047d 8344          MOVL      XAR5,*-SP[4]          ; [CPU_ALU] |1217| 
    4035 0000047e 92C4          MOV       AL,*+XAR4[0]          ; [CPU_ALU] |1217| 
TMS320C2000 Assembler PC v20.2.1 Tue Feb 16 00:15:57 2021

Copyright (c) 1996-2018 Texas Instruments Incorporated
os_core.asm                                                          PAGE   77

    4036 0000047f FF5E          NOT       AL                    ; [CPU_ALU] |1217| 
    4037 00000480 C0ED          AND       *+XAR5[5],AL          ; [CPU_ALU] |1217| 
    4038 00000481       $C$L81:    
    4039                      .dwpsn  file "C:/ti/Workspace/PLC_certificate/Software/uCOS-II/Source/os_core.c",line 1219,column 5,i
    4040 00000481 BE00          MOVB      XAR6,#0               ; [CPU_ALU] |1219| 
    4041 00000482 020E          MOVB      ACC,#14               ; [CPU_ALU] |1219| 
    4042 00000483 0742          ADDL      ACC,*-SP[2]           ; [CPU_ALU] |1219| 
    4043 00000484 8AA9          MOVL      XAR4,ACC              ; [CPU_ALU] |1219| 
    4044 00000485 C2C4          MOVL      *+XAR4[0],XAR6        ; [CPU_ALU] |1219| 
    4045                      .dwpsn  file "C:/ti/Workspace/PLC_certificate/Software/uCOS-II/Source/os_core.c",line 1220,column 1,i
    4046 00000486 FE86          SUBB      SP,#6                 ; [CPU_ARAU] 
    4047                      .dwcfi  cfa_offset, -2
    4048              $C$DW$226       .dwtag  DW_TAG_TI_branch
    4049                      .dwattr $C$DW$226, DW_AT_low_pc(0x00)
    4050                      .dwattr $C$DW$226, DW_AT_TI_return
    4051              
    4052 00000487 0006          LRETR     ; [CPU_ALU] 
    4053                      ; return occurs ; [] 
    4054                      .dwattr $C$DW$220, DW_AT_TI_end_file("C:/ti/Workspace/PLC_certificate/Software/uCOS-II/Source/os_core
    4055                      .dwattr $C$DW$220, DW_AT_TI_end_line(0x4c4)
    4056                      .dwattr $C$DW$220, DW_AT_TI_end_column(0x01)
    4057                      .dwendentry
    4058                      .dwendtag $C$DW$220
    4059              
    4060 00000488               .sect   ".text"
    4061                      .clink
    4062                      .global _OS_EventTaskRemoveMulti
    4063              
    4064              $C$DW$227       .dwtag  DW_TAG_subprogram
    4065                      .dwattr $C$DW$227, DW_AT_name("OS_EventTaskRemoveMulti")
    4066                      .dwattr $C$DW$227, DW_AT_low_pc(_OS_EventTaskRemoveMulti)
    4067                      .dwattr $C$DW$227, DW_AT_high_pc(0x00)
    4068                      .dwattr $C$DW$227, DW_AT_TI_symbol_name("_OS_EventTaskRemoveMulti")
    4069                      .dwattr $C$DW$227, DW_AT_external
    4070                      .dwattr $C$DW$227, DW_AT_TI_begin_file("C:/ti/Workspace/PLC_certificate/Software/uCOS-II/Source/os_co
    4071                      .dwattr $C$DW$227, DW_AT_TI_begin_line(0x4d7)
    4072                      .dwattr $C$DW$227, DW_AT_TI_begin_column(0x07)
    4073                      .dwattr $C$DW$227, DW_AT_TI_max_frame_size(-14)
    4074                      .dwpsn  file "C:/ti/Workspace/PLC_certificate/Software/uCOS-II/Source/os_core.c",line 1241,column 1,i
    4075              
    4076                      .dwfde $C$DW$CIE, _OS_EventTaskRemoveMulti
    4077              $C$DW$228       .dwtag  DW_TAG_formal_parameter
    4078                      .dwattr $C$DW$228, DW_AT_name("ptcb")
    4079                      .dwattr $C$DW$228, DW_AT_TI_symbol_name("_ptcb")
    4080                      .dwattr $C$DW$228, DW_AT_type(*$C$DW$T$56)
    4081                      .dwattr $C$DW$228, DW_AT_location[DW_OP_reg12]
    4082              
    4083              $C$DW$229       .dwtag  DW_TAG_formal_parameter
    4084                      .dwattr $C$DW$229, DW_AT_name("pevents_multi")
    4085                      .dwattr $C$DW$229, DW_AT_TI_symbol_name("_pevents_multi")
    4086                      .dwattr $C$DW$229, DW_AT_type(*$C$DW$T$39)
    4087                      .dwattr $C$DW$229, DW_AT_location[DW_OP_reg14]
    4088              
    4089              
    4090              ;***************************************************************
TMS320C2000 Assembler PC v20.2.1 Tue Feb 16 00:15:57 2021

Copyright (c) 1996-2018 Texas Instruments Incorporated
os_core.asm                                                          PAGE   78

    4091              ;* FNAME: _OS_EventTaskRemoveMulti      FR SIZE:  12           *
    4092              ;*                                                             *
    4093              ;* FUNCTION ENVIRONMENT                                        *
    4094              ;*                                                             *
    4095              ;* FUNCTION PROPERTIES                                         *
    4096              ;*                            0 Parameter, 11 Auto,  0 SOE     *
    4097              ;***************************************************************
    4098              
    4099 00000488       _OS_EventTaskRemoveMulti:
    4100                      .dwcfi  cfa_offset, -2
    4101                      .dwcfi  save_reg_to_mem, 26, 0
    4102 00000488 FE0C          ADDB      SP,#12                ; [CPU_ARAU] 
    4103                      .dwcfi  cfa_offset, -14
    4104              $C$DW$230       .dwtag  DW_TAG_variable
    4105                      .dwattr $C$DW$230, DW_AT_name("ptcb")
    4106                      .dwattr $C$DW$230, DW_AT_TI_symbol_name("_ptcb")
    4107                      .dwattr $C$DW$230, DW_AT_type(*$C$DW$T$56)
    4108                      .dwattr $C$DW$230, DW_AT_location[DW_OP_breg20 -2]
    4109              
    4110              $C$DW$231       .dwtag  DW_TAG_variable
    4111                      .dwattr $C$DW$231, DW_AT_name("pevents_multi")
    4112                      .dwattr $C$DW$231, DW_AT_TI_symbol_name("_pevents_multi")
    4113                      .dwattr $C$DW$231, DW_AT_type(*$C$DW$T$39)
    4114                      .dwattr $C$DW$231, DW_AT_location[DW_OP_breg20 -4]
    4115              
    4116              $C$DW$232       .dwtag  DW_TAG_variable
    4117                      .dwattr $C$DW$232, DW_AT_name("pevents")
    4118                      .dwattr $C$DW$232, DW_AT_TI_symbol_name("_pevents")
    4119                      .dwattr $C$DW$232, DW_AT_type(*$C$DW$T$39)
    4120                      .dwattr $C$DW$232, DW_AT_location[DW_OP_breg20 -6]
    4121              
    4122              $C$DW$233       .dwtag  DW_TAG_variable
    4123                      .dwattr $C$DW$233, DW_AT_name("pevent")
    4124                      .dwattr $C$DW$233, DW_AT_TI_symbol_name("_pevent")
    4125                      .dwattr $C$DW$233, DW_AT_type(*$C$DW$T$38)
    4126                      .dwattr $C$DW$233, DW_AT_location[DW_OP_breg20 -8]
    4127              
    4128              $C$DW$234       .dwtag  DW_TAG_variable
    4129                      .dwattr $C$DW$234, DW_AT_name("y")
    4130                      .dwattr $C$DW$234, DW_AT_TI_symbol_name("_y")
    4131                      .dwattr $C$DW$234, DW_AT_type(*$C$DW$T$19)
    4132                      .dwattr $C$DW$234, DW_AT_location[DW_OP_breg20 -9]
    4133              
    4134              $C$DW$235       .dwtag  DW_TAG_variable
    4135                      .dwattr $C$DW$235, DW_AT_name("bity")
    4136                      .dwattr $C$DW$235, DW_AT_TI_symbol_name("_bity")
    4137                      .dwattr $C$DW$235, DW_AT_type(*$C$DW$T$21)
    4138                      .dwattr $C$DW$235, DW_AT_location[DW_OP_breg20 -10]
    4139              
    4140              $C$DW$236       .dwtag  DW_TAG_variable
    4141                      .dwattr $C$DW$236, DW_AT_name("bitx")
    4142                      .dwattr $C$DW$236, DW_AT_TI_symbol_name("_bitx")
    4143                      .dwattr $C$DW$236, DW_AT_type(*$C$DW$T$21)
    4144                      .dwattr $C$DW$236, DW_AT_location[DW_OP_breg20 -11]
    4145              
TMS320C2000 Assembler PC v20.2.1 Tue Feb 16 00:15:57 2021

Copyright (c) 1996-2018 Texas Instruments Incorporated
os_core.asm                                                          PAGE   79

    4146 00000489 A044          MOVL      *-SP[4],XAR5          ; [CPU_ALU] |1241| 
    4147 0000048a A842          MOVL      *-SP[2],XAR4          ; [CPU_ALU] |1241| 
    4148                      .dwpsn  file "C:/ti/Workspace/PLC_certificate/Software/uCOS-II/Source/os_core.c",line 1249,column 5,i
    4149 0000048b 021E          MOVB      ACC,#30               ; [CPU_ALU] |1249| 
    4150 0000048c 0742          ADDL      ACC,*-SP[2]           ; [CPU_ALU] |1249| 
    4151 0000048d 1EA7          MOVL      XAR7,ACC              ; [CPU_ALU] |1249| 
    4152 0000048e 92C7          MOV       AL,*+XAR7[0]          ; [CPU_ALU] |1249| 
    4153 0000048f 9649          MOV       *-SP[9],AL            ; [CPU_ALU] |1249| 
    4154                      .dwpsn  file "C:/ti/Workspace/PLC_certificate/Software/uCOS-II/Source/os_core.c",line 1250,column 5,i
    4155 00000490 0220          MOVB      ACC,#32               ; [CPU_ALU] |1250| 
    4156 00000491 0742          ADDL      ACC,*-SP[2]           ; [CPU_ALU] |1250| 
    4157 00000492 1EA7          MOVL      XAR7,ACC              ; [CPU_ALU] |1250| 
    4158 00000493 92C7          MOV       AL,*+XAR7[0]          ; [CPU_ALU] |1250| 
    4159 00000494 964A          MOV       *-SP[10],AL           ; [CPU_ALU] |1250| 
    4160                      .dwpsn  file "C:/ti/Workspace/PLC_certificate/Software/uCOS-II/Source/os_core.c",line 1251,column 5,i
    4161 00000495 021F          MOVB      ACC,#31               ; [CPU_ALU] |1251| 
    4162 00000496 0742          ADDL      ACC,*-SP[2]           ; [CPU_ALU] |1251| 
    4163 00000497 1EA7          MOVL      XAR7,ACC              ; [CPU_ALU] |1251| 
    4164 00000498 92C7          MOV       AL,*+XAR7[0]          ; [CPU_ALU] |1251| 
    4165 00000499 964B          MOV       *-SP[11],AL           ; [CPU_ALU] |1251| 
    4166                      .dwpsn  file "C:/ti/Workspace/PLC_certificate/Software/uCOS-II/Source/os_core.c",line 1252,column 5,i
    4167 0000049a 0644          MOVL      ACC,*-SP[4]           ; [CPU_ALU] |1252| 
    4168 0000049b 1E46          MOVL      *-SP[6],ACC           ; [CPU_ALU] |1252| 
    4169                      .dwpsn  file "C:/ti/Workspace/PLC_certificate/Software/uCOS-II/Source/os_core.c",line 1253,column 5,i
    4170 0000049c 8A46          MOVL      XAR4,*-SP[6]          ; [CPU_ALU] |1253| 
    4171 0000049d 06C4          MOVL      ACC,*+XAR4[0]         ; [CPU_ALU] |1253| 
    4172 0000049e 1E48          MOVL      *-SP[8],ACC           ; [CPU_ALU] |1253| 
    4173                      .dwpsn  file "C:/ti/Workspace/PLC_certificate/Software/uCOS-II/Source/os_core.c",line 1254,column 12,
    4174 0000049f 0648          MOVL      ACC,*-SP[8]           ; [CPU_ALU] |1254| 
    4175 000004a0 611A          B         $C$L84,EQ             ; [CPU_ALU] |1254| 
    4176                      ; branchcc occurs ; [] |1254| 
    4177 000004a1       $C$L82:    
    4178                      .dwpsn  file "C:/ti/Workspace/PLC_certificate/Software/uCOS-II/Source/os_core.c",line 1255,column 9,i
    4179 000004a1 0E49          MOVU      ACC,*-SP[9]           ; [CPU_ALU] |1255| 
    4180 000004a2 0748          ADDL      ACC,*-SP[8]           ; [CPU_ALU] |1255| 
    4181 000004a3 0906          ADDB      ACC,#6                ; [CPU_ALU] |1255| 
    4182 000004a4 8AA9          MOVL      XAR4,ACC              ; [CPU_ALU] |1255| 
    4183 000004a5 924B          MOV       AL,*-SP[11]           ; [CPU_ALU] |1255| 
    4184 000004a6 FF5E          NOT       AL                    ; [CPU_ALU] |1255| 
    4185 000004a7 C0C4          AND       *+XAR4[0],AL          ; [CPU_ALU] |1255| 
    4186                      .dwpsn  file "C:/ti/Workspace/PLC_certificate/Software/uCOS-II/Source/os_core.c",line 1256,column 9,i
    4187 000004a8 5C49          MOVZ      AR4,*-SP[9]           ; [CPU_ALU] |1256| 
    4188 000004a9 A8A9          MOVL      ACC,XAR4              ; [CPU_ALU] |1256| 
    4189 000004aa 0748          ADDL      ACC,*-SP[8]           ; [CPU_ALU] |1256| 
    4190 000004ab 8AA9          MOVL      XAR4,ACC              ; [CPU_ALU] |1256| 
    4191 000004ac 92F4          MOV       AL,*+XAR4[6]          ; [CPU_ALU] |1256| 
    4192 000004ad 6005          B         $C$L83,NEQ            ; [CPU_ALU] |1256| 
    4193                      ; branchcc occurs ; [] |1256| 
    4194                      .dwpsn  file "C:/ti/Workspace/PLC_certificate/Software/uCOS-II/Source/os_core.c",line 1257,column 13,
    4195 000004ae 8A48          MOVL      XAR4,*-SP[8]          ; [CPU_ALU] |1257| 
    4196 000004af 924A          MOV       AL,*-SP[10]           ; [CPU_ALU] |1257| 
    4197 000004b0 FF5E          NOT       AL                    ; [CPU_ALU] |1257| 
    4198 000004b1 C0EC          AND       *+XAR4[5],AL          ; [CPU_ALU] |1257| 
    4199 000004b2       $C$L83:    
    4200                      .dwpsn  file "C:/ti/Workspace/PLC_certificate/Software/uCOS-II/Source/os_core.c",line 1259,column 9,i
TMS320C2000 Assembler PC v20.2.1 Tue Feb 16 00:15:57 2021

Copyright (c) 1996-2018 Texas Instruments Incorporated
os_core.asm                                                          PAGE   80

    4201 000004b2 0202          MOVB      ACC,#2                ; [CPU_ALU] |1259| 
    4202 000004b3 0746          ADDL      ACC,*-SP[6]           ; [CPU_ALU] |1259| 
    4203 000004b4 1E46          MOVL      *-SP[6],ACC           ; [CPU_ALU] |1259| 
    4204                      .dwpsn  file "C:/ti/Workspace/PLC_certificate/Software/uCOS-II/Source/os_core.c",line 1260,column 9,i
    4205 000004b5 8A46          MOVL      XAR4,*-SP[6]          ; [CPU_ALU] |1260| 
    4206 000004b6 06C4          MOVL      ACC,*+XAR4[0]         ; [CPU_ALU] |1260| 
    4207 000004b7 1E48          MOVL      *-SP[8],ACC           ; [CPU_ALU] |1260| 
    4208                      .dwpsn  file "C:/ti/Workspace/PLC_certificate/Software/uCOS-II/Source/os_core.c",line 1254,column 12,
    4209 000004b8 0648          MOVL      ACC,*-SP[8]           ; [CPU_ALU] |1254| 
    4210 000004b9 60E8          B         $C$L82,NEQ            ; [CPU_ALU] |1254| 
    4211                      ; branchcc occurs ; [] |1254| 
    4212                      .dwpsn  file "C:/ti/Workspace/PLC_certificate/Software/uCOS-II/Source/os_core.c",line 1262,column 1,i
    4213 000004ba       $C$L84:    
    4214 000004ba FE8C          SUBB      SP,#12                ; [CPU_ARAU] 
    4215                      .dwcfi  cfa_offset, -2
    4216              $C$DW$237       .dwtag  DW_TAG_TI_branch
    4217                      .dwattr $C$DW$237, DW_AT_low_pc(0x00)
    4218                      .dwattr $C$DW$237, DW_AT_TI_return
    4219              
    4220 000004bb 0006          LRETR     ; [CPU_ALU] 
    4221                      ; return occurs ; [] 
    4222                      .dwattr $C$DW$227, DW_AT_TI_end_file("C:/ti/Workspace/PLC_certificate/Software/uCOS-II/Source/os_core
    4223                      .dwattr $C$DW$227, DW_AT_TI_end_line(0x4ee)
    4224                      .dwattr $C$DW$227, DW_AT_TI_end_column(0x01)
    4225                      .dwendentry
    4226                      .dwendtag $C$DW$227
    4227              
    4228 000004bc               .sect   ".text"
    4229                      .clink
    4230                      .global _OS_EventWaitListInit
    4231              
    4232              $C$DW$238       .dwtag  DW_TAG_subprogram
    4233                      .dwattr $C$DW$238, DW_AT_name("OS_EventWaitListInit")
    4234                      .dwattr $C$DW$238, DW_AT_low_pc(_OS_EventWaitListInit)
    4235                      .dwattr $C$DW$238, DW_AT_high_pc(0x00)
    4236                      .dwattr $C$DW$238, DW_AT_TI_symbol_name("_OS_EventWaitListInit")
    4237                      .dwattr $C$DW$238, DW_AT_external
    4238                      .dwattr $C$DW$238, DW_AT_TI_begin_file("C:/ti/Workspace/PLC_certificate/Software/uCOS-II/Source/os_co
    4239                      .dwattr $C$DW$238, DW_AT_TI_begin_line(0x4ff)
    4240                      .dwattr $C$DW$238, DW_AT_TI_begin_column(0x07)
    4241                      .dwattr $C$DW$238, DW_AT_TI_max_frame_size(-6)
    4242                      .dwpsn  file "C:/ti/Workspace/PLC_certificate/Software/uCOS-II/Source/os_core.c",line 1280,column 1,i
    4243              
    4244                      .dwfde $C$DW$CIE, _OS_EventWaitListInit
    4245              $C$DW$239       .dwtag  DW_TAG_formal_parameter
    4246                      .dwattr $C$DW$239, DW_AT_name("pevent")
    4247                      .dwattr $C$DW$239, DW_AT_TI_symbol_name("_pevent")
    4248                      .dwattr $C$DW$239, DW_AT_type(*$C$DW$T$38)
    4249                      .dwattr $C$DW$239, DW_AT_location[DW_OP_reg12]
    4250              
    4251              
    4252              ;***************************************************************
    4253              ;* FNAME: _OS_EventWaitListInit         FR SIZE:   4           *
    4254              ;*                                                             *
    4255              ;* FUNCTION ENVIRONMENT                                        *
TMS320C2000 Assembler PC v20.2.1 Tue Feb 16 00:15:57 2021

Copyright (c) 1996-2018 Texas Instruments Incorporated
os_core.asm                                                          PAGE   81

    4256              ;*                                                             *
    4257              ;* FUNCTION PROPERTIES                                         *
    4258              ;*                            0 Parameter,  3 Auto,  0 SOE     *
    4259              ;***************************************************************
    4260              
    4261 000004bc       _OS_EventWaitListInit:
    4262                      .dwcfi  cfa_offset, -2
    4263                      .dwcfi  save_reg_to_mem, 26, 0
    4264 000004bc FE04          ADDB      SP,#4                 ; [CPU_ARAU] 
    4265                      .dwcfi  cfa_offset, -6
    4266              $C$DW$240       .dwtag  DW_TAG_variable
    4267                      .dwattr $C$DW$240, DW_AT_name("pevent")
    4268                      .dwattr $C$DW$240, DW_AT_TI_symbol_name("_pevent")
    4269                      .dwattr $C$DW$240, DW_AT_type(*$C$DW$T$38)
    4270                      .dwattr $C$DW$240, DW_AT_location[DW_OP_breg20 -2]
    4271              
    4272              $C$DW$241       .dwtag  DW_TAG_variable
    4273                      .dwattr $C$DW$241, DW_AT_name("i")
    4274                      .dwattr $C$DW$241, DW_AT_TI_symbol_name("_i")
    4275                      .dwattr $C$DW$241, DW_AT_type(*$C$DW$T$19)
    4276                      .dwattr $C$DW$241, DW_AT_location[DW_OP_breg20 -3]
    4277              
    4278 000004bd A842          MOVL      *-SP[2],XAR4          ; [CPU_ALU] |1280| 
    4279                      .dwpsn  file "C:/ti/Workspace/PLC_certificate/Software/uCOS-II/Source/os_core.c",line 1284,column 5,i
    4280 000004be 2BEC          MOV       *+XAR4[5],#0          ; [CPU_ALU] |1284| 
    4281                      .dwpsn  file "C:/ti/Workspace/PLC_certificate/Software/uCOS-II/Source/os_core.c",line 1285,column 10,
    4282 000004bf 2B43          MOV       *-SP[3],#0            ; [CPU_ALU] |1285| 
    4283                      .dwpsn  file "C:/ti/Workspace/PLC_certificate/Software/uCOS-II/Source/os_core.c",line 1285,column 18,
    4284 000004c0 9243          MOV       AL,*-SP[3]            ; [CPU_ALU] |1285| 
    4285 000004c1 5208          CMPB      AL,#8                 ; [CPU_ALU] |1285| 
    4286 000004c2 670A          B         $C$L86,HIS            ; [CPU_ALU] |1285| 
    4287                      ; branchcc occurs ; [] |1285| 
    4288 000004c3       $C$L85:    
    4289                      .dwpsn  file "C:/ti/Workspace/PLC_certificate/Software/uCOS-II/Source/os_core.c",line 1286,column 9,i
    4290 000004c3 5C43          MOVZ      AR4,*-SP[3]           ; [CPU_ALU] |1286| 
    4291 000004c4 A8A9          MOVL      ACC,XAR4              ; [CPU_ALU] |1286| 
    4292 000004c5 0742          ADDL      ACC,*-SP[2]           ; [CPU_ALU] |1286| 
    4293 000004c6 8AA9          MOVL      XAR4,ACC              ; [CPU_ALU] |1286| 
    4294 000004c7 2BF4          MOV       *+XAR4[6],#0          ; [CPU_ALU] |1286| 
    4295                      .dwpsn  file "C:/ti/Workspace/PLC_certificate/Software/uCOS-II/Source/os_core.c",line 1285,column 41,
    4296 000004c8 0A43          INC       *-SP[3]               ; [CPU_ALU] |1285| 
    4297                      .dwpsn  file "C:/ti/Workspace/PLC_certificate/Software/uCOS-II/Source/os_core.c",line 1285,column 18,
    4298 000004c9 9243          MOV       AL,*-SP[3]            ; [CPU_ALU] |1285| 
    4299 000004ca 5208          CMPB      AL,#8                 ; [CPU_ALU] |1285| 
    4300 000004cb 68F8          B         $C$L85,LO             ; [CPU_ALU] |1285| 
    4301                      ; branchcc occurs ; [] |1285| 
    4302                      .dwpsn  file "C:/ti/Workspace/PLC_certificate/Software/uCOS-II/Source/os_core.c",line 1288,column 1,i
    4303 000004cc       $C$L86:    
    4304 000004cc FE84          SUBB      SP,#4                 ; [CPU_ARAU] 
    4305                      .dwcfi  cfa_offset, -2
    4306              $C$DW$242       .dwtag  DW_TAG_TI_branch
    4307                      .dwattr $C$DW$242, DW_AT_low_pc(0x00)
    4308                      .dwattr $C$DW$242, DW_AT_TI_return
    4309              
    4310 000004cd 0006          LRETR     ; [CPU_ALU] 
TMS320C2000 Assembler PC v20.2.1 Tue Feb 16 00:15:57 2021

Copyright (c) 1996-2018 Texas Instruments Incorporated
os_core.asm                                                          PAGE   82

    4311                      ; return occurs ; [] 
    4312                      .dwattr $C$DW$238, DW_AT_TI_end_file("C:/ti/Workspace/PLC_certificate/Software/uCOS-II/Source/os_core
    4313                      .dwattr $C$DW$238, DW_AT_TI_end_line(0x508)
    4314                      .dwattr $C$DW$238, DW_AT_TI_end_column(0x01)
    4315                      .dwendentry
    4316                      .dwendtag $C$DW$238
    4317              
    4318 000004ce               .sect   ".text"
    4319                      .clink
    4320              
    4321              $C$DW$243       .dwtag  DW_TAG_subprogram
    4322                      .dwattr $C$DW$243, DW_AT_name("OS_InitEventList")
    4323                      .dwattr $C$DW$243, DW_AT_low_pc(_OS_InitEventList)
    4324                      .dwattr $C$DW$243, DW_AT_high_pc(0x00)
    4325                      .dwattr $C$DW$243, DW_AT_TI_symbol_name("_OS_InitEventList")
    4326                      .dwattr $C$DW$243, DW_AT_TI_begin_file("C:/ti/Workspace/PLC_certificate/Software/uCOS-II/Source/os_co
    4327                      .dwattr $C$DW$243, DW_AT_TI_begin_line(0x518)
    4328                      .dwattr $C$DW$243, DW_AT_TI_begin_column(0x0f)
    4329                      .dwattr $C$DW$243, DW_AT_TI_max_frame_size(-8)
    4330                      .dwpsn  file "C:/ti/Workspace/PLC_certificate/Software/uCOS-II/Source/os_core.c",line 1305,column 1,i
    4331              
    4332                      .dwfde $C$DW$CIE, _OS_InitEventList
    4333              
    4334              ;***************************************************************
    4335              ;* FNAME: _OS_InitEventList             FR SIZE:   6           *
    4336              ;*                                                             *
    4337              ;* FUNCTION ENVIRONMENT                                        *
    4338              ;*                                                             *
    4339              ;* FUNCTION PROPERTIES                                         *
    4340              ;*                            0 Parameter,  6 Auto,  0 SOE     *
    4341              ;***************************************************************
    4342              
    4343 000004ce       _OS_InitEventList:
    4344                      .dwcfi  cfa_offset, -2
    4345                      .dwcfi  save_reg_to_mem, 26, 0
    4346 000004ce FE06          ADDB      SP,#6                 ; [CPU_ARAU] 
    4347                      .dwcfi  cfa_offset, -8
    4348              $C$DW$244       .dwtag  DW_TAG_variable
    4349                      .dwattr $C$DW$244, DW_AT_name("pevent1")
    4350                      .dwattr $C$DW$244, DW_AT_TI_symbol_name("_pevent1")
    4351                      .dwattr $C$DW$244, DW_AT_type(*$C$DW$T$38)
    4352                      .dwattr $C$DW$244, DW_AT_location[DW_OP_breg20 -2]
    4353              
    4354              $C$DW$245       .dwtag  DW_TAG_variable
    4355                      .dwattr $C$DW$245, DW_AT_name("pevent2")
    4356                      .dwattr $C$DW$245, DW_AT_TI_symbol_name("_pevent2")
    4357                      .dwattr $C$DW$245, DW_AT_type(*$C$DW$T$38)
    4358                      .dwattr $C$DW$245, DW_AT_location[DW_OP_breg20 -4]
    4359              
    4360              $C$DW$246       .dwtag  DW_TAG_variable
    4361                      .dwattr $C$DW$246, DW_AT_name("ix")
    4362                      .dwattr $C$DW$246, DW_AT_TI_symbol_name("_ix")
    4363                      .dwattr $C$DW$246, DW_AT_type(*$C$DW$T$20)
    4364                      .dwattr $C$DW$246, DW_AT_location[DW_OP_breg20 -5]
    4365              
TMS320C2000 Assembler PC v20.2.1 Tue Feb 16 00:15:57 2021

Copyright (c) 1996-2018 Texas Instruments Incorporated
os_core.asm                                                          PAGE   83

    4366              $C$DW$247       .dwtag  DW_TAG_variable
    4367                      .dwattr $C$DW$247, DW_AT_name("ix_next")
    4368                      .dwattr $C$DW$247, DW_AT_TI_symbol_name("_ix_next")
    4369                      .dwattr $C$DW$247, DW_AT_type(*$C$DW$T$20)
    4370                      .dwattr $C$DW$247, DW_AT_location[DW_OP_breg20 -6]
    4371              
    4372                      .dwpsn  file "C:/ti/Workspace/PLC_certificate/Software/uCOS-II/Source/os_core.c",line 1314,column 5,i
    4373 000004cf 8F00-         MOVL      XAR4,#_OSEventTbl     ; [CPU_ARAU] |1314| 
         000004d0 0000 
    4374 000004d1 9AA0          MOVB      AL,#160               ; [CPU_ALU] |1314| 
    4375              $C$DW$248       .dwtag  DW_TAG_TI_branch
    4376                      .dwattr $C$DW$248, DW_AT_low_pc(0x00)
    4377                      .dwattr $C$DW$248, DW_AT_name("_OS_MemClr")
    4378                      .dwattr $C$DW$248, DW_AT_TI_call
    4379              
    4380 000004d2 7640'         LCR       #_OS_MemClr           ; [CPU_ALU] |1314| 
         000004d3 05C6 
    4381                      ; call occurs [#_OS_MemClr] ; [] |1314| 
    4382                      .dwpsn  file "C:/ti/Workspace/PLC_certificate/Software/uCOS-II/Source/os_core.c",line 1315,column 10,
    4383 000004d4 2B45          MOV       *-SP[5],#0            ; [CPU_ALU] |1315| 
    4384                      .dwpsn  file "C:/ti/Workspace/PLC_certificate/Software/uCOS-II/Source/os_core.c",line 1315,column 19,
    4385 000004d5 9245          MOV       AL,*-SP[5]            ; [CPU_ALU] |1315| 
    4386 000004d6 5209          CMPB      AL,#9                 ; [CPU_ALU] |1315| 
    4387 000004d7 6721          B         $C$L88,HIS            ; [CPU_ALU] |1315| 
    4388                      ; branchcc occurs ; [] |1315| 
    4389 000004d8 2901          CLRC      SXM                   ; [CPU_ALU] 
    4390 000004d9       $C$L87:    
    4391                      .dwpsn  file "C:/ti/Workspace/PLC_certificate/Software/uCOS-II/Source/os_core.c",line 1316,column 9,i
    4392 000004d9 9C01          ADDB      AL,#1                 ; [CPU_ALU] |1316| 
    4393 000004da 9646          MOV       *-SP[6],AL            ; [CPU_ALU] |1316| 
    4394                      .dwpsn  file "C:/ti/Workspace/PLC_certificate/Software/uCOS-II/Source/os_core.c",line 1317,column 9,i
    4395 000004db 8F00-         MOVL      XAR4,#_OSEventTbl     ; [CPU_ARAU] |1317| 
         000004dc 0000 
    4396 000004dd 5603          MOV       ACC,*-SP[5] << 4      ; [CPU_ALU] |1317| 
         000004de 0445 
    4397 000004df 5601          ADDL      XAR4,ACC              ; [CPU_ALU] |1317| 
         000004e0 00A4 
    4398 000004e1 A842          MOVL      *-SP[2],XAR4          ; [CPU_ALU] |1317| 
    4399                      .dwpsn  file "C:/ti/Workspace/PLC_certificate/Software/uCOS-II/Source/os_core.c",line 1318,column 9,i
    4400 000004e2 5603          MOV       ACC,*-SP[6] << 4      ; [CPU_ALU] |1318| 
         000004e3 0446 
    4401 000004e4 8F00-         MOVL      XAR4,#_OSEventTbl     ; [CPU_ARAU] |1318| 
         000004e5 0000 
    4402 000004e6 5601          ADDL      XAR4,ACC              ; [CPU_ALU] |1318| 
         000004e7 00A4 
    4403 000004e8 A844          MOVL      *-SP[4],XAR4          ; [CPU_ALU] |1318| 
    4404                      .dwpsn  file "C:/ti/Workspace/PLC_certificate/Software/uCOS-II/Source/os_core.c",line 1319,column 9,i
    4405 000004e9 8A42          MOVL      XAR4,*-SP[2]          ; [CPU_ALU] |1319| 
    4406 000004ea 2BC4          MOV       *+XAR4[0],#0          ; [CPU_ALU] |1319| 
    4407                      .dwpsn  file "C:/ti/Workspace/PLC_certificate/Software/uCOS-II/Source/os_core.c",line 1320,column 9,i
    4408 000004eb 8A42          MOVL      XAR4,*-SP[2]          ; [CPU_ALU] |1320| 
    4409 000004ec 0644          MOVL      ACC,*-SP[4]           ; [CPU_ALU] |1320| 
    4410 000004ed 1ED4          MOVL      *+XAR4[2],ACC         ; [CPU_ALU] |1320| 
    4411                      .dwpsn  file "C:/ti/Workspace/PLC_certificate/Software/uCOS-II/Source/os_core.c",line 1322,column 9,i
    4412 000004ee 020E          MOVB      ACC,#14               ; [CPU_ALU] |1322| 
TMS320C2000 Assembler PC v20.2.1 Tue Feb 16 00:15:57 2021

Copyright (c) 1996-2018 Texas Instruments Incorporated
os_core.asm                                                          PAGE   84

    4413 000004ef 0742          ADDL      ACC,*-SP[2]           ; [CPU_ALU] |1322| 
    4414 000004f0 8AA9          MOVL      XAR4,ACC              ; [CPU_ALU] |1322| 
    4415 000004f1 8F40+         MOVL      XAR5,#$C$FSL1         ; [CPU_ARAU] |1322| 
         000004f2 0000 
    4416 000004f3 A0C4          MOVL      *+XAR4[0],XAR5        ; [CPU_ALU] |1322| 
    4417                      .dwpsn  file "C:/ti/Workspace/PLC_certificate/Software/uCOS-II/Source/os_core.c",line 1315,column 46,
    4418 000004f4 0A45          INC       *-SP[5]               ; [CPU_ALU] |1315| 
    4419                      .dwpsn  file "C:/ti/Workspace/PLC_certificate/Software/uCOS-II/Source/os_core.c",line 1315,column 19,
    4420 000004f5 9245          MOV       AL,*-SP[5]            ; [CPU_ALU] |1315| 
    4421 000004f6 5209          CMPB      AL,#9                 ; [CPU_ALU] |1315| 
    4422 000004f7 68E2          B         $C$L87,LO             ; [CPU_ALU] |1315| 
    4423                      ; branchcc occurs ; [] |1315| 
    4424 000004f8       $C$L88:    
    4425                      .dwpsn  file "C:/ti/Workspace/PLC_certificate/Software/uCOS-II/Source/os_core.c",line 1325,column 5,i
    4426 000004f8 2901          CLRC      SXM                   ; [CPU_ALU] 
    4427 000004f9 8F00-         MOVL      XAR4,#_OSEventTbl     ; [CPU_ARAU] |1325| 
         000004fa 0000 
    4428 000004fb 5603          MOV       ACC,*-SP[5] << 4      ; [CPU_ALU] |1325| 
         000004fc 0445 
    4429 000004fd 5601          ADDL      XAR4,ACC              ; [CPU_ALU] |1325| 
         000004fe 00A4 
    4430 000004ff A842          MOVL      *-SP[2],XAR4          ; [CPU_ALU] |1325| 
    4431                      .dwpsn  file "C:/ti/Workspace/PLC_certificate/Software/uCOS-II/Source/os_core.c",line 1326,column 5,i
    4432 00000500 2BC4          MOV       *+XAR4[0],#0          ; [CPU_ALU] |1326| 
    4433                      .dwpsn  file "C:/ti/Workspace/PLC_certificate/Software/uCOS-II/Source/os_core.c",line 1327,column 5,i
    4434 00000501 8A42          MOVL      XAR4,*-SP[2]          ; [CPU_ALU] |1327| 
    4435 00000502 0200          MOVB      ACC,#0                ; [CPU_ALU] |1327| 
    4436 00000503 1ED4          MOVL      *+XAR4[2],ACC         ; [CPU_ALU] |1327| 
    4437                      .dwpsn  file "C:/ti/Workspace/PLC_certificate/Software/uCOS-II/Source/os_core.c",line 1329,column 5,i
    4438 00000504 020E          MOVB      ACC,#14               ; [CPU_ALU] |1329| 
    4439 00000505 0742          ADDL      ACC,*-SP[2]           ; [CPU_ALU] |1329| 
    4440 00000506 8AA9          MOVL      XAR4,ACC              ; [CPU_ALU] |1329| 
    4441 00000507 8F40+         MOVL      XAR5,#$C$FSL1         ; [CPU_ARAU] |1329| 
         00000508 0000 
    4442 00000509 A0C4          MOVL      *+XAR4[0],XAR5        ; [CPU_ALU] |1329| 
    4443                      .dwpsn  file "C:/ti/Workspace/PLC_certificate/Software/uCOS-II/Source/os_core.c",line 1331,column 5,i
    4444 0000050a 761F-         MOVW      DP,#_OSEventFreeList  ; [CPU_ARAU] 
         0000050b 0000 
    4445 0000050c 8F00-         MOVL      XAR4,#_OSEventTbl     ; [CPU_ARAU] |1331| 
         0000050d 0000 
    4446 0000050e A80E-         MOVL      @_OSEventFreeList,XAR4 ; [CPU_ALU] |1331| 
    4447                      .dwpsn  file "C:/ti/Workspace/PLC_certificate/Software/uCOS-II/Source/os_core.c",line 1341,column 1,i
    4448 0000050f FE86          SUBB      SP,#6                 ; [CPU_ARAU] 
    4449                      .dwcfi  cfa_offset, -2
    4450              $C$DW$249       .dwtag  DW_TAG_TI_branch
    4451                      .dwattr $C$DW$249, DW_AT_low_pc(0x00)
    4452                      .dwattr $C$DW$249, DW_AT_TI_return
    4453              
    4454 00000510 0006          LRETR     ; [CPU_ALU] 
    4455                      ; return occurs ; [] 
    4456                      .dwattr $C$DW$243, DW_AT_TI_end_file("C:/ti/Workspace/PLC_certificate/Software/uCOS-II/Source/os_core
    4457                      .dwattr $C$DW$243, DW_AT_TI_end_line(0x53d)
    4458                      .dwattr $C$DW$243, DW_AT_TI_end_column(0x01)
    4459                      .dwendentry
    4460                      .dwendtag $C$DW$243
TMS320C2000 Assembler PC v20.2.1 Tue Feb 16 00:15:57 2021

Copyright (c) 1996-2018 Texas Instruments Incorporated
os_core.asm                                                          PAGE   85

    4461              
    4462 00000511               .sect   ".text"
    4463                      .clink
    4464              
    4465              $C$DW$250       .dwtag  DW_TAG_subprogram
    4466                      .dwattr $C$DW$250, DW_AT_name("OS_InitMisc")
    4467                      .dwattr $C$DW$250, DW_AT_low_pc(_OS_InitMisc)
    4468                      .dwattr $C$DW$250, DW_AT_high_pc(0x00)
    4469                      .dwattr $C$DW$250, DW_AT_TI_symbol_name("_OS_InitMisc")
    4470                      .dwattr $C$DW$250, DW_AT_TI_begin_file("C:/ti/Workspace/PLC_certificate/Software/uCOS-II/Source/os_co
    4471                      .dwattr $C$DW$250, DW_AT_TI_begin_line(0x54c)
    4472                      .dwattr $C$DW$250, DW_AT_TI_begin_column(0x0f)
    4473                      .dwattr $C$DW$250, DW_AT_TI_max_frame_size(-2)
    4474                      .dwpsn  file "C:/ti/Workspace/PLC_certificate/Software/uCOS-II/Source/os_core.c",line 1357,column 1,i
    4475              
    4476                      .dwfde $C$DW$CIE, _OS_InitMisc
    4477              
    4478              ;***************************************************************
    4479              ;* FNAME: _OS_InitMisc                  FR SIZE:   0           *
    4480              ;*                                                             *
    4481              ;* FUNCTION ENVIRONMENT                                        *
    4482              ;*                                                             *
    4483              ;* FUNCTION PROPERTIES                                         *
    4484              ;*                            0 Parameter,  0 Auto,  0 SOE     *
    4485              ;***************************************************************
    4486              
    4487 00000511       _OS_InitMisc:
    4488                      .dwcfi  cfa_offset, -2
    4489                      .dwcfi  save_reg_to_mem, 26, 0
    4490                      .dwpsn  file "C:/ti/Workspace/PLC_certificate/Software/uCOS-II/Source/os_core.c",line 1359,column 5,i
    4491 00000511 0200          MOVB      ACC,#0                ; [CPU_ALU] |1359| 
    4492 00000512 761F-         MOVW      DP,#_OSTime           ; [CPU_ARAU] 
         00000513 0000 
    4493 00000514 1E24-         MOVL      @_OSTime,ACC          ; [CPU_ALU] |1359| 
    4494                      .dwpsn  file "C:/ti/Workspace/PLC_certificate/Software/uCOS-II/Source/os_core.c",line 1362,column 5,i
    4495 00000515 2B02-         MOV       @_OSIntNesting,#0     ; [CPU_ALU] |1362| 
    4496                      .dwpsn  file "C:/ti/Workspace/PLC_certificate/Software/uCOS-II/Source/os_core.c",line 1363,column 5,i
    4497 00000516 2B03-         MOV       @_OSLockNesting,#0    ; [CPU_ALU] |1363| 
    4498                      .dwpsn  file "C:/ti/Workspace/PLC_certificate/Software/uCOS-II/Source/os_core.c",line 1365,column 5,i
    4499 00000517 2B08-         MOV       @_OSTaskCtr,#0        ; [CPU_ALU] |1365| 
    4500                      .dwpsn  file "C:/ti/Workspace/PLC_certificate/Software/uCOS-II/Source/os_core.c",line 1367,column 5,i
    4501 00000518 2B07-         MOV       @_OSRunning,#0        ; [CPU_ALU] |1367| 
    4502                      .dwpsn  file "C:/ti/Workspace/PLC_certificate/Software/uCOS-II/Source/os_core.c",line 1369,column 5,i
    4503 00000519 1E0C-         MOVL      @_OSCtxSwCtr,ACC      ; [CPU_ALU] |1369| 
    4504                      .dwpsn  file "C:/ti/Workspace/PLC_certificate/Software/uCOS-II/Source/os_core.c",line 1370,column 5,i
    4505 0000051a 1E16-         MOVL      @_OSIdleCtr,ACC       ; [CPU_ALU] |1370| 
    4506                      .dwpsn  file "C:/ti/Workspace/PLC_certificate/Software/uCOS-II/Source/os_core.c",line 1373,column 5,i
    4507 0000051b 1E14-         MOVL      @_OSIdleCtrRun,ACC    ; [CPU_ALU] |1373| 
    4508                      .dwpsn  file "C:/ti/Workspace/PLC_certificate/Software/uCOS-II/Source/os_core.c",line 1374,column 5,i
    4509 0000051c 1E12-         MOVL      @_OSIdleCtrMax,ACC    ; [CPU_ALU] |1374| 
    4510                      .dwpsn  file "C:/ti/Workspace/PLC_certificate/Software/uCOS-II/Source/os_core.c",line 1375,column 5,i
    4511 0000051d 2B01-         MOV       @_OSStatRdy,#0        ; [CPU_ALU] |1375| 
    4512                      .dwpsn  file "C:/ti/Workspace/PLC_certificate/Software/uCOS-II/Source/os_core.c",line 1383,column 5,i
    4513 0000051e 2B0A-         MOV       @_OSTaskRegNextAvailID,#0 ; [CPU_ALU] |1383| 
    4514                      .dwpsn  file "C:/ti/Workspace/PLC_certificate/Software/uCOS-II/Source/os_core.c",line 1385,column 1,i
TMS320C2000 Assembler PC v20.2.1 Tue Feb 16 00:15:57 2021

Copyright (c) 1996-2018 Texas Instruments Incorporated
os_core.asm                                                          PAGE   86

    4515              $C$DW$251       .dwtag  DW_TAG_TI_branch
    4516                      .dwattr $C$DW$251, DW_AT_low_pc(0x00)
    4517                      .dwattr $C$DW$251, DW_AT_TI_return
    4518              
    4519 0000051f 0006          LRETR     ; [CPU_ALU] 
    4520                      ; return occurs ; [] 
    4521                      .dwattr $C$DW$250, DW_AT_TI_end_file("C:/ti/Workspace/PLC_certificate/Software/uCOS-II/Source/os_core
    4522                      .dwattr $C$DW$250, DW_AT_TI_end_line(0x569)
    4523                      .dwattr $C$DW$250, DW_AT_TI_end_column(0x01)
    4524                      .dwendentry
    4525                      .dwendtag $C$DW$250
    4526              
    4527 00000520               .sect   ".text"
    4528                      .clink
    4529              
    4530              $C$DW$252       .dwtag  DW_TAG_subprogram
    4531                      .dwattr $C$DW$252, DW_AT_name("OS_InitRdyList")
    4532                      .dwattr $C$DW$252, DW_AT_low_pc(_OS_InitRdyList)
    4533                      .dwattr $C$DW$252, DW_AT_high_pc(0x00)
    4534                      .dwattr $C$DW$252, DW_AT_TI_symbol_name("_OS_InitRdyList")
    4535                      .dwattr $C$DW$252, DW_AT_TI_begin_file("C:/ti/Workspace/PLC_certificate/Software/uCOS-II/Source/os_co
    4536                      .dwattr $C$DW$252, DW_AT_TI_begin_line(0x578)
    4537                      .dwattr $C$DW$252, DW_AT_TI_begin_column(0x0f)
    4538                      .dwattr $C$DW$252, DW_AT_TI_max_frame_size(-4)
    4539                      .dwpsn  file "C:/ti/Workspace/PLC_certificate/Software/uCOS-II/Source/os_core.c",line 1401,column 1,i
    4540              
    4541                      .dwfde $C$DW$CIE, _OS_InitRdyList
    4542              
    4543              ;***************************************************************
    4544              ;* FNAME: _OS_InitRdyList               FR SIZE:   2           *
    4545              ;*                                                             *
    4546              ;* FUNCTION ENVIRONMENT                                        *
    4547              ;*                                                             *
    4548              ;* FUNCTION PROPERTIES                                         *
    4549              ;*                            0 Parameter,  1 Auto,  0 SOE     *
    4550              ;***************************************************************
    4551              
    4552 00000520       _OS_InitRdyList:
    4553                      .dwcfi  cfa_offset, -2
    4554                      .dwcfi  save_reg_to_mem, 26, 0
    4555 00000520 FE02          ADDB      SP,#2                 ; [CPU_ARAU] 
    4556                      .dwcfi  cfa_offset, -4
    4557              $C$DW$253       .dwtag  DW_TAG_variable
    4558                      .dwattr $C$DW$253, DW_AT_name("i")
    4559                      .dwattr $C$DW$253, DW_AT_TI_symbol_name("_i")
    4560                      .dwattr $C$DW$253, DW_AT_type(*$C$DW$T$19)
    4561                      .dwattr $C$DW$253, DW_AT_location[DW_OP_breg20 -1]
    4562              
    4563                      .dwpsn  file "C:/ti/Workspace/PLC_certificate/Software/uCOS-II/Source/os_core.c",line 1405,column 5,i
    4564 00000521 761F-         MOVW      DP,#_OSRdyGrp         ; [CPU_ARAU] 
         00000522 0000 
    4565 00000523 2B06-         MOV       @_OSRdyGrp,#0         ; [CPU_ALU] |1405| 
    4566                      .dwpsn  file "C:/ti/Workspace/PLC_certificate/Software/uCOS-II/Source/os_core.c",line 1406,column 10,
    4567 00000524 2B41          MOV       *-SP[1],#0            ; [CPU_ALU] |1406| 
    4568                      .dwpsn  file "C:/ti/Workspace/PLC_certificate/Software/uCOS-II/Source/os_core.c",line 1406,column 18,
TMS320C2000 Assembler PC v20.2.1 Tue Feb 16 00:15:57 2021

Copyright (c) 1996-2018 Texas Instruments Incorporated
os_core.asm                                                          PAGE   87

    4569 00000525 9241          MOV       AL,*-SP[1]            ; [CPU_ALU] |1406| 
    4570 00000526 5208          CMPB      AL,#8                 ; [CPU_ALU] |1406| 
    4571 00000527 6709          B         $C$L90,HIS            ; [CPU_ALU] |1406| 
    4572                      ; branchcc occurs ; [] |1406| 
    4573 00000528 8F00-         MOVL      XAR4,#_OSRdyTbl       ; [CPU_ARAU] |1407| 
         00000529 0000 
    4574 0000052a       $C$L89:    
    4575                      .dwpsn  file "C:/ti/Workspace/PLC_certificate/Software/uCOS-II/Source/os_core.c",line 1407,column 9,i
    4576 0000052a 5841          MOVZ      AR0,*-SP[1]           ; [CPU_ALU] |1407| 
    4577 0000052b 2B94          MOV       *+XAR4[AR0],#0        ; [CPU_ALU] |1407| 
    4578                      .dwpsn  file "C:/ti/Workspace/PLC_certificate/Software/uCOS-II/Source/os_core.c",line 1406,column 39,
    4579 0000052c 0A41          INC       *-SP[1]               ; [CPU_ALU] |1406| 
    4580                      .dwpsn  file "C:/ti/Workspace/PLC_certificate/Software/uCOS-II/Source/os_core.c",line 1406,column 18,
    4581 0000052d 9241          MOV       AL,*-SP[1]            ; [CPU_ALU] |1406| 
    4582 0000052e 5208          CMPB      AL,#8                 ; [CPU_ALU] |1406| 
    4583 0000052f 68FB          B         $C$L89,LO             ; [CPU_ALU] |1406| 
    4584                      ; branchcc occurs ; [] |1406| 
    4585 00000530       $C$L90:    
    4586                      .dwpsn  file "C:/ti/Workspace/PLC_certificate/Software/uCOS-II/Source/os_core.c",line 1410,column 5,i
    4587 00000530 761F-         MOVW      DP,#_OSPrioCur        ; [CPU_ARAU] 
         00000531 0000 
    4588 00000532 2B04-         MOV       @_OSPrioCur,#0        ; [CPU_ALU] |1410| 
    4589                      .dwpsn  file "C:/ti/Workspace/PLC_certificate/Software/uCOS-II/Source/os_core.c",line 1411,column 5,i
    4590 00000533 2B05-         MOV       @_OSPrioHighRdy,#0    ; [CPU_ALU] |1411| 
    4591                      .dwpsn  file "C:/ti/Workspace/PLC_certificate/Software/uCOS-II/Source/os_core.c",line 1413,column 5,i
    4592 00000534 0200          MOVB      ACC,#0                ; [CPU_ALU] |1413| 
    4593 00000535 1E1C-         MOVL      @_OSTCBHighRdy,ACC    ; [CPU_ALU] |1413| 
    4594                      .dwpsn  file "C:/ti/Workspace/PLC_certificate/Software/uCOS-II/Source/os_core.c",line 1414,column 5,i
    4595 00000536 1E18-         MOVL      @_OSTCBCur,ACC        ; [CPU_ALU] |1414| 
    4596                      .dwpsn  file "C:/ti/Workspace/PLC_certificate/Software/uCOS-II/Source/os_core.c",line 1415,column 1,i
    4597 00000537 FE82          SUBB      SP,#2                 ; [CPU_ARAU] 
    4598                      .dwcfi  cfa_offset, -2
    4599              $C$DW$254       .dwtag  DW_TAG_TI_branch
    4600                      .dwattr $C$DW$254, DW_AT_low_pc(0x00)
    4601                      .dwattr $C$DW$254, DW_AT_TI_return
    4602              
    4603 00000538 0006          LRETR     ; [CPU_ALU] 
    4604                      ; return occurs ; [] 
    4605                      .dwattr $C$DW$252, DW_AT_TI_end_file("C:/ti/Workspace/PLC_certificate/Software/uCOS-II/Source/os_core
    4606                      .dwattr $C$DW$252, DW_AT_TI_end_line(0x587)
    4607                      .dwattr $C$DW$252, DW_AT_TI_end_column(0x01)
    4608                      .dwendentry
    4609                      .dwendtag $C$DW$252
    4610              
    4611 00000539               .sect   ".text"
    4612                      .clink
    4613              
    4614              $C$DW$255       .dwtag  DW_TAG_subprogram
    4615                      .dwattr $C$DW$255, DW_AT_name("OS_InitTaskIdle")
    4616                      .dwattr $C$DW$255, DW_AT_low_pc(_OS_InitTaskIdle)
    4617                      .dwattr $C$DW$255, DW_AT_high_pc(0x00)
    4618                      .dwattr $C$DW$255, DW_AT_TI_symbol_name("_OS_InitTaskIdle")
    4619                      .dwattr $C$DW$255, DW_AT_TI_begin_file("C:/ti/Workspace/PLC_certificate/Software/uCOS-II/Source/os_co
    4620                      .dwattr $C$DW$255, DW_AT_TI_begin_line(0x597)
    4621                      .dwattr $C$DW$255, DW_AT_TI_begin_column(0x0f)
TMS320C2000 Assembler PC v20.2.1 Tue Feb 16 00:15:57 2021

Copyright (c) 1996-2018 Texas Instruments Incorporated
os_core.asm                                                          PAGE   88

    4622                      .dwattr $C$DW$255, DW_AT_TI_max_frame_size(-12)
    4623                      .dwpsn  file "C:/ti/Workspace/PLC_certificate/Software/uCOS-II/Source/os_core.c",line 1432,column 1,i
    4624              
    4625                      .dwfde $C$DW$CIE, _OS_InitTaskIdle
    4626              
    4627              ;***************************************************************
    4628              ;* FNAME: _OS_InitTaskIdle              FR SIZE:  10           *
    4629              ;*                                                             *
    4630              ;* FUNCTION ENVIRONMENT                                        *
    4631              ;*                                                             *
    4632              ;* FUNCTION PROPERTIES                                         *
    4633              ;*                            9 Parameter,  1 Auto,  0 SOE     *
    4634              ;***************************************************************
    4635              
    4636 00000539       _OS_InitTaskIdle:
    4637                      .dwcfi  cfa_offset, -2
    4638                      .dwcfi  save_reg_to_mem, 26, 0
    4639 00000539 FE0A          ADDB      SP,#10                ; [CPU_ARAU] 
    4640                      .dwcfi  cfa_offset, -12
    4641              $C$DW$256       .dwtag  DW_TAG_variable
    4642                      .dwattr $C$DW$256, DW_AT_name("err")
    4643                      .dwattr $C$DW$256, DW_AT_TI_symbol_name("_err")
    4644                      .dwattr $C$DW$256, DW_AT_type(*$C$DW$T$19)
    4645                      .dwattr $C$DW$256, DW_AT_location[DW_OP_breg20 -10]
    4646              
    4647                      .dwpsn  file "C:/ti/Workspace/PLC_certificate/Software/uCOS-II/Source/os_core.c",line 1450,column 5,i
    4648 0000053a 8F00-         MOVL      XAR4,#_OSTaskIdleStk  ; [CPU_ARAU] |1450| 
         0000053b 0000 
    4649 0000053c 0200          MOVB      ACC,#0                ; [CPU_ALU] |1450| 
    4650 0000053d A842          MOVL      *-SP[2],XAR4          ; [CPU_ALU] |1450| 
    4651 0000053e 7680          MOVL      XAR6,#256             ; [CPU_ARAU] |1450| 
         0000053f 0100 
    4652 00000540 D500          MOVB      XAR5,#0               ; [CPU_ALU] |1450| 
    4653 00000541 56BF          MOVB      *-SP[3],#63,UNC       ; [CPU_ALU] |1450| 
         00000542 3F43 
    4654 00000543 8F00-         MOVL      XAR4,#_OSTaskIdleStk+255 ; [CPU_ARAU] |1450| 
         00000544 00FF 
    4655 00000545 2844          MOV       *-SP[4],#65535        ; [CPU_ALU] |1450| 
         00000546 FFFF 
    4656 00000547 A846          MOVL      *-SP[6],XAR4          ; [CPU_ALU] |1450| 
    4657 00000548 8F00'         MOVL      XAR4,#_OS_TaskIdle    ; [CPU_ARAU] |1450| 
         00000549 0639 
    4658 0000054a 1E48          MOVL      *-SP[8],ACC           ; [CPU_ALU] |1450| 
    4659 0000054b 06A6          MOVL      ACC,XAR6              ; [CPU_ALU] |1450| 
    4660 0000054c 56BF          MOVB      *-SP[9],#3,UNC        ; [CPU_ALU] |1450| 
         0000054d 0349 
    4661              $C$DW$257       .dwtag  DW_TAG_TI_branch
    4662                      .dwattr $C$DW$257, DW_AT_low_pc(0x00)
    4663                      .dwattr $C$DW$257, DW_AT_name("_OSTaskCreateExt")
    4664                      .dwattr $C$DW$257, DW_AT_TI_call
    4665              
    4666 0000054e 7640!         LCR       #_OSTaskCreateExt     ; [CPU_ALU] |1450| 
         0000054f 0000 
    4667                      ; call occurs [#_OSTaskCreateExt] ; [] |1450| 
    4668                      .dwpsn  file "C:/ti/Workspace/PLC_certificate/Software/uCOS-II/Source/os_core.c",line 1475,column 5,i
TMS320C2000 Assembler PC v20.2.1 Tue Feb 16 00:15:57 2021

Copyright (c) 1996-2018 Texas Instruments Incorporated
os_core.asm                                                          PAGE   89

    4669 00000550 5DAD          MOVZ      AR5,SP                ; [CPU_ALU] |1475| 
    4670 00000551 9A3F          MOVB      AL,#63                ; [CPU_ALU] |1475| 
    4671 00000552 8F00+         MOVL      XAR4,#$C$FSL2         ; [CPU_ARAU] |1475| 
         00000553 0002 
    4672 00000554 DD8A          SUBB      XAR5,#10              ; [CPU_ARAU] |1475| 
    4673 00000555 5DA5          MOVZ      AR5,AR5               ; [CPU_ALU] |1475| 
    4674              $C$DW$258       .dwtag  DW_TAG_TI_branch
    4675                      .dwattr $C$DW$258, DW_AT_low_pc(0x00)
    4676                      .dwattr $C$DW$258, DW_AT_name("_OSTaskNameSet")
    4677                      .dwattr $C$DW$258, DW_AT_TI_call
    4678              
    4679 00000556 7640!         LCR       #_OSTaskNameSet       ; [CPU_ALU] |1475| 
         00000557 0000 
    4680                      ; call occurs [#_OSTaskNameSet] ; [] |1475| 
    4681                      .dwpsn  file "C:/ti/Workspace/PLC_certificate/Software/uCOS-II/Source/os_core.c",line 1477,column 1,i
    4682 00000558 FE8A          SUBB      SP,#10                ; [CPU_ARAU] 
    4683                      .dwcfi  cfa_offset, -2
    4684              $C$DW$259       .dwtag  DW_TAG_TI_branch
    4685                      .dwattr $C$DW$259, DW_AT_low_pc(0x00)
    4686                      .dwattr $C$DW$259, DW_AT_TI_return
    4687              
    4688 00000559 0006          LRETR     ; [CPU_ALU] 
    4689                      ; return occurs ; [] 
    4690                      .dwattr $C$DW$255, DW_AT_TI_end_file("C:/ti/Workspace/PLC_certificate/Software/uCOS-II/Source/os_core
    4691                      .dwattr $C$DW$255, DW_AT_TI_end_line(0x5c5)
    4692                      .dwattr $C$DW$255, DW_AT_TI_end_column(0x01)
    4693                      .dwendentry
    4694                      .dwendtag $C$DW$255
    4695              
    4696 0000055a               .sect   ".text"
    4697                      .clink
    4698              
    4699              $C$DW$260       .dwtag  DW_TAG_subprogram
    4700                      .dwattr $C$DW$260, DW_AT_name("OS_InitTaskStat")
    4701                      .dwattr $C$DW$260, DW_AT_low_pc(_OS_InitTaskStat)
    4702                      .dwattr $C$DW$260, DW_AT_high_pc(0x00)
    4703                      .dwattr $C$DW$260, DW_AT_TI_symbol_name("_OS_InitTaskStat")
    4704                      .dwattr $C$DW$260, DW_AT_TI_begin_file("C:/ti/Workspace/PLC_certificate/Software/uCOS-II/Source/os_co
    4705                      .dwattr $C$DW$260, DW_AT_TI_begin_line(0x5d5)
    4706                      .dwattr $C$DW$260, DW_AT_TI_begin_column(0x0f)
    4707                      .dwattr $C$DW$260, DW_AT_TI_max_frame_size(-12)
    4708                      .dwpsn  file "C:/ti/Workspace/PLC_certificate/Software/uCOS-II/Source/os_core.c",line 1494,column 1,i
    4709              
    4710                      .dwfde $C$DW$CIE, _OS_InitTaskStat
    4711              
    4712              ;***************************************************************
    4713              ;* FNAME: _OS_InitTaskStat              FR SIZE:  10           *
    4714              ;*                                                             *
    4715              ;* FUNCTION ENVIRONMENT                                        *
    4716              ;*                                                             *
    4717              ;* FUNCTION PROPERTIES                                         *
    4718              ;*                            9 Parameter,  1 Auto,  0 SOE     *
    4719              ;***************************************************************
    4720              
    4721 0000055a       _OS_InitTaskStat:
TMS320C2000 Assembler PC v20.2.1 Tue Feb 16 00:15:57 2021

Copyright (c) 1996-2018 Texas Instruments Incorporated
os_core.asm                                                          PAGE   90

    4722                      .dwcfi  cfa_offset, -2
    4723                      .dwcfi  save_reg_to_mem, 26, 0
    4724 0000055a FE0A          ADDB      SP,#10                ; [CPU_ARAU] 
    4725                      .dwcfi  cfa_offset, -12
    4726              $C$DW$261       .dwtag  DW_TAG_variable
    4727                      .dwattr $C$DW$261, DW_AT_name("err")
    4728                      .dwattr $C$DW$261, DW_AT_TI_symbol_name("_err")
    4729                      .dwattr $C$DW$261, DW_AT_type(*$C$DW$T$19)
    4730                      .dwattr $C$DW$261, DW_AT_location[DW_OP_breg20 -10]
    4731              
    4732                      .dwpsn  file "C:/ti/Workspace/PLC_certificate/Software/uCOS-II/Source/os_core.c",line 1512,column 5,i
    4733 0000055b 8F00-         MOVL      XAR4,#_OSTaskStatStk  ; [CPU_ARAU] |1512| 
         0000055c 0000 
    4734 0000055d 0200          MOVB      ACC,#0                ; [CPU_ALU] |1512| 
    4735 0000055e A842          MOVL      *-SP[2],XAR4          ; [CPU_ALU] |1512| 
    4736 0000055f 7680          MOVL      XAR6,#256             ; [CPU_ARAU] |1512| 
         00000560 0100 
    4737 00000561 D500          MOVB      XAR5,#0               ; [CPU_ALU] |1512| 
    4738 00000562 56BF          MOVB      *-SP[3],#62,UNC       ; [CPU_ALU] |1512| 
         00000563 3E43 
    4739 00000564 8F00-         MOVL      XAR4,#_OSTaskStatStk+255 ; [CPU_ARAU] |1512| 
         00000565 00FF 
    4740 00000566 2844          MOV       *-SP[4],#65534        ; [CPU_ALU] |1512| 
         00000567 FFFE 
    4741 00000568 A846          MOVL      *-SP[6],XAR4          ; [CPU_ALU] |1512| 
    4742 00000569 8F00'         MOVL      XAR4,#_OS_TaskStat    ; [CPU_ARAU] |1512| 
         0000056a 064E 
    4743 0000056b 1E48          MOVL      *-SP[8],ACC           ; [CPU_ALU] |1512| 
    4744 0000056c 06A6          MOVL      ACC,XAR6              ; [CPU_ALU] |1512| 
    4745 0000056d 56BF          MOVB      *-SP[9],#3,UNC        ; [CPU_ALU] |1512| 
         0000056e 0349 
    4746              $C$DW$262       .dwtag  DW_TAG_TI_branch
    4747                      .dwattr $C$DW$262, DW_AT_low_pc(0x00)
    4748                      .dwattr $C$DW$262, DW_AT_name("_OSTaskCreateExt")
    4749                      .dwattr $C$DW$262, DW_AT_TI_call
    4750              
    4751 0000056f 7640!         LCR       #_OSTaskCreateExt     ; [CPU_ALU] |1512| 
         00000570 0000 
    4752                      ; call occurs [#_OSTaskCreateExt] ; [] |1512| 
    4753                      .dwpsn  file "C:/ti/Workspace/PLC_certificate/Software/uCOS-II/Source/os_core.c",line 1537,column 5,i
    4754 00000571 5DAD          MOVZ      AR5,SP                ; [CPU_ALU] |1537| 
    4755 00000572 9A3E          MOVB      AL,#62                ; [CPU_ALU] |1537| 
    4756 00000573 8F00+         MOVL      XAR4,#$C$FSL3         ; [CPU_ARAU] |1537| 
         00000574 0010 
    4757 00000575 DD8A          SUBB      XAR5,#10              ; [CPU_ARAU] |1537| 
    4758 00000576 5DA5          MOVZ      AR5,AR5               ; [CPU_ALU] |1537| 
    4759              $C$DW$263       .dwtag  DW_TAG_TI_branch
    4760                      .dwattr $C$DW$263, DW_AT_low_pc(0x00)
    4761                      .dwattr $C$DW$263, DW_AT_name("_OSTaskNameSet")
    4762                      .dwattr $C$DW$263, DW_AT_TI_call
    4763              
    4764 00000577 7640!         LCR       #_OSTaskNameSet       ; [CPU_ALU] |1537| 
         00000578 0000 
    4765                      ; call occurs [#_OSTaskNameSet] ; [] |1537| 
    4766                      .dwpsn  file "C:/ti/Workspace/PLC_certificate/Software/uCOS-II/Source/os_core.c",line 1539,column 1,i
TMS320C2000 Assembler PC v20.2.1 Tue Feb 16 00:15:57 2021

Copyright (c) 1996-2018 Texas Instruments Incorporated
os_core.asm                                                          PAGE   91

    4767 00000579 FE8A          SUBB      SP,#10                ; [CPU_ARAU] 
    4768                      .dwcfi  cfa_offset, -2
    4769              $C$DW$264       .dwtag  DW_TAG_TI_branch
    4770                      .dwattr $C$DW$264, DW_AT_low_pc(0x00)
    4771                      .dwattr $C$DW$264, DW_AT_TI_return
    4772              
    4773 0000057a 0006          LRETR     ; [CPU_ALU] 
    4774                      ; return occurs ; [] 
    4775                      .dwattr $C$DW$260, DW_AT_TI_end_file("C:/ti/Workspace/PLC_certificate/Software/uCOS-II/Source/os_core
    4776                      .dwattr $C$DW$260, DW_AT_TI_end_line(0x603)
    4777                      .dwattr $C$DW$260, DW_AT_TI_end_column(0x01)
    4778                      .dwendentry
    4779                      .dwendtag $C$DW$260
    4780              
    4781 0000057b               .sect   ".text"
    4782                      .clink
    4783              
    4784              $C$DW$265       .dwtag  DW_TAG_subprogram
    4785                      .dwattr $C$DW$265, DW_AT_name("OS_InitTCBList")
    4786                      .dwattr $C$DW$265, DW_AT_low_pc(_OS_InitTCBList)
    4787                      .dwattr $C$DW$265, DW_AT_high_pc(0x00)
    4788                      .dwattr $C$DW$265, DW_AT_TI_symbol_name("_OS_InitTCBList")
    4789                      .dwattr $C$DW$265, DW_AT_TI_begin_file("C:/ti/Workspace/PLC_certificate/Software/uCOS-II/Source/os_co
    4790                      .dwattr $C$DW$265, DW_AT_TI_begin_line(0x613)
    4791                      .dwattr $C$DW$265, DW_AT_TI_begin_column(0x0f)
    4792                      .dwattr $C$DW$265, DW_AT_TI_max_frame_size(-8)
    4793                      .dwpsn  file "C:/ti/Workspace/PLC_certificate/Software/uCOS-II/Source/os_core.c",line 1556,column 1,i
    4794              
    4795                      .dwfde $C$DW$CIE, _OS_InitTCBList
    4796              
    4797              ;***************************************************************
    4798              ;* FNAME: _OS_InitTCBList               FR SIZE:   6           *
    4799              ;*                                                             *
    4800              ;* FUNCTION ENVIRONMENT                                        *
    4801              ;*                                                             *
    4802              ;* FUNCTION PROPERTIES                                         *
    4803              ;*                            0 Parameter,  6 Auto,  0 SOE     *
    4804              ;***************************************************************
    4805              
    4806 0000057b       _OS_InitTCBList:
    4807                      .dwcfi  cfa_offset, -2
    4808                      .dwcfi  save_reg_to_mem, 26, 0
    4809 0000057b FE06          ADDB      SP,#6                 ; [CPU_ARAU] 
    4810                      .dwcfi  cfa_offset, -8
    4811              $C$DW$266       .dwtag  DW_TAG_variable
    4812                      .dwattr $C$DW$266, DW_AT_name("ptcb1")
    4813                      .dwattr $C$DW$266, DW_AT_TI_symbol_name("_ptcb1")
    4814                      .dwattr $C$DW$266, DW_AT_type(*$C$DW$T$56)
    4815                      .dwattr $C$DW$266, DW_AT_location[DW_OP_breg20 -2]
    4816              
    4817              $C$DW$267       .dwtag  DW_TAG_variable
    4818                      .dwattr $C$DW$267, DW_AT_name("ptcb2")
    4819                      .dwattr $C$DW$267, DW_AT_TI_symbol_name("_ptcb2")
    4820                      .dwattr $C$DW$267, DW_AT_type(*$C$DW$T$56)
    4821                      .dwattr $C$DW$267, DW_AT_location[DW_OP_breg20 -4]
TMS320C2000 Assembler PC v20.2.1 Tue Feb 16 00:15:57 2021

Copyright (c) 1996-2018 Texas Instruments Incorporated
os_core.asm                                                          PAGE   92

    4822              
    4823              $C$DW$268       .dwtag  DW_TAG_variable
    4824                      .dwattr $C$DW$268, DW_AT_name("ix")
    4825                      .dwattr $C$DW$268, DW_AT_TI_symbol_name("_ix")
    4826                      .dwattr $C$DW$268, DW_AT_type(*$C$DW$T$19)
    4827                      .dwattr $C$DW$268, DW_AT_location[DW_OP_breg20 -5]
    4828              
    4829              $C$DW$269       .dwtag  DW_TAG_variable
    4830                      .dwattr $C$DW$269, DW_AT_name("ix_next")
    4831                      .dwattr $C$DW$269, DW_AT_TI_symbol_name("_ix_next")
    4832                      .dwattr $C$DW$269, DW_AT_type(*$C$DW$T$19)
    4833                      .dwattr $C$DW$269, DW_AT_location[DW_OP_breg20 -6]
    4834              
    4835                      .dwpsn  file "C:/ti/Workspace/PLC_certificate/Software/uCOS-II/Source/os_core.c",line 1563,column 5,i
    4836 0000057c 8F00-         MOVL      XAR4,#_OSTCBTbl       ; [CPU_ARAU] |1563| 
         0000057d 0000 
    4837 0000057e 28A9          MOV       AL,#1056              ; [CPU_ALU] |1563| 
         0000057f 0420 
    4838              $C$DW$270       .dwtag  DW_TAG_TI_branch
    4839                      .dwattr $C$DW$270, DW_AT_low_pc(0x00)
    4840                      .dwattr $C$DW$270, DW_AT_name("_OS_MemClr")
    4841                      .dwattr $C$DW$270, DW_AT_TI_call
    4842              
    4843 00000580 7640'         LCR       #_OS_MemClr           ; [CPU_ALU] |1563| 
         00000581 05C6 
    4844                      ; call occurs [#_OS_MemClr] ; [] |1563| 
    4845                      .dwpsn  file "C:/ti/Workspace/PLC_certificate/Software/uCOS-II/Source/os_core.c",line 1564,column 5,i
    4846 00000582 9A80          MOVB      AL,#128               ; [CPU_ALU] |1564| 
    4847 00000583 8F00-         MOVL      XAR4,#_OSTCBPrioTbl   ; [CPU_ARAU] |1564| 
         00000584 0000 
    4848              $C$DW$271       .dwtag  DW_TAG_TI_branch
    4849                      .dwattr $C$DW$271, DW_AT_low_pc(0x00)
    4850                      .dwattr $C$DW$271, DW_AT_name("_OS_MemClr")
    4851                      .dwattr $C$DW$271, DW_AT_TI_call
    4852              
    4853 00000585 7640'         LCR       #_OS_MemClr           ; [CPU_ALU] |1564| 
         00000586 05C6 
    4854                      ; call occurs [#_OS_MemClr] ; [] |1564| 
    4855                      .dwpsn  file "C:/ti/Workspace/PLC_certificate/Software/uCOS-II/Source/os_core.c",line 1565,column 10,
    4856 00000587 2B45          MOV       *-SP[5],#0            ; [CPU_ALU] |1565| 
    4857                      .dwpsn  file "C:/ti/Workspace/PLC_certificate/Software/uCOS-II/Source/os_core.c",line 1565,column 19,
    4858 00000588 9245          MOV       AL,*-SP[5]            ; [CPU_ALU] |1565| 
    4859 00000589 5215          CMPB      AL,#21                ; [CPU_ALU] |1565| 
    4860 0000058a 6720          B         $C$L92,HIS            ; [CPU_ALU] |1565| 
    4861                      ; branchcc occurs ; [] |1565| 
    4862 0000058b 28AC          MOV       T,#48                 ; [CPU_ALU] |1567| 
         0000058c 0030 
    4863 0000058d       $C$L91:    
    4864                      .dwpsn  file "C:/ti/Workspace/PLC_certificate/Software/uCOS-II/Source/os_core.c",line 1566,column 9,i
    4865 0000058d 9C01          ADDB      AL,#1                 ; [CPU_ALU] |1566| 
    4866 0000058e 9646          MOV       *-SP[6],AL            ; [CPU_ALU] |1566| 
    4867                      .dwpsn  file "C:/ti/Workspace/PLC_certificate/Software/uCOS-II/Source/os_core.c",line 1567,column 9,i
    4868 0000058f 8F00-         MOVL      XAR4,#_OSTCBTbl       ; [CPU_ARAU] |1567| 
         00000590 0000 
    4869 00000591 3045          MPYXU     ACC,T,*-SP[5]         ; [CPU_ALU] |1567| 
TMS320C2000 Assembler PC v20.2.1 Tue Feb 16 00:15:57 2021

Copyright (c) 1996-2018 Texas Instruments Incorporated
os_core.asm                                                          PAGE   93

    4870 00000592 5601          ADDL      XAR4,ACC              ; [CPU_ALU] |1567| 
         00000593 00A4 
    4871 00000594 A842          MOVL      *-SP[2],XAR4          ; [CPU_ALU] |1567| 
    4872                      .dwpsn  file "C:/ti/Workspace/PLC_certificate/Software/uCOS-II/Source/os_core.c",line 1568,column 9,i
    4873 00000595 3046          MPYXU     ACC,T,*-SP[6]         ; [CPU_ALU] |1568| 
    4874 00000596 8F00-         MOVL      XAR4,#_OSTCBTbl       ; [CPU_ARAU] |1568| 
         00000597 0000 
    4875 00000598 5601          ADDL      XAR4,ACC              ; [CPU_ALU] |1568| 
         00000599 00A4 
    4876 0000059a A844          MOVL      *-SP[4],XAR4          ; [CPU_ALU] |1568| 
    4877                      .dwpsn  file "C:/ti/Workspace/PLC_certificate/Software/uCOS-II/Source/os_core.c",line 1569,column 9,i
    4878 0000059b C444          MOVL      XAR6,*-SP[4]          ; [CPU_ALU] |1569| 
    4879 0000059c 020A          MOVB      ACC,#10               ; [CPU_ALU] |1569| 
    4880 0000059d 0742          ADDL      ACC,*-SP[2]           ; [CPU_ALU] |1569| 
    4881 0000059e 8AA9          MOVL      XAR4,ACC              ; [CPU_ALU] |1569| 
    4882 0000059f C2C4          MOVL      *+XAR4[0],XAR6        ; [CPU_ALU] |1569| 
    4883                      .dwpsn  file "C:/ti/Workspace/PLC_certificate/Software/uCOS-II/Source/os_core.c",line 1571,column 9,i
    4884 000005a0 022C          MOVB      ACC,#44               ; [CPU_ALU] |1571| 
    4885 000005a1 0742          ADDL      ACC,*-SP[2]           ; [CPU_ALU] |1571| 
    4886 000005a2 8AA9          MOVL      XAR4,ACC              ; [CPU_ALU] |1571| 
    4887 000005a3 8F40+         MOVL      XAR5,#$C$FSL1         ; [CPU_ARAU] |1571| 
         000005a4 0000 
    4888 000005a5 A0C4          MOVL      *+XAR4[0],XAR5        ; [CPU_ALU] |1571| 
    4889                      .dwpsn  file "C:/ti/Workspace/PLC_certificate/Software/uCOS-II/Source/os_core.c",line 1565,column 62,
    4890 000005a6 0A45          INC       *-SP[5]               ; [CPU_ALU] |1565| 
    4891                      .dwpsn  file "C:/ti/Workspace/PLC_certificate/Software/uCOS-II/Source/os_core.c",line 1565,column 19,
    4892 000005a7 9245          MOV       AL,*-SP[5]            ; [CPU_ALU] |1565| 
    4893 000005a8 5215          CMPB      AL,#21                ; [CPU_ALU] |1565| 
    4894 000005a9 68E4          B         $C$L91,LO             ; [CPU_ALU] |1565| 
    4895                      ; branchcc occurs ; [] |1565| 
    4896 000005aa       $C$L92:    
    4897                      .dwpsn  file "C:/ti/Workspace/PLC_certificate/Software/uCOS-II/Source/os_core.c",line 1574,column 5,i
    4898 000005aa 28AC          MOV       T,#48                 ; [CPU_ALU] |1574| 
         000005ab 0030 
    4899 000005ac 8F00-         MOVL      XAR4,#_OSTCBTbl       ; [CPU_ARAU] |1574| 
         000005ad 0000 
    4900 000005ae 3045          MPYXU     ACC,T,*-SP[5]         ; [CPU_ALU] |1574| 
    4901 000005af 5601          ADDL      XAR4,ACC              ; [CPU_ALU] |1574| 
         000005b0 00A4 
    4902 000005b1 A842          MOVL      *-SP[2],XAR4          ; [CPU_ALU] |1574| 
    4903                      .dwpsn  file "C:/ti/Workspace/PLC_certificate/Software/uCOS-II/Source/os_core.c",line 1575,column 5,i
    4904 000005b2 BE00          MOVB      XAR6,#0               ; [CPU_ALU] |1575| 
    4905 000005b3 020A          MOVB      ACC,#10               ; [CPU_ALU] |1575| 
    4906 000005b4 0742          ADDL      ACC,*-SP[2]           ; [CPU_ALU] |1575| 
    4907 000005b5 8AA9          MOVL      XAR4,ACC              ; [CPU_ALU] |1575| 
    4908 000005b6 C2C4          MOVL      *+XAR4[0],XAR6        ; [CPU_ALU] |1575| 
    4909                      .dwpsn  file "C:/ti/Workspace/PLC_certificate/Software/uCOS-II/Source/os_core.c",line 1577,column 5,i
    4910 000005b7 022C          MOVB      ACC,#44               ; [CPU_ALU] |1577| 
    4911 000005b8 0742          ADDL      ACC,*-SP[2]           ; [CPU_ALU] |1577| 
    4912 000005b9 8AA9          MOVL      XAR4,ACC              ; [CPU_ALU] |1577| 
    4913 000005ba 8F40+         MOVL      XAR5,#$C$FSL1         ; [CPU_ARAU] |1577| 
         000005bb 0000 
    4914 000005bc A0C4          MOVL      *+XAR4[0],XAR5        ; [CPU_ALU] |1577| 
    4915                      .dwpsn  file "C:/ti/Workspace/PLC_certificate/Software/uCOS-II/Source/os_core.c",line 1579,column 5,i
    4916 000005bd 761F-         MOVW      DP,#_OSTCBList        ; [CPU_ARAU] 
TMS320C2000 Assembler PC v20.2.1 Tue Feb 16 00:15:57 2021

Copyright (c) 1996-2018 Texas Instruments Incorporated
os_core.asm                                                          PAGE   94

         000005be 0000 
    4917 000005bf 0200          MOVB      ACC,#0                ; [CPU_ALU] |1579| 
    4918 000005c0 1E1E-         MOVL      @_OSTCBList,ACC       ; [CPU_ALU] |1579| 
    4919                      .dwpsn  file "C:/ti/Workspace/PLC_certificate/Software/uCOS-II/Source/os_core.c",line 1580,column 5,i
    4920 000005c1 8F00-         MOVL      XAR4,#_OSTCBTbl       ; [CPU_ARAU] |1580| 
         000005c2 0000 
    4921 000005c3 A81A-         MOVL      @_OSTCBFreeList,XAR4  ; [CPU_ALU] |1580| 
    4922                      .dwpsn  file "C:/ti/Workspace/PLC_certificate/Software/uCOS-II/Source/os_core.c",line 1581,column 1,i
    4923 000005c4 FE86          SUBB      SP,#6                 ; [CPU_ARAU] 
    4924                      .dwcfi  cfa_offset, -2
    4925              $C$DW$272       .dwtag  DW_TAG_TI_branch
    4926                      .dwattr $C$DW$272, DW_AT_low_pc(0x00)
    4927                      .dwattr $C$DW$272, DW_AT_TI_return
    4928              
    4929 000005c5 0006          LRETR     ; [CPU_ALU] 
    4930                      ; return occurs ; [] 
    4931                      .dwattr $C$DW$265, DW_AT_TI_end_file("C:/ti/Workspace/PLC_certificate/Software/uCOS-II/Source/os_core
    4932                      .dwattr $C$DW$265, DW_AT_TI_end_line(0x62d)
    4933                      .dwattr $C$DW$265, DW_AT_TI_end_column(0x01)
    4934                      .dwendentry
    4935                      .dwendtag $C$DW$265
    4936              
    4937 000005c6               .sect   ".text"
    4938                      .clink
    4939                      .global _OS_MemClr
    4940              
    4941              $C$DW$273       .dwtag  DW_TAG_subprogram
    4942                      .dwattr $C$DW$273, DW_AT_name("OS_MemClr")
    4943                      .dwattr $C$DW$273, DW_AT_low_pc(_OS_MemClr)
    4944                      .dwattr $C$DW$273, DW_AT_high_pc(0x00)
    4945                      .dwattr $C$DW$273, DW_AT_TI_symbol_name("_OS_MemClr")
    4946                      .dwattr $C$DW$273, DW_AT_external
    4947                      .dwattr $C$DW$273, DW_AT_TI_begin_file("C:/ti/Workspace/PLC_certificate/Software/uCOS-II/Source/os_co
    4948                      .dwattr $C$DW$273, DW_AT_TI_begin_line(0x643)
    4949                      .dwattr $C$DW$273, DW_AT_TI_begin_column(0x07)
    4950                      .dwattr $C$DW$273, DW_AT_TI_max_frame_size(-6)
    4951                      .dwpsn  file "C:/ti/Workspace/PLC_certificate/Software/uCOS-II/Source/os_core.c",line 1605,column 1,i
    4952              
    4953                      .dwfde $C$DW$CIE, _OS_MemClr
    4954              $C$DW$274       .dwtag  DW_TAG_formal_parameter
    4955                      .dwattr $C$DW$274, DW_AT_name("pdest")
    4956                      .dwattr $C$DW$274, DW_AT_TI_symbol_name("_pdest")
    4957                      .dwattr $C$DW$274, DW_AT_type(*$C$DW$T$23)
    4958                      .dwattr $C$DW$274, DW_AT_location[DW_OP_reg12]
    4959              
    4960              $C$DW$275       .dwtag  DW_TAG_formal_parameter
    4961                      .dwattr $C$DW$275, DW_AT_name("size")
    4962                      .dwattr $C$DW$275, DW_AT_TI_symbol_name("_size")
    4963                      .dwattr $C$DW$275, DW_AT_type(*$C$DW$T$20)
    4964                      .dwattr $C$DW$275, DW_AT_location[DW_OP_reg0]
    4965              
    4966              
    4967              ;***************************************************************
    4968              ;* FNAME: _OS_MemClr                    FR SIZE:   4           *
    4969              ;*                                                             *
TMS320C2000 Assembler PC v20.2.1 Tue Feb 16 00:15:57 2021

Copyright (c) 1996-2018 Texas Instruments Incorporated
os_core.asm                                                          PAGE   95

    4970              ;* FUNCTION ENVIRONMENT                                        *
    4971              ;*                                                             *
    4972              ;* FUNCTION PROPERTIES                                         *
    4973              ;*                            0 Parameter,  3 Auto,  0 SOE     *
    4974              ;***************************************************************
    4975              
    4976 000005c6       _OS_MemClr:
    4977                      .dwcfi  cfa_offset, -2
    4978                      .dwcfi  save_reg_to_mem, 26, 0
    4979 000005c6 FE04          ADDB      SP,#4                 ; [CPU_ARAU] 
    4980                      .dwcfi  cfa_offset, -6
    4981              $C$DW$276       .dwtag  DW_TAG_variable
    4982                      .dwattr $C$DW$276, DW_AT_name("pdest")
    4983                      .dwattr $C$DW$276, DW_AT_TI_symbol_name("_pdest")
    4984                      .dwattr $C$DW$276, DW_AT_type(*$C$DW$T$23)
    4985                      .dwattr $C$DW$276, DW_AT_location[DW_OP_breg20 -2]
    4986              
    4987              $C$DW$277       .dwtag  DW_TAG_variable
    4988                      .dwattr $C$DW$277, DW_AT_name("size")
    4989                      .dwattr $C$DW$277, DW_AT_TI_symbol_name("_size")
    4990                      .dwattr $C$DW$277, DW_AT_type(*$C$DW$T$20)
    4991                      .dwattr $C$DW$277, DW_AT_location[DW_OP_breg20 -3]
    4992              
    4993 000005c7 9643          MOV       *-SP[3],AL            ; [CPU_ALU] |1605| 
    4994 000005c8 A842          MOVL      *-SP[2],XAR4          ; [CPU_ALU] |1605| 
    4995                      .dwpsn  file "C:/ti/Workspace/PLC_certificate/Software/uCOS-II/Source/os_core.c",line 1606,column 12,
    4996 000005c9 5200          CMPB      AL,#0                 ; [CPU_ALU] |1606| 
    4997 000005ca 6109          B         $C$L94,EQ             ; [CPU_ALU] |1606| 
    4998                      ; branchcc occurs ; [] |1606| 
    4999 000005cb       $C$L93:    
    5000                      .dwpsn  file "C:/ti/Workspace/PLC_certificate/Software/uCOS-II/Source/os_core.c",line 1607,column 9,i
    5001 000005cb 8A42          MOVL      XAR4,*-SP[2]          ; [CPU_ALU] |1607| 
    5002 000005cc A8A9          MOVL      ACC,XAR4              ; [CPU_ALU] |1607| 
    5003 000005cd 0901          ADDB      ACC,#1                ; [CPU_ALU] |1607| 
    5004 000005ce 1E42          MOVL      *-SP[2],ACC           ; [CPU_ALU] |1607| 
    5005 000005cf 2BC4          MOV       *+XAR4[0],#0          ; [CPU_ALU] |1607| 
    5006                      .dwpsn  file "C:/ti/Workspace/PLC_certificate/Software/uCOS-II/Source/os_core.c",line 1608,column 9,i
    5007 000005d0 0B43          DEC       *-SP[3]               ; [CPU_ALU] |1608| 
    5008                      .dwpsn  file "C:/ti/Workspace/PLC_certificate/Software/uCOS-II/Source/os_core.c",line 1606,column 12,
    5009 000005d1 9243          MOV       AL,*-SP[3]            ; [CPU_ALU] |1606| 
    5010 000005d2 60F9          B         $C$L93,NEQ            ; [CPU_ALU] |1606| 
    5011                      ; branchcc occurs ; [] |1606| 
    5012                      .dwpsn  file "C:/ti/Workspace/PLC_certificate/Software/uCOS-II/Source/os_core.c",line 1610,column 1,i
    5013 000005d3       $C$L94:    
    5014 000005d3 FE84          SUBB      SP,#4                 ; [CPU_ARAU] 
    5015                      .dwcfi  cfa_offset, -2
    5016              $C$DW$278       .dwtag  DW_TAG_TI_branch
    5017                      .dwattr $C$DW$278, DW_AT_low_pc(0x00)
    5018                      .dwattr $C$DW$278, DW_AT_TI_return
    5019              
    5020 000005d4 0006          LRETR     ; [CPU_ALU] 
    5021                      ; return occurs ; [] 
    5022                      .dwattr $C$DW$273, DW_AT_TI_end_file("C:/ti/Workspace/PLC_certificate/Software/uCOS-II/Source/os_core
    5023                      .dwattr $C$DW$273, DW_AT_TI_end_line(0x64a)
    5024                      .dwattr $C$DW$273, DW_AT_TI_end_column(0x01)
TMS320C2000 Assembler PC v20.2.1 Tue Feb 16 00:15:57 2021

Copyright (c) 1996-2018 Texas Instruments Incorporated
os_core.asm                                                          PAGE   96

    5025                      .dwendentry
    5026                      .dwendtag $C$DW$273
    5027              
    5028 000005d5               .sect   ".text"
    5029                      .clink
    5030                      .global _OS_MemCopy
    5031              
    5032              $C$DW$279       .dwtag  DW_TAG_subprogram
    5033                      .dwattr $C$DW$279, DW_AT_name("OS_MemCopy")
    5034                      .dwattr $C$DW$279, DW_AT_low_pc(_OS_MemCopy)
    5035                      .dwattr $C$DW$279, DW_AT_high_pc(0x00)
    5036                      .dwattr $C$DW$279, DW_AT_TI_symbol_name("_OS_MemCopy")
    5037                      .dwattr $C$DW$279, DW_AT_external
    5038                      .dwattr $C$DW$279, DW_AT_TI_begin_file("C:/ti/Workspace/PLC_certificate/Software/uCOS-II/Source/os_co
    5039                      .dwattr $C$DW$279, DW_AT_TI_begin_line(0x664)
    5040                      .dwattr $C$DW$279, DW_AT_TI_begin_column(0x07)
    5041                      .dwattr $C$DW$279, DW_AT_TI_max_frame_size(-8)
    5042                      .dwpsn  file "C:/ti/Workspace/PLC_certificate/Software/uCOS-II/Source/os_core.c",line 1639,column 1,i
    5043              
    5044                      .dwfde $C$DW$CIE, _OS_MemCopy
    5045              $C$DW$280       .dwtag  DW_TAG_formal_parameter
    5046                      .dwattr $C$DW$280, DW_AT_name("pdest")
    5047                      .dwattr $C$DW$280, DW_AT_TI_symbol_name("_pdest")
    5048                      .dwattr $C$DW$280, DW_AT_type(*$C$DW$T$23)
    5049                      .dwattr $C$DW$280, DW_AT_location[DW_OP_reg12]
    5050              
    5051              $C$DW$281       .dwtag  DW_TAG_formal_parameter
    5052                      .dwattr $C$DW$281, DW_AT_name("psrc")
    5053                      .dwattr $C$DW$281, DW_AT_TI_symbol_name("_psrc")
    5054                      .dwattr $C$DW$281, DW_AT_type(*$C$DW$T$23)
    5055                      .dwattr $C$DW$281, DW_AT_location[DW_OP_reg14]
    5056              
    5057              $C$DW$282       .dwtag  DW_TAG_formal_parameter
    5058                      .dwattr $C$DW$282, DW_AT_name("size")
    5059                      .dwattr $C$DW$282, DW_AT_TI_symbol_name("_size")
    5060                      .dwattr $C$DW$282, DW_AT_type(*$C$DW$T$20)
    5061                      .dwattr $C$DW$282, DW_AT_location[DW_OP_reg0]
    5062              
    5063              
    5064              ;***************************************************************
    5065              ;* FNAME: _OS_MemCopy                   FR SIZE:   6           *
    5066              ;*                                                             *
    5067              ;* FUNCTION ENVIRONMENT                                        *
    5068              ;*                                                             *
    5069              ;* FUNCTION PROPERTIES                                         *
    5070              ;*                            0 Parameter,  5 Auto,  0 SOE     *
    5071              ;***************************************************************
    5072              
    5073 000005d5       _OS_MemCopy:
    5074                      .dwcfi  cfa_offset, -2
    5075                      .dwcfi  save_reg_to_mem, 26, 0
    5076 000005d5 FE06          ADDB      SP,#6                 ; [CPU_ARAU] 
    5077                      .dwcfi  cfa_offset, -8
    5078              $C$DW$283       .dwtag  DW_TAG_variable
    5079                      .dwattr $C$DW$283, DW_AT_name("pdest")
TMS320C2000 Assembler PC v20.2.1 Tue Feb 16 00:15:57 2021

Copyright (c) 1996-2018 Texas Instruments Incorporated
os_core.asm                                                          PAGE   97

    5080                      .dwattr $C$DW$283, DW_AT_TI_symbol_name("_pdest")
    5081                      .dwattr $C$DW$283, DW_AT_type(*$C$DW$T$23)
    5082                      .dwattr $C$DW$283, DW_AT_location[DW_OP_breg20 -2]
    5083              
    5084              $C$DW$284       .dwtag  DW_TAG_variable
    5085                      .dwattr $C$DW$284, DW_AT_name("psrc")
    5086                      .dwattr $C$DW$284, DW_AT_TI_symbol_name("_psrc")
    5087                      .dwattr $C$DW$284, DW_AT_type(*$C$DW$T$23)
    5088                      .dwattr $C$DW$284, DW_AT_location[DW_OP_breg20 -4]
    5089              
    5090              $C$DW$285       .dwtag  DW_TAG_variable
    5091                      .dwattr $C$DW$285, DW_AT_name("size")
    5092                      .dwattr $C$DW$285, DW_AT_TI_symbol_name("_size")
    5093                      .dwattr $C$DW$285, DW_AT_type(*$C$DW$T$20)
    5094                      .dwattr $C$DW$285, DW_AT_location[DW_OP_breg20 -5]
    5095              
    5096 000005d6 9645          MOV       *-SP[5],AL            ; [CPU_ALU] |1639| 
    5097 000005d7 A044          MOVL      *-SP[4],XAR5          ; [CPU_ALU] |1639| 
    5098 000005d8 A842          MOVL      *-SP[2],XAR4          ; [CPU_ALU] |1639| 
    5099                      .dwpsn  file "C:/ti/Workspace/PLC_certificate/Software/uCOS-II/Source/os_core.c",line 1640,column 12,
    5100 000005d9 5200          CMPB      AL,#0                 ; [CPU_ALU] |1640| 
    5101 000005da 610C          B         $C$L96,EQ             ; [CPU_ALU] |1640| 
    5102                      ; branchcc occurs ; [] |1640| 
    5103 000005db       $C$L95:    
    5104                      .dwpsn  file "C:/ti/Workspace/PLC_certificate/Software/uCOS-II/Source/os_core.c",line 1641,column 9,i
    5105 000005db 8A44          MOVL      XAR4,*-SP[4]          ; [CPU_ALU] |1641| 
    5106 000005dc 9284          MOV       AL,*XAR4++            ; [CPU_ALU] |1641| 
    5107 000005dd A844          MOVL      *-SP[4],XAR4          ; [CPU_ALU] |1641| 
    5108 000005de 8A42          MOVL      XAR4,*-SP[2]          ; [CPU_ALU] |1641| 
    5109 000005df C4A4          MOVL      XAR6,XAR4             ; [CPU_ALU] |1641| 
    5110 000005e0 DE01          ADDB      XAR6,#1               ; [CPU_ALU] |1641| 
    5111 000005e1 C242          MOVL      *-SP[2],XAR6          ; [CPU_ALU] |1641| 
    5112 000005e2 96C4          MOV       *+XAR4[0],AL          ; [CPU_ALU] |1641| 
    5113                      .dwpsn  file "C:/ti/Workspace/PLC_certificate/Software/uCOS-II/Source/os_core.c",line 1642,column 9,i
    5114 000005e3 0B45          DEC       *-SP[5]               ; [CPU_ALU] |1642| 
    5115                      .dwpsn  file "C:/ti/Workspace/PLC_certificate/Software/uCOS-II/Source/os_core.c",line 1640,column 12,
    5116 000005e4 9245          MOV       AL,*-SP[5]            ; [CPU_ALU] |1640| 
    5117 000005e5 60F6          B         $C$L95,NEQ            ; [CPU_ALU] |1640| 
    5118                      ; branchcc occurs ; [] |1640| 
    5119                      .dwpsn  file "C:/ti/Workspace/PLC_certificate/Software/uCOS-II/Source/os_core.c",line 1644,column 1,i
    5120 000005e6       $C$L96:    
    5121 000005e6 FE86          SUBB      SP,#6                 ; [CPU_ARAU] 
    5122                      .dwcfi  cfa_offset, -2
    5123              $C$DW$286       .dwtag  DW_TAG_TI_branch
    5124                      .dwattr $C$DW$286, DW_AT_low_pc(0x00)
    5125                      .dwattr $C$DW$286, DW_AT_TI_return
    5126              
    5127 000005e7 0006          LRETR     ; [CPU_ALU] 
    5128                      ; return occurs ; [] 
    5129                      .dwattr $C$DW$279, DW_AT_TI_end_file("C:/ti/Workspace/PLC_certificate/Software/uCOS-II/Source/os_core
    5130                      .dwattr $C$DW$279, DW_AT_TI_end_line(0x66c)
    5131                      .dwattr $C$DW$279, DW_AT_TI_end_column(0x01)
    5132                      .dwendentry
    5133                      .dwendtag $C$DW$279
    5134              
TMS320C2000 Assembler PC v20.2.1 Tue Feb 16 00:15:57 2021

Copyright (c) 1996-2018 Texas Instruments Incorporated
os_core.asm                                                          PAGE   98

    5135 000005e8               .sect   ".text"
    5136                      .clink
    5137                      .global _OS_Sched
    5138              
    5139              $C$DW$287       .dwtag  DW_TAG_subprogram
    5140                      .dwattr $C$DW$287, DW_AT_name("OS_Sched")
    5141                      .dwattr $C$DW$287, DW_AT_low_pc(_OS_Sched)
    5142                      .dwattr $C$DW$287, DW_AT_high_pc(0x00)
    5143                      .dwattr $C$DW$287, DW_AT_TI_symbol_name("_OS_Sched")
    5144                      .dwattr $C$DW$287, DW_AT_external
    5145                      .dwattr $C$DW$287, DW_AT_TI_begin_file("C:/ti/Workspace/PLC_certificate/Software/uCOS-II/Source/os_co
    5146                      .dwattr $C$DW$287, DW_AT_TI_begin_line(0x67f)
    5147                      .dwattr $C$DW$287, DW_AT_TI_begin_column(0x07)
    5148                      .dwattr $C$DW$287, DW_AT_TI_max_frame_size(-4)
    5149                      .dwpsn  file "C:/ti/Workspace/PLC_certificate/Software/uCOS-II/Source/os_core.c",line 1664,column 1,i
    5150              
    5151                      .dwfde $C$DW$CIE, _OS_Sched
    5152              
    5153              ;***************************************************************
    5154              ;* FNAME: _OS_Sched                     FR SIZE:   2           *
    5155              ;*                                                             *
    5156              ;* FUNCTION ENVIRONMENT                                        *
    5157              ;*                                                             *
    5158              ;* FUNCTION PROPERTIES                                         *
    5159              ;*                            0 Parameter,  1 Auto,  0 SOE     *
    5160              ;***************************************************************
    5161              
    5162 000005e8       _OS_Sched:
    5163                      .dwcfi  cfa_offset, -2
    5164                      .dwcfi  save_reg_to_mem, 26, 0
    5165 000005e8 FE02          ADDB      SP,#2                 ; [CPU_ARAU] 
    5166                      .dwcfi  cfa_offset, -4
    5167              $C$DW$288       .dwtag  DW_TAG_variable
    5168                      .dwattr $C$DW$288, DW_AT_name("cpu_sr")
    5169                      .dwattr $C$DW$288, DW_AT_TI_symbol_name("_cpu_sr")
    5170                      .dwattr $C$DW$288, DW_AT_type(*$C$DW$T$44)
    5171                      .dwattr $C$DW$288, DW_AT_location[DW_OP_breg20 -1]
    5172              
    5173                      .dwpsn  file "C:/ti/Workspace/PLC_certificate/Software/uCOS-II/Source/os_core.c",line 1666,column 23,
    5174 000005e9 2B41          MOV       *-SP[1],#0            ; [CPU_ALU] |1666| 
    5175                      .dwpsn  file "C:/ti/Workspace/PLC_certificate/Software/uCOS-II/Source/os_core.c",line 1671,column 5,i
    5176              $C$DW$289       .dwtag  DW_TAG_TI_branch
    5177                      .dwattr $C$DW$289, DW_AT_low_pc(0x00)
    5178                      .dwattr $C$DW$289, DW_AT_name("_OS_CPU_SR_Save")
    5179                      .dwattr $C$DW$289, DW_AT_TI_call
    5180              
    5181 000005ea 7640!         LCR       #_OS_CPU_SR_Save      ; [CPU_ALU] |1671| 
         000005eb 0000 
    5182                      ; call occurs [#_OS_CPU_SR_Save] ; [] |1671| 
    5183 000005ec 9641          MOV       *-SP[1],AL            ; [CPU_ALU] |1671| 
    5184                      .dwpsn  file "C:/ti/Workspace/PLC_certificate/Software/uCOS-II/Source/os_core.c",line 1672,column 5,i
    5185 000005ed 761F-         MOVW      DP,#_OSIntNesting     ; [CPU_ARAU] 
         000005ee 0000 
    5186 000005ef 9202-         MOV       AL,@_OSIntNesting     ; [CPU_ALU] |1672| 
    5187 000005f0 601D          B         $C$L97,NEQ            ; [CPU_ALU] |1672| 
TMS320C2000 Assembler PC v20.2.1 Tue Feb 16 00:15:57 2021

Copyright (c) 1996-2018 Texas Instruments Incorporated
os_core.asm                                                          PAGE   99

    5188                      ; branchcc occurs ; [] |1672| 
    5189                      .dwpsn  file "C:/ti/Workspace/PLC_certificate/Software/uCOS-II/Source/os_core.c",line 1673,column 9,i
    5190 000005f1 9203-         MOV       AL,@_OSLockNesting    ; [CPU_ALU] |1673| 
    5191 000005f2 601B          B         $C$L97,NEQ            ; [CPU_ALU] |1673| 
    5192                      ; branchcc occurs ; [] |1673| 
    5193                      .dwpsn  file "C:/ti/Workspace/PLC_certificate/Software/uCOS-II/Source/os_core.c",line 1674,column 13,
    5194              $C$DW$290       .dwtag  DW_TAG_TI_branch
    5195                      .dwattr $C$DW$290, DW_AT_low_pc(0x00)
    5196                      .dwattr $C$DW$290, DW_AT_name("_OS_SchedNew")
    5197                      .dwattr $C$DW$290, DW_AT_TI_call
    5198              
    5199 000005f3 7640'         LCR       #_OS_SchedNew         ; [CPU_ALU] |1674| 
         000005f4 0613 
    5200                      ; call occurs [#_OS_SchedNew] ; [] |1674| 
    5201                      .dwpsn  file "C:/ti/Workspace/PLC_certificate/Software/uCOS-II/Source/os_core.c",line 1675,column 13,
    5202 000005f5 2901          CLRC      SXM                   ; [CPU_ALU] 
    5203 000005f6 761F-         MOVW      DP,#_OSPrioHighRdy    ; [CPU_ARAU] 
         000005f7 0000 
    5204 000005f8 8F00-         MOVL      XAR4,#_OSTCBPrioTbl   ; [CPU_ARAU] |1675| 
         000005f9 0000 
    5205 000005fa 5603-         MOV       ACC,@_OSPrioHighRdy << 1 ; [CPU_ALU] |1675| 
         000005fb 0105 
    5206 000005fc 5601          ADDL      XAR4,ACC              ; [CPU_ALU] |1675| 
         000005fd 00A4 
    5207 000005fe 06C4          MOVL      ACC,*+XAR4[0]         ; [CPU_ALU] |1675| 
    5208 000005ff 1E1C-         MOVL      @_OSTCBHighRdy,ACC    ; [CPU_ALU] |1675| 
    5209                      .dwpsn  file "C:/ti/Workspace/PLC_certificate/Software/uCOS-II/Source/os_core.c",line 1676,column 13,
    5210 00000600 8805-         MOVZ      AR6,@_OSPrioHighRdy   ; [CPU_ALU] |1676| 
    5211 00000601 0E04-         MOVU      ACC,@_OSPrioCur       ; [CPU_ALU] |1676| 
    5212 00000602 0FA6          CMPL      ACC,XAR6              ; [CPU_ALU] |1676| 
    5213 00000603 610A          B         $C$L97,EQ             ; [CPU_ALU] |1676| 
    5214                      ; branchcc occurs ; [] |1676| 
    5215                      .dwpsn  file "C:/ti/Workspace/PLC_certificate/Software/uCOS-II/Source/os_core.c",line 1678,column 17,
    5216 00000604 0222          MOVB      ACC,#34               ; [CPU_ALU] |1678| 
    5217 00000605 071C-         ADDL      ACC,@_OSTCBHighRdy    ; [CPU_ALU] |1678| 
    5218 00000606 8AA9          MOVL      XAR4,ACC              ; [CPU_ALU] |1678| 
    5219 00000607 0201          MOVB      ACC,#1                ; [CPU_ALU] |1678| 
    5220 00000608 5601          ADDL      *+XAR4[0],ACC         ; [CPU_ALU] |1678| 
         00000609 00C4 
    5221                      .dwpsn  file "C:/ti/Workspace/PLC_certificate/Software/uCOS-II/Source/os_core.c",line 1680,column 17,
    5222 0000060a 5601-         ADDL      @_OSCtxSwCtr,ACC      ; [CPU_ALU] |1680| 
         0000060b 000C 
    5223                      .dwpsn  file "C:/ti/Workspace/PLC_certificate/Software/uCOS-II/Source/os_core.c",line 1688,column 17,
    5224 0000060c 0030   TRAP #16
    5225 0000060d       $C$L97:    
    5226                      .dwpsn  file "C:/ti/Workspace/PLC_certificate/Software/uCOS-II/Source/os_core.c",line 1692,column 5,i
    5227 0000060d 9241          MOV       AL,*-SP[1]            ; [CPU_ALU] |1692| 
    5228 0000060e FF69          SPM       #0                    ; [CPU_ALU] 
    5229              $C$DW$291       .dwtag  DW_TAG_TI_branch
    5230                      .dwattr $C$DW$291, DW_AT_low_pc(0x00)
    5231                      .dwattr $C$DW$291, DW_AT_name("_OS_CPU_SR_Restore")
    5232                      .dwattr $C$DW$291, DW_AT_TI_call
    5233              
    5234 0000060f 7640!         LCR       #_OS_CPU_SR_Restore   ; [CPU_ALU] |1692| 
         00000610 0000 
TMS320C2000 Assembler PC v20.2.1 Tue Feb 16 00:15:57 2021

Copyright (c) 1996-2018 Texas Instruments Incorporated
os_core.asm                                                          PAGE  100

    5235                      ; call occurs [#_OS_CPU_SR_Restore] ; [] |1692| 
    5236                      .dwpsn  file "C:/ti/Workspace/PLC_certificate/Software/uCOS-II/Source/os_core.c",line 1693,column 1,i
    5237 00000611 FE82          SUBB      SP,#2                 ; [CPU_ARAU] 
    5238                      .dwcfi  cfa_offset, -2
    5239              $C$DW$292       .dwtag  DW_TAG_TI_branch
    5240                      .dwattr $C$DW$292, DW_AT_low_pc(0x00)
    5241                      .dwattr $C$DW$292, DW_AT_TI_return
    5242              
    5243 00000612 0006          LRETR     ; [CPU_ALU] 
    5244                      ; return occurs ; [] 
    5245                      .dwattr $C$DW$287, DW_AT_TI_end_file("C:/ti/Workspace/PLC_certificate/Software/uCOS-II/Source/os_core
    5246                      .dwattr $C$DW$287, DW_AT_TI_end_line(0x69d)
    5247                      .dwattr $C$DW$287, DW_AT_TI_end_column(0x01)
    5248                      .dwendentry
    5249                      .dwendtag $C$DW$287
    5250              
    5251 00000613               .sect   ".text"
    5252                      .clink
    5253              
    5254              $C$DW$293       .dwtag  DW_TAG_subprogram
    5255                      .dwattr $C$DW$293, DW_AT_name("OS_SchedNew")
    5256                      .dwattr $C$DW$293, DW_AT_low_pc(_OS_SchedNew)
    5257                      .dwattr $C$DW$293, DW_AT_high_pc(0x00)
    5258                      .dwattr $C$DW$293, DW_AT_TI_symbol_name("_OS_SchedNew")
    5259                      .dwattr $C$DW$293, DW_AT_TI_begin_file("C:/ti/Workspace/PLC_certificate/Software/uCOS-II/Source/os_co
    5260                      .dwattr $C$DW$293, DW_AT_TI_begin_line(0x6b0)
    5261                      .dwattr $C$DW$293, DW_AT_TI_begin_column(0x0f)
    5262                      .dwattr $C$DW$293, DW_AT_TI_max_frame_size(-4)
    5263                      .dwpsn  file "C:/ti/Workspace/PLC_certificate/Software/uCOS-II/Source/os_core.c",line 1713,column 1,i
    5264              
    5265                      .dwfde $C$DW$CIE, _OS_SchedNew
    5266              
    5267              ;***************************************************************
    5268              ;* FNAME: _OS_SchedNew                  FR SIZE:   2           *
    5269              ;*                                                             *
    5270              ;* FUNCTION ENVIRONMENT                                        *
    5271              ;*                                                             *
    5272              ;* FUNCTION PROPERTIES                                         *
    5273              ;*                            0 Parameter,  1 Auto,  0 SOE     *
    5274              ;***************************************************************
    5275              
    5276 00000613       _OS_SchedNew:
    5277                      .dwcfi  cfa_offset, -2
    5278                      .dwcfi  save_reg_to_mem, 26, 0
    5279 00000613 FE02          ADDB      SP,#2                 ; [CPU_ARAU] 
    5280                      .dwcfi  cfa_offset, -4
    5281              $C$DW$294       .dwtag  DW_TAG_variable
    5282                      .dwattr $C$DW$294, DW_AT_name("y")
    5283                      .dwattr $C$DW$294, DW_AT_TI_symbol_name("_y")
    5284                      .dwattr $C$DW$294, DW_AT_type(*$C$DW$T$19)
    5285                      .dwattr $C$DW$294, DW_AT_location[DW_OP_breg20 -1]
    5286              
    5287                      .dwpsn  file "C:/ti/Workspace/PLC_certificate/Software/uCOS-II/Source/os_core.c",line 1718,column 5,i
    5288 00000614 761F-         MOVW      DP,#_OSRdyGrp         ; [CPU_ARAU] 
         00000615 0000 
TMS320C2000 Assembler PC v20.2.1 Tue Feb 16 00:15:57 2021

Copyright (c) 1996-2018 Texas Instruments Incorporated
os_core.asm                                                          PAGE  101

    5289 00000616 5806-         MOVZ      AR0,@_OSRdyGrp        ; [CPU_ALU] |1718| 
    5290 00000617 8F00+         MOVL      XAR4,#_OSUnMapTbl     ; [CPU_ARAU] |1718| 
         00000618 0000 
    5291 00000619 9294          MOV       AL,*+XAR4[AR0]        ; [CPU_ALU] |1718| 
    5292 0000061a 9641          MOV       *-SP[1],AL            ; [CPU_ALU] |1718| 
    5293                      .dwpsn  file "C:/ti/Workspace/PLC_certificate/Software/uCOS-II/Source/os_core.c",line 1719,column 5,i
    5294 0000061b 5841          MOVZ      AR0,*-SP[1]           ; [CPU_ALU] |1719| 
    5295 0000061c 8F00-         MOVL      XAR4,#_OSRdyTbl       ; [CPU_ARAU] |1719| 
         0000061d 0000 
    5296 0000061e 5894          MOVZ      AR0,*+XAR4[AR0]       ; [CPU_ALU] |1719| 
    5297 0000061f 5603          MOV       ACC,*-SP[1] << #3     ; [CPU_ALU] |1719| 
         00000620 0341 
    5298 00000621 8F00+         MOVL      XAR4,#_OSUnMapTbl     ; [CPU_ARAU] |1719| 
         00000622 0000 
    5299 00000623 9494          ADD       AL,*+XAR4[AR0]        ; [CPU_ALU] |1719| 
    5300 00000624 9605-         MOV       @_OSPrioHighRdy,AL    ; [CPU_ALU] |1719| 
    5301                      .dwpsn  file "C:/ti/Workspace/PLC_certificate/Software/uCOS-II/Source/os_core.c",line 1737,column 1,i
    5302 00000625 FE82          SUBB      SP,#2                 ; [CPU_ARAU] 
    5303                      .dwcfi  cfa_offset, -2
    5304              $C$DW$295       .dwtag  DW_TAG_TI_branch
    5305                      .dwattr $C$DW$295, DW_AT_low_pc(0x00)
    5306                      .dwattr $C$DW$295, DW_AT_TI_return
    5307              
    5308 00000626 0006          LRETR     ; [CPU_ALU] 
    5309                      ; return occurs ; [] 
    5310                      .dwattr $C$DW$293, DW_AT_TI_end_file("C:/ti/Workspace/PLC_certificate/Software/uCOS-II/Source/os_core
    5311                      .dwattr $C$DW$293, DW_AT_TI_end_line(0x6c9)
    5312                      .dwattr $C$DW$293, DW_AT_TI_end_column(0x01)
    5313                      .dwendentry
    5314                      .dwendtag $C$DW$293
    5315              
    5316 00000627               .sect   ".text"
    5317                      .clink
    5318                      .global _OS_StrLen
    5319              
    5320              $C$DW$296       .dwtag  DW_TAG_subprogram
    5321                      .dwattr $C$DW$296, DW_AT_name("OS_StrLen")
    5322                      .dwattr $C$DW$296, DW_AT_low_pc(_OS_StrLen)
    5323                      .dwattr $C$DW$296, DW_AT_high_pc(0x00)
    5324                      .dwattr $C$DW$296, DW_AT_TI_symbol_name("_OS_StrLen")
    5325                      .dwattr $C$DW$296, DW_AT_external
    5326                      .dwattr $C$DW$296, DW_AT_type(*$C$DW$T$19)
    5327                      .dwattr $C$DW$296, DW_AT_TI_begin_file("C:/ti/Workspace/PLC_certificate/Software/uCOS-II/Source/os_co
    5328                      .dwattr $C$DW$296, DW_AT_TI_begin_line(0x6dd)
    5329                      .dwattr $C$DW$296, DW_AT_TI_begin_column(0x08)
    5330                      .dwattr $C$DW$296, DW_AT_TI_max_frame_size(-6)
    5331                      .dwpsn  file "C:/ti/Workspace/PLC_certificate/Software/uCOS-II/Source/os_core.c",line 1758,column 1,i
    5332              
    5333                      .dwfde $C$DW$CIE, _OS_StrLen
    5334              $C$DW$297       .dwtag  DW_TAG_formal_parameter
    5335                      .dwattr $C$DW$297, DW_AT_name("psrc")
    5336                      .dwattr $C$DW$297, DW_AT_TI_symbol_name("_psrc")
    5337                      .dwattr $C$DW$297, DW_AT_type(*$C$DW$T$23)
    5338                      .dwattr $C$DW$297, DW_AT_location[DW_OP_reg12]
    5339              
TMS320C2000 Assembler PC v20.2.1 Tue Feb 16 00:15:57 2021

Copyright (c) 1996-2018 Texas Instruments Incorporated
os_core.asm                                                          PAGE  102

    5340              
    5341              ;***************************************************************
    5342              ;* FNAME: _OS_StrLen                    FR SIZE:   4           *
    5343              ;*                                                             *
    5344              ;* FUNCTION ENVIRONMENT                                        *
    5345              ;*                                                             *
    5346              ;* FUNCTION PROPERTIES                                         *
    5347              ;*                            0 Parameter,  3 Auto,  0 SOE     *
    5348              ;***************************************************************
    5349              
    5350 00000627       _OS_StrLen:
    5351                      .dwcfi  cfa_offset, -2
    5352                      .dwcfi  save_reg_to_mem, 26, 0
    5353 00000627 FE04          ADDB      SP,#4                 ; [CPU_ARAU] 
    5354                      .dwcfi  cfa_offset, -6
    5355              $C$DW$298       .dwtag  DW_TAG_variable
    5356                      .dwattr $C$DW$298, DW_AT_name("psrc")
    5357                      .dwattr $C$DW$298, DW_AT_TI_symbol_name("_psrc")
    5358                      .dwattr $C$DW$298, DW_AT_type(*$C$DW$T$23)
    5359                      .dwattr $C$DW$298, DW_AT_location[DW_OP_breg20 -2]
    5360              
    5361              $C$DW$299       .dwtag  DW_TAG_variable
    5362                      .dwattr $C$DW$299, DW_AT_name("len")
    5363                      .dwattr $C$DW$299, DW_AT_TI_symbol_name("_len")
    5364                      .dwattr $C$DW$299, DW_AT_type(*$C$DW$T$19)
    5365                      .dwattr $C$DW$299, DW_AT_location[DW_OP_breg20 -3]
    5366              
    5367 00000628 A842          MOVL      *-SP[2],XAR4          ; [CPU_ALU] |1758| 
    5368                      .dwpsn  file "C:/ti/Workspace/PLC_certificate/Software/uCOS-II/Source/os_core.c",line 1763,column 5,i
    5369 00000629 0642          MOVL      ACC,*-SP[2]           ; [CPU_ALU] |1763| 
    5370 0000062a 6003          B         $C$L98,NEQ            ; [CPU_ALU] |1763| 
    5371                      ; branchcc occurs ; [] |1763| 
    5372                      .dwpsn  file "C:/ti/Workspace/PLC_certificate/Software/uCOS-II/Source/os_core.c",line 1764,column 9,i
    5373 0000062b 9A00          MOVB      AL,#0                 ; [CPU_ALU] |1764| 
    5374 0000062c 6F0B          B         $C$L101,UNC           ; [CPU_ALU] |1764| 
    5375                      ; branch occurs ; [] |1764| 
    5376 0000062d       $C$L98:    
    5377                      .dwpsn  file "C:/ti/Workspace/PLC_certificate/Software/uCOS-II/Source/os_core.c",line 1768,column 5,i
    5378 0000062d 2B43          MOV       *-SP[3],#0            ; [CPU_ALU] |1768| 
    5379                      .dwpsn  file "C:/ti/Workspace/PLC_certificate/Software/uCOS-II/Source/os_core.c",line 1769,column 5,i
    5380 0000062e 6F05          B         $C$L100,UNC           ; [CPU_ALU] |1769| 
    5381                      ; branch occurs ; [] |1769| 
    5382 0000062f       $C$L99:    
    5383                      .dwpsn  file "C:/ti/Workspace/PLC_certificate/Software/uCOS-II/Source/os_core.c",line 1770,column 9,i
    5384 0000062f 0201          MOVB      ACC,#1                ; [CPU_ALU] |1770| 
    5385 00000630 0742          ADDL      ACC,*-SP[2]           ; [CPU_ALU] |1770| 
    5386 00000631 1E42          MOVL      *-SP[2],ACC           ; [CPU_ALU] |1770| 
    5387                      .dwpsn  file "C:/ti/Workspace/PLC_certificate/Software/uCOS-II/Source/os_core.c",line 1771,column 9,i
    5388 00000632 0A43          INC       *-SP[3]               ; [CPU_ALU] |1771| 
    5389 00000633       $C$L100:    
    5390                      .dwpsn  file "C:/ti/Workspace/PLC_certificate/Software/uCOS-II/Source/os_core.c",line 1769,column 12,
    5391 00000633 8A42          MOVL      XAR4,*-SP[2]          ; [CPU_ALU] |1769| 
    5392 00000634 92C4          MOV       AL,*+XAR4[0]          ; [CPU_ALU] |1769| 
    5393 00000635 60FA          B         $C$L99,NEQ            ; [CPU_ALU] |1769| 
    5394                      ; branchcc occurs ; [] |1769| 
TMS320C2000 Assembler PC v20.2.1 Tue Feb 16 00:15:57 2021

Copyright (c) 1996-2018 Texas Instruments Incorporated
os_core.asm                                                          PAGE  103

    5395                      .dwpsn  file "C:/ti/Workspace/PLC_certificate/Software/uCOS-II/Source/os_core.c",line 1773,column 5,i
    5396 00000636 9243          MOV       AL,*-SP[3]            ; [CPU_ALU] |1773| 
    5397 00000637       $C$L101:    
    5398                      .dwpsn  file "C:/ti/Workspace/PLC_certificate/Software/uCOS-II/Source/os_core.c",line 1774,column 1,i
    5399 00000637 FE84          SUBB      SP,#4                 ; [CPU_ARAU] 
    5400                      .dwcfi  cfa_offset, -2
    5401              $C$DW$300       .dwtag  DW_TAG_TI_branch
    5402                      .dwattr $C$DW$300, DW_AT_low_pc(0x00)
    5403                      .dwattr $C$DW$300, DW_AT_TI_return
    5404              
    5405 00000638 0006          LRETR     ; [CPU_ALU] 
    5406                      ; return occurs ; [] 
    5407                      .dwattr $C$DW$296, DW_AT_TI_end_file("C:/ti/Workspace/PLC_certificate/Software/uCOS-II/Source/os_core
    5408                      .dwattr $C$DW$296, DW_AT_TI_end_line(0x6ee)
    5409                      .dwattr $C$DW$296, DW_AT_TI_end_column(0x01)
    5410                      .dwendentry
    5411                      .dwendtag $C$DW$296
    5412              
    5413 00000639               .sect   ".text"
    5414                      .clink
    5415                      .global _OS_TaskIdle
    5416              
    5417              $C$DW$301       .dwtag  DW_TAG_subprogram
    5418                      .dwattr $C$DW$301, DW_AT_name("OS_TaskIdle")
    5419                      .dwattr $C$DW$301, DW_AT_low_pc(_OS_TaskIdle)
    5420                      .dwattr $C$DW$301, DW_AT_high_pc(0x00)
    5421                      .dwattr $C$DW$301, DW_AT_TI_symbol_name("_OS_TaskIdle")
    5422                      .dwattr $C$DW$301, DW_AT_external
    5423                      .dwattr $C$DW$301, DW_AT_TI_begin_file("C:/ti/Workspace/PLC_certificate/Software/uCOS-II/Source/os_co
    5424                      .dwattr $C$DW$301, DW_AT_TI_begin_line(0x706)
    5425                      .dwattr $C$DW$301, DW_AT_TI_begin_column(0x07)
    5426                      .dwattr $C$DW$301, DW_AT_TI_max_frame_size(-6)
    5427                      .dwpsn  file "C:/ti/Workspace/PLC_certificate/Software/uCOS-II/Source/os_core.c",line 1799,column 1,i
    5428              
    5429                      .dwfde $C$DW$CIE, _OS_TaskIdle
    5430              $C$DW$302       .dwtag  DW_TAG_formal_parameter
    5431                      .dwattr $C$DW$302, DW_AT_name("p_arg")
    5432                      .dwattr $C$DW$302, DW_AT_TI_symbol_name("_p_arg")
    5433                      .dwattr $C$DW$302, DW_AT_type(*$C$DW$T$3)
    5434                      .dwattr $C$DW$302, DW_AT_location[DW_OP_reg12]
    5435              
    5436              
    5437              ;***************************************************************
    5438              ;* FNAME: _OS_TaskIdle                  FR SIZE:   4           *
    5439              ;*                                                             *
    5440              ;* FUNCTION ENVIRONMENT                                        *
    5441              ;*                                                             *
    5442              ;* FUNCTION PROPERTIES                                         *
    5443              ;*                            0 Parameter,  3 Auto,  0 SOE     *
    5444              ;***************************************************************
    5445              
    5446 00000639       _OS_TaskIdle:
    5447                      .dwcfi  cfa_offset, -2
    5448                      .dwcfi  save_reg_to_mem, 26, 0
    5449 00000639 FE04          ADDB      SP,#4                 ; [CPU_ARAU] 
TMS320C2000 Assembler PC v20.2.1 Tue Feb 16 00:15:57 2021

Copyright (c) 1996-2018 Texas Instruments Incorporated
os_core.asm                                                          PAGE  104

    5450                      .dwcfi  cfa_offset, -6
    5451              $C$DW$303       .dwtag  DW_TAG_variable
    5452                      .dwattr $C$DW$303, DW_AT_name("p_arg")
    5453                      .dwattr $C$DW$303, DW_AT_TI_symbol_name("_p_arg")
    5454                      .dwattr $C$DW$303, DW_AT_type(*$C$DW$T$3)
    5455                      .dwattr $C$DW$303, DW_AT_location[DW_OP_breg20 -2]
    5456              
    5457              $C$DW$304       .dwtag  DW_TAG_variable
    5458                      .dwattr $C$DW$304, DW_AT_name("cpu_sr")
    5459                      .dwattr $C$DW$304, DW_AT_TI_symbol_name("_cpu_sr")
    5460                      .dwattr $C$DW$304, DW_AT_type(*$C$DW$T$44)
    5461                      .dwattr $C$DW$304, DW_AT_location[DW_OP_breg20 -3]
    5462              
    5463 0000063a A842          MOVL      *-SP[2],XAR4          ; [CPU_ALU] |1799| 
    5464                      .dwpsn  file "C:/ti/Workspace/PLC_certificate/Software/uCOS-II/Source/os_core.c",line 1801,column 23,
    5465 0000063b 2B43          MOV       *-SP[3],#0            ; [CPU_ALU] |1801| 
    5466                      .dwpsn  file "C:/ti/Workspace/PLC_certificate/Software/uCOS-II/Source/os_core.c",line 1806,column 5,i
    5467 0000063c       $C$L102:    
    5468                      .dwpsn  file "C:/ti/Workspace/PLC_certificate/Software/uCOS-II/Source/os_core.c",line 1808,column 9,i
    5469 0000063c 761F!         MOVW      DP,#_TaskID           ; [CPU_ARAU] 
         0000063d 0000 
    5470 0000063e 56BF!         MOVB      @_TaskID,#63,UNC      ; [CPU_ALU] |1808| 
         0000063f 3F00 
    5471                      .dwpsn  file "C:/ti/Workspace/PLC_certificate/Software/uCOS-II/Source/os_core.c",line 1809,column 9,i
    5472              $C$DW$305       .dwtag  DW_TAG_TI_branch
    5473                      .dwattr $C$DW$305, DW_AT_low_pc(0x00)
    5474                      .dwattr $C$DW$305, DW_AT_name("_OS_CPU_SR_Save")
    5475                      .dwattr $C$DW$305, DW_AT_TI_call
    5476              
    5477 00000640 7640!         LCR       #_OS_CPU_SR_Save      ; [CPU_ALU] |1809| 
         00000641 0000 
    5478                      ; call occurs [#_OS_CPU_SR_Save] ; [] |1809| 
    5479 00000642 9643          MOV       *-SP[3],AL            ; [CPU_ALU] |1809| 
    5480                      .dwpsn  file "C:/ti/Workspace/PLC_certificate/Software/uCOS-II/Source/os_core.c",line 1810,column 9,i
    5481 00000643 761F-         MOVW      DP,#_OSIdleCtr        ; [CPU_ARAU] 
         00000644 0000 
    5482 00000645 0201          MOVB      ACC,#1                ; [CPU_ALU] |1810| 
    5483 00000646 5601-         ADDL      @_OSIdleCtr,ACC       ; [CPU_ALU] |1810| 
         00000647 0016 
    5484                      .dwpsn  file "C:/ti/Workspace/PLC_certificate/Software/uCOS-II/Source/os_core.c",line 1811,column 9,i
    5485 00000648 9243          MOV       AL,*-SP[3]            ; [CPU_ALU] |1811| 
    5486              $C$DW$306       .dwtag  DW_TAG_TI_branch
    5487                      .dwattr $C$DW$306, DW_AT_low_pc(0x00)
    5488                      .dwattr $C$DW$306, DW_AT_name("_OS_CPU_SR_Restore")
    5489                      .dwattr $C$DW$306, DW_AT_TI_call
    5490              
    5491 00000649 7640!         LCR       #_OS_CPU_SR_Restore   ; [CPU_ALU] |1811| 
         0000064a 0000 
    5492                      ; call occurs [#_OS_CPU_SR_Restore] ; [] |1811| 
    5493                      .dwpsn  file "C:/ti/Workspace/PLC_certificate/Software/uCOS-II/Source/os_core.c",line 1812,column 9,i
    5494              $C$DW$307       .dwtag  DW_TAG_TI_branch
    5495                      .dwattr $C$DW$307, DW_AT_low_pc(0x00)
    5496                      .dwattr $C$DW$307, DW_AT_name("_OSTaskIdleHook")
    5497                      .dwattr $C$DW$307, DW_AT_TI_call
    5498              
TMS320C2000 Assembler PC v20.2.1 Tue Feb 16 00:15:57 2021

Copyright (c) 1996-2018 Texas Instruments Incorporated
os_core.asm                                                          PAGE  105

    5499 0000064b 7640!         LCR       #_OSTaskIdleHook      ; [CPU_ALU] |1812| 
         0000064c 0000 
    5500                      ; call occurs [#_OSTaskIdleHook] ; [] |1812| 
    5501                      .dwpsn  file "C:/ti/Workspace/PLC_certificate/Software/uCOS-II/Source/os_core.c",line 1813,column 5,i
    5502 0000064d 6FEF          B         $C$L102,UNC           ; [CPU_ALU] |1813| 
    5503                      ; branch occurs ; [] |1813| 
    5504                      .dwattr $C$DW$301, DW_AT_TI_end_file("C:/ti/Workspace/PLC_certificate/Software/uCOS-II/Source/os_core
    5505                      .dwattr $C$DW$301, DW_AT_TI_end_line(0x716)
    5506                      .dwattr $C$DW$301, DW_AT_TI_end_column(0x01)
    5507                      .dwendentry
    5508                      .dwendtag $C$DW$301
    5509              
    5510 0000064e               .sect   ".text"
    5511                      .clink
    5512                      .global _OS_TaskStat
    5513              
    5514              $C$DW$308       .dwtag  DW_TAG_subprogram
    5515                      .dwattr $C$DW$308, DW_AT_name("OS_TaskStat")
    5516                      .dwattr $C$DW$308, DW_AT_low_pc(_OS_TaskStat)
    5517                      .dwattr $C$DW$308, DW_AT_high_pc(0x00)
    5518                      .dwattr $C$DW$308, DW_AT_TI_symbol_name("_OS_TaskStat")
    5519                      .dwattr $C$DW$308, DW_AT_external
    5520                      .dwattr $C$DW$308, DW_AT_TI_begin_file("C:/ti/Workspace/PLC_certificate/Software/uCOS-II/Source/os_co
    5521                      .dwattr $C$DW$308, DW_AT_TI_begin_line(0x731)
    5522                      .dwattr $C$DW$308, DW_AT_TI_begin_column(0x07)
    5523                      .dwattr $C$DW$308, DW_AT_TI_max_frame_size(-6)
    5524                      .dwpsn  file "C:/ti/Workspace/PLC_certificate/Software/uCOS-II/Source/os_core.c",line 1842,column 1,i
    5525              
    5526                      .dwfde $C$DW$CIE, _OS_TaskStat
    5527              $C$DW$309       .dwtag  DW_TAG_formal_parameter
    5528                      .dwattr $C$DW$309, DW_AT_name("p_arg")
    5529                      .dwattr $C$DW$309, DW_AT_TI_symbol_name("_p_arg")
    5530                      .dwattr $C$DW$309, DW_AT_type(*$C$DW$T$3)
    5531                      .dwattr $C$DW$309, DW_AT_location[DW_OP_reg12]
    5532              
    5533              
    5534              ;***************************************************************
    5535              ;* FNAME: _OS_TaskStat                  FR SIZE:   4           *
    5536              ;*                                                             *
    5537              ;* FUNCTION ENVIRONMENT                                        *
    5538              ;*                                                             *
    5539              ;* FUNCTION PROPERTIES                                         *
    5540              ;*                            0 Parameter,  3 Auto,  0 SOE     *
    5541              ;***************************************************************
    5542              
    5543 0000064e       _OS_TaskStat:
    5544                      .dwcfi  cfa_offset, -2
    5545                      .dwcfi  save_reg_to_mem, 26, 0
    5546 0000064e FE04          ADDB      SP,#4                 ; [CPU_ARAU] 
    5547                      .dwcfi  cfa_offset, -6
    5548              $C$DW$310       .dwtag  DW_TAG_variable
    5549                      .dwattr $C$DW$310, DW_AT_name("p_arg")
    5550                      .dwattr $C$DW$310, DW_AT_TI_symbol_name("_p_arg")
    5551                      .dwattr $C$DW$310, DW_AT_type(*$C$DW$T$3)
    5552                      .dwattr $C$DW$310, DW_AT_location[DW_OP_breg20 -2]
TMS320C2000 Assembler PC v20.2.1 Tue Feb 16 00:15:57 2021

Copyright (c) 1996-2018 Texas Instruments Incorporated
os_core.asm                                                          PAGE  106

    5553              
    5554              $C$DW$311       .dwtag  DW_TAG_variable
    5555                      .dwattr $C$DW$311, DW_AT_name("cpu_sr")
    5556                      .dwattr $C$DW$311, DW_AT_TI_symbol_name("_cpu_sr")
    5557                      .dwattr $C$DW$311, DW_AT_type(*$C$DW$T$44)
    5558                      .dwattr $C$DW$311, DW_AT_location[DW_OP_breg20 -3]
    5559              
    5560 0000064f A842          MOVL      *-SP[2],XAR4          ; [CPU_ALU] |1842| 
    5561                      .dwpsn  file "C:/ti/Workspace/PLC_certificate/Software/uCOS-II/Source/os_core.c",line 1844,column 23,
    5562 00000650 2B43          MOV       *-SP[3],#0            ; [CPU_ALU] |1844| 
    5563                      .dwpsn  file "C:/ti/Workspace/PLC_certificate/Software/uCOS-II/Source/os_core.c",line 1849,column 5,i
    5564                      .dwpsn  file "C:/ti/Workspace/PLC_certificate/Software/uCOS-II/Source/os_core.c",line 1850,column 12,
    5565 00000651 761F-         MOVW      DP,#_OSStatRdy        ; [CPU_ARAU] 
         00000652 0000 
    5566 00000653 9201-         MOV       AL,@_OSStatRdy        ; [CPU_ALU] |1850| 
    5567 00000654 6008          B         $C$L104,NEQ           ; [CPU_ALU] |1850| 
    5568                      ; branchcc occurs ; [] |1850| 
    5569 00000655       $C$L103:    
    5570                      .dwpsn  file "C:/ti/Workspace/PLC_certificate/Software/uCOS-II/Source/os_core.c",line 1851,column 9,i
    5571 00000655 02C8          MOVB      ACC,#200              ; [CPU_ALU] |1851| 
    5572              $C$DW$312       .dwtag  DW_TAG_TI_branch
    5573                      .dwattr $C$DW$312, DW_AT_low_pc(0x00)
    5574                      .dwattr $C$DW$312, DW_AT_name("_OSTimeDly")
    5575                      .dwattr $C$DW$312, DW_AT_TI_call
    5576              
    5577 00000656 7640!         LCR       #_OSTimeDly           ; [CPU_ALU] |1851| 
         00000657 0000 
    5578                      ; call occurs [#_OSTimeDly] ; [] |1851| 
    5579                      .dwpsn  file "C:/ti/Workspace/PLC_certificate/Software/uCOS-II/Source/os_core.c",line 1850,column 12,
    5580 00000658 761F-         MOVW      DP,#_OSStatRdy        ; [CPU_ARAU] 
         00000659 0000 
    5581 0000065a 9201-         MOV       AL,@_OSStatRdy        ; [CPU_ALU] |1850| 
    5582 0000065b 61FA          B         $C$L103,EQ            ; [CPU_ALU] |1850| 
    5583                      ; branchcc occurs ; [] |1850| 
    5584 0000065c       $C$L104:    
    5585                      .dwpsn  file "C:/ti/Workspace/PLC_certificate/Software/uCOS-II/Source/os_core.c",line 1853,column 5,i
    5586 0000065c 0264          MOVB      ACC,#100              ; [CPU_ALU] |1853| 
    5587 0000065d 1EA6          MOVL      XAR6,ACC              ; [CPU_ALU] |1853| 
    5588 0000065e A312-         MOVL      P,@_OSIdleCtrMax      ; [CPU_ALU] |1853| 
    5589 0000065f 0200          MOVB      ACC,#0                ; [CPU_ALU] |1853| 
    5590 00000660 F61F          RPT       #31
    5591 00000661 5617  ||     SUBCUL    ACC,XAR6              ; [CPU_ALU] |1853| 
         00000662 00A6 
    5592 00000663 A912-         MOVL      @_OSIdleCtrMax,P      ; [CPU_ALU] |1853| 
    5593                      .dwpsn  file "C:/ti/Workspace/PLC_certificate/Software/uCOS-II/Source/os_core.c",line 1854,column 5,i
    5594 00000664 0612-         MOVL      ACC,@_OSIdleCtrMax    ; [CPU_ALU] |1854| 
    5595 00000665 6005          B         $C$L105,NEQ           ; [CPU_ALU] |1854| 
    5596                      ; branchcc occurs ; [] |1854| 
    5597                      .dwpsn  file "C:/ti/Workspace/PLC_certificate/Software/uCOS-II/Source/os_core.c",line 1855,column 9,i
    5598 00000666 2B00-         MOV       @_OSCPUUsage,#0       ; [CPU_ALU] |1855| 
    5599                      .dwpsn  file "C:/ti/Workspace/PLC_certificate/Software/uCOS-II/Source/os_core.c",line 1857,column 9,i
    5600 00000667 9AFF          MOVB      AL,#255               ; [CPU_ALU] |1857| 
    5601              $C$DW$313       .dwtag  DW_TAG_TI_branch
    5602                      .dwattr $C$DW$313, DW_AT_low_pc(0x00)
    5603                      .dwattr $C$DW$313, DW_AT_name("_OSTaskSuspend")
TMS320C2000 Assembler PC v20.2.1 Tue Feb 16 00:15:57 2021

Copyright (c) 1996-2018 Texas Instruments Incorporated
os_core.asm                                                          PAGE  107

    5604                      .dwattr $C$DW$313, DW_AT_TI_call
    5605              
    5606 00000668 7640!         LCR       #_OSTaskSuspend       ; [CPU_ALU] |1857| 
         00000669 0000 
    5607                      ; call occurs [#_OSTaskSuspend] ; [] |1857| 
    5608 0000066a       $C$L105:    
    5609                      .dwpsn  file "C:/ti/Workspace/PLC_certificate/Software/uCOS-II/Source/os_core.c",line 1864,column 5,i
    5610              $C$DW$314       .dwtag  DW_TAG_TI_branch
    5611                      .dwattr $C$DW$314, DW_AT_low_pc(0x00)
    5612                      .dwattr $C$DW$314, DW_AT_name("_OS_CPU_SR_Save")
    5613                      .dwattr $C$DW$314, DW_AT_TI_call
    5614              
    5615 0000066a 7640!         LCR       #_OS_CPU_SR_Save      ; [CPU_ALU] |1864| 
         0000066b 0000 
    5616                      ; call occurs [#_OS_CPU_SR_Save] ; [] |1864| 
    5617 0000066c 9643          MOV       *-SP[3],AL            ; [CPU_ALU] |1864| 
    5618                      .dwpsn  file "C:/ti/Workspace/PLC_certificate/Software/uCOS-II/Source/os_core.c",line 1865,column 5,i
    5619 0000066d 761F-         MOVW      DP,#_OSIdleCtrMax     ; [CPU_ARAU] 
         0000066e 0000 
    5620 0000066f 0264          MOVB      ACC,#100              ; [CPU_ALU] |1865| 
    5621 00000670 1EAC          MOVL      XT,ACC                ; [CPU_ALU] |1865| 
    5622 00000671 5665-         IMPYXUL   P,XT,@_OSIdleCtrMax   ; [CPU_ALU] |1865| 
         00000672 0012 
    5623 00000673 A916-         MOVL      @_OSIdleCtr,P         ; [CPU_ALU] |1865| 
    5624                      .dwpsn  file "C:/ti/Workspace/PLC_certificate/Software/uCOS-II/Source/os_core.c",line 1866,column 5,i
    5625 00000674 9243          MOV       AL,*-SP[3]            ; [CPU_ALU] |1866| 
    5626              $C$DW$315       .dwtag  DW_TAG_TI_branch
    5627                      .dwattr $C$DW$315, DW_AT_low_pc(0x00)
    5628                      .dwattr $C$DW$315, DW_AT_name("_OS_CPU_SR_Restore")
    5629                      .dwattr $C$DW$315, DW_AT_TI_call
    5630              
    5631 00000675 7640!         LCR       #_OS_CPU_SR_Restore   ; [CPU_ALU] |1866| 
         00000676 0000 
    5632                      ; call occurs [#_OS_CPU_SR_Restore] ; [] |1866| 
    5633 00000677       $C$L106:    
    5634                      .dwpsn  file "C:/ti/Workspace/PLC_certificate/Software/uCOS-II/Source/os_core.c",line 1868,column 9,i
    5635 00000677 761F!         MOVW      DP,#_TaskID           ; [CPU_ARAU] 
         00000678 0000 
    5636 00000679 56BF!         MOVB      @_TaskID,#62,UNC      ; [CPU_ALU] |1868| 
         0000067a 3E00 
    5637                      .dwpsn  file "C:/ti/Workspace/PLC_certificate/Software/uCOS-II/Source/os_core.c",line 1869,column 9,i
    5638              $C$DW$316       .dwtag  DW_TAG_TI_branch
    5639                      .dwattr $C$DW$316, DW_AT_low_pc(0x00)
    5640                      .dwattr $C$DW$316, DW_AT_name("_OS_CPU_SR_Save")
    5641                      .dwattr $C$DW$316, DW_AT_TI_call
    5642              
    5643 0000067b 7640!         LCR       #_OS_CPU_SR_Save      ; [CPU_ALU] |1869| 
         0000067c 0000 
    5644                      ; call occurs [#_OS_CPU_SR_Save] ; [] |1869| 
    5645 0000067d 9643          MOV       *-SP[3],AL            ; [CPU_ALU] |1869| 
    5646                      .dwpsn  file "C:/ti/Workspace/PLC_certificate/Software/uCOS-II/Source/os_core.c",line 1870,column 9,i
    5647 0000067e 761F-         MOVW      DP,#_OSIdleCtr        ; [CPU_ARAU] 
         0000067f 0000 
    5648 00000680 0616-         MOVL      ACC,@_OSIdleCtr       ; [CPU_ALU] |1870| 
    5649 00000681 1E14-         MOVL      @_OSIdleCtrRun,ACC    ; [CPU_ALU] |1870| 
TMS320C2000 Assembler PC v20.2.1 Tue Feb 16 00:15:57 2021

Copyright (c) 1996-2018 Texas Instruments Incorporated
os_core.asm                                                          PAGE  108

    5650                      .dwpsn  file "C:/ti/Workspace/PLC_certificate/Software/uCOS-II/Source/os_core.c",line 1871,column 9,i
    5651 00000682 0200          MOVB      ACC,#0                ; [CPU_ALU] |1871| 
    5652 00000683 1E16-         MOVL      @_OSIdleCtr,ACC       ; [CPU_ALU] |1871| 
    5653                      .dwpsn  file "C:/ti/Workspace/PLC_certificate/Software/uCOS-II/Source/os_core.c",line 1872,column 9,i
    5654 00000684 9243          MOV       AL,*-SP[3]            ; [CPU_ALU] |1872| 
    5655              $C$DW$317       .dwtag  DW_TAG_TI_branch
    5656                      .dwattr $C$DW$317, DW_AT_low_pc(0x00)
    5657                      .dwattr $C$DW$317, DW_AT_name("_OS_CPU_SR_Restore")
    5658                      .dwattr $C$DW$317, DW_AT_TI_call
    5659              
    5660 00000685 7640!         LCR       #_OS_CPU_SR_Restore   ; [CPU_ALU] |1872| 
         00000686 0000 
    5661                      ; call occurs [#_OS_CPU_SR_Restore] ; [] |1872| 
    5662                      .dwpsn  file "C:/ti/Workspace/PLC_certificate/Software/uCOS-II/Source/os_core.c",line 1873,column 9,i
    5663 00000687 020A          MOVB      ACC,#10               ; [CPU_ALU] |1873| 
    5664 00000688 1EA6          MOVL      XAR6,ACC              ; [CPU_ALU] |1873| 
    5665 00000689 761F-         MOVW      DP,#_OSIdleCtrRun     ; [CPU_ARAU] 
         0000068a 0000 
    5666 0000068b A314-         MOVL      P,@_OSIdleCtrRun      ; [CPU_ALU] |1873| 
    5667 0000068c 0200          MOVB      ACC,#0                ; [CPU_ALU] |1873| 
    5668 0000068d F61F          RPT       #31
    5669 0000068e 5617  ||     SUBCUL    ACC,XAR6              ; [CPU_ALU] |1873| 
         0000068f 00A6 
    5670 00000690 0200          MOVB      ACC,#0                ; [CPU_ALU] |1873| 
    5671 00000691 F61F          RPT       #31
    5672 00000692 5617- ||     SUBCUL    ACC,@_OSIdleCtrMax    ; [CPU_ALU] |1873| 
         00000693 0012 
    5673 00000694 9A64          MOVB      AL,#100               ; [CPU_ALU] |1873| 
    5674 00000695 9EAB          SUB       AL,PL                 ; [CPU_ALU] |1873| 
    5675 00000696 9600-         MOV       @_OSCPUUsage,AL       ; [CPU_ALU] |1873| 
    5676                      .dwpsn  file "C:/ti/Workspace/PLC_certificate/Software/uCOS-II/Source/os_core.c",line 1874,column 9,i
    5677              $C$DW$318       .dwtag  DW_TAG_TI_branch
    5678                      .dwattr $C$DW$318, DW_AT_low_pc(0x00)
    5679                      .dwattr $C$DW$318, DW_AT_name("_OSTaskStatHook")
    5680                      .dwattr $C$DW$318, DW_AT_TI_call
    5681              
    5682 00000697 7640!         LCR       #_OSTaskStatHook      ; [CPU_ALU] |1874| 
         00000698 0000 
    5683                      ; call occurs [#_OSTaskStatHook] ; [] |1874| 
    5684                      .dwpsn  file "C:/ti/Workspace/PLC_certificate/Software/uCOS-II/Source/os_core.c",line 1876,column 9,i
    5685              $C$DW$319       .dwtag  DW_TAG_TI_branch
    5686                      .dwattr $C$DW$319, DW_AT_low_pc(0x00)
    5687                      .dwattr $C$DW$319, DW_AT_name("_OS_TaskStatStkChk")
    5688                      .dwattr $C$DW$319, DW_AT_TI_call
    5689              
    5690 00000699 7640'         LCR       #_OS_TaskStatStkChk   ; [CPU_ALU] |1876| 
         0000069a 06A2 
    5691                      ; call occurs [#_OS_TaskStatStkChk] ; [] |1876| 
    5692                      .dwpsn  file "C:/ti/Workspace/PLC_certificate/Software/uCOS-II/Source/os_core.c",line 1879,column 9,i
    5693 0000069b D401          MOVB      XAR4,#1               ; [CPU_ALU] |1879| 
    5694 0000069c D500          MOVB      XAR5,#0               ; [CPU_ALU] |1879| 
    5695 0000069d FF20          MOV       ACC,#0                ; [CPU_ALU] |1879| 
         0000069e 0000 
    5696              $C$DW$320       .dwtag  DW_TAG_TI_branch
    5697                      .dwattr $C$DW$320, DW_AT_low_pc(0x00)
TMS320C2000 Assembler PC v20.2.1 Tue Feb 16 00:15:57 2021

Copyright (c) 1996-2018 Texas Instruments Incorporated
os_core.asm                                                          PAGE  109

    5698                      .dwattr $C$DW$320, DW_AT_name("_OSTimeDlyHMSM")
    5699                      .dwattr $C$DW$320, DW_AT_TI_call
    5700              
    5701 0000069f 7640!         LCR       #_OSTimeDlyHMSM       ; [CPU_ALU] |1879| 
         000006a0 0000 
    5702                      ; call occurs [#_OSTimeDlyHMSM] ; [] |1879| 
    5703                      .dwpsn  file "C:/ti/Workspace/PLC_certificate/Software/uCOS-II/Source/os_core.c",line 1880,column 5,i
    5704 000006a1 6FD6          B         $C$L106,UNC           ; [CPU_ALU] |1880| 
    5705                      ; branch occurs ; [] |1880| 
    5706                      .dwattr $C$DW$308, DW_AT_TI_end_file("C:/ti/Workspace/PLC_certificate/Software/uCOS-II/Source/os_core
    5707                      .dwattr $C$DW$308, DW_AT_TI_end_line(0x759)
    5708                      .dwattr $C$DW$308, DW_AT_TI_end_column(0x01)
    5709                      .dwendentry
    5710                      .dwendtag $C$DW$308
    5711              
    5712 000006a2               .sect   ".text"
    5713                      .clink
    5714                      .global _OS_TaskStatStkChk
    5715              
    5716              $C$DW$321       .dwtag  DW_TAG_subprogram
    5717                      .dwattr $C$DW$321, DW_AT_name("OS_TaskStatStkChk")
    5718                      .dwattr $C$DW$321, DW_AT_low_pc(_OS_TaskStatStkChk)
    5719                      .dwattr $C$DW$321, DW_AT_high_pc(0x00)
    5720                      .dwattr $C$DW$321, DW_AT_TI_symbol_name("_OS_TaskStatStkChk")
    5721                      .dwattr $C$DW$321, DW_AT_external
    5722                      .dwattr $C$DW$321, DW_AT_TI_begin_file("C:/ti/Workspace/PLC_certificate/Software/uCOS-II/Source/os_co
    5723                      .dwattr $C$DW$321, DW_AT_TI_begin_line(0x769)
    5724                      .dwattr $C$DW$321, DW_AT_TI_begin_column(0x07)
    5725                      .dwattr $C$DW$321, DW_AT_TI_max_frame_size(-10)
    5726                      .dwpsn  file "C:/ti/Workspace/PLC_certificate/Software/uCOS-II/Source/os_core.c",line 1898,column 1,i
    5727              
    5728                      .dwfde $C$DW$CIE, _OS_TaskStatStkChk
    5729              
    5730              ;***************************************************************
    5731              ;* FNAME: _OS_TaskStatStkChk            FR SIZE:   8           *
    5732              ;*                                                             *
    5733              ;* FUNCTION ENVIRONMENT                                        *
    5734              ;*                                                             *
    5735              ;* FUNCTION PROPERTIES                                         *
    5736              ;*                            0 Parameter,  8 Auto,  0 SOE     *
    5737              ;***************************************************************
    5738              
    5739 000006a2       _OS_TaskStatStkChk:
    5740                      .dwcfi  cfa_offset, -2
    5741                      .dwcfi  save_reg_to_mem, 26, 0
    5742 000006a2 FE08          ADDB      SP,#8                 ; [CPU_ARAU] 
    5743                      .dwcfi  cfa_offset, -10
    5744              $C$DW$322       .dwtag  DW_TAG_variable
    5745                      .dwattr $C$DW$322, DW_AT_name("stk_data")
    5746                      .dwattr $C$DW$322, DW_AT_TI_symbol_name("_stk_data")
    5747                      .dwattr $C$DW$322, DW_AT_type(*$C$DW$T$80)
    5748                      .dwattr $C$DW$322, DW_AT_location[DW_OP_breg20 -4]
    5749              
    5750              $C$DW$323       .dwtag  DW_TAG_variable
    5751                      .dwattr $C$DW$323, DW_AT_name("ptcb")
TMS320C2000 Assembler PC v20.2.1 Tue Feb 16 00:15:57 2021

Copyright (c) 1996-2018 Texas Instruments Incorporated
os_core.asm                                                          PAGE  110

    5752                      .dwattr $C$DW$323, DW_AT_TI_symbol_name("_ptcb")
    5753                      .dwattr $C$DW$323, DW_AT_type(*$C$DW$T$56)
    5754                      .dwattr $C$DW$323, DW_AT_location[DW_OP_breg20 -6]
    5755              
    5756              $C$DW$324       .dwtag  DW_TAG_variable
    5757                      .dwattr $C$DW$324, DW_AT_name("err")
    5758                      .dwattr $C$DW$324, DW_AT_TI_symbol_name("_err")
    5759                      .dwattr $C$DW$324, DW_AT_type(*$C$DW$T$19)
    5760                      .dwattr $C$DW$324, DW_AT_location[DW_OP_breg20 -7]
    5761              
    5762              $C$DW$325       .dwtag  DW_TAG_variable
    5763                      .dwattr $C$DW$325, DW_AT_name("prio")
    5764                      .dwattr $C$DW$325, DW_AT_TI_symbol_name("_prio")
    5765                      .dwattr $C$DW$325, DW_AT_type(*$C$DW$T$19)
    5766                      .dwattr $C$DW$325, DW_AT_location[DW_OP_breg20 -8]
    5767              
    5768                      .dwpsn  file "C:/ti/Workspace/PLC_certificate/Software/uCOS-II/Source/os_core.c",line 1905,column 10,
    5769 000006a3 2B48          MOV       *-SP[8],#0            ; [CPU_ALU] |1905| 
    5770                      .dwpsn  file "C:/ti/Workspace/PLC_certificate/Software/uCOS-II/Source/os_core.c",line 1905,column 21,
    5771 000006a4 9248          MOV       AL,*-SP[8]            ; [CPU_ALU] |1905| 
    5772 000006a5 523F          CMPB      AL,#63                ; [CPU_ALU] |1905| 
    5773 000006a6 6629          B         $C$L109,HI            ; [CPU_ALU] |1905| 
    5774                      ; branchcc occurs ; [] |1905| 
    5775 000006a7       $C$L107:    
    5776                      .dwpsn  file "C:/ti/Workspace/PLC_certificate/Software/uCOS-II/Source/os_core.c",line 1906,column 9,i
    5777 000006a7 5CAD          MOVZ      AR4,SP                ; [CPU_ALU] |1906| 
    5778 000006a8 DC84          SUBB      XAR4,#4               ; [CPU_ARAU] |1906| 
    5779 000006a9 5CA4          MOVZ      AR4,AR4               ; [CPU_ALU] |1906| 
    5780              $C$DW$326       .dwtag  DW_TAG_TI_branch
    5781                      .dwattr $C$DW$326, DW_AT_low_pc(0x00)
    5782                      .dwattr $C$DW$326, DW_AT_name("_OSTaskStkChk")
    5783                      .dwattr $C$DW$326, DW_AT_TI_call
    5784              
    5785 000006aa 7640!         LCR       #_OSTaskStkChk        ; [CPU_ALU] |1906| 
         000006ab 0000 
    5786                      ; call occurs [#_OSTaskStkChk] ; [] |1906| 
    5787 000006ac 9647          MOV       *-SP[7],AL            ; [CPU_ALU] |1906| 
    5788                      .dwpsn  file "C:/ti/Workspace/PLC_certificate/Software/uCOS-II/Source/os_core.c",line 1907,column 9,i
    5789 000006ad 5200          CMPB      AL,#0                 ; [CPU_ALU] |1907| 
    5790 000006ae 601D          B         $C$L108,NEQ           ; [CPU_ALU] |1907| 
    5791                      ; branchcc occurs ; [] |1907| 
    5792                      .dwpsn  file "C:/ti/Workspace/PLC_certificate/Software/uCOS-II/Source/os_core.c",line 1908,column 13,
    5793 000006af 2901          CLRC      SXM                   ; [CPU_ALU] 
    5794 000006b0 8F00-         MOVL      XAR4,#_OSTCBPrioTbl   ; [CPU_ARAU] |1908| 
         000006b1 0000 
    5795 000006b2 5603          MOV       ACC,*-SP[8] << 1      ; [CPU_ALU] |1908| 
         000006b3 0148 
    5796 000006b4 5601          ADDL      XAR4,ACC              ; [CPU_ALU] |1908| 
         000006b5 00A4 
    5797 000006b6 06C4          MOVL      ACC,*+XAR4[0]         ; [CPU_ALU] |1908| 
    5798 000006b7 1E46          MOVL      *-SP[6],ACC           ; [CPU_ALU] |1908| 
    5799                      .dwpsn  file "C:/ti/Workspace/PLC_certificate/Software/uCOS-II/Source/os_core.c",line 1909,column 13,
    5800 000006b8 0646          MOVL      ACC,*-SP[6]           ; [CPU_ALU] |1909| 
    5801 000006b9 6112          B         $C$L108,EQ            ; [CPU_ALU] |1909| 
    5802                      ; branchcc occurs ; [] |1909| 
TMS320C2000 Assembler PC v20.2.1 Tue Feb 16 00:15:57 2021

Copyright (c) 1996-2018 Texas Instruments Incorporated
os_core.asm                                                          PAGE  111

    5803                      .dwpsn  file "C:/ti/Workspace/PLC_certificate/Software/uCOS-II/Source/os_core.c",line 1910,column 17,
    5804 000006ba 0201          MOVB      ACC,#1                ; [CPU_ALU] |1910| 
    5805 000006bb 0F46          CMPL      ACC,*-SP[6]           ; [CPU_ALU] |1910| 
    5806 000006bc 610F          B         $C$L108,EQ            ; [CPU_ALU] |1910| 
    5807                      ; branchcc occurs ; [] |1910| 
    5808                      .dwpsn  file "C:/ti/Workspace/PLC_certificate/Software/uCOS-II/Source/os_core.c",line 1915,column 21,
    5809 000006bd 8346          MOVL      XAR5,*-SP[6]          ; [CPU_ALU] |1915| 
    5810 000006be 8A46          MOVL      XAR4,*-SP[6]          ; [CPU_ALU] |1915| 
    5811 000006bf 06E5          MOVL      ACC,*+XAR5[4]         ; [CPU_ALU] |1915| 
    5812 000006c0 03F4          SUBL      ACC,*+XAR4[6]         ; [CPU_ALU] |1915| 
    5813 000006c1 1EA6          MOVL      XAR6,ACC              ; [CPU_ALU] |1915| 
    5814 000006c2 0228          MOVB      ACC,#40               ; [CPU_ALU] |1915| 
    5815 000006c3 0746          ADDL      ACC,*-SP[6]           ; [CPU_ALU] |1915| 
    5816 000006c4 8AA9          MOVL      XAR4,ACC              ; [CPU_ALU] |1915| 
    5817 000006c5 C2C4          MOVL      *+XAR4[0],XAR6        ; [CPU_ALU] |1915| 
    5818                      .dwpsn  file "C:/ti/Workspace/PLC_certificate/Software/uCOS-II/Source/os_core.c",line 1917,column 21,
    5819 000006c6 C442          MOVL      XAR6,*-SP[2]          ; [CPU_ALU] |1917| 
    5820 000006c7 022A          MOVB      ACC,#42               ; [CPU_ALU] |1917| 
    5821 000006c8 0746          ADDL      ACC,*-SP[6]           ; [CPU_ALU] |1917| 
    5822 000006c9 8AA9          MOVL      XAR4,ACC              ; [CPU_ALU] |1917| 
    5823 000006ca C2C4          MOVL      *+XAR4[0],XAR6        ; [CPU_ALU] |1917| 
    5824 000006cb       $C$L108:    
    5825                      .dwpsn  file "C:/ti/Workspace/PLC_certificate/Software/uCOS-II/Source/os_core.c",line 1905,column 48,
    5826 000006cb 0A48          INC       *-SP[8]               ; [CPU_ALU] |1905| 
    5827                      .dwpsn  file "C:/ti/Workspace/PLC_certificate/Software/uCOS-II/Source/os_core.c",line 1905,column 21,
    5828 000006cc 9248          MOV       AL,*-SP[8]            ; [CPU_ALU] |1905| 
    5829 000006cd 523F          CMPB      AL,#63                ; [CPU_ALU] |1905| 
    5830 000006ce 69D9          B         $C$L107,LOS           ; [CPU_ALU] |1905| 
    5831                      ; branchcc occurs ; [] |1905| 
    5832                      .dwpsn  file "C:/ti/Workspace/PLC_certificate/Software/uCOS-II/Source/os_core.c",line 1923,column 1,i
    5833 000006cf       $C$L109:    
    5834 000006cf FE88          SUBB      SP,#8                 ; [CPU_ARAU] 
    5835                      .dwcfi  cfa_offset, -2
    5836              $C$DW$327       .dwtag  DW_TAG_TI_branch
    5837                      .dwattr $C$DW$327, DW_AT_low_pc(0x00)
    5838                      .dwattr $C$DW$327, DW_AT_TI_return
    5839              
    5840 000006d0 0006          LRETR     ; [CPU_ALU] 
    5841                      ; return occurs ; [] 
    5842                      .dwattr $C$DW$321, DW_AT_TI_end_file("C:/ti/Workspace/PLC_certificate/Software/uCOS-II/Source/os_core
    5843                      .dwattr $C$DW$321, DW_AT_TI_end_line(0x783)
    5844                      .dwattr $C$DW$321, DW_AT_TI_end_column(0x01)
    5845                      .dwendentry
    5846                      .dwendtag $C$DW$321
    5847              
    5848 000006d1               .sect   ".text"
    5849                      .clink
    5850                      .global _OS_TCBInit
    5851              
    5852              $C$DW$328       .dwtag  DW_TAG_subprogram
    5853                      .dwattr $C$DW$328, DW_AT_name("OS_TCBInit")
    5854                      .dwattr $C$DW$328, DW_AT_low_pc(_OS_TCBInit)
    5855                      .dwattr $C$DW$328, DW_AT_high_pc(0x00)
    5856                      .dwattr $C$DW$328, DW_AT_TI_symbol_name("_OS_TCBInit")
    5857                      .dwattr $C$DW$328, DW_AT_external
TMS320C2000 Assembler PC v20.2.1 Tue Feb 16 00:15:57 2021

Copyright (c) 1996-2018 Texas Instruments Incorporated
os_core.asm                                                          PAGE  112

    5858                      .dwattr $C$DW$328, DW_AT_type(*$C$DW$T$19)
    5859                      .dwattr $C$DW$328, DW_AT_TI_begin_file("C:/ti/Workspace/PLC_certificate/Software/uCOS-II/Source/os_co
    5860                      .dwattr $C$DW$328, DW_AT_TI_begin_line(0x7b1)
    5861                      .dwattr $C$DW$328, DW_AT_TI_begin_column(0x08)
    5862                      .dwattr $C$DW$328, DW_AT_TI_max_frame_size(-12)
    5863                      .dwpsn  file "C:/ti/Workspace/PLC_certificate/Software/uCOS-II/Source/os_core.c",line 1976,column 1,i
    5864              
    5865                      .dwfde $C$DW$CIE, _OS_TCBInit
    5866              $C$DW$329       .dwtag  DW_TAG_formal_parameter
    5867                      .dwattr $C$DW$329, DW_AT_name("prio")
    5868                      .dwattr $C$DW$329, DW_AT_TI_symbol_name("_prio")
    5869                      .dwattr $C$DW$329, DW_AT_type(*$C$DW$T$19)
    5870                      .dwattr $C$DW$329, DW_AT_location[DW_OP_breg20 -13]
    5871              
    5872              $C$DW$330       .dwtag  DW_TAG_formal_parameter
    5873                      .dwattr $C$DW$330, DW_AT_name("ptos")
    5874                      .dwattr $C$DW$330, DW_AT_TI_symbol_name("_ptos")
    5875                      .dwattr $C$DW$330, DW_AT_type(*$C$DW$T$35)
    5876                      .dwattr $C$DW$330, DW_AT_location[DW_OP_reg12]
    5877              
    5878              $C$DW$331       .dwtag  DW_TAG_formal_parameter
    5879                      .dwattr $C$DW$331, DW_AT_name("pbos")
    5880                      .dwattr $C$DW$331, DW_AT_TI_symbol_name("_pbos")
    5881                      .dwattr $C$DW$331, DW_AT_type(*$C$DW$T$35)
    5882                      .dwattr $C$DW$331, DW_AT_location[DW_OP_reg14]
    5883              
    5884              $C$DW$332       .dwtag  DW_TAG_formal_parameter
    5885                      .dwattr $C$DW$332, DW_AT_name("id")
    5886                      .dwattr $C$DW$332, DW_AT_TI_symbol_name("_id")
    5887                      .dwattr $C$DW$332, DW_AT_type(*$C$DW$T$20)
    5888                      .dwattr $C$DW$332, DW_AT_location[DW_OP_breg20 -14]
    5889              
    5890              $C$DW$333       .dwtag  DW_TAG_formal_parameter
    5891                      .dwattr $C$DW$333, DW_AT_name("stk_size")
    5892                      .dwattr $C$DW$333, DW_AT_TI_symbol_name("_stk_size")
    5893                      .dwattr $C$DW$333, DW_AT_type(*$C$DW$T$28)
    5894                      .dwattr $C$DW$333, DW_AT_location[DW_OP_reg0]
    5895              
    5896              $C$DW$334       .dwtag  DW_TAG_formal_parameter
    5897                      .dwattr $C$DW$334, DW_AT_name("pext")
    5898                      .dwattr $C$DW$334, DW_AT_TI_symbol_name("_pext")
    5899                      .dwattr $C$DW$334, DW_AT_type(*$C$DW$T$3)
    5900                      .dwattr $C$DW$334, DW_AT_location[DW_OP_breg20 -16]
    5901              
    5902              $C$DW$335       .dwtag  DW_TAG_formal_parameter
    5903                      .dwattr $C$DW$335, DW_AT_name("opt")
    5904                      .dwattr $C$DW$335, DW_AT_TI_symbol_name("_opt")
    5905                      .dwattr $C$DW$335, DW_AT_type(*$C$DW$T$20)
    5906                      .dwattr $C$DW$335, DW_AT_location[DW_OP_breg20 -17]
    5907              
    5908              
    5909              ;***************************************************************
    5910              ;* FNAME: _OS_TCBInit                   FR SIZE:  10           *
    5911              ;*                                                             *
    5912              ;* FUNCTION ENVIRONMENT                                        *
TMS320C2000 Assembler PC v20.2.1 Tue Feb 16 00:15:57 2021

Copyright (c) 1996-2018 Texas Instruments Incorporated
os_core.asm                                                          PAGE  113

    5913              ;*                                                             *
    5914              ;* FUNCTION PROPERTIES                                         *
    5915              ;*                            0 Parameter, 10 Auto,  0 SOE     *
    5916              ;***************************************************************
    5917              
    5918 000006d1       _OS_TCBInit:
    5919                      .dwcfi  cfa_offset, -2
    5920                      .dwcfi  save_reg_to_mem, 26, 0
    5921 000006d1 FE0A          ADDB      SP,#10                ; [CPU_ARAU] 
    5922                      .dwcfi  cfa_offset, -12
    5923              $C$DW$336       .dwtag  DW_TAG_variable
    5924                      .dwattr $C$DW$336, DW_AT_name("ptos")
    5925                      .dwattr $C$DW$336, DW_AT_TI_symbol_name("_ptos")
    5926                      .dwattr $C$DW$336, DW_AT_type(*$C$DW$T$35)
    5927                      .dwattr $C$DW$336, DW_AT_location[DW_OP_breg20 -2]
    5928              
    5929              $C$DW$337       .dwtag  DW_TAG_variable
    5930                      .dwattr $C$DW$337, DW_AT_name("pbos")
    5931                      .dwattr $C$DW$337, DW_AT_TI_symbol_name("_pbos")
    5932                      .dwattr $C$DW$337, DW_AT_type(*$C$DW$T$35)
    5933                      .dwattr $C$DW$337, DW_AT_location[DW_OP_breg20 -4]
    5934              
    5935              $C$DW$338       .dwtag  DW_TAG_variable
    5936                      .dwattr $C$DW$338, DW_AT_name("stk_size")
    5937                      .dwattr $C$DW$338, DW_AT_TI_symbol_name("_stk_size")
    5938                      .dwattr $C$DW$338, DW_AT_type(*$C$DW$T$28)
    5939                      .dwattr $C$DW$338, DW_AT_location[DW_OP_breg20 -6]
    5940              
    5941              $C$DW$339       .dwtag  DW_TAG_variable
    5942                      .dwattr $C$DW$339, DW_AT_name("ptcb")
    5943                      .dwattr $C$DW$339, DW_AT_TI_symbol_name("_ptcb")
    5944                      .dwattr $C$DW$339, DW_AT_type(*$C$DW$T$56)
    5945                      .dwattr $C$DW$339, DW_AT_location[DW_OP_breg20 -8]
    5946              
    5947              $C$DW$340       .dwtag  DW_TAG_variable
    5948                      .dwattr $C$DW$340, DW_AT_name("cpu_sr")
    5949                      .dwattr $C$DW$340, DW_AT_TI_symbol_name("_cpu_sr")
    5950                      .dwattr $C$DW$340, DW_AT_type(*$C$DW$T$44)
    5951                      .dwattr $C$DW$340, DW_AT_location[DW_OP_breg20 -9]
    5952              
    5953              $C$DW$341       .dwtag  DW_TAG_variable
    5954                      .dwattr $C$DW$341, DW_AT_name("i")
    5955                      .dwattr $C$DW$341, DW_AT_TI_symbol_name("_i")
    5956                      .dwattr $C$DW$341, DW_AT_type(*$C$DW$T$19)
    5957                      .dwattr $C$DW$341, DW_AT_location[DW_OP_breg20 -10]
    5958              
    5959 000006d2 1E46          MOVL      *-SP[6],ACC           ; [CPU_ALU] |1976| 
    5960 000006d3 A044          MOVL      *-SP[4],XAR5          ; [CPU_ALU] |1976| 
    5961 000006d4 A842          MOVL      *-SP[2],XAR4          ; [CPU_ALU] |1976| 
    5962                      .dwpsn  file "C:/ti/Workspace/PLC_certificate/Software/uCOS-II/Source/os_core.c",line 1979,column 23,
    5963 000006d5 2B49          MOV       *-SP[9],#0            ; [CPU_ALU] |1979| 
    5964                      .dwpsn  file "C:/ti/Workspace/PLC_certificate/Software/uCOS-II/Source/os_core.c",line 1991,column 5,i
    5965              $C$DW$342       .dwtag  DW_TAG_TI_branch
    5966                      .dwattr $C$DW$342, DW_AT_low_pc(0x00)
    5967                      .dwattr $C$DW$342, DW_AT_name("_OS_CPU_SR_Save")
TMS320C2000 Assembler PC v20.2.1 Tue Feb 16 00:15:57 2021

Copyright (c) 1996-2018 Texas Instruments Incorporated
os_core.asm                                                          PAGE  114

    5968                      .dwattr $C$DW$342, DW_AT_TI_call
    5969              
    5970 000006d6 7640!         LCR       #_OS_CPU_SR_Save      ; [CPU_ALU] |1991| 
         000006d7 0000 
    5971                      ; call occurs [#_OS_CPU_SR_Save] ; [] |1991| 
    5972 000006d8 9649          MOV       *-SP[9],AL            ; [CPU_ALU] |1991| 
    5973                      .dwpsn  file "C:/ti/Workspace/PLC_certificate/Software/uCOS-II/Source/os_core.c",line 1992,column 5,i
    5974 000006d9 761F-         MOVW      DP,#_OSTCBFreeList    ; [CPU_ARAU] 
         000006da 0000 
    5975 000006db 061A-         MOVL      ACC,@_OSTCBFreeList   ; [CPU_ALU] |1992| 
    5976 000006dc 1E48          MOVL      *-SP[8],ACC           ; [CPU_ALU] |1992| 
    5977                      .dwpsn  file "C:/ti/Workspace/PLC_certificate/Software/uCOS-II/Source/os_core.c",line 1993,column 5,i
    5978 000006dd 0648          MOVL      ACC,*-SP[8]           ; [CPU_ALU] |1993| 
    5979 000006de FFE1          B         $C$L113,EQ            ; [CPU_ALU] |1993| 
         000006df 00D5 
    5980                      ; branchcc occurs ; [] |1993| 
    5981                      .dwpsn  file "C:/ti/Workspace/PLC_certificate/Software/uCOS-II/Source/os_core.c",line 1994,column 9,i
    5982 000006e0 020A          MOVB      ACC,#10               ; [CPU_ALU] |1994| 
    5983 000006e1 0748          ADDL      ACC,*-SP[8]           ; [CPU_ALU] |1994| 
    5984 000006e2 8AA9          MOVL      XAR4,ACC              ; [CPU_ALU] |1994| 
    5985 000006e3 06C4          MOVL      ACC,*+XAR4[0]         ; [CPU_ALU] |1994| 
    5986 000006e4 1E1A-         MOVL      @_OSTCBFreeList,ACC   ; [CPU_ALU] |1994| 
    5987                      .dwpsn  file "C:/ti/Workspace/PLC_certificate/Software/uCOS-II/Source/os_core.c",line 1995,column 9,i
    5988 000006e5 9249          MOV       AL,*-SP[9]            ; [CPU_ALU] |1995| 
    5989              $C$DW$343       .dwtag  DW_TAG_TI_branch
    5990                      .dwattr $C$DW$343, DW_AT_low_pc(0x00)
    5991                      .dwattr $C$DW$343, DW_AT_name("_OS_CPU_SR_Restore")
    5992                      .dwattr $C$DW$343, DW_AT_TI_call
    5993              
    5994 000006e6 7640!         LCR       #_OS_CPU_SR_Restore   ; [CPU_ALU] |1995| 
         000006e7 0000 
    5995                      ; call occurs [#_OS_CPU_SR_Restore] ; [] |1995| 
    5996                      .dwpsn  file "C:/ti/Workspace/PLC_certificate/Software/uCOS-II/Source/os_core.c",line 1996,column 9,i
    5997 000006e8 8A48          MOVL      XAR4,*-SP[8]          ; [CPU_ALU] |1996| 
    5998 000006e9 0642          MOVL      ACC,*-SP[2]           ; [CPU_ALU] |1996| 
    5999 000006ea 1EC4          MOVL      *+XAR4[0],ACC         ; [CPU_ALU] |1996| 
    6000                      .dwpsn  file "C:/ti/Workspace/PLC_certificate/Software/uCOS-II/Source/os_core.c",line 1997,column 9,i
    6001 000006eb 021C          MOVB      ACC,#28               ; [CPU_ALU] |1997| 
    6002 000006ec 0748          ADDL      ACC,*-SP[8]           ; [CPU_ALU] |1997| 
    6003 000006ed 1EA7          MOVL      XAR7,ACC              ; [CPU_ALU] |1997| 
    6004 000006ee 924D          MOV       AL,*-SP[13]           ; [CPU_ALU] |1997| 
    6005 000006ef 96C7          MOV       *+XAR7[0],AL          ; [CPU_ALU] |1997| 
    6006                      .dwpsn  file "C:/ti/Workspace/PLC_certificate/Software/uCOS-II/Source/os_core.c",line 1998,column 9,i
    6007 000006f0 021A          MOVB      ACC,#26               ; [CPU_ALU] |1998| 
    6008 000006f1 0748          ADDL      ACC,*-SP[8]           ; [CPU_ALU] |1998| 
    6009 000006f2 8AA9          MOVL      XAR4,ACC              ; [CPU_ALU] |1998| 
    6010 000006f3 2BC4          MOV       *+XAR4[0],#0          ; [CPU_ALU] |1998| 
    6011                      .dwpsn  file "C:/ti/Workspace/PLC_certificate/Software/uCOS-II/Source/os_core.c",line 1999,column 9,i
    6012 000006f4 021B          MOVB      ACC,#27               ; [CPU_ALU] |1999| 
    6013 000006f5 0748          ADDL      ACC,*-SP[8]           ; [CPU_ALU] |1999| 
    6014 000006f6 8AA9          MOVL      XAR4,ACC              ; [CPU_ALU] |1999| 
    6015 000006f7 2BC4          MOV       *+XAR4[0],#0          ; [CPU_ALU] |1999| 
    6016                      .dwpsn  file "C:/ti/Workspace/PLC_certificate/Software/uCOS-II/Source/os_core.c",line 2000,column 9,i
    6017 000006f8 BE00          MOVB      XAR6,#0               ; [CPU_ALU] |2000| 
    6018 000006f9 0218          MOVB      ACC,#24               ; [CPU_ALU] |2000| 
TMS320C2000 Assembler PC v20.2.1 Tue Feb 16 00:15:57 2021

Copyright (c) 1996-2018 Texas Instruments Incorporated
os_core.asm                                                          PAGE  115

    6019 000006fa 0748          ADDL      ACC,*-SP[8]           ; [CPU_ALU] |2000| 
    6020 000006fb 8AA9          MOVL      XAR4,ACC              ; [CPU_ALU] |2000| 
    6021 000006fc C2C4          MOVL      *+XAR4[0],XAR6        ; [CPU_ALU] |2000| 
    6022                      .dwpsn  file "C:/ti/Workspace/PLC_certificate/Software/uCOS-II/Source/os_core.c",line 2003,column 9,i
    6023 000006fd 8A48          MOVL      XAR4,*-SP[8]          ; [CPU_ALU] |2003| 
    6024 000006fe 0650          MOVL      ACC,*-SP[16]          ; [CPU_ALU] |2003| 
    6025 000006ff 1ED4          MOVL      *+XAR4[2],ACC         ; [CPU_ALU] |2003| 
    6026                      .dwpsn  file "C:/ti/Workspace/PLC_certificate/Software/uCOS-II/Source/os_core.c",line 2004,column 9,i
    6027 00000700 8A48          MOVL      XAR4,*-SP[8]          ; [CPU_ALU] |2004| 
    6028 00000701 0646          MOVL      ACC,*-SP[6]           ; [CPU_ALU] |2004| 
    6029 00000702 1EF4          MOVL      *+XAR4[6],ACC         ; [CPU_ALU] |2004| 
    6030                      .dwpsn  file "C:/ti/Workspace/PLC_certificate/Software/uCOS-II/Source/os_core.c",line 2005,column 9,i
    6031 00000703 8A48          MOVL      XAR4,*-SP[8]          ; [CPU_ALU] |2005| 
    6032 00000704 0644          MOVL      ACC,*-SP[4]           ; [CPU_ALU] |2005| 
    6033 00000705 1EE4          MOVL      *+XAR4[4],ACC         ; [CPU_ALU] |2005| 
    6034                      .dwpsn  file "C:/ti/Workspace/PLC_certificate/Software/uCOS-II/Source/os_core.c",line 2006,column 9,i
    6035 00000706 0208          MOVB      ACC,#8                ; [CPU_ALU] |2006| 
    6036 00000707 0748          ADDL      ACC,*-SP[8]           ; [CPU_ALU] |2006| 
    6037 00000708 1EA7          MOVL      XAR7,ACC              ; [CPU_ALU] |2006| 
    6038 00000709 9251          MOV       AL,*-SP[17]           ; [CPU_ALU] |2006| 
    6039 0000070a 96C7          MOV       *+XAR7[0],AL          ; [CPU_ALU] |2006| 
    6040                      .dwpsn  file "C:/ti/Workspace/PLC_certificate/Software/uCOS-II/Source/os_core.c",line 2007,column 9,i
    6041 0000070b 0209          MOVB      ACC,#9                ; [CPU_ALU] |2007| 
    6042 0000070c 0748          ADDL      ACC,*-SP[8]           ; [CPU_ALU] |2007| 
    6043 0000070d 1EA7          MOVL      XAR7,ACC              ; [CPU_ALU] |2007| 
    6044 0000070e 924E          MOV       AL,*-SP[14]           ; [CPU_ALU] |2007| 
    6045 0000070f 96C7          MOV       *+XAR7[0],AL          ; [CPU_ALU] |2007| 
    6046                      .dwpsn  file "C:/ti/Workspace/PLC_certificate/Software/uCOS-II/Source/os_core.c",line 2017,column 9,i
    6047 00000710 0221          MOVB      ACC,#33               ; [CPU_ALU] |2017| 
    6048 00000711 0748          ADDL      ACC,*-SP[8]           ; [CPU_ALU] |2017| 
    6049 00000712 8AA9          MOVL      XAR4,ACC              ; [CPU_ALU] |2017| 
    6050 00000713 2BC4          MOV       *+XAR4[0],#0          ; [CPU_ALU] |2017| 
    6051                      .dwpsn  file "C:/ti/Workspace/PLC_certificate/Software/uCOS-II/Source/os_core.c",line 2021,column 9,i
    6052 00000714 021E          MOVB      ACC,#30               ; [CPU_ALU] |2021| 
    6053 00000715 0748          ADDL      ACC,*-SP[8]           ; [CPU_ALU] |2021| 
    6054 00000716 8AA9          MOVL      XAR4,ACC              ; [CPU_ALU] |2021| 
    6055 00000717 924D          MOV       AL,*-SP[13]           ; [CPU_ALU] |2021| 
    6056 00000718 FFC2          LSR       AL,3                  ; [CPU_ALU] |2021| 
    6057 00000719 96C4          MOV       *+XAR4[0],AL          ; [CPU_ALU] |2021| 
    6058                      .dwpsn  file "C:/ti/Workspace/PLC_certificate/Software/uCOS-II/Source/os_core.c",line 2022,column 9,i
    6059 0000071a 021D          MOVB      ACC,#29               ; [CPU_ALU] |2022| 
    6060 0000071b 0748          ADDL      ACC,*-SP[8]           ; [CPU_ALU] |2022| 
    6061 0000071c 8AA9          MOVL      XAR4,ACC              ; [CPU_ALU] |2022| 
    6062 0000071d 924D          MOV       AL,*-SP[13]           ; [CPU_ALU] |2022| 
    6063 0000071e 9007          ANDB      AL,#0x07              ; [CPU_ALU] |2022| 
    6064 0000071f 96C4          MOV       *+XAR4[0],AL          ; [CPU_ALU] |2022| 
    6065                      .dwpsn  file "C:/ti/Workspace/PLC_certificate/Software/uCOS-II/Source/os_core.c",line 2028,column 9,i
    6066 00000720 021E          MOVB      ACC,#30               ; [CPU_ALU] |2028| 
    6067 00000721 0748          ADDL      ACC,*-SP[8]           ; [CPU_ALU] |2028| 
    6068 00000722 8AA9          MOVL      XAR4,ACC              ; [CPU_ALU] |2028| 
    6069 00000723 0201          MOVB      ACC,#1                ; [CPU_ALU] |2028| 
    6070 00000724 2DC4          MOV       T,*+XAR4[0]           ; [CPU_ALU] |2028| 
    6071 00000725 563B          LSLL      ACC,T                 ; [CPU_ALU] |2028| 
    6072 00000726 1EA6          MOVL      XAR6,ACC              ; [CPU_ALU] |2028| 
    6073 00000727 0220          MOVB      ACC,#32               ; [CPU_ALU] |2028| 
TMS320C2000 Assembler PC v20.2.1 Tue Feb 16 00:15:57 2021

Copyright (c) 1996-2018 Texas Instruments Incorporated
os_core.asm                                                          PAGE  116

    6074 00000728 0748          ADDL      ACC,*-SP[8]           ; [CPU_ALU] |2028| 
    6075 00000729 8AA9          MOVL      XAR4,ACC              ; [CPU_ALU] |2028| 
    6076 0000072a 7EC4          MOV       *+XAR4[0],AR6         ; [CPU_ALU] |2028| 
    6077                      .dwpsn  file "C:/ti/Workspace/PLC_certificate/Software/uCOS-II/Source/os_core.c",line 2029,column 9,i
    6078 0000072b 021D          MOVB      ACC,#29               ; [CPU_ALU] |2029| 
    6079 0000072c 0748          ADDL      ACC,*-SP[8]           ; [CPU_ALU] |2029| 
    6080 0000072d 8AA9          MOVL      XAR4,ACC              ; [CPU_ALU] |2029| 
    6081 0000072e 0201          MOVB      ACC,#1                ; [CPU_ALU] |2029| 
    6082 0000072f 2DC4          MOV       T,*+XAR4[0]           ; [CPU_ALU] |2029| 
    6083 00000730 563B          LSLL      ACC,T                 ; [CPU_ALU] |2029| 
    6084 00000731 1EA6          MOVL      XAR6,ACC              ; [CPU_ALU] |2029| 
    6085 00000732 021F          MOVB      ACC,#31               ; [CPU_ALU] |2029| 
    6086 00000733 0748          ADDL      ACC,*-SP[8]           ; [CPU_ALU] |2029| 
    6087 00000734 8AA9          MOVL      XAR4,ACC              ; [CPU_ALU] |2029| 
    6088 00000735 7EC4          MOV       *+XAR4[0],AR6         ; [CPU_ALU] |2029| 
    6089                      .dwpsn  file "C:/ti/Workspace/PLC_certificate/Software/uCOS-II/Source/os_core.c",line 2032,column 9,i
    6090 00000736 BE00          MOVB      XAR6,#0               ; [CPU_ALU] |2032| 
    6091 00000737 020E          MOVB      ACC,#14               ; [CPU_ALU] |2032| 
    6092 00000738 0748          ADDL      ACC,*-SP[8]           ; [CPU_ALU] |2032| 
    6093 00000739 8AA9          MOVL      XAR4,ACC              ; [CPU_ALU] |2032| 
    6094 0000073a C2C4          MOVL      *+XAR4[0],XAR6        ; [CPU_ALU] |2032| 
    6095                      .dwpsn  file "C:/ti/Workspace/PLC_certificate/Software/uCOS-II/Source/os_core.c",line 2034,column 9,i
    6096 0000073b 0210          MOVB      ACC,#16               ; [CPU_ALU] |2034| 
    6097 0000073c 0748          ADDL      ACC,*-SP[8]           ; [CPU_ALU] |2034| 
    6098 0000073d 8AA9          MOVL      XAR4,ACC              ; [CPU_ALU] |2034| 
    6099 0000073e C2C4          MOVL      *+XAR4[0],XAR6        ; [CPU_ALU] |2034| 
    6100                      .dwpsn  file "C:/ti/Workspace/PLC_certificate/Software/uCOS-II/Source/os_core.c",line 2039,column 9,i
    6101 0000073f 0214          MOVB      ACC,#20               ; [CPU_ALU] |2039| 
    6102 00000740 0748          ADDL      ACC,*-SP[8]           ; [CPU_ALU] |2039| 
    6103 00000741 8AA9          MOVL      XAR4,ACC              ; [CPU_ALU] |2039| 
    6104 00000742 C2C4          MOVL      *+XAR4[0],XAR6        ; [CPU_ALU] |2039| 
    6105                      .dwpsn  file "C:/ti/Workspace/PLC_certificate/Software/uCOS-II/Source/os_core.c",line 2043,column 9,i
    6106 00000743 0212          MOVB      ACC,#18               ; [CPU_ALU] |2043| 
    6107 00000744 0748          ADDL      ACC,*-SP[8]           ; [CPU_ALU] |2043| 
    6108 00000745 8AA9          MOVL      XAR4,ACC              ; [CPU_ALU] |2043| 
    6109 00000746 C2C4          MOVL      *+XAR4[0],XAR6        ; [CPU_ALU] |2043| 
    6110                      .dwpsn  file "C:/ti/Workspace/PLC_certificate/Software/uCOS-II/Source/os_core.c",line 2047,column 9,i
    6111 00000747 0222          MOVB      ACC,#34               ; [CPU_ALU] |2047| 
    6112 00000748 0748          ADDL      ACC,*-SP[8]           ; [CPU_ALU] |2047| 
    6113 00000749 8AA9          MOVL      XAR4,ACC              ; [CPU_ALU] |2047| 
    6114 0000074a C2C4          MOVL      *+XAR4[0],XAR6        ; [CPU_ALU] |2047| 
    6115                      .dwpsn  file "C:/ti/Workspace/PLC_certificate/Software/uCOS-II/Source/os_core.c",line 2048,column 9,i
    6116 0000074b 0226          MOVB      ACC,#38               ; [CPU_ALU] |2048| 
    6117 0000074c 0748          ADDL      ACC,*-SP[8]           ; [CPU_ALU] |2048| 
    6118 0000074d 8AA9          MOVL      XAR4,ACC              ; [CPU_ALU] |2048| 
    6119 0000074e C2C4          MOVL      *+XAR4[0],XAR6        ; [CPU_ALU] |2048| 
    6120                      .dwpsn  file "C:/ti/Workspace/PLC_certificate/Software/uCOS-II/Source/os_core.c",line 2049,column 9,i
    6121 0000074f 0224          MOVB      ACC,#36               ; [CPU_ALU] |2049| 
    6122 00000750 0748          ADDL      ACC,*-SP[8]           ; [CPU_ALU] |2049| 
    6123 00000751 8AA9          MOVL      XAR4,ACC              ; [CPU_ALU] |2049| 
    6124 00000752 C2C4          MOVL      *+XAR4[0],XAR6        ; [CPU_ALU] |2049| 
    6125                      .dwpsn  file "C:/ti/Workspace/PLC_certificate/Software/uCOS-II/Source/os_core.c",line 2050,column 9,i
    6126 00000753 0228          MOVB      ACC,#40               ; [CPU_ALU] |2050| 
    6127 00000754 0748          ADDL      ACC,*-SP[8]           ; [CPU_ALU] |2050| 
    6128 00000755 8AA9          MOVL      XAR4,ACC              ; [CPU_ALU] |2050| 
TMS320C2000 Assembler PC v20.2.1 Tue Feb 16 00:15:57 2021

Copyright (c) 1996-2018 Texas Instruments Incorporated
os_core.asm                                                          PAGE  117

    6129 00000756 C2C4          MOVL      *+XAR4[0],XAR6        ; [CPU_ALU] |2050| 
    6130                      .dwpsn  file "C:/ti/Workspace/PLC_certificate/Software/uCOS-II/Source/os_core.c",line 2051,column 9,i
    6131 00000757 022A          MOVB      ACC,#42               ; [CPU_ALU] |2051| 
    6132 00000758 0748          ADDL      ACC,*-SP[8]           ; [CPU_ALU] |2051| 
    6133 00000759 8AA9          MOVL      XAR4,ACC              ; [CPU_ALU] |2051| 
    6134 0000075a C2C4          MOVL      *+XAR4[0],XAR6        ; [CPU_ALU] |2051| 
    6135                      .dwpsn  file "C:/ti/Workspace/PLC_certificate/Software/uCOS-II/Source/os_core.c",line 2055,column 9,i
    6136 0000075b 022C          MOVB      ACC,#44               ; [CPU_ALU] |2055| 
    6137 0000075c 0748          ADDL      ACC,*-SP[8]           ; [CPU_ALU] |2055| 
    6138 0000075d 8AA9          MOVL      XAR4,ACC              ; [CPU_ALU] |2055| 
    6139 0000075e 8F40+         MOVL      XAR5,#$C$FSL1         ; [CPU_ARAU] |2055| 
         0000075f 0000 
    6140 00000760 A0C4          MOVL      *+XAR4[0],XAR5        ; [CPU_ALU] |2055| 
    6141                      .dwpsn  file "C:/ti/Workspace/PLC_certificate/Software/uCOS-II/Source/os_core.c",line 2059,column 14,
    6142 00000761 2B4A          MOV       *-SP[10],#0           ; [CPU_ALU] |2059| 
    6143                      .dwpsn  file "C:/ti/Workspace/PLC_certificate/Software/uCOS-II/Source/os_core.c",line 2059,column 22,
    6144 00000762 924A          MOV       AL,*-SP[10]           ; [CPU_ALU] |2059| 
    6145 00000763 600B          B         $C$L111,NEQ           ; [CPU_ALU] |2059| 
    6146                      ; branchcc occurs ; [] |2059| 
    6147 00000764 2901          CLRC      SXM                   ; [CPU_ALU] 
    6148 00000765       $C$L110:    
    6149                      .dwpsn  file "C:/ti/Workspace/PLC_certificate/Software/uCOS-II/Source/os_core.c",line 2060,column 13,
    6150 00000765 5603          MOV       ACC,*-SP[10] << 1     ; [CPU_ALU] |2060| 
         00000766 014A 
    6151 00000767 0748          ADDL      ACC,*-SP[8]           ; [CPU_ALU] |2060| 
    6152 00000768 8AA9          MOVL      XAR4,ACC              ; [CPU_ALU] |2060| 
    6153 00000769 D02E          MOVB      XAR0,#46              ; [CPU_ALU] |2060| 
    6154 0000076a C294          MOVL      *+XAR4[AR0],XAR6      ; [CPU_ALU] |2060| 
    6155                      .dwpsn  file "C:/ti/Workspace/PLC_certificate/Software/uCOS-II/Source/os_core.c",line 2059,column 48,
    6156 0000076b 0A4A          INC       *-SP[10]              ; [CPU_ALU] |2059| 
    6157                      .dwpsn  file "C:/ti/Workspace/PLC_certificate/Software/uCOS-II/Source/os_core.c",line 2059,column 22,
    6158 0000076c 924A          MOV       AL,*-SP[10]           ; [CPU_ALU] |2059| 
    6159 0000076d 61F8          B         $C$L110,EQ            ; [CPU_ALU] |2059| 
    6160                      ; branchcc occurs ; [] |2059| 
    6161 0000076e       $C$L111:    
    6162                      .dwpsn  file "C:/ti/Workspace/PLC_certificate/Software/uCOS-II/Source/os_core.c",line 2064,column 9,i
    6163 0000076e 8A48          MOVL      XAR4,*-SP[8]          ; [CPU_ALU] |2064| 
    6164              $C$DW$344       .dwtag  DW_TAG_TI_branch
    6165                      .dwattr $C$DW$344, DW_AT_low_pc(0x00)
    6166                      .dwattr $C$DW$344, DW_AT_name("_OSTCBInitHook")
    6167                      .dwattr $C$DW$344, DW_AT_TI_call
    6168              
    6169 0000076f 7640!         LCR       #_OSTCBInitHook       ; [CPU_ALU] |2064| 
         00000770 0000 
    6170                      ; call occurs [#_OSTCBInitHook] ; [] |2064| 
    6171                      .dwpsn  file "C:/ti/Workspace/PLC_certificate/Software/uCOS-II/Source/os_core.c",line 2066,column 9,i
    6172              $C$DW$345       .dwtag  DW_TAG_TI_branch
    6173                      .dwattr $C$DW$345, DW_AT_low_pc(0x00)
    6174                      .dwattr $C$DW$345, DW_AT_name("_OS_CPU_SR_Save")
    6175                      .dwattr $C$DW$345, DW_AT_TI_call
    6176              
    6177 00000771 7640!         LCR       #_OS_CPU_SR_Save      ; [CPU_ALU] |2066| 
         00000772 0000 
    6178                      ; call occurs [#_OS_CPU_SR_Save] ; [] |2066| 
    6179 00000773 9649          MOV       *-SP[9],AL            ; [CPU_ALU] |2066| 
TMS320C2000 Assembler PC v20.2.1 Tue Feb 16 00:15:57 2021

Copyright (c) 1996-2018 Texas Instruments Incorporated
os_core.asm                                                          PAGE  118

    6180                      .dwpsn  file "C:/ti/Workspace/PLC_certificate/Software/uCOS-II/Source/os_core.c",line 2067,column 9,i
    6181 00000774 2901          CLRC      SXM                   ; [CPU_ALU] 
    6182 00000775 8F00-         MOVL      XAR4,#_OSTCBPrioTbl   ; [CPU_ARAU] |2067| 
         00000776 0000 
    6183 00000777 5603          MOV       ACC,*-SP[13] << 1     ; [CPU_ALU] |2067| 
         00000778 014D 
    6184 00000779 5601          ADDL      XAR4,ACC              ; [CPU_ALU] |2067| 
         0000077a 00A4 
    6185 0000077b 0648          MOVL      ACC,*-SP[8]           ; [CPU_ALU] |2067| 
    6186 0000077c 1EC4          MOVL      *+XAR4[0],ACC         ; [CPU_ALU] |2067| 
    6187                      .dwpsn  file "C:/ti/Workspace/PLC_certificate/Software/uCOS-II/Source/os_core.c",line 2068,column 9,i
    6188 0000077d 9249          MOV       AL,*-SP[9]            ; [CPU_ALU] |2068| 
    6189              $C$DW$346       .dwtag  DW_TAG_TI_branch
    6190                      .dwattr $C$DW$346, DW_AT_low_pc(0x00)
    6191                      .dwattr $C$DW$346, DW_AT_name("_OS_CPU_SR_Restore")
    6192                      .dwattr $C$DW$346, DW_AT_TI_call
    6193              
    6194 0000077e 7640!         LCR       #_OS_CPU_SR_Restore   ; [CPU_ALU] |2068| 
         0000077f 0000 
    6195                      ; call occurs [#_OS_CPU_SR_Restore] ; [] |2068| 
    6196                      .dwpsn  file "C:/ti/Workspace/PLC_certificate/Software/uCOS-II/Source/os_core.c",line 2070,column 9,i
    6197 00000780 8A48          MOVL      XAR4,*-SP[8]          ; [CPU_ALU] |2070| 
    6198              $C$DW$347       .dwtag  DW_TAG_TI_branch
    6199                      .dwattr $C$DW$347, DW_AT_low_pc(0x00)
    6200                      .dwattr $C$DW$347, DW_AT_name("_OSTaskCreateHook")
    6201                      .dwattr $C$DW$347, DW_AT_TI_call
    6202              
    6203 00000781 7640!         LCR       #_OSTaskCreateHook    ; [CPU_ALU] |2070| 
         00000782 0000 
    6204                      ; call occurs [#_OSTaskCreateHook] ; [] |2070| 
    6205                      .dwpsn  file "C:/ti/Workspace/PLC_certificate/Software/uCOS-II/Source/os_core.c",line 2081,column 9,i
    6206              $C$DW$348       .dwtag  DW_TAG_TI_branch
    6207                      .dwattr $C$DW$348, DW_AT_low_pc(0x00)
    6208                      .dwattr $C$DW$348, DW_AT_name("_OS_CPU_SR_Save")
    6209                      .dwattr $C$DW$348, DW_AT_TI_call
    6210              
    6211 00000783 7640!         LCR       #_OS_CPU_SR_Save      ; [CPU_ALU] |2081| 
         00000784 0000 
    6212                      ; call occurs [#_OS_CPU_SR_Save] ; [] |2081| 
    6213 00000785 9649          MOV       *-SP[9],AL            ; [CPU_ALU] |2081| 
    6214                      .dwpsn  file "C:/ti/Workspace/PLC_certificate/Software/uCOS-II/Source/os_core.c",line 2082,column 9,i
    6215 00000786 761F-         MOVW      DP,#_OSTCBList        ; [CPU_ARAU] 
         00000787 0000 
    6216 00000788 C41E-         MOVL      XAR6,@_OSTCBList      ; [CPU_ALU] |2082| 
    6217 00000789 020A          MOVB      ACC,#10               ; [CPU_ALU] |2082| 
    6218 0000078a 0748          ADDL      ACC,*-SP[8]           ; [CPU_ALU] |2082| 
    6219 0000078b 8AA9          MOVL      XAR4,ACC              ; [CPU_ALU] |2082| 
    6220 0000078c C2C4          MOVL      *+XAR4[0],XAR6        ; [CPU_ALU] |2082| 
    6221                      .dwpsn  file "C:/ti/Workspace/PLC_certificate/Software/uCOS-II/Source/os_core.c",line 2083,column 9,i
    6222 0000078d BE00          MOVB      XAR6,#0               ; [CPU_ALU] |2083| 
    6223 0000078e 020C          MOVB      ACC,#12               ; [CPU_ALU] |2083| 
    6224 0000078f 0748          ADDL      ACC,*-SP[8]           ; [CPU_ALU] |2083| 
    6225 00000790 8AA9          MOVL      XAR4,ACC              ; [CPU_ALU] |2083| 
    6226 00000791 C2C4          MOVL      *+XAR4[0],XAR6        ; [CPU_ALU] |2083| 
    6227                      .dwpsn  file "C:/ti/Workspace/PLC_certificate/Software/uCOS-II/Source/os_core.c",line 2084,column 9,i
TMS320C2000 Assembler PC v20.2.1 Tue Feb 16 00:15:57 2021

Copyright (c) 1996-2018 Texas Instruments Incorporated
os_core.asm                                                          PAGE  119

    6228 00000792 061E-         MOVL      ACC,@_OSTCBList       ; [CPU_ALU] |2084| 
    6229 00000793 6106          B         $C$L112,EQ            ; [CPU_ALU] |2084| 
    6230                      ; branchcc occurs ; [] |2084| 
    6231                      .dwpsn  file "C:/ti/Workspace/PLC_certificate/Software/uCOS-II/Source/os_core.c",line 2085,column 13,
    6232 00000794 C448          MOVL      XAR6,*-SP[8]          ; [CPU_ALU] |2085| 
    6233 00000795 020C          MOVB      ACC,#12               ; [CPU_ALU] |2085| 
    6234 00000796 071E-         ADDL      ACC,@_OSTCBList       ; [CPU_ALU] |2085| 
    6235 00000797 8AA9          MOVL      XAR4,ACC              ; [CPU_ALU] |2085| 
    6236 00000798 C2C4          MOVL      *+XAR4[0],XAR6        ; [CPU_ALU] |2085| 
    6237 00000799       $C$L112:    
    6238                      .dwpsn  file "C:/ti/Workspace/PLC_certificate/Software/uCOS-II/Source/os_core.c",line 2087,column 9,i
    6239 00000799 0648          MOVL      ACC,*-SP[8]           ; [CPU_ALU] |2087| 
    6240 0000079a 1E1E-         MOVL      @_OSTCBList,ACC       ; [CPU_ALU] |2087| 
    6241                      .dwpsn  file "C:/ti/Workspace/PLC_certificate/Software/uCOS-II/Source/os_core.c",line 2088,column 9,i
    6242 0000079b 0220          MOVB      ACC,#32               ; [CPU_ALU] |2088| 
    6243 0000079c 0748          ADDL      ACC,*-SP[8]           ; [CPU_ALU] |2088| 
    6244 0000079d 8AA9          MOVL      XAR4,ACC              ; [CPU_ALU] |2088| 
    6245 0000079e 92C4          MOV       AL,*+XAR4[0]          ; [CPU_ALU] |2088| 
    6246 0000079f 9806-         OR        @_OSRdyGrp,AL         ; [CPU_ALU] |2088| 
    6247                      .dwpsn  file "C:/ti/Workspace/PLC_certificate/Software/uCOS-II/Source/os_core.c",line 2089,column 9,i
    6248 000007a0 021E          MOVB      ACC,#30               ; [CPU_ALU] |2089| 
    6249 000007a1 0748          ADDL      ACC,*-SP[8]           ; [CPU_ALU] |2089| 
    6250 000007a2 1EA6          MOVL      XAR6,ACC              ; [CPU_ALU] |2089| 
    6251 000007a3 8F00-         MOVL      XAR4,#_OSRdyTbl       ; [CPU_ARAU] |2089| 
         000007a4 0000 
    6252 000007a5 A8A9          MOVL      ACC,XAR4              ; [CPU_ALU] |2089| 
    6253 000007a6 0DC6          ADDU      ACC,*+XAR6[0]         ; [CPU_ALU] |2089| 
    6254 000007a7 83A9          MOVL      XAR5,ACC              ; [CPU_ALU] |2089| 
    6255 000007a8 021F          MOVB      ACC,#31               ; [CPU_ALU] |2089| 
    6256 000007a9 0748          ADDL      ACC,*-SP[8]           ; [CPU_ALU] |2089| 
    6257 000007aa 8AA9          MOVL      XAR4,ACC              ; [CPU_ALU] |2089| 
    6258 000007ab 92C4          MOV       AL,*+XAR4[0]          ; [CPU_ALU] |2089| 
    6259 000007ac 98C5          OR        *+XAR5[0],AL          ; [CPU_ALU] |2089| 
    6260                      .dwpsn  file "C:/ti/Workspace/PLC_certificate/Software/uCOS-II/Source/os_core.c",line 2090,column 9,i
    6261 000007ad 0A08-         INC       @_OSTaskCtr           ; [CPU_ALU] |2090| 
    6262                      .dwpsn  file "C:/ti/Workspace/PLC_certificate/Software/uCOS-II/Source/os_core.c",line 2091,column 9,i
    6263 000007ae 9249          MOV       AL,*-SP[9]            ; [CPU_ALU] |2091| 
    6264              $C$DW$349       .dwtag  DW_TAG_TI_branch
    6265                      .dwattr $C$DW$349, DW_AT_low_pc(0x00)
    6266                      .dwattr $C$DW$349, DW_AT_name("_OS_CPU_SR_Restore")
    6267                      .dwattr $C$DW$349, DW_AT_TI_call
    6268              
    6269 000007af 7640!         LCR       #_OS_CPU_SR_Restore   ; [CPU_ALU] |2091| 
         000007b0 0000 
    6270                      ; call occurs [#_OS_CPU_SR_Restore] ; [] |2091| 
    6271                      .dwpsn  file "C:/ti/Workspace/PLC_certificate/Software/uCOS-II/Source/os_core.c",line 2092,column 9,i
    6272 000007b1 9A00          MOVB      AL,#0                 ; [CPU_ALU] |2092| 
    6273 000007b2 6F05          B         $C$L114,UNC           ; [CPU_ALU] |2092| 
    6274                      ; branch occurs ; [] |2092| 
    6275 000007b3       $C$L113:    
    6276                      .dwpsn  file "C:/ti/Workspace/PLC_certificate/Software/uCOS-II/Source/os_core.c",line 2094,column 5,i
    6277 000007b3 9249          MOV       AL,*-SP[9]            ; [CPU_ALU] |2094| 
    6278              $C$DW$350       .dwtag  DW_TAG_TI_branch
    6279                      .dwattr $C$DW$350, DW_AT_low_pc(0x00)
    6280                      .dwattr $C$DW$350, DW_AT_name("_OS_CPU_SR_Restore")
TMS320C2000 Assembler PC v20.2.1 Tue Feb 16 00:15:57 2021

Copyright (c) 1996-2018 Texas Instruments Incorporated
os_core.asm                                                          PAGE  120

    6281                      .dwattr $C$DW$350, DW_AT_TI_call
    6282              
    6283 000007b4 7640!         LCR       #_OS_CPU_SR_Restore   ; [CPU_ALU] |2094| 
         000007b5 0000 
    6284                      ; call occurs [#_OS_CPU_SR_Restore] ; [] |2094| 
    6285                      .dwpsn  file "C:/ti/Workspace/PLC_certificate/Software/uCOS-II/Source/os_core.c",line 2095,column 5,i
    6286 000007b6 9A42          MOVB      AL,#66                ; [CPU_ALU] |2095| 
    6287 000007b7       $C$L114:    
    6288                      .dwpsn  file "C:/ti/Workspace/PLC_certificate/Software/uCOS-II/Source/os_core.c",line 2096,column 1,i
    6289 000007b7 FE8A          SUBB      SP,#10                ; [CPU_ARAU] 
    6290                      .dwcfi  cfa_offset, -2
    6291              $C$DW$351       .dwtag  DW_TAG_TI_branch
    6292                      .dwattr $C$DW$351, DW_AT_low_pc(0x00)
    6293                      .dwattr $C$DW$351, DW_AT_TI_return
    6294              
    6295 000007b8 0006          LRETR     ; [CPU_ALU] 
    6296                      ; return occurs ; [] 
    6297                      .dwattr $C$DW$328, DW_AT_TI_end_file("C:/ti/Workspace/PLC_certificate/Software/uCOS-II/Source/os_core
    6298                      .dwattr $C$DW$328, DW_AT_TI_end_line(0x830)
    6299                      .dwattr $C$DW$328, DW_AT_TI_end_column(0x01)
    6300                      .dwendentry
    6301                      .dwendtag $C$DW$328
    6302              
    6303              ;***************************************************************
    6304              ;* FAR STRINGS                                                 *
    6305              ;***************************************************************
    6306 00000000               .sect   ".econst:.string"
    6307                      .align  2
    6308 00000000 003F  $C$FSL1:        .string "?",0
         00000001 0000 
    6309                      .align  2
    6310 00000002 0075  $C$FSL2:        .string "uC/OS-II Idle",0
         00000003 0043 
         00000004 002F 
         00000005 004F 
         00000006 0053 
         00000007 002D 
         00000008 0049 
         00000009 0049 
         0000000a 0020 
         0000000b 0049 
         0000000c 0064 
         0000000d 006C 
         0000000e 0065 
         0000000f 0000 
    6311                      .align  2
    6312 00000010 0075  $C$FSL3:        .string "uC/OS-II Stat",0
         00000011 0043 
         00000012 002F 
         00000013 004F 
         00000014 0053 
         00000015 002D 
         00000016 0049 
         00000017 0049 
         00000018 0020 
TMS320C2000 Assembler PC v20.2.1 Tue Feb 16 00:15:57 2021

Copyright (c) 1996-2018 Texas Instruments Incorporated
os_core.asm                                                          PAGE  121

         00000019 0053 
         0000001a 0074 
         0000001b 0061 
         0000001c 0074 
         0000001d 0000 
    6313              ;**************************************************************
    6314              ;* UNDEFINED EXTERNAL REFERENCES                              *
    6315              ;**************************************************************
    6316                      .global _OS_CPU_SR_Restore
    6317                      .global _OSInitHookBegin
    6318                      .global _OS_FlagInit
    6319                      .global _OS_MemInit
    6320                      .global _OS_QInit
    6321                      .global _OSInitHookEnd
    6322                      .global _OSDebugInit
    6323                      .global _OSStartHighRdy
    6324                      .global _OSTimeDly
    6325                      .global _OSTimeTickHook
    6326                      .global _OSTaskNameSet
    6327                      .global _OSTaskIdleHook
    6328                      .global _OSTaskStatHook
    6329                      .global _OSTCBInitHook
    6330                      .global _OSTaskCreateHook
    6331                      .global _TaskID
    6332                      .global _OS_CPU_SR_Save
    6333                      .global _OSTaskCreateExt
    6334                      .global _OSTaskSuspend
    6335                      .global _OSTimeDlyHMSM
    6336                      .global _OSTaskStkChk
    6337              
    6338              ;***************************************************************
    6339              ;* TYPE INFORMATION                                            *
    6340              ;***************************************************************
    6341              $C$DW$T$2       .dwtag  DW_TAG_unspecified_type
    6342                      .dwattr $C$DW$T$2, DW_AT_name("void")
    6343              
    6344              $C$DW$T$3       .dwtag  DW_TAG_pointer_type
    6345                      .dwattr $C$DW$T$3, DW_AT_type(*$C$DW$T$2)
    6346                      .dwattr $C$DW$T$3, DW_AT_address_class(0x20)
    6347              
    6348              $C$DW$T$31      .dwtag  DW_TAG_pointer_type
    6349                      .dwattr $C$DW$T$31, DW_AT_type(*$C$DW$T$3)
    6350                      .dwattr $C$DW$T$31, DW_AT_address_class(0x20)
    6351              
    6352              
    6353              $C$DW$T$49      .dwtag  DW_TAG_subroutine_type
    6354                      .dwattr $C$DW$T$49, DW_AT_language(DW_LANG_C)
    6355              $C$DW$352       .dwtag  DW_TAG_formal_parameter
    6356                      .dwattr $C$DW$352, DW_AT_type(*$C$DW$T$3)
    6357              
    6358                      .dwendtag $C$DW$T$49
    6359              
    6360              $C$DW$T$50      .dwtag  DW_TAG_pointer_type
    6361                      .dwattr $C$DW$T$50, DW_AT_type(*$C$DW$T$49)
    6362                      .dwattr $C$DW$T$50, DW_AT_address_class(0x20)
TMS320C2000 Assembler PC v20.2.1 Tue Feb 16 00:15:57 2021

Copyright (c) 1996-2018 Texas Instruments Incorporated
os_core.asm                                                          PAGE  122

    6363              
    6364              $C$DW$T$4       .dwtag  DW_TAG_base_type
    6365                      .dwattr $C$DW$T$4, DW_AT_encoding(DW_ATE_boolean)
    6366                      .dwattr $C$DW$T$4, DW_AT_name("bool")
    6367                      .dwattr $C$DW$T$4, DW_AT_byte_size(0x01)
    6368              
    6369              $C$DW$T$5       .dwtag  DW_TAG_base_type
    6370                      .dwattr $C$DW$T$5, DW_AT_encoding(DW_ATE_signed_char)
    6371                      .dwattr $C$DW$T$5, DW_AT_name("signed char")
    6372                      .dwattr $C$DW$T$5, DW_AT_byte_size(0x01)
    6373              
    6374              $C$DW$T$6       .dwtag  DW_TAG_base_type
    6375                      .dwattr $C$DW$T$6, DW_AT_encoding(DW_ATE_unsigned_char)
    6376                      .dwattr $C$DW$T$6, DW_AT_name("unsigned char")
    6377                      .dwattr $C$DW$T$6, DW_AT_byte_size(0x01)
    6378              
    6379              $C$DW$T$70      .dwtag  DW_TAG_typedef
    6380                      .dwattr $C$DW$T$70, DW_AT_name("BOOLEAN")
    6381                      .dwattr $C$DW$T$70, DW_AT_type(*$C$DW$T$6)
    6382                      .dwattr $C$DW$T$70, DW_AT_language(DW_LANG_C)
    6383              
    6384              $C$DW$T$19      .dwtag  DW_TAG_typedef
    6385                      .dwattr $C$DW$T$19, DW_AT_name("INT8U")
    6386                      .dwattr $C$DW$T$19, DW_AT_type(*$C$DW$T$6)
    6387                      .dwattr $C$DW$T$19, DW_AT_language(DW_LANG_C)
    6388              
    6389              $C$DW$353       .dwtag  DW_TAG_TI_far_type
    6390                      .dwattr $C$DW$353, DW_AT_type(*$C$DW$T$19)
    6391              
    6392              $C$DW$T$71      .dwtag  DW_TAG_const_type
    6393                      .dwattr $C$DW$T$71, DW_AT_type(*$C$DW$353)
    6394              
    6395              
    6396              $C$DW$T$72      .dwtag  DW_TAG_array_type
    6397                      .dwattr $C$DW$T$72, DW_AT_type(*$C$DW$T$71)
    6398                      .dwattr $C$DW$T$72, DW_AT_language(DW_LANG_C)
    6399                      .dwattr $C$DW$T$72, DW_AT_byte_size(0x100)
    6400              $C$DW$354       .dwtag  DW_TAG_subrange_type
    6401                      .dwattr $C$DW$354, DW_AT_upper_bound(0xff)
    6402              
    6403                      .dwendtag $C$DW$T$72
    6404              
    6405              $C$DW$T$21      .dwtag  DW_TAG_typedef
    6406                      .dwattr $C$DW$T$21, DW_AT_name("OS_PRIO")
    6407                      .dwattr $C$DW$T$21, DW_AT_type(*$C$DW$T$19)
    6408                      .dwattr $C$DW$T$21, DW_AT_language(DW_LANG_C)
    6409              
    6410              
    6411              $C$DW$T$22      .dwtag  DW_TAG_array_type
    6412                      .dwattr $C$DW$T$22, DW_AT_type(*$C$DW$T$21)
    6413                      .dwattr $C$DW$T$22, DW_AT_language(DW_LANG_C)
    6414                      .dwattr $C$DW$T$22, DW_AT_byte_size(0x08)
    6415              $C$DW$355       .dwtag  DW_TAG_subrange_type
    6416                      .dwattr $C$DW$355, DW_AT_upper_bound(0x07)
    6417              
TMS320C2000 Assembler PC v20.2.1 Tue Feb 16 00:15:57 2021

Copyright (c) 1996-2018 Texas Instruments Incorporated
os_core.asm                                                          PAGE  123

    6418                      .dwendtag $C$DW$T$22
    6419              
    6420              $C$DW$T$23      .dwtag  DW_TAG_pointer_type
    6421                      .dwattr $C$DW$T$23, DW_AT_type(*$C$DW$T$19)
    6422                      .dwattr $C$DW$T$23, DW_AT_address_class(0x20)
    6423              
    6424              $C$DW$T$77      .dwtag  DW_TAG_pointer_type
    6425                      .dwattr $C$DW$T$77, DW_AT_type(*$C$DW$T$23)
    6426                      .dwattr $C$DW$T$77, DW_AT_address_class(0x20)
    6427              
    6428              $C$DW$T$7       .dwtag  DW_TAG_base_type
    6429                      .dwattr $C$DW$T$7, DW_AT_encoding(DW_ATE_signed_char)
    6430                      .dwattr $C$DW$T$7, DW_AT_name("wchar_t")
    6431                      .dwattr $C$DW$T$7, DW_AT_byte_size(0x01)
    6432              
    6433              $C$DW$T$8       .dwtag  DW_TAG_base_type
    6434                      .dwattr $C$DW$T$8, DW_AT_encoding(DW_ATE_signed)
    6435                      .dwattr $C$DW$T$8, DW_AT_name("short")
    6436                      .dwattr $C$DW$T$8, DW_AT_byte_size(0x01)
    6437              
    6438              $C$DW$T$9       .dwtag  DW_TAG_base_type
    6439                      .dwattr $C$DW$T$9, DW_AT_encoding(DW_ATE_unsigned)
    6440                      .dwattr $C$DW$T$9, DW_AT_name("unsigned short")
    6441                      .dwattr $C$DW$T$9, DW_AT_byte_size(0x01)
    6442              
    6443              $C$DW$T$20      .dwtag  DW_TAG_typedef
    6444                      .dwattr $C$DW$T$20, DW_AT_name("INT16U")
    6445                      .dwattr $C$DW$T$20, DW_AT_type(*$C$DW$T$9)
    6446                      .dwattr $C$DW$T$20, DW_AT_language(DW_LANG_C)
    6447              
    6448              $C$DW$T$25      .dwtag  DW_TAG_typedef
    6449                      .dwattr $C$DW$T$25, DW_AT_name("OS_FLAGS")
    6450                      .dwattr $C$DW$T$25, DW_AT_type(*$C$DW$T$20)
    6451                      .dwattr $C$DW$T$25, DW_AT_language(DW_LANG_C)
    6452              
    6453              $C$DW$T$44      .dwtag  DW_TAG_typedef
    6454                      .dwattr $C$DW$T$44, DW_AT_name("OS_CPU_SR")
    6455                      .dwattr $C$DW$T$44, DW_AT_type(*$C$DW$T$9)
    6456                      .dwattr $C$DW$T$44, DW_AT_language(DW_LANG_C)
    6457              
    6458              $C$DW$T$34      .dwtag  DW_TAG_typedef
    6459                      .dwattr $C$DW$T$34, DW_AT_name("OS_STK")
    6460                      .dwattr $C$DW$T$34, DW_AT_type(*$C$DW$T$9)
    6461                      .dwattr $C$DW$T$34, DW_AT_language(DW_LANG_C)
    6462              
    6463              $C$DW$T$35      .dwtag  DW_TAG_pointer_type
    6464                      .dwattr $C$DW$T$35, DW_AT_type(*$C$DW$T$34)
    6465                      .dwattr $C$DW$T$35, DW_AT_address_class(0x20)
    6466              
    6467              
    6468              $C$DW$T$95      .dwtag  DW_TAG_array_type
    6469                      .dwattr $C$DW$T$95, DW_AT_type(*$C$DW$T$34)
    6470                      .dwattr $C$DW$T$95, DW_AT_language(DW_LANG_C)
    6471                      .dwattr $C$DW$T$95, DW_AT_byte_size(0x100)
    6472              $C$DW$356       .dwtag  DW_TAG_subrange_type
TMS320C2000 Assembler PC v20.2.1 Tue Feb 16 00:15:57 2021

Copyright (c) 1996-2018 Texas Instruments Incorporated
os_core.asm                                                          PAGE  124

    6473                      .dwattr $C$DW$356, DW_AT_upper_bound(0xff)
    6474              
    6475                      .dwendtag $C$DW$T$95
    6476              
    6477              $C$DW$T$10      .dwtag  DW_TAG_base_type
    6478                      .dwattr $C$DW$T$10, DW_AT_encoding(DW_ATE_signed)
    6479                      .dwattr $C$DW$T$10, DW_AT_name("int")
    6480                      .dwattr $C$DW$T$10, DW_AT_byte_size(0x01)
    6481              
    6482              $C$DW$T$11      .dwtag  DW_TAG_base_type
    6483                      .dwattr $C$DW$T$11, DW_AT_encoding(DW_ATE_unsigned)
    6484                      .dwattr $C$DW$T$11, DW_AT_name("unsigned int")
    6485                      .dwattr $C$DW$T$11, DW_AT_byte_size(0x01)
    6486              
    6487              $C$DW$T$12      .dwtag  DW_TAG_base_type
    6488                      .dwattr $C$DW$T$12, DW_AT_encoding(DW_ATE_signed)
    6489                      .dwattr $C$DW$T$12, DW_AT_name("long")
    6490                      .dwattr $C$DW$T$12, DW_AT_byte_size(0x02)
    6491              
    6492              $C$DW$T$13      .dwtag  DW_TAG_base_type
    6493                      .dwattr $C$DW$T$13, DW_AT_encoding(DW_ATE_unsigned)
    6494                      .dwattr $C$DW$T$13, DW_AT_name("unsigned long")
    6495                      .dwattr $C$DW$T$13, DW_AT_byte_size(0x02)
    6496              
    6497              $C$DW$T$28      .dwtag  DW_TAG_typedef
    6498                      .dwattr $C$DW$T$28, DW_AT_name("INT32U")
    6499                      .dwattr $C$DW$T$28, DW_AT_type(*$C$DW$T$13)
    6500                      .dwattr $C$DW$T$28, DW_AT_language(DW_LANG_C)
    6501              
    6502              $C$DW$357       .dwtag  DW_TAG_TI_far_type
    6503                      .dwattr $C$DW$357, DW_AT_type(*$C$DW$T$28)
    6504              
    6505              $C$DW$T$96      .dwtag  DW_TAG_volatile_type
    6506                      .dwattr $C$DW$T$96, DW_AT_type(*$C$DW$357)
    6507              
    6508              
    6509              $C$DW$T$42      .dwtag  DW_TAG_array_type
    6510                      .dwattr $C$DW$T$42, DW_AT_type(*$C$DW$T$28)
    6511                      .dwattr $C$DW$T$42, DW_AT_language(DW_LANG_C)
    6512                      .dwattr $C$DW$T$42, DW_AT_byte_size(0x02)
    6513              $C$DW$358       .dwtag  DW_TAG_subrange_type
    6514                      .dwattr $C$DW$358, DW_AT_upper_bound(0x00)
    6515              
    6516                      .dwendtag $C$DW$T$42
    6517              
    6518              $C$DW$T$14      .dwtag  DW_TAG_base_type
    6519                      .dwattr $C$DW$T$14, DW_AT_encoding(DW_ATE_signed)
    6520                      .dwattr $C$DW$T$14, DW_AT_name("long long")
    6521                      .dwattr $C$DW$T$14, DW_AT_byte_size(0x04)
    6522              
    6523              $C$DW$T$15      .dwtag  DW_TAG_base_type
    6524                      .dwattr $C$DW$T$15, DW_AT_encoding(DW_ATE_unsigned)
    6525                      .dwattr $C$DW$T$15, DW_AT_name("unsigned long long")
    6526                      .dwattr $C$DW$T$15, DW_AT_byte_size(0x04)
    6527              
TMS320C2000 Assembler PC v20.2.1 Tue Feb 16 00:15:57 2021

Copyright (c) 1996-2018 Texas Instruments Incorporated
os_core.asm                                                          PAGE  125

    6528              $C$DW$T$16      .dwtag  DW_TAG_base_type
    6529                      .dwattr $C$DW$T$16, DW_AT_encoding(DW_ATE_float)
    6530                      .dwattr $C$DW$T$16, DW_AT_name("float")
    6531                      .dwattr $C$DW$T$16, DW_AT_byte_size(0x02)
    6532              
    6533              $C$DW$T$17      .dwtag  DW_TAG_base_type
    6534                      .dwattr $C$DW$T$17, DW_AT_encoding(DW_ATE_float)
    6535                      .dwattr $C$DW$T$17, DW_AT_name("double")
    6536                      .dwattr $C$DW$T$17, DW_AT_byte_size(0x02)
    6537              
    6538              $C$DW$T$18      .dwtag  DW_TAG_base_type
    6539                      .dwattr $C$DW$T$18, DW_AT_encoding(DW_ATE_float)
    6540                      .dwattr $C$DW$T$18, DW_AT_name("long double")
    6541                      .dwattr $C$DW$T$18, DW_AT_byte_size(0x04)
    6542              
    6543              
    6544              $C$DW$T$24      .dwtag  DW_TAG_structure_type
    6545                      .dwattr $C$DW$T$24, DW_AT_name("os_event")
    6546                      .dwattr $C$DW$T$24, DW_AT_byte_size(0x10)
    6547              $C$DW$359       .dwtag  DW_TAG_member
    6548                      .dwattr $C$DW$359, DW_AT_type(*$C$DW$T$19)
    6549                      .dwattr $C$DW$359, DW_AT_name("OSEventType")
    6550                      .dwattr $C$DW$359, DW_AT_TI_symbol_name("_OSEventType")
    6551                      .dwattr $C$DW$359, DW_AT_data_member_location[DW_OP_plus_uconst 0x0]
    6552                      .dwattr $C$DW$359, DW_AT_accessibility(DW_ACCESS_public)
    6553              
    6554              $C$DW$360       .dwtag  DW_TAG_member
    6555                      .dwattr $C$DW$360, DW_AT_type(*$C$DW$T$3)
    6556                      .dwattr $C$DW$360, DW_AT_name("OSEventPtr")
    6557                      .dwattr $C$DW$360, DW_AT_TI_symbol_name("_OSEventPtr")
    6558                      .dwattr $C$DW$360, DW_AT_data_member_location[DW_OP_plus_uconst 0x2]
    6559                      .dwattr $C$DW$360, DW_AT_accessibility(DW_ACCESS_public)
    6560              
    6561              $C$DW$361       .dwtag  DW_TAG_member
    6562                      .dwattr $C$DW$361, DW_AT_type(*$C$DW$T$20)
    6563                      .dwattr $C$DW$361, DW_AT_name("OSEventCnt")
    6564                      .dwattr $C$DW$361, DW_AT_TI_symbol_name("_OSEventCnt")
    6565                      .dwattr $C$DW$361, DW_AT_data_member_location[DW_OP_plus_uconst 0x4]
    6566                      .dwattr $C$DW$361, DW_AT_accessibility(DW_ACCESS_public)
    6567              
    6568              $C$DW$362       .dwtag  DW_TAG_member
    6569                      .dwattr $C$DW$362, DW_AT_type(*$C$DW$T$21)
    6570                      .dwattr $C$DW$362, DW_AT_name("OSEventGrp")
    6571                      .dwattr $C$DW$362, DW_AT_TI_symbol_name("_OSEventGrp")
    6572                      .dwattr $C$DW$362, DW_AT_data_member_location[DW_OP_plus_uconst 0x5]
    6573                      .dwattr $C$DW$362, DW_AT_accessibility(DW_ACCESS_public)
    6574              
    6575              $C$DW$363       .dwtag  DW_TAG_member
    6576                      .dwattr $C$DW$363, DW_AT_type(*$C$DW$T$22)
    6577                      .dwattr $C$DW$363, DW_AT_name("OSEventTbl")
    6578                      .dwattr $C$DW$363, DW_AT_TI_symbol_name("_OSEventTbl")
    6579                      .dwattr $C$DW$363, DW_AT_data_member_location[DW_OP_plus_uconst 0x6]
    6580                      .dwattr $C$DW$363, DW_AT_accessibility(DW_ACCESS_public)
    6581              
    6582              $C$DW$364       .dwtag  DW_TAG_member
TMS320C2000 Assembler PC v20.2.1 Tue Feb 16 00:15:57 2021

Copyright (c) 1996-2018 Texas Instruments Incorporated
os_core.asm                                                          PAGE  126

    6583                      .dwattr $C$DW$364, DW_AT_type(*$C$DW$T$23)
    6584                      .dwattr $C$DW$364, DW_AT_name("OSEventName")
    6585                      .dwattr $C$DW$364, DW_AT_TI_symbol_name("_OSEventName")
    6586                      .dwattr $C$DW$364, DW_AT_data_member_location[DW_OP_plus_uconst 0xe]
    6587                      .dwattr $C$DW$364, DW_AT_accessibility(DW_ACCESS_public)
    6588              
    6589                      .dwendtag $C$DW$T$24
    6590              
    6591              $C$DW$T$37      .dwtag  DW_TAG_typedef
    6592                      .dwattr $C$DW$T$37, DW_AT_name("OS_EVENT")
    6593                      .dwattr $C$DW$T$37, DW_AT_type(*$C$DW$T$24)
    6594                      .dwattr $C$DW$T$37, DW_AT_language(DW_LANG_C)
    6595              
    6596              $C$DW$T$38      .dwtag  DW_TAG_pointer_type
    6597                      .dwattr $C$DW$T$38, DW_AT_type(*$C$DW$T$37)
    6598                      .dwattr $C$DW$T$38, DW_AT_address_class(0x20)
    6599              
    6600              $C$DW$T$39      .dwtag  DW_TAG_pointer_type
    6601                      .dwattr $C$DW$T$39, DW_AT_type(*$C$DW$T$38)
    6602                      .dwattr $C$DW$T$39, DW_AT_address_class(0x20)
    6603              
    6604              
    6605              $C$DW$T$100     .dwtag  DW_TAG_array_type
    6606                      .dwattr $C$DW$T$100, DW_AT_type(*$C$DW$T$37)
    6607                      .dwattr $C$DW$T$100, DW_AT_language(DW_LANG_C)
    6608                      .dwattr $C$DW$T$100, DW_AT_byte_size(0xa0)
    6609              $C$DW$365       .dwtag  DW_TAG_subrange_type
    6610                      .dwattr $C$DW$365, DW_AT_upper_bound(0x09)
    6611              
    6612                      .dwendtag $C$DW$T$100
    6613              
    6614              
    6615              $C$DW$T$26      .dwtag  DW_TAG_structure_type
    6616                      .dwattr $C$DW$T$26, DW_AT_name("os_flag_grp")
    6617                      .dwattr $C$DW$T$26, DW_AT_byte_size(0x08)
    6618              $C$DW$366       .dwtag  DW_TAG_member
    6619                      .dwattr $C$DW$366, DW_AT_type(*$C$DW$T$19)
    6620                      .dwattr $C$DW$366, DW_AT_name("OSFlagType")
    6621                      .dwattr $C$DW$366, DW_AT_TI_symbol_name("_OSFlagType")
    6622                      .dwattr $C$DW$366, DW_AT_data_member_location[DW_OP_plus_uconst 0x0]
    6623                      .dwattr $C$DW$366, DW_AT_accessibility(DW_ACCESS_public)
    6624              
    6625              $C$DW$367       .dwtag  DW_TAG_member
    6626                      .dwattr $C$DW$367, DW_AT_type(*$C$DW$T$3)
    6627                      .dwattr $C$DW$367, DW_AT_name("OSFlagWaitList")
    6628                      .dwattr $C$DW$367, DW_AT_TI_symbol_name("_OSFlagWaitList")
    6629                      .dwattr $C$DW$367, DW_AT_data_member_location[DW_OP_plus_uconst 0x2]
    6630                      .dwattr $C$DW$367, DW_AT_accessibility(DW_ACCESS_public)
    6631              
    6632              $C$DW$368       .dwtag  DW_TAG_member
    6633                      .dwattr $C$DW$368, DW_AT_type(*$C$DW$T$25)
    6634                      .dwattr $C$DW$368, DW_AT_name("OSFlagFlags")
    6635                      .dwattr $C$DW$368, DW_AT_TI_symbol_name("_OSFlagFlags")
    6636                      .dwattr $C$DW$368, DW_AT_data_member_location[DW_OP_plus_uconst 0x4]
    6637                      .dwattr $C$DW$368, DW_AT_accessibility(DW_ACCESS_public)
TMS320C2000 Assembler PC v20.2.1 Tue Feb 16 00:15:57 2021

Copyright (c) 1996-2018 Texas Instruments Incorporated
os_core.asm                                                          PAGE  127

    6638              
    6639              $C$DW$369       .dwtag  DW_TAG_member
    6640                      .dwattr $C$DW$369, DW_AT_type(*$C$DW$T$23)
    6641                      .dwattr $C$DW$369, DW_AT_name("OSFlagName")
    6642                      .dwattr $C$DW$369, DW_AT_TI_symbol_name("_OSFlagName")
    6643                      .dwattr $C$DW$369, DW_AT_data_member_location[DW_OP_plus_uconst 0x6]
    6644                      .dwattr $C$DW$369, DW_AT_accessibility(DW_ACCESS_public)
    6645              
    6646                      .dwendtag $C$DW$T$26
    6647              
    6648              $C$DW$T$101     .dwtag  DW_TAG_typedef
    6649                      .dwattr $C$DW$T$101, DW_AT_name("OS_FLAG_GRP")
    6650                      .dwattr $C$DW$T$101, DW_AT_type(*$C$DW$T$26)
    6651                      .dwattr $C$DW$T$101, DW_AT_language(DW_LANG_C)
    6652              
    6653              
    6654              $C$DW$T$102     .dwtag  DW_TAG_array_type
    6655                      .dwattr $C$DW$T$102, DW_AT_type(*$C$DW$T$101)
    6656                      .dwattr $C$DW$T$102, DW_AT_language(DW_LANG_C)
    6657                      .dwattr $C$DW$T$102, DW_AT_byte_size(0x28)
    6658              $C$DW$370       .dwtag  DW_TAG_subrange_type
    6659                      .dwattr $C$DW$370, DW_AT_upper_bound(0x04)
    6660              
    6661                      .dwendtag $C$DW$T$102
    6662              
    6663              $C$DW$T$103     .dwtag  DW_TAG_pointer_type
    6664                      .dwattr $C$DW$T$103, DW_AT_type(*$C$DW$T$101)
    6665                      .dwattr $C$DW$T$103, DW_AT_address_class(0x20)
    6666              
    6667              
    6668              $C$DW$T$27      .dwtag  DW_TAG_structure_type
    6669                      .dwattr $C$DW$T$27, DW_AT_name("os_flag_node")
    6670                      .dwattr $C$DW$T$27, DW_AT_byte_size(0x0a)
    6671              $C$DW$371       .dwtag  DW_TAG_member
    6672                      .dwattr $C$DW$371, DW_AT_type(*$C$DW$T$3)
    6673                      .dwattr $C$DW$371, DW_AT_name("OSFlagNodeNext")
    6674                      .dwattr $C$DW$371, DW_AT_TI_symbol_name("_OSFlagNodeNext")
    6675                      .dwattr $C$DW$371, DW_AT_data_member_location[DW_OP_plus_uconst 0x0]
    6676                      .dwattr $C$DW$371, DW_AT_accessibility(DW_ACCESS_public)
    6677              
    6678              $C$DW$372       .dwtag  DW_TAG_member
    6679                      .dwattr $C$DW$372, DW_AT_type(*$C$DW$T$3)
    6680                      .dwattr $C$DW$372, DW_AT_name("OSFlagNodePrev")
    6681                      .dwattr $C$DW$372, DW_AT_TI_symbol_name("_OSFlagNodePrev")
    6682                      .dwattr $C$DW$372, DW_AT_data_member_location[DW_OP_plus_uconst 0x2]
    6683                      .dwattr $C$DW$372, DW_AT_accessibility(DW_ACCESS_public)
    6684              
    6685              $C$DW$373       .dwtag  DW_TAG_member
    6686                      .dwattr $C$DW$373, DW_AT_type(*$C$DW$T$3)
    6687                      .dwattr $C$DW$373, DW_AT_name("OSFlagNodeTCB")
    6688                      .dwattr $C$DW$373, DW_AT_TI_symbol_name("_OSFlagNodeTCB")
    6689                      .dwattr $C$DW$373, DW_AT_data_member_location[DW_OP_plus_uconst 0x4]
    6690                      .dwattr $C$DW$373, DW_AT_accessibility(DW_ACCESS_public)
    6691              
    6692              $C$DW$374       .dwtag  DW_TAG_member
TMS320C2000 Assembler PC v20.2.1 Tue Feb 16 00:15:57 2021

Copyright (c) 1996-2018 Texas Instruments Incorporated
os_core.asm                                                          PAGE  128

    6693                      .dwattr $C$DW$374, DW_AT_type(*$C$DW$T$3)
    6694                      .dwattr $C$DW$374, DW_AT_name("OSFlagNodeFlagGrp")
    6695                      .dwattr $C$DW$374, DW_AT_TI_symbol_name("_OSFlagNodeFlagGrp")
    6696                      .dwattr $C$DW$374, DW_AT_data_member_location[DW_OP_plus_uconst 0x6]
    6697                      .dwattr $C$DW$374, DW_AT_accessibility(DW_ACCESS_public)
    6698              
    6699              $C$DW$375       .dwtag  DW_TAG_member
    6700                      .dwattr $C$DW$375, DW_AT_type(*$C$DW$T$25)
    6701                      .dwattr $C$DW$375, DW_AT_name("OSFlagNodeFlags")
    6702                      .dwattr $C$DW$375, DW_AT_TI_symbol_name("_OSFlagNodeFlags")
    6703                      .dwattr $C$DW$375, DW_AT_data_member_location[DW_OP_plus_uconst 0x8]
    6704                      .dwattr $C$DW$375, DW_AT_accessibility(DW_ACCESS_public)
    6705              
    6706              $C$DW$376       .dwtag  DW_TAG_member
    6707                      .dwattr $C$DW$376, DW_AT_type(*$C$DW$T$19)
    6708                      .dwattr $C$DW$376, DW_AT_name("OSFlagNodeWaitType")
    6709                      .dwattr $C$DW$376, DW_AT_TI_symbol_name("_OSFlagNodeWaitType")
    6710                      .dwattr $C$DW$376, DW_AT_data_member_location[DW_OP_plus_uconst 0x9]
    6711                      .dwattr $C$DW$376, DW_AT_accessibility(DW_ACCESS_public)
    6712              
    6713                      .dwendtag $C$DW$T$27
    6714              
    6715              $C$DW$T$40      .dwtag  DW_TAG_typedef
    6716                      .dwattr $C$DW$T$40, DW_AT_name("OS_FLAG_NODE")
    6717                      .dwattr $C$DW$T$40, DW_AT_type(*$C$DW$T$27)
    6718                      .dwattr $C$DW$T$40, DW_AT_language(DW_LANG_C)
    6719              
    6720              $C$DW$T$41      .dwtag  DW_TAG_pointer_type
    6721                      .dwattr $C$DW$T$41, DW_AT_type(*$C$DW$T$40)
    6722                      .dwattr $C$DW$T$41, DW_AT_address_class(0x20)
    6723              
    6724              
    6725              $C$DW$T$29      .dwtag  DW_TAG_structure_type
    6726                      .dwattr $C$DW$T$29, DW_AT_name("os_mem")
    6727                      .dwattr $C$DW$T$29, DW_AT_byte_size(0x0c)
    6728              $C$DW$377       .dwtag  DW_TAG_member
    6729                      .dwattr $C$DW$377, DW_AT_type(*$C$DW$T$3)
    6730                      .dwattr $C$DW$377, DW_AT_name("OSMemAddr")
    6731                      .dwattr $C$DW$377, DW_AT_TI_symbol_name("_OSMemAddr")
    6732                      .dwattr $C$DW$377, DW_AT_data_member_location[DW_OP_plus_uconst 0x0]
    6733                      .dwattr $C$DW$377, DW_AT_accessibility(DW_ACCESS_public)
    6734              
    6735              $C$DW$378       .dwtag  DW_TAG_member
    6736                      .dwattr $C$DW$378, DW_AT_type(*$C$DW$T$3)
    6737                      .dwattr $C$DW$378, DW_AT_name("OSMemFreeList")
    6738                      .dwattr $C$DW$378, DW_AT_TI_symbol_name("_OSMemFreeList")
    6739                      .dwattr $C$DW$378, DW_AT_data_member_location[DW_OP_plus_uconst 0x2]
    6740                      .dwattr $C$DW$378, DW_AT_accessibility(DW_ACCESS_public)
    6741              
    6742              $C$DW$379       .dwtag  DW_TAG_member
    6743                      .dwattr $C$DW$379, DW_AT_type(*$C$DW$T$28)
    6744                      .dwattr $C$DW$379, DW_AT_name("OSMemBlkSize")
    6745                      .dwattr $C$DW$379, DW_AT_TI_symbol_name("_OSMemBlkSize")
    6746                      .dwattr $C$DW$379, DW_AT_data_member_location[DW_OP_plus_uconst 0x4]
    6747                      .dwattr $C$DW$379, DW_AT_accessibility(DW_ACCESS_public)
TMS320C2000 Assembler PC v20.2.1 Tue Feb 16 00:15:57 2021

Copyright (c) 1996-2018 Texas Instruments Incorporated
os_core.asm                                                          PAGE  129

    6748              
    6749              $C$DW$380       .dwtag  DW_TAG_member
    6750                      .dwattr $C$DW$380, DW_AT_type(*$C$DW$T$28)
    6751                      .dwattr $C$DW$380, DW_AT_name("OSMemNBlks")
    6752                      .dwattr $C$DW$380, DW_AT_TI_symbol_name("_OSMemNBlks")
    6753                      .dwattr $C$DW$380, DW_AT_data_member_location[DW_OP_plus_uconst 0x6]
    6754                      .dwattr $C$DW$380, DW_AT_accessibility(DW_ACCESS_public)
    6755              
    6756              $C$DW$381       .dwtag  DW_TAG_member
    6757                      .dwattr $C$DW$381, DW_AT_type(*$C$DW$T$28)
    6758                      .dwattr $C$DW$381, DW_AT_name("OSMemNFree")
    6759                      .dwattr $C$DW$381, DW_AT_TI_symbol_name("_OSMemNFree")
    6760                      .dwattr $C$DW$381, DW_AT_data_member_location[DW_OP_plus_uconst 0x8]
    6761                      .dwattr $C$DW$381, DW_AT_accessibility(DW_ACCESS_public)
    6762              
    6763              $C$DW$382       .dwtag  DW_TAG_member
    6764                      .dwattr $C$DW$382, DW_AT_type(*$C$DW$T$23)
    6765                      .dwattr $C$DW$382, DW_AT_name("OSMemName")
    6766                      .dwattr $C$DW$382, DW_AT_TI_symbol_name("_OSMemName")
    6767                      .dwattr $C$DW$382, DW_AT_data_member_location[DW_OP_plus_uconst 0xa]
    6768                      .dwattr $C$DW$382, DW_AT_accessibility(DW_ACCESS_public)
    6769              
    6770                      .dwendtag $C$DW$T$29
    6771              
    6772              $C$DW$T$104     .dwtag  DW_TAG_typedef
    6773                      .dwattr $C$DW$T$104, DW_AT_name("OS_MEM")
    6774                      .dwattr $C$DW$T$104, DW_AT_type(*$C$DW$T$29)
    6775                      .dwattr $C$DW$T$104, DW_AT_language(DW_LANG_C)
    6776              
    6777              $C$DW$T$105     .dwtag  DW_TAG_pointer_type
    6778                      .dwattr $C$DW$T$105, DW_AT_type(*$C$DW$T$104)
    6779                      .dwattr $C$DW$T$105, DW_AT_address_class(0x20)
    6780              
    6781              
    6782              $C$DW$T$106     .dwtag  DW_TAG_array_type
    6783                      .dwattr $C$DW$T$106, DW_AT_type(*$C$DW$T$104)
    6784                      .dwattr $C$DW$T$106, DW_AT_language(DW_LANG_C)
    6785                      .dwattr $C$DW$T$106, DW_AT_byte_size(0x3c)
    6786              $C$DW$383       .dwtag  DW_TAG_subrange_type
    6787                      .dwattr $C$DW$383, DW_AT_upper_bound(0x04)
    6788              
    6789                      .dwendtag $C$DW$T$106
    6790              
    6791              
    6792              $C$DW$T$32      .dwtag  DW_TAG_structure_type
    6793                      .dwattr $C$DW$T$32, DW_AT_name("os_q")
    6794                      .dwattr $C$DW$T$32, DW_AT_byte_size(0x0c)
    6795              $C$DW$384       .dwtag  DW_TAG_member
    6796                      .dwattr $C$DW$384, DW_AT_type(*$C$DW$T$30)
    6797                      .dwattr $C$DW$384, DW_AT_name("OSQPtr")
    6798                      .dwattr $C$DW$384, DW_AT_TI_symbol_name("_OSQPtr")
    6799                      .dwattr $C$DW$384, DW_AT_data_member_location[DW_OP_plus_uconst 0x0]
    6800                      .dwattr $C$DW$384, DW_AT_accessibility(DW_ACCESS_public)
    6801              
    6802              $C$DW$385       .dwtag  DW_TAG_member
TMS320C2000 Assembler PC v20.2.1 Tue Feb 16 00:15:57 2021

Copyright (c) 1996-2018 Texas Instruments Incorporated
os_core.asm                                                          PAGE  130

    6803                      .dwattr $C$DW$385, DW_AT_type(*$C$DW$T$31)
    6804                      .dwattr $C$DW$385, DW_AT_name("OSQStart")
    6805                      .dwattr $C$DW$385, DW_AT_TI_symbol_name("_OSQStart")
    6806                      .dwattr $C$DW$385, DW_AT_data_member_location[DW_OP_plus_uconst 0x2]
    6807                      .dwattr $C$DW$385, DW_AT_accessibility(DW_ACCESS_public)
    6808              
    6809              $C$DW$386       .dwtag  DW_TAG_member
    6810                      .dwattr $C$DW$386, DW_AT_type(*$C$DW$T$31)
    6811                      .dwattr $C$DW$386, DW_AT_name("OSQEnd")
    6812                      .dwattr $C$DW$386, DW_AT_TI_symbol_name("_OSQEnd")
    6813                      .dwattr $C$DW$386, DW_AT_data_member_location[DW_OP_plus_uconst 0x4]
    6814                      .dwattr $C$DW$386, DW_AT_accessibility(DW_ACCESS_public)
    6815              
    6816              $C$DW$387       .dwtag  DW_TAG_member
    6817                      .dwattr $C$DW$387, DW_AT_type(*$C$DW$T$31)
    6818                      .dwattr $C$DW$387, DW_AT_name("OSQIn")
    6819                      .dwattr $C$DW$387, DW_AT_TI_symbol_name("_OSQIn")
    6820                      .dwattr $C$DW$387, DW_AT_data_member_location[DW_OP_plus_uconst 0x6]
    6821                      .dwattr $C$DW$387, DW_AT_accessibility(DW_ACCESS_public)
    6822              
    6823              $C$DW$388       .dwtag  DW_TAG_member
    6824                      .dwattr $C$DW$388, DW_AT_type(*$C$DW$T$31)
    6825                      .dwattr $C$DW$388, DW_AT_name("OSQOut")
    6826                      .dwattr $C$DW$388, DW_AT_TI_symbol_name("_OSQOut")
    6827                      .dwattr $C$DW$388, DW_AT_data_member_location[DW_OP_plus_uconst 0x8]
    6828                      .dwattr $C$DW$388, DW_AT_accessibility(DW_ACCESS_public)
    6829              
    6830              $C$DW$389       .dwtag  DW_TAG_member
    6831                      .dwattr $C$DW$389, DW_AT_type(*$C$DW$T$20)
    6832                      .dwattr $C$DW$389, DW_AT_name("OSQSize")
    6833                      .dwattr $C$DW$389, DW_AT_TI_symbol_name("_OSQSize")
    6834                      .dwattr $C$DW$389, DW_AT_data_member_location[DW_OP_plus_uconst 0xa]
    6835                      .dwattr $C$DW$389, DW_AT_accessibility(DW_ACCESS_public)
    6836              
    6837              $C$DW$390       .dwtag  DW_TAG_member
    6838                      .dwattr $C$DW$390, DW_AT_type(*$C$DW$T$20)
    6839                      .dwattr $C$DW$390, DW_AT_name("OSQEntries")
    6840                      .dwattr $C$DW$390, DW_AT_TI_symbol_name("_OSQEntries")
    6841                      .dwattr $C$DW$390, DW_AT_data_member_location[DW_OP_plus_uconst 0xb]
    6842                      .dwattr $C$DW$390, DW_AT_accessibility(DW_ACCESS_public)
    6843              
    6844                      .dwendtag $C$DW$T$32
    6845              
    6846              $C$DW$T$107     .dwtag  DW_TAG_typedef
    6847                      .dwattr $C$DW$T$107, DW_AT_name("OS_Q")
    6848                      .dwattr $C$DW$T$107, DW_AT_type(*$C$DW$T$32)
    6849                      .dwattr $C$DW$T$107, DW_AT_language(DW_LANG_C)
    6850              
    6851              $C$DW$T$108     .dwtag  DW_TAG_pointer_type
    6852                      .dwattr $C$DW$T$108, DW_AT_type(*$C$DW$T$107)
    6853                      .dwattr $C$DW$T$108, DW_AT_address_class(0x20)
    6854              
    6855              
    6856              $C$DW$T$109     .dwtag  DW_TAG_array_type
    6857                      .dwattr $C$DW$T$109, DW_AT_type(*$C$DW$T$107)
TMS320C2000 Assembler PC v20.2.1 Tue Feb 16 00:15:57 2021

Copyright (c) 1996-2018 Texas Instruments Incorporated
os_core.asm                                                          PAGE  131

    6858                      .dwattr $C$DW$T$109, DW_AT_language(DW_LANG_C)
    6859                      .dwattr $C$DW$T$109, DW_AT_byte_size(0x30)
    6860              $C$DW$391       .dwtag  DW_TAG_subrange_type
    6861                      .dwattr $C$DW$391, DW_AT_upper_bound(0x03)
    6862              
    6863                      .dwendtag $C$DW$T$109
    6864              
    6865              $C$DW$T$30      .dwtag  DW_TAG_pointer_type
    6866                      .dwattr $C$DW$T$30, DW_AT_type(*$C$DW$T$32)
    6867                      .dwattr $C$DW$T$30, DW_AT_address_class(0x20)
    6868              
    6869              
    6870              $C$DW$T$33      .dwtag  DW_TAG_structure_type
    6871                      .dwattr $C$DW$T$33, DW_AT_name("os_stk_data")
    6872                      .dwattr $C$DW$T$33, DW_AT_byte_size(0x04)
    6873              $C$DW$392       .dwtag  DW_TAG_member
    6874                      .dwattr $C$DW$392, DW_AT_type(*$C$DW$T$28)
    6875                      .dwattr $C$DW$392, DW_AT_name("OSFree")
    6876                      .dwattr $C$DW$392, DW_AT_TI_symbol_name("_OSFree")
    6877                      .dwattr $C$DW$392, DW_AT_data_member_location[DW_OP_plus_uconst 0x0]
    6878                      .dwattr $C$DW$392, DW_AT_accessibility(DW_ACCESS_public)
    6879              
    6880              $C$DW$393       .dwtag  DW_TAG_member
    6881                      .dwattr $C$DW$393, DW_AT_type(*$C$DW$T$28)
    6882                      .dwattr $C$DW$393, DW_AT_name("OSUsed")
    6883                      .dwattr $C$DW$393, DW_AT_TI_symbol_name("_OSUsed")
    6884                      .dwattr $C$DW$393, DW_AT_data_member_location[DW_OP_plus_uconst 0x2]
    6885                      .dwattr $C$DW$393, DW_AT_accessibility(DW_ACCESS_public)
    6886              
    6887                      .dwendtag $C$DW$T$33
    6888              
    6889              $C$DW$T$80      .dwtag  DW_TAG_typedef
    6890                      .dwattr $C$DW$T$80, DW_AT_name("OS_STK_DATA")
    6891                      .dwattr $C$DW$T$80, DW_AT_type(*$C$DW$T$33)
    6892                      .dwattr $C$DW$T$80, DW_AT_language(DW_LANG_C)
    6893              
    6894              $C$DW$T$81      .dwtag  DW_TAG_pointer_type
    6895                      .dwattr $C$DW$T$81, DW_AT_type(*$C$DW$T$80)
    6896                      .dwattr $C$DW$T$81, DW_AT_address_class(0x20)
    6897              
    6898              
    6899              $C$DW$T$43      .dwtag  DW_TAG_structure_type
    6900                      .dwattr $C$DW$T$43, DW_AT_name("os_tcb")
    6901                      .dwattr $C$DW$T$43, DW_AT_byte_size(0x30)
    6902              $C$DW$394       .dwtag  DW_TAG_member
    6903                      .dwattr $C$DW$394, DW_AT_type(*$C$DW$T$35)
    6904                      .dwattr $C$DW$394, DW_AT_name("OSTCBStkPtr")
    6905                      .dwattr $C$DW$394, DW_AT_TI_symbol_name("_OSTCBStkPtr")
    6906                      .dwattr $C$DW$394, DW_AT_data_member_location[DW_OP_plus_uconst 0x0]
    6907                      .dwattr $C$DW$394, DW_AT_accessibility(DW_ACCESS_public)
    6908              
    6909              $C$DW$395       .dwtag  DW_TAG_member
    6910                      .dwattr $C$DW$395, DW_AT_type(*$C$DW$T$3)
    6911                      .dwattr $C$DW$395, DW_AT_name("OSTCBExtPtr")
    6912                      .dwattr $C$DW$395, DW_AT_TI_symbol_name("_OSTCBExtPtr")
TMS320C2000 Assembler PC v20.2.1 Tue Feb 16 00:15:57 2021

Copyright (c) 1996-2018 Texas Instruments Incorporated
os_core.asm                                                          PAGE  132

    6913                      .dwattr $C$DW$395, DW_AT_data_member_location[DW_OP_plus_uconst 0x2]
    6914                      .dwattr $C$DW$395, DW_AT_accessibility(DW_ACCESS_public)
    6915              
    6916              $C$DW$396       .dwtag  DW_TAG_member
    6917                      .dwattr $C$DW$396, DW_AT_type(*$C$DW$T$35)
    6918                      .dwattr $C$DW$396, DW_AT_name("OSTCBStkBottom")
    6919                      .dwattr $C$DW$396, DW_AT_TI_symbol_name("_OSTCBStkBottom")
    6920                      .dwattr $C$DW$396, DW_AT_data_member_location[DW_OP_plus_uconst 0x4]
    6921                      .dwattr $C$DW$396, DW_AT_accessibility(DW_ACCESS_public)
    6922              
    6923              $C$DW$397       .dwtag  DW_TAG_member
    6924                      .dwattr $C$DW$397, DW_AT_type(*$C$DW$T$28)
    6925                      .dwattr $C$DW$397, DW_AT_name("OSTCBStkSize")
    6926                      .dwattr $C$DW$397, DW_AT_TI_symbol_name("_OSTCBStkSize")
    6927                      .dwattr $C$DW$397, DW_AT_data_member_location[DW_OP_plus_uconst 0x6]
    6928                      .dwattr $C$DW$397, DW_AT_accessibility(DW_ACCESS_public)
    6929              
    6930              $C$DW$398       .dwtag  DW_TAG_member
    6931                      .dwattr $C$DW$398, DW_AT_type(*$C$DW$T$20)
    6932                      .dwattr $C$DW$398, DW_AT_name("OSTCBOpt")
    6933                      .dwattr $C$DW$398, DW_AT_TI_symbol_name("_OSTCBOpt")
    6934                      .dwattr $C$DW$398, DW_AT_data_member_location[DW_OP_plus_uconst 0x8]
    6935                      .dwattr $C$DW$398, DW_AT_accessibility(DW_ACCESS_public)
    6936              
    6937              $C$DW$399       .dwtag  DW_TAG_member
    6938                      .dwattr $C$DW$399, DW_AT_type(*$C$DW$T$20)
    6939                      .dwattr $C$DW$399, DW_AT_name("OSTCBId")
    6940                      .dwattr $C$DW$399, DW_AT_TI_symbol_name("_OSTCBId")
    6941                      .dwattr $C$DW$399, DW_AT_data_member_location[DW_OP_plus_uconst 0x9]
    6942                      .dwattr $C$DW$399, DW_AT_accessibility(DW_ACCESS_public)
    6943              
    6944              $C$DW$400       .dwtag  DW_TAG_member
    6945                      .dwattr $C$DW$400, DW_AT_type(*$C$DW$T$36)
    6946                      .dwattr $C$DW$400, DW_AT_name("OSTCBNext")
    6947                      .dwattr $C$DW$400, DW_AT_TI_symbol_name("_OSTCBNext")
    6948                      .dwattr $C$DW$400, DW_AT_data_member_location[DW_OP_plus_uconst 0xa]
    6949                      .dwattr $C$DW$400, DW_AT_accessibility(DW_ACCESS_public)
    6950              
    6951              $C$DW$401       .dwtag  DW_TAG_member
    6952                      .dwattr $C$DW$401, DW_AT_type(*$C$DW$T$36)
    6953                      .dwattr $C$DW$401, DW_AT_name("OSTCBPrev")
    6954                      .dwattr $C$DW$401, DW_AT_TI_symbol_name("_OSTCBPrev")
    6955                      .dwattr $C$DW$401, DW_AT_data_member_location[DW_OP_plus_uconst 0xc]
    6956                      .dwattr $C$DW$401, DW_AT_accessibility(DW_ACCESS_public)
    6957              
    6958              $C$DW$402       .dwtag  DW_TAG_member
    6959                      .dwattr $C$DW$402, DW_AT_type(*$C$DW$T$38)
    6960                      .dwattr $C$DW$402, DW_AT_name("OSTCBEventPtr")
    6961                      .dwattr $C$DW$402, DW_AT_TI_symbol_name("_OSTCBEventPtr")
    6962                      .dwattr $C$DW$402, DW_AT_data_member_location[DW_OP_plus_uconst 0xe]
    6963                      .dwattr $C$DW$402, DW_AT_accessibility(DW_ACCESS_public)
    6964              
    6965              $C$DW$403       .dwtag  DW_TAG_member
    6966                      .dwattr $C$DW$403, DW_AT_type(*$C$DW$T$39)
    6967                      .dwattr $C$DW$403, DW_AT_name("OSTCBEventMultiPtr")
TMS320C2000 Assembler PC v20.2.1 Tue Feb 16 00:15:57 2021

Copyright (c) 1996-2018 Texas Instruments Incorporated
os_core.asm                                                          PAGE  133

    6968                      .dwattr $C$DW$403, DW_AT_TI_symbol_name("_OSTCBEventMultiPtr")
    6969                      .dwattr $C$DW$403, DW_AT_data_member_location[DW_OP_plus_uconst 0x10]
    6970                      .dwattr $C$DW$403, DW_AT_accessibility(DW_ACCESS_public)
    6971              
    6972              $C$DW$404       .dwtag  DW_TAG_member
    6973                      .dwattr $C$DW$404, DW_AT_type(*$C$DW$T$3)
    6974                      .dwattr $C$DW$404, DW_AT_name("OSTCBMsg")
    6975                      .dwattr $C$DW$404, DW_AT_TI_symbol_name("_OSTCBMsg")
    6976                      .dwattr $C$DW$404, DW_AT_data_member_location[DW_OP_plus_uconst 0x12]
    6977                      .dwattr $C$DW$404, DW_AT_accessibility(DW_ACCESS_public)
    6978              
    6979              $C$DW$405       .dwtag  DW_TAG_member
    6980                      .dwattr $C$DW$405, DW_AT_type(*$C$DW$T$41)
    6981                      .dwattr $C$DW$405, DW_AT_name("OSTCBFlagNode")
    6982                      .dwattr $C$DW$405, DW_AT_TI_symbol_name("_OSTCBFlagNode")
    6983                      .dwattr $C$DW$405, DW_AT_data_member_location[DW_OP_plus_uconst 0x14]
    6984                      .dwattr $C$DW$405, DW_AT_accessibility(DW_ACCESS_public)
    6985              
    6986              $C$DW$406       .dwtag  DW_TAG_member
    6987                      .dwattr $C$DW$406, DW_AT_type(*$C$DW$T$25)
    6988                      .dwattr $C$DW$406, DW_AT_name("OSTCBFlagsRdy")
    6989                      .dwattr $C$DW$406, DW_AT_TI_symbol_name("_OSTCBFlagsRdy")
    6990                      .dwattr $C$DW$406, DW_AT_data_member_location[DW_OP_plus_uconst 0x16]
    6991                      .dwattr $C$DW$406, DW_AT_accessibility(DW_ACCESS_public)
    6992              
    6993              $C$DW$407       .dwtag  DW_TAG_member
    6994                      .dwattr $C$DW$407, DW_AT_type(*$C$DW$T$28)
    6995                      .dwattr $C$DW$407, DW_AT_name("OSTCBDly")
    6996                      .dwattr $C$DW$407, DW_AT_TI_symbol_name("_OSTCBDly")
    6997                      .dwattr $C$DW$407, DW_AT_data_member_location[DW_OP_plus_uconst 0x18]
    6998                      .dwattr $C$DW$407, DW_AT_accessibility(DW_ACCESS_public)
    6999              
    7000              $C$DW$408       .dwtag  DW_TAG_member
    7001                      .dwattr $C$DW$408, DW_AT_type(*$C$DW$T$19)
    7002                      .dwattr $C$DW$408, DW_AT_name("OSTCBStat")
    7003                      .dwattr $C$DW$408, DW_AT_TI_symbol_name("_OSTCBStat")
    7004                      .dwattr $C$DW$408, DW_AT_data_member_location[DW_OP_plus_uconst 0x1a]
    7005                      .dwattr $C$DW$408, DW_AT_accessibility(DW_ACCESS_public)
    7006              
    7007              $C$DW$409       .dwtag  DW_TAG_member
    7008                      .dwattr $C$DW$409, DW_AT_type(*$C$DW$T$19)
    7009                      .dwattr $C$DW$409, DW_AT_name("OSTCBStatPend")
    7010                      .dwattr $C$DW$409, DW_AT_TI_symbol_name("_OSTCBStatPend")
    7011                      .dwattr $C$DW$409, DW_AT_data_member_location[DW_OP_plus_uconst 0x1b]
    7012                      .dwattr $C$DW$409, DW_AT_accessibility(DW_ACCESS_public)
    7013              
    7014              $C$DW$410       .dwtag  DW_TAG_member
    7015                      .dwattr $C$DW$410, DW_AT_type(*$C$DW$T$19)
    7016                      .dwattr $C$DW$410, DW_AT_name("OSTCBPrio")
    7017                      .dwattr $C$DW$410, DW_AT_TI_symbol_name("_OSTCBPrio")
    7018                      .dwattr $C$DW$410, DW_AT_data_member_location[DW_OP_plus_uconst 0x1c]
    7019                      .dwattr $C$DW$410, DW_AT_accessibility(DW_ACCESS_public)
    7020              
    7021              $C$DW$411       .dwtag  DW_TAG_member
    7022                      .dwattr $C$DW$411, DW_AT_type(*$C$DW$T$19)
TMS320C2000 Assembler PC v20.2.1 Tue Feb 16 00:15:57 2021

Copyright (c) 1996-2018 Texas Instruments Incorporated
os_core.asm                                                          PAGE  134

    7023                      .dwattr $C$DW$411, DW_AT_name("OSTCBX")
    7024                      .dwattr $C$DW$411, DW_AT_TI_symbol_name("_OSTCBX")
    7025                      .dwattr $C$DW$411, DW_AT_data_member_location[DW_OP_plus_uconst 0x1d]
    7026                      .dwattr $C$DW$411, DW_AT_accessibility(DW_ACCESS_public)
    7027              
    7028              $C$DW$412       .dwtag  DW_TAG_member
    7029                      .dwattr $C$DW$412, DW_AT_type(*$C$DW$T$19)
    7030                      .dwattr $C$DW$412, DW_AT_name("OSTCBY")
    7031                      .dwattr $C$DW$412, DW_AT_TI_symbol_name("_OSTCBY")
    7032                      .dwattr $C$DW$412, DW_AT_data_member_location[DW_OP_plus_uconst 0x1e]
    7033                      .dwattr $C$DW$412, DW_AT_accessibility(DW_ACCESS_public)
    7034              
    7035              $C$DW$413       .dwtag  DW_TAG_member
    7036                      .dwattr $C$DW$413, DW_AT_type(*$C$DW$T$21)
    7037                      .dwattr $C$DW$413, DW_AT_name("OSTCBBitX")
    7038                      .dwattr $C$DW$413, DW_AT_TI_symbol_name("_OSTCBBitX")
    7039                      .dwattr $C$DW$413, DW_AT_data_member_location[DW_OP_plus_uconst 0x1f]
    7040                      .dwattr $C$DW$413, DW_AT_accessibility(DW_ACCESS_public)
    7041              
    7042              $C$DW$414       .dwtag  DW_TAG_member
    7043                      .dwattr $C$DW$414, DW_AT_type(*$C$DW$T$21)
    7044                      .dwattr $C$DW$414, DW_AT_name("OSTCBBitY")
    7045                      .dwattr $C$DW$414, DW_AT_TI_symbol_name("_OSTCBBitY")
    7046                      .dwattr $C$DW$414, DW_AT_data_member_location[DW_OP_plus_uconst 0x20]
    7047                      .dwattr $C$DW$414, DW_AT_accessibility(DW_ACCESS_public)
    7048              
    7049              $C$DW$415       .dwtag  DW_TAG_member
    7050                      .dwattr $C$DW$415, DW_AT_type(*$C$DW$T$19)
    7051                      .dwattr $C$DW$415, DW_AT_name("OSTCBDelReq")
    7052                      .dwattr $C$DW$415, DW_AT_TI_symbol_name("_OSTCBDelReq")
    7053                      .dwattr $C$DW$415, DW_AT_data_member_location[DW_OP_plus_uconst 0x21]
    7054                      .dwattr $C$DW$415, DW_AT_accessibility(DW_ACCESS_public)
    7055              
    7056              $C$DW$416       .dwtag  DW_TAG_member
    7057                      .dwattr $C$DW$416, DW_AT_type(*$C$DW$T$28)
    7058                      .dwattr $C$DW$416, DW_AT_name("OSTCBCtxSwCtr")
    7059                      .dwattr $C$DW$416, DW_AT_TI_symbol_name("_OSTCBCtxSwCtr")
    7060                      .dwattr $C$DW$416, DW_AT_data_member_location[DW_OP_plus_uconst 0x22]
    7061                      .dwattr $C$DW$416, DW_AT_accessibility(DW_ACCESS_public)
    7062              
    7063              $C$DW$417       .dwtag  DW_TAG_member
    7064                      .dwattr $C$DW$417, DW_AT_type(*$C$DW$T$28)
    7065                      .dwattr $C$DW$417, DW_AT_name("OSTCBCyclesTot")
    7066                      .dwattr $C$DW$417, DW_AT_TI_symbol_name("_OSTCBCyclesTot")
    7067                      .dwattr $C$DW$417, DW_AT_data_member_location[DW_OP_plus_uconst 0x24]
    7068                      .dwattr $C$DW$417, DW_AT_accessibility(DW_ACCESS_public)
    7069              
    7070              $C$DW$418       .dwtag  DW_TAG_member
    7071                      .dwattr $C$DW$418, DW_AT_type(*$C$DW$T$28)
    7072                      .dwattr $C$DW$418, DW_AT_name("OSTCBCyclesStart")
    7073                      .dwattr $C$DW$418, DW_AT_TI_symbol_name("_OSTCBCyclesStart")
    7074                      .dwattr $C$DW$418, DW_AT_data_member_location[DW_OP_plus_uconst 0x26]
    7075                      .dwattr $C$DW$418, DW_AT_accessibility(DW_ACCESS_public)
    7076              
    7077              $C$DW$419       .dwtag  DW_TAG_member
TMS320C2000 Assembler PC v20.2.1 Tue Feb 16 00:15:57 2021

Copyright (c) 1996-2018 Texas Instruments Incorporated
os_core.asm                                                          PAGE  135

    7078                      .dwattr $C$DW$419, DW_AT_type(*$C$DW$T$35)
    7079                      .dwattr $C$DW$419, DW_AT_name("OSTCBStkBase")
    7080                      .dwattr $C$DW$419, DW_AT_TI_symbol_name("_OSTCBStkBase")
    7081                      .dwattr $C$DW$419, DW_AT_data_member_location[DW_OP_plus_uconst 0x28]
    7082                      .dwattr $C$DW$419, DW_AT_accessibility(DW_ACCESS_public)
    7083              
    7084              $C$DW$420       .dwtag  DW_TAG_member
    7085                      .dwattr $C$DW$420, DW_AT_type(*$C$DW$T$28)
    7086                      .dwattr $C$DW$420, DW_AT_name("OSTCBStkUsed")
    7087                      .dwattr $C$DW$420, DW_AT_TI_symbol_name("_OSTCBStkUsed")
    7088                      .dwattr $C$DW$420, DW_AT_data_member_location[DW_OP_plus_uconst 0x2a]
    7089                      .dwattr $C$DW$420, DW_AT_accessibility(DW_ACCESS_public)
    7090              
    7091              $C$DW$421       .dwtag  DW_TAG_member
    7092                      .dwattr $C$DW$421, DW_AT_type(*$C$DW$T$23)
    7093                      .dwattr $C$DW$421, DW_AT_name("OSTCBTaskName")
    7094                      .dwattr $C$DW$421, DW_AT_TI_symbol_name("_OSTCBTaskName")
    7095                      .dwattr $C$DW$421, DW_AT_data_member_location[DW_OP_plus_uconst 0x2c]
    7096                      .dwattr $C$DW$421, DW_AT_accessibility(DW_ACCESS_public)
    7097              
    7098              $C$DW$422       .dwtag  DW_TAG_member
    7099                      .dwattr $C$DW$422, DW_AT_type(*$C$DW$T$42)
    7100                      .dwattr $C$DW$422, DW_AT_name("OSTCBRegTbl")
    7101                      .dwattr $C$DW$422, DW_AT_TI_symbol_name("_OSTCBRegTbl")
    7102                      .dwattr $C$DW$422, DW_AT_data_member_location[DW_OP_plus_uconst 0x2e]
    7103                      .dwattr $C$DW$422, DW_AT_accessibility(DW_ACCESS_public)
    7104              
    7105                      .dwendtag $C$DW$T$43
    7106              
    7107              $C$DW$T$55      .dwtag  DW_TAG_typedef
    7108                      .dwattr $C$DW$T$55, DW_AT_name("OS_TCB")
    7109                      .dwattr $C$DW$T$55, DW_AT_type(*$C$DW$T$43)
    7110                      .dwattr $C$DW$T$55, DW_AT_language(DW_LANG_C)
    7111              
    7112              $C$DW$T$56      .dwtag  DW_TAG_pointer_type
    7113                      .dwattr $C$DW$T$56, DW_AT_type(*$C$DW$T$55)
    7114                      .dwattr $C$DW$T$56, DW_AT_address_class(0x20)
    7115              
    7116              
    7117              $C$DW$T$110     .dwtag  DW_TAG_array_type
    7118                      .dwattr $C$DW$T$110, DW_AT_type(*$C$DW$T$56)
    7119                      .dwattr $C$DW$T$110, DW_AT_language(DW_LANG_C)
    7120                      .dwattr $C$DW$T$110, DW_AT_byte_size(0x80)
    7121              $C$DW$423       .dwtag  DW_TAG_subrange_type
    7122                      .dwattr $C$DW$423, DW_AT_upper_bound(0x3f)
    7123              
    7124                      .dwendtag $C$DW$T$110
    7125              
    7126              
    7127              $C$DW$T$112     .dwtag  DW_TAG_array_type
    7128                      .dwattr $C$DW$T$112, DW_AT_type(*$C$DW$T$55)
    7129                      .dwattr $C$DW$T$112, DW_AT_language(DW_LANG_C)
    7130                      .dwattr $C$DW$T$112, DW_AT_byte_size(0x420)
    7131              $C$DW$424       .dwtag  DW_TAG_subrange_type
    7132                      .dwattr $C$DW$424, DW_AT_upper_bound(0x15)
TMS320C2000 Assembler PC v20.2.1 Tue Feb 16 00:15:57 2021

Copyright (c) 1996-2018 Texas Instruments Incorporated
os_core.asm                                                          PAGE  136

    7133              
    7134                      .dwendtag $C$DW$T$112
    7135              
    7136              $C$DW$T$36      .dwtag  DW_TAG_pointer_type
    7137                      .dwattr $C$DW$T$36, DW_AT_type(*$C$DW$T$43)
    7138                      .dwattr $C$DW$T$36, DW_AT_address_class(0x20)
    7139              
    7140                      .dwattr $C$DW$CU, DW_AT_language(DW_LANG_C)
    7141              
    7142              ;***************************************************************
    7143              ;* DWARF CIE ENTRIES                                           *
    7144              ;***************************************************************
    7145              
    7146              $C$DW$CIE       .dwcie 26
    7147                      .dwcfi  cfa_register, 20
    7148                      .dwcfi  cfa_offset, 0
    7149                      .dwcfi  same_value, 28
    7150                      .dwcfi  same_value, 6
    7151                      .dwcfi  same_value, 7
    7152                      .dwcfi  same_value, 8
    7153                      .dwcfi  same_value, 9
    7154                      .dwcfi  same_value, 10
    7155                      .dwcfi  same_value, 11
    7156                      .dwendentry
    7157              
    7158              ;***************************************************************
    7159              ;* DWARF REGISTER MAP                                          *
    7160              ;***************************************************************
    7161              
    7162              $C$DW$425       .dwtag  DW_TAG_TI_assign_register
    7163                      .dwattr $C$DW$425, DW_AT_name("AL")
    7164                      .dwattr $C$DW$425, DW_AT_location[DW_OP_reg0]
    7165              
    7166              $C$DW$426       .dwtag  DW_TAG_TI_assign_register
    7167                      .dwattr $C$DW$426, DW_AT_name("AH")
    7168                      .dwattr $C$DW$426, DW_AT_location[DW_OP_reg1]
    7169              
    7170              $C$DW$427       .dwtag  DW_TAG_TI_assign_register
    7171                      .dwattr $C$DW$427, DW_AT_name("PL")
    7172                      .dwattr $C$DW$427, DW_AT_location[DW_OP_reg2]
    7173              
    7174              $C$DW$428       .dwtag  DW_TAG_TI_assign_register
    7175                      .dwattr $C$DW$428, DW_AT_name("PH")
    7176                      .dwattr $C$DW$428, DW_AT_location[DW_OP_reg3]
    7177              
    7178              $C$DW$429       .dwtag  DW_TAG_TI_assign_register
    7179                      .dwattr $C$DW$429, DW_AT_name("SP")
    7180                      .dwattr $C$DW$429, DW_AT_location[DW_OP_reg20]
    7181              
    7182              $C$DW$430       .dwtag  DW_TAG_TI_assign_register
    7183                      .dwattr $C$DW$430, DW_AT_name("XT")
    7184                      .dwattr $C$DW$430, DW_AT_location[DW_OP_reg21]
    7185              
    7186              $C$DW$431       .dwtag  DW_TAG_TI_assign_register
    7187                      .dwattr $C$DW$431, DW_AT_name("T")
TMS320C2000 Assembler PC v20.2.1 Tue Feb 16 00:15:57 2021

Copyright (c) 1996-2018 Texas Instruments Incorporated
os_core.asm                                                          PAGE  137

    7188                      .dwattr $C$DW$431, DW_AT_location[DW_OP_reg22]
    7189              
    7190              $C$DW$432       .dwtag  DW_TAG_TI_assign_register
    7191                      .dwattr $C$DW$432, DW_AT_name("ST0")
    7192                      .dwattr $C$DW$432, DW_AT_location[DW_OP_reg23]
    7193              
    7194              $C$DW$433       .dwtag  DW_TAG_TI_assign_register
    7195                      .dwattr $C$DW$433, DW_AT_name("ST1")
    7196                      .dwattr $C$DW$433, DW_AT_location[DW_OP_reg24]
    7197              
    7198              $C$DW$434       .dwtag  DW_TAG_TI_assign_register
    7199                      .dwattr $C$DW$434, DW_AT_name("PC")
    7200                      .dwattr $C$DW$434, DW_AT_location[DW_OP_reg25]
    7201              
    7202              $C$DW$435       .dwtag  DW_TAG_TI_assign_register
    7203                      .dwattr $C$DW$435, DW_AT_name("RPC")
    7204                      .dwattr $C$DW$435, DW_AT_location[DW_OP_reg26]
    7205              
    7206              $C$DW$436       .dwtag  DW_TAG_TI_assign_register
    7207                      .dwattr $C$DW$436, DW_AT_name("FP")
    7208                      .dwattr $C$DW$436, DW_AT_location[DW_OP_reg28]
    7209              
    7210              $C$DW$437       .dwtag  DW_TAG_TI_assign_register
    7211                      .dwattr $C$DW$437, DW_AT_name("DP")
    7212                      .dwattr $C$DW$437, DW_AT_location[DW_OP_reg29]
    7213              
    7214              $C$DW$438       .dwtag  DW_TAG_TI_assign_register
    7215                      .dwattr $C$DW$438, DW_AT_name("SXM")
    7216                      .dwattr $C$DW$438, DW_AT_location[DW_OP_reg30]
    7217              
    7218              $C$DW$439       .dwtag  DW_TAG_TI_assign_register
    7219                      .dwattr $C$DW$439, DW_AT_name("PM")
    7220                      .dwattr $C$DW$439, DW_AT_location[DW_OP_reg31]
    7221              
    7222              $C$DW$440       .dwtag  DW_TAG_TI_assign_register
    7223                      .dwattr $C$DW$440, DW_AT_name("OVM")
    7224                      .dwattr $C$DW$440, DW_AT_location[DW_OP_regx 0x20]
    7225              
    7226              $C$DW$441       .dwtag  DW_TAG_TI_assign_register
    7227                      .dwattr $C$DW$441, DW_AT_name("PAGE0")
    7228                      .dwattr $C$DW$441, DW_AT_location[DW_OP_regx 0x21]
    7229              
    7230              $C$DW$442       .dwtag  DW_TAG_TI_assign_register
    7231                      .dwattr $C$DW$442, DW_AT_name("AMODE")
    7232                      .dwattr $C$DW$442, DW_AT_location[DW_OP_regx 0x22]
    7233              
    7234              $C$DW$443       .dwtag  DW_TAG_TI_assign_register
    7235                      .dwattr $C$DW$443, DW_AT_name("EALLOW")
    7236                      .dwattr $C$DW$443, DW_AT_location[DW_OP_regx 0x4e]
    7237              
    7238              $C$DW$444       .dwtag  DW_TAG_TI_assign_register
    7239                      .dwattr $C$DW$444, DW_AT_name("INTM")
    7240                      .dwattr $C$DW$444, DW_AT_location[DW_OP_regx 0x23]
    7241              
    7242              $C$DW$445       .dwtag  DW_TAG_TI_assign_register
TMS320C2000 Assembler PC v20.2.1 Tue Feb 16 00:15:57 2021

Copyright (c) 1996-2018 Texas Instruments Incorporated
os_core.asm                                                          PAGE  138

    7243                      .dwattr $C$DW$445, DW_AT_name("IFR")
    7244                      .dwattr $C$DW$445, DW_AT_location[DW_OP_regx 0x24]
    7245              
    7246              $C$DW$446       .dwtag  DW_TAG_TI_assign_register
    7247                      .dwattr $C$DW$446, DW_AT_name("IER")
    7248                      .dwattr $C$DW$446, DW_AT_location[DW_OP_regx 0x25]
    7249              
    7250              $C$DW$447       .dwtag  DW_TAG_TI_assign_register
    7251                      .dwattr $C$DW$447, DW_AT_name("V")
    7252                      .dwattr $C$DW$447, DW_AT_location[DW_OP_regx 0x26]
    7253              
    7254              $C$DW$448       .dwtag  DW_TAG_TI_assign_register
    7255                      .dwattr $C$DW$448, DW_AT_name("PSEUDOH")
    7256                      .dwattr $C$DW$448, DW_AT_location[DW_OP_regx 0x4c]
    7257              
    7258              $C$DW$449       .dwtag  DW_TAG_TI_assign_register
    7259                      .dwattr $C$DW$449, DW_AT_name("VOL")
    7260                      .dwattr $C$DW$449, DW_AT_location[DW_OP_regx 0x4d]
    7261              
    7262              $C$DW$450       .dwtag  DW_TAG_TI_assign_register
    7263                      .dwattr $C$DW$450, DW_AT_name("AR0")
    7264                      .dwattr $C$DW$450, DW_AT_location[DW_OP_reg4]
    7265              
    7266              $C$DW$451       .dwtag  DW_TAG_TI_assign_register
    7267                      .dwattr $C$DW$451, DW_AT_name("XAR0")
    7268                      .dwattr $C$DW$451, DW_AT_location[DW_OP_reg5]
    7269              
    7270              $C$DW$452       .dwtag  DW_TAG_TI_assign_register
    7271                      .dwattr $C$DW$452, DW_AT_name("AR1")
    7272                      .dwattr $C$DW$452, DW_AT_location[DW_OP_reg6]
    7273              
    7274              $C$DW$453       .dwtag  DW_TAG_TI_assign_register
    7275                      .dwattr $C$DW$453, DW_AT_name("XAR1")
    7276                      .dwattr $C$DW$453, DW_AT_location[DW_OP_reg7]
    7277              
    7278              $C$DW$454       .dwtag  DW_TAG_TI_assign_register
    7279                      .dwattr $C$DW$454, DW_AT_name("AR2")
    7280                      .dwattr $C$DW$454, DW_AT_location[DW_OP_reg8]
    7281              
    7282              $C$DW$455       .dwtag  DW_TAG_TI_assign_register
    7283                      .dwattr $C$DW$455, DW_AT_name("XAR2")
    7284                      .dwattr $C$DW$455, DW_AT_location[DW_OP_reg9]
    7285              
    7286              $C$DW$456       .dwtag  DW_TAG_TI_assign_register
    7287                      .dwattr $C$DW$456, DW_AT_name("AR3")
    7288                      .dwattr $C$DW$456, DW_AT_location[DW_OP_reg10]
    7289              
    7290              $C$DW$457       .dwtag  DW_TAG_TI_assign_register
    7291                      .dwattr $C$DW$457, DW_AT_name("XAR3")
    7292                      .dwattr $C$DW$457, DW_AT_location[DW_OP_reg11]
    7293              
    7294              $C$DW$458       .dwtag  DW_TAG_TI_assign_register
    7295                      .dwattr $C$DW$458, DW_AT_name("AR4")
    7296                      .dwattr $C$DW$458, DW_AT_location[DW_OP_reg12]
    7297              
TMS320C2000 Assembler PC v20.2.1 Tue Feb 16 00:15:57 2021

Copyright (c) 1996-2018 Texas Instruments Incorporated
os_core.asm                                                          PAGE  139

    7298              $C$DW$459       .dwtag  DW_TAG_TI_assign_register
    7299                      .dwattr $C$DW$459, DW_AT_name("XAR4")
    7300                      .dwattr $C$DW$459, DW_AT_location[DW_OP_reg13]
    7301              
    7302              $C$DW$460       .dwtag  DW_TAG_TI_assign_register
    7303                      .dwattr $C$DW$460, DW_AT_name("AR5")
    7304                      .dwattr $C$DW$460, DW_AT_location[DW_OP_reg14]
    7305              
    7306              $C$DW$461       .dwtag  DW_TAG_TI_assign_register
    7307                      .dwattr $C$DW$461, DW_AT_name("XAR5")
    7308                      .dwattr $C$DW$461, DW_AT_location[DW_OP_reg15]
    7309              
    7310              $C$DW$462       .dwtag  DW_TAG_TI_assign_register
    7311                      .dwattr $C$DW$462, DW_AT_name("AR6")
    7312                      .dwattr $C$DW$462, DW_AT_location[DW_OP_reg16]
    7313              
    7314              $C$DW$463       .dwtag  DW_TAG_TI_assign_register
    7315                      .dwattr $C$DW$463, DW_AT_name("XAR6")
    7316                      .dwattr $C$DW$463, DW_AT_location[DW_OP_reg17]
    7317              
    7318              $C$DW$464       .dwtag  DW_TAG_TI_assign_register
    7319                      .dwattr $C$DW$464, DW_AT_name("AR7")
    7320                      .dwattr $C$DW$464, DW_AT_location[DW_OP_reg18]
    7321              
    7322              $C$DW$465       .dwtag  DW_TAG_TI_assign_register
    7323                      .dwattr $C$DW$465, DW_AT_name("XAR7")
    7324                      .dwattr $C$DW$465, DW_AT_location[DW_OP_reg19]
    7325              
    7326                      .dwendtag $C$DW$CU
    7327              

No Assembly Errors, No Assembly Warnings
