TMS320C2000 Assembler PC v20.2.1 Tue Feb 16 00:15:57 2021

Copyright (c) 1996-2018 Texas Instruments Incorporated
os_core.asm                                                          PAGE    1

       1              ;***************************************************************
       2              ;* TMS320C2000 G3 C/C++ Codegen                               PC v20.2.1.LTS *
       3              ;* Date/Time created: Tue Feb 16 00:15:57 2021                 *
       4              ;***************************************************************
       5                      .compiler_opts --abi=coffabi --diag_wrap=off --float_support=softlib --hll_source=on --mem_model:code
       6                      .asg    XAR2, FP
       7              
       8              $C$DW$CU        .dwtag  DW_TAG_compile_unit
       9                      .dwattr $C$DW$CU, DW_AT_name("C:/ti/Workspace/PLC_certificate/Software/uCOS-II/Source/os_core.c")
      10                      .dwattr $C$DW$CU, DW_AT_producer("TI TMS320C2000 G3 C/C++ Codegen PC v20.2.1.LTS Copyright (c) 1996-2
      11                      .dwattr $C$DW$CU, DW_AT_TI_version(0x01)
      12                      .dwattr $C$DW$CU, DW_AT_comp_dir("C:\ti\Workspace\PLC_certificate\Examples\TI\TMDSDOCK28335\OS2\CCS\D
      13              
      14              $C$DW$1 .dwtag  DW_TAG_subprogram
      15                      .dwattr $C$DW$1, DW_AT_name("OS_CPU_SR_Restore")
      16                      .dwattr $C$DW$1, DW_AT_TI_symbol_name("_OS_CPU_SR_Restore")
      17                      .dwattr $C$DW$1, DW_AT_declaration
      18                      .dwattr $C$DW$1, DW_AT_external
      19              $C$DW$2 .dwtag  DW_TAG_formal_parameter
      20                      .dwattr $C$DW$2, DW_AT_type(*$C$DW$T$44)
      21              
      22                      .dwendtag $C$DW$1
      23              
      24              
      25              $C$DW$3 .dwtag  DW_TAG_subprogram
      26                      .dwattr $C$DW$3, DW_AT_name("OSInitHookBegin")
      27                      .dwattr $C$DW$3, DW_AT_TI_symbol_name("_OSInitHookBegin")
      28                      .dwattr $C$DW$3, DW_AT_declaration
      29                      .dwattr $C$DW$3, DW_AT_external
      30                      .dwendtag $C$DW$3
      31              
      32              
      33              $C$DW$4 .dwtag  DW_TAG_subprogram
      34                      .dwattr $C$DW$4, DW_AT_name("OS_FlagInit")
      35                      .dwattr $C$DW$4, DW_AT_TI_symbol_name("_OS_FlagInit")
      36                      .dwattr $C$DW$4, DW_AT_declaration
      37                      .dwattr $C$DW$4, DW_AT_external
      38                      .dwendtag $C$DW$4
      39              
      40              
      41              $C$DW$5 .dwtag  DW_TAG_subprogram
      42                      .dwattr $C$DW$5, DW_AT_name("OS_MemInit")
      43                      .dwattr $C$DW$5, DW_AT_TI_symbol_name("_OS_MemInit")
      44                      .dwattr $C$DW$5, DW_AT_declaration
      45                      .dwattr $C$DW$5, DW_AT_external
      46                      .dwendtag $C$DW$5
      47              
      48              
      49              $C$DW$6 .dwtag  DW_TAG_subprogram
      50                      .dwattr $C$DW$6, DW_AT_name("OS_QInit")
      51                      .dwattr $C$DW$6, DW_AT_TI_symbol_name("_OS_QInit")
      52                      .dwattr $C$DW$6, DW_AT_declaration
      53                      .dwattr $C$DW$6, DW_AT_external
      54                      .dwendtag $C$DW$6
      55              
TMS320C2000 Assembler PC v20.2.1 Tue Feb 16 00:15:57 2021

Copyright (c) 1996-2018 Texas Instruments Incorporated
os_core.asm                                                          PAGE    2

      56              
      57              $C$DW$7 .dwtag  DW_TAG_subprogram
      58                      .dwattr $C$DW$7, DW_AT_name("OSInitHookEnd")
      59                      .dwattr $C$DW$7, DW_AT_TI_symbol_name("_OSInitHookEnd")
      60                      .dwattr $C$DW$7, DW_AT_declaration
      61                      .dwattr $C$DW$7, DW_AT_external
      62                      .dwendtag $C$DW$7
      63              
      64              
      65              $C$DW$8 .dwtag  DW_TAG_subprogram
      66                      .dwattr $C$DW$8, DW_AT_name("OSDebugInit")
      67                      .dwattr $C$DW$8, DW_AT_TI_symbol_name("_OSDebugInit")
      68                      .dwattr $C$DW$8, DW_AT_declaration
      69                      .dwattr $C$DW$8, DW_AT_external
      70                      .dwendtag $C$DW$8
      71              
      72              
      73              $C$DW$9 .dwtag  DW_TAG_subprogram
      74                      .dwattr $C$DW$9, DW_AT_name("OSStartHighRdy")
      75                      .dwattr $C$DW$9, DW_AT_TI_symbol_name("_OSStartHighRdy")
      76                      .dwattr $C$DW$9, DW_AT_declaration
      77                      .dwattr $C$DW$9, DW_AT_external
      78                      .dwendtag $C$DW$9
      79              
      80              
      81              $C$DW$10        .dwtag  DW_TAG_subprogram
      82                      .dwattr $C$DW$10, DW_AT_name("OSTimeDly")
      83                      .dwattr $C$DW$10, DW_AT_TI_symbol_name("_OSTimeDly")
      84                      .dwattr $C$DW$10, DW_AT_declaration
      85                      .dwattr $C$DW$10, DW_AT_external
      86              $C$DW$11        .dwtag  DW_TAG_formal_parameter
      87                      .dwattr $C$DW$11, DW_AT_type(*$C$DW$T$28)
      88              
      89                      .dwendtag $C$DW$10
      90              
      91              
      92              $C$DW$12        .dwtag  DW_TAG_subprogram
      93                      .dwattr $C$DW$12, DW_AT_name("OSTimeTickHook")
      94                      .dwattr $C$DW$12, DW_AT_TI_symbol_name("_OSTimeTickHook")
      95                      .dwattr $C$DW$12, DW_AT_declaration
      96                      .dwattr $C$DW$12, DW_AT_external
      97                      .dwendtag $C$DW$12
      98              
      99              
     100              $C$DW$13        .dwtag  DW_TAG_subprogram
     101                      .dwattr $C$DW$13, DW_AT_name("OSTaskNameSet")
     102                      .dwattr $C$DW$13, DW_AT_TI_symbol_name("_OSTaskNameSet")
     103                      .dwattr $C$DW$13, DW_AT_declaration
     104                      .dwattr $C$DW$13, DW_AT_external
     105              $C$DW$14        .dwtag  DW_TAG_formal_parameter
     106                      .dwattr $C$DW$14, DW_AT_type(*$C$DW$T$19)
     107              
     108              $C$DW$15        .dwtag  DW_TAG_formal_parameter
     109                      .dwattr $C$DW$15, DW_AT_type(*$C$DW$T$23)
     110              
TMS320C2000 Assembler PC v20.2.1 Tue Feb 16 00:15:57 2021

Copyright (c) 1996-2018 Texas Instruments Incorporated
os_core.asm                                                          PAGE    3

     111              $C$DW$16        .dwtag  DW_TAG_formal_parameter
     112                      .dwattr $C$DW$16, DW_AT_type(*$C$DW$T$23)
     113              
     114                      .dwendtag $C$DW$13
     115              
     116              
     117              $C$DW$17        .dwtag  DW_TAG_subprogram
     118                      .dwattr $C$DW$17, DW_AT_name("OSTaskIdleHook")
     119                      .dwattr $C$DW$17, DW_AT_TI_symbol_name("_OSTaskIdleHook")
     120                      .dwattr $C$DW$17, DW_AT_declaration
     121                      .dwattr $C$DW$17, DW_AT_external
     122                      .dwendtag $C$DW$17
     123              
     124              
     125              $C$DW$18        .dwtag  DW_TAG_subprogram
     126                      .dwattr $C$DW$18, DW_AT_name("OSTaskStatHook")
     127                      .dwattr $C$DW$18, DW_AT_TI_symbol_name("_OSTaskStatHook")
     128                      .dwattr $C$DW$18, DW_AT_declaration
     129                      .dwattr $C$DW$18, DW_AT_external
     130                      .dwendtag $C$DW$18
     131              
     132              
     133              $C$DW$19        .dwtag  DW_TAG_subprogram
     134                      .dwattr $C$DW$19, DW_AT_name("OSTCBInitHook")
     135                      .dwattr $C$DW$19, DW_AT_TI_symbol_name("_OSTCBInitHook")
     136                      .dwattr $C$DW$19, DW_AT_declaration
     137                      .dwattr $C$DW$19, DW_AT_external
     138              $C$DW$20        .dwtag  DW_TAG_formal_parameter
     139                      .dwattr $C$DW$20, DW_AT_type(*$C$DW$T$56)
     140              
     141                      .dwendtag $C$DW$19
     142              
     143              
     144              $C$DW$21        .dwtag  DW_TAG_subprogram
     145                      .dwattr $C$DW$21, DW_AT_name("OSTaskCreateHook")
     146                      .dwattr $C$DW$21, DW_AT_TI_symbol_name("_OSTaskCreateHook")
     147                      .dwattr $C$DW$21, DW_AT_declaration
     148                      .dwattr $C$DW$21, DW_AT_external
     149              $C$DW$22        .dwtag  DW_TAG_formal_parameter
     150                      .dwattr $C$DW$22, DW_AT_type(*$C$DW$T$56)
     151              
     152                      .dwendtag $C$DW$21
     153              
     154                      .global _OSCPUUsage
     155 00000000       _OSCPUUsage:    .usect  ".ebss",1,1,0
     156              $C$DW$23        .dwtag  DW_TAG_variable
     157                      .dwattr $C$DW$23, DW_AT_name("OSCPUUsage")
     158                      .dwattr $C$DW$23, DW_AT_TI_symbol_name("_OSCPUUsage")
     159                      .dwattr $C$DW$23, DW_AT_location[DW_OP_addr _OSCPUUsage]
     160                      .dwattr $C$DW$23, DW_AT_type(*$C$DW$T$19)
     161                      .dwattr $C$DW$23, DW_AT_external
     162              
     163                      .global _OSStatRdy
     164 00000001       _OSStatRdy:     .usect  ".ebss",1,1,0
     165              $C$DW$24        .dwtag  DW_TAG_variable
TMS320C2000 Assembler PC v20.2.1 Tue Feb 16 00:15:57 2021

Copyright (c) 1996-2018 Texas Instruments Incorporated
os_core.asm                                                          PAGE    4

     166                      .dwattr $C$DW$24, DW_AT_name("OSStatRdy")
     167                      .dwattr $C$DW$24, DW_AT_TI_symbol_name("_OSStatRdy")
     168                      .dwattr $C$DW$24, DW_AT_location[DW_OP_addr _OSStatRdy]
     169                      .dwattr $C$DW$24, DW_AT_type(*$C$DW$T$70)
     170                      .dwattr $C$DW$24, DW_AT_external
     171              
     172                      .global _OSIntNesting
     173 00000002       _OSIntNesting:  .usect  ".ebss",1,1,0
     174              $C$DW$25        .dwtag  DW_TAG_variable
     175                      .dwattr $C$DW$25, DW_AT_name("OSIntNesting")
     176                      .dwattr $C$DW$25, DW_AT_TI_symbol_name("_OSIntNesting")
     177                      .dwattr $C$DW$25, DW_AT_location[DW_OP_addr _OSIntNesting]
     178                      .dwattr $C$DW$25, DW_AT_type(*$C$DW$T$19)
     179                      .dwattr $C$DW$25, DW_AT_external
     180              
     181                      .global _OSLockNesting
     182 00000003       _OSLockNesting: .usect  ".ebss",1,1,0
     183              $C$DW$26        .dwtag  DW_TAG_variable
     184                      .dwattr $C$DW$26, DW_AT_name("OSLockNesting")
     185                      .dwattr $C$DW$26, DW_AT_TI_symbol_name("_OSLockNesting")
     186                      .dwattr $C$DW$26, DW_AT_location[DW_OP_addr _OSLockNesting]
     187                      .dwattr $C$DW$26, DW_AT_type(*$C$DW$T$19)
     188                      .dwattr $C$DW$26, DW_AT_external
     189              
     190                      .global _OSPrioCur
     191 00000004       _OSPrioCur:     .usect  ".ebss",1,1,0
     192              $C$DW$27        .dwtag  DW_TAG_variable
     193                      .dwattr $C$DW$27, DW_AT_name("OSPrioCur")
     194                      .dwattr $C$DW$27, DW_AT_TI_symbol_name("_OSPrioCur")
     195                      .dwattr $C$DW$27, DW_AT_location[DW_OP_addr _OSPrioCur]
     196                      .dwattr $C$DW$27, DW_AT_type(*$C$DW$T$19)
     197                      .dwattr $C$DW$27, DW_AT_external
     198              
     199                      .global _OSPrioHighRdy
     200 00000005       _OSPrioHighRdy: .usect  ".ebss",1,1,0
     201              $C$DW$28        .dwtag  DW_TAG_variable
     202                      .dwattr $C$DW$28, DW_AT_name("OSPrioHighRdy")
     203                      .dwattr $C$DW$28, DW_AT_TI_symbol_name("_OSPrioHighRdy")
     204                      .dwattr $C$DW$28, DW_AT_location[DW_OP_addr _OSPrioHighRdy]
     205                      .dwattr $C$DW$28, DW_AT_type(*$C$DW$T$19)
     206                      .dwattr $C$DW$28, DW_AT_external
     207              
     208                      .global _OSRdyGrp
     209 00000006       _OSRdyGrp:      .usect  ".ebss",1,1,0
     210              $C$DW$29        .dwtag  DW_TAG_variable
     211                      .dwattr $C$DW$29, DW_AT_name("OSRdyGrp")
     212                      .dwattr $C$DW$29, DW_AT_TI_symbol_name("_OSRdyGrp")
     213                      .dwattr $C$DW$29, DW_AT_location[DW_OP_addr _OSRdyGrp]
     214                      .dwattr $C$DW$29, DW_AT_type(*$C$DW$T$21)
     215                      .dwattr $C$DW$29, DW_AT_external
     216              
     217                      .global _OSRunning
     218 00000007       _OSRunning:     .usect  ".ebss",1,1,0
     219              $C$DW$30        .dwtag  DW_TAG_variable
     220                      .dwattr $C$DW$30, DW_AT_name("OSRunning")
TMS320C2000 Assembler PC v20.2.1 Tue Feb 16 00:15:57 2021

Copyright (c) 1996-2018 Texas Instruments Incorporated
os_core.asm                                                          PAGE    5

     221                      .dwattr $C$DW$30, DW_AT_TI_symbol_name("_OSRunning")
     222                      .dwattr $C$DW$30, DW_AT_location[DW_OP_addr _OSRunning]
     223                      .dwattr $C$DW$30, DW_AT_type(*$C$DW$T$70)
     224                      .dwattr $C$DW$30, DW_AT_external
     225              
     226                      .global _OSTaskCtr
     227 00000008       _OSTaskCtr:     .usect  ".ebss",1,1,0
     228              $C$DW$31        .dwtag  DW_TAG_variable
     229                      .dwattr $C$DW$31, DW_AT_name("OSTaskCtr")
     230                      .dwattr $C$DW$31, DW_AT_TI_symbol_name("_OSTaskCtr")
     231                      .dwattr $C$DW$31, DW_AT_location[DW_OP_addr _OSTaskCtr]
     232                      .dwattr $C$DW$31, DW_AT_type(*$C$DW$T$19)
     233                      .dwattr $C$DW$31, DW_AT_external
     234              
     235                      .global _OSTickStepState
     236 00000009       _OSTickStepState:       .usect  ".ebss",1,1,0
     237              $C$DW$32        .dwtag  DW_TAG_variable
     238                      .dwattr $C$DW$32, DW_AT_name("OSTickStepState")
     239                      .dwattr $C$DW$32, DW_AT_TI_symbol_name("_OSTickStepState")
     240                      .dwattr $C$DW$32, DW_AT_location[DW_OP_addr _OSTickStepState]
     241                      .dwattr $C$DW$32, DW_AT_type(*$C$DW$T$19)
     242                      .dwattr $C$DW$32, DW_AT_external
     243              
     244                      .global _OSTaskRegNextAvailID
     245 0000000a       _OSTaskRegNextAvailID:  .usect  ".ebss",1,1,0
     246              $C$DW$33        .dwtag  DW_TAG_variable
     247                      .dwattr $C$DW$33, DW_AT_name("OSTaskRegNextAvailID")
     248                      .dwattr $C$DW$33, DW_AT_TI_symbol_name("_OSTaskRegNextAvailID")
     249                      .dwattr $C$DW$33, DW_AT_location[DW_OP_addr _OSTaskRegNextAvailID]
     250                      .dwattr $C$DW$33, DW_AT_type(*$C$DW$T$19)
     251                      .dwattr $C$DW$33, DW_AT_external
     252              
     253              $C$DW$34        .dwtag  DW_TAG_variable
     254                      .dwattr $C$DW$34, DW_AT_name("TaskID")
     255                      .dwattr $C$DW$34, DW_AT_TI_symbol_name("_TaskID")
     256                      .dwattr $C$DW$34, DW_AT_type(*$C$DW$T$19)
     257                      .dwattr $C$DW$34, DW_AT_declaration
     258                      .dwattr $C$DW$34, DW_AT_external
     259              
     260              
     261              $C$DW$35        .dwtag  DW_TAG_subprogram
     262                      .dwattr $C$DW$35, DW_AT_name("OS_CPU_SR_Save")
     263                      .dwattr $C$DW$35, DW_AT_TI_symbol_name("_OS_CPU_SR_Save")
     264                      .dwattr $C$DW$35, DW_AT_type(*$C$DW$T$44)
     265                      .dwattr $C$DW$35, DW_AT_declaration
     266                      .dwattr $C$DW$35, DW_AT_external
     267                      .dwendtag $C$DW$35
     268              
     269              
     270              $C$DW$36        .dwtag  DW_TAG_subprogram
     271                      .dwattr $C$DW$36, DW_AT_name("OSTaskCreateExt")
     272                      .dwattr $C$DW$36, DW_AT_TI_symbol_name("_OSTaskCreateExt")
     273                      .dwattr $C$DW$36, DW_AT_type(*$C$DW$T$19)
     274                      .dwattr $C$DW$36, DW_AT_declaration
     275                      .dwattr $C$DW$36, DW_AT_external
TMS320C2000 Assembler PC v20.2.1 Tue Feb 16 00:15:57 2021

Copyright (c) 1996-2018 Texas Instruments Incorporated
os_core.asm                                                          PAGE    6

     276              $C$DW$37        .dwtag  DW_TAG_formal_parameter
     277                      .dwattr $C$DW$37, DW_AT_type(*$C$DW$T$50)
     278              
     279              $C$DW$38        .dwtag  DW_TAG_formal_parameter
     280                      .dwattr $C$DW$38, DW_AT_type(*$C$DW$T$3)
     281              
     282              $C$DW$39        .dwtag  DW_TAG_formal_parameter
     283                      .dwattr $C$DW$39, DW_AT_type(*$C$DW$T$35)
     284              
     285              $C$DW$40        .dwtag  DW_TAG_formal_parameter
     286                      .dwattr $C$DW$40, DW_AT_type(*$C$DW$T$19)
     287              
     288              $C$DW$41        .dwtag  DW_TAG_formal_parameter
     289                      .dwattr $C$DW$41, DW_AT_type(*$C$DW$T$20)
     290              
     291              $C$DW$42        .dwtag  DW_TAG_formal_parameter
     292                      .dwattr $C$DW$42, DW_AT_type(*$C$DW$T$35)
     293              
     294              $C$DW$43        .dwtag  DW_TAG_formal_parameter
     295                      .dwattr $C$DW$43, DW_AT_type(*$C$DW$T$28)
     296              
     297              $C$DW$44        .dwtag  DW_TAG_formal_parameter
     298                      .dwattr $C$DW$44, DW_AT_type(*$C$DW$T$3)
     299              
     300              $C$DW$45        .dwtag  DW_TAG_formal_parameter
     301                      .dwattr $C$DW$45, DW_AT_type(*$C$DW$T$20)
     302              
     303                      .dwendtag $C$DW$36
     304              
     305              
     306              $C$DW$46        .dwtag  DW_TAG_subprogram
     307                      .dwattr $C$DW$46, DW_AT_name("OSTaskSuspend")
     308                      .dwattr $C$DW$46, DW_AT_TI_symbol_name("_OSTaskSuspend")
     309                      .dwattr $C$DW$46, DW_AT_type(*$C$DW$T$19)
     310                      .dwattr $C$DW$46, DW_AT_declaration
     311                      .dwattr $C$DW$46, DW_AT_external
     312              $C$DW$47        .dwtag  DW_TAG_formal_parameter
     313                      .dwattr $C$DW$47, DW_AT_type(*$C$DW$T$19)
     314              
     315                      .dwendtag $C$DW$46
     316              
     317              
     318              $C$DW$48        .dwtag  DW_TAG_subprogram
     319                      .dwattr $C$DW$48, DW_AT_name("OSTimeDlyHMSM")
     320                      .dwattr $C$DW$48, DW_AT_TI_symbol_name("_OSTimeDlyHMSM")
     321                      .dwattr $C$DW$48, DW_AT_type(*$C$DW$T$19)
     322                      .dwattr $C$DW$48, DW_AT_declaration
     323                      .dwattr $C$DW$48, DW_AT_external
     324              $C$DW$49        .dwtag  DW_TAG_formal_parameter
     325                      .dwattr $C$DW$49, DW_AT_type(*$C$DW$T$19)
     326              
     327              $C$DW$50        .dwtag  DW_TAG_formal_parameter
     328                      .dwattr $C$DW$50, DW_AT_type(*$C$DW$T$19)
     329              
     330              $C$DW$51        .dwtag  DW_TAG_formal_parameter
TMS320C2000 Assembler PC v20.2.1 Tue Feb 16 00:15:57 2021

Copyright (c) 1996-2018 Texas Instruments Incorporated
os_core.asm                                                          PAGE    7

     331                      .dwattr $C$DW$51, DW_AT_type(*$C$DW$T$19)
     332              
     333              $C$DW$52        .dwtag  DW_TAG_formal_parameter
     334                      .dwattr $C$DW$52, DW_AT_type(*$C$DW$T$20)
     335              
     336                      .dwendtag $C$DW$48
     337              
     338              
     339              $C$DW$53        .dwtag  DW_TAG_subprogram
     340                      .dwattr $C$DW$53, DW_AT_name("OSTaskStkChk")
     341                      .dwattr $C$DW$53, DW_AT_TI_symbol_name("_OSTaskStkChk")
     342                      .dwattr $C$DW$53, DW_AT_type(*$C$DW$T$19)
     343                      .dwattr $C$DW$53, DW_AT_declaration
     344                      .dwattr $C$DW$53, DW_AT_external
     345              $C$DW$54        .dwtag  DW_TAG_formal_parameter
     346                      .dwattr $C$DW$54, DW_AT_type(*$C$DW$T$19)
     347              
     348              $C$DW$55        .dwtag  DW_TAG_formal_parameter
     349                      .dwattr $C$DW$55, DW_AT_type(*$C$DW$T$81)
     350              
     351                      .dwendtag $C$DW$53
     352              
     353                      .global _OSCtxSwCtr
     354 0000000c       _OSCtxSwCtr:    .usect  ".ebss",2,1,1
     355              $C$DW$56        .dwtag  DW_TAG_variable
     356                      .dwattr $C$DW$56, DW_AT_name("OSCtxSwCtr")
     357                      .dwattr $C$DW$56, DW_AT_TI_symbol_name("_OSCtxSwCtr")
     358                      .dwattr $C$DW$56, DW_AT_location[DW_OP_addr _OSCtxSwCtr]
     359                      .dwattr $C$DW$56, DW_AT_type(*$C$DW$T$28)
     360                      .dwattr $C$DW$56, DW_AT_external
     361              
     362                      .global _OSEventFreeList
     363 0000000e       _OSEventFreeList:       .usect  ".ebss",2,1,1
     364              $C$DW$57        .dwtag  DW_TAG_variable
     365                      .dwattr $C$DW$57, DW_AT_name("OSEventFreeList")
     366                      .dwattr $C$DW$57, DW_AT_TI_symbol_name("_OSEventFreeList")
     367                      .dwattr $C$DW$57, DW_AT_location[DW_OP_addr _OSEventFreeList]
     368                      .dwattr $C$DW$57, DW_AT_type(*$C$DW$T$38)
     369                      .dwattr $C$DW$57, DW_AT_external
     370              
     371                      .global _OSFlagFreeList
     372 00000010       _OSFlagFreeList:        .usect  ".ebss",2,1,1
     373              $C$DW$58        .dwtag  DW_TAG_variable
     374                      .dwattr $C$DW$58, DW_AT_name("OSFlagFreeList")
     375                      .dwattr $C$DW$58, DW_AT_TI_symbol_name("_OSFlagFreeList")
     376                      .dwattr $C$DW$58, DW_AT_location[DW_OP_addr _OSFlagFreeList]
     377                      .dwattr $C$DW$58, DW_AT_type(*$C$DW$T$103)
     378                      .dwattr $C$DW$58, DW_AT_external
     379              
     380                      .global _OSIdleCtrMax
     381 00000012       _OSIdleCtrMax:  .usect  ".ebss",2,1,1
     382              $C$DW$59        .dwtag  DW_TAG_variable
     383                      .dwattr $C$DW$59, DW_AT_name("OSIdleCtrMax")
     384                      .dwattr $C$DW$59, DW_AT_TI_symbol_name("_OSIdleCtrMax")
     385                      .dwattr $C$DW$59, DW_AT_location[DW_OP_addr _OSIdleCtrMax]
TMS320C2000 Assembler PC v20.2.1 Tue Feb 16 00:15:57 2021

Copyright (c) 1996-2018 Texas Instruments Incorporated
os_core.asm                                                          PAGE    8

     386                      .dwattr $C$DW$59, DW_AT_type(*$C$DW$T$28)
     387                      .dwattr $C$DW$59, DW_AT_external
     388              
     389                      .global _OSIdleCtrRun
     390 00000014       _OSIdleCtrRun:  .usect  ".ebss",2,1,1
     391              $C$DW$60        .dwtag  DW_TAG_variable
     392                      .dwattr $C$DW$60, DW_AT_name("OSIdleCtrRun")
     393                      .dwattr $C$DW$60, DW_AT_TI_symbol_name("_OSIdleCtrRun")
     394                      .dwattr $C$DW$60, DW_AT_location[DW_OP_addr _OSIdleCtrRun]
     395                      .dwattr $C$DW$60, DW_AT_type(*$C$DW$T$28)
     396                      .dwattr $C$DW$60, DW_AT_external
     397              
     398                      .global _OSIdleCtr
     399 00000016       _OSIdleCtr:     .usect  ".ebss",2,1,1
     400              $C$DW$61        .dwtag  DW_TAG_variable
     401                      .dwattr $C$DW$61, DW_AT_name("OSIdleCtr")
     402                      .dwattr $C$DW$61, DW_AT_TI_symbol_name("_OSIdleCtr")
     403                      .dwattr $C$DW$61, DW_AT_location[DW_OP_addr _OSIdleCtr]
     404                      .dwattr $C$DW$61, DW_AT_type(*$C$DW$T$96)
     405                      .dwattr $C$DW$61, DW_AT_external
     406              
     407                      .global _OSTCBCur
     408 00000018       _OSTCBCur:      .usect  ".ebss",2,1,1
     409              $C$DW$62        .dwtag  DW_TAG_variable
     410                      .dwattr $C$DW$62, DW_AT_name("OSTCBCur")
     411                      .dwattr $C$DW$62, DW_AT_TI_symbol_name("_OSTCBCur")
     412                      .dwattr $C$DW$62, DW_AT_location[DW_OP_addr _OSTCBCur]
     413                      .dwattr $C$DW$62, DW_AT_type(*$C$DW$T$56)
     414                      .dwattr $C$DW$62, DW_AT_external
     415              
     416                      .global _OSTCBFreeList
     417 0000001a       _OSTCBFreeList: .usect  ".ebss",2,1,1
     418              $C$DW$63        .dwtag  DW_TAG_variable
     419                      .dwattr $C$DW$63, DW_AT_name("OSTCBFreeList")
     420                      .dwattr $C$DW$63, DW_AT_TI_symbol_name("_OSTCBFreeList")
     421                      .dwattr $C$DW$63, DW_AT_location[DW_OP_addr _OSTCBFreeList]
     422                      .dwattr $C$DW$63, DW_AT_type(*$C$DW$T$56)
     423                      .dwattr $C$DW$63, DW_AT_external
     424              
     425                      .global _OSTCBHighRdy
     426 0000001c       _OSTCBHighRdy:  .usect  ".ebss",2,1,1
     427              $C$DW$64        .dwtag  DW_TAG_variable
     428                      .dwattr $C$DW$64, DW_AT_name("OSTCBHighRdy")
     429                      .dwattr $C$DW$64, DW_AT_TI_symbol_name("_OSTCBHighRdy")
     430                      .dwattr $C$DW$64, DW_AT_location[DW_OP_addr _OSTCBHighRdy]
     431                      .dwattr $C$DW$64, DW_AT_type(*$C$DW$T$56)
     432                      .dwattr $C$DW$64, DW_AT_external
     433              
     434                      .global _OSTCBList
     435 0000001e       _OSTCBList:     .usect  ".ebss",2,1,1
     436              $C$DW$65        .dwtag  DW_TAG_variable
     437                      .dwattr $C$DW$65, DW_AT_name("OSTCBList")
     438                      .dwattr $C$DW$65, DW_AT_TI_symbol_name("_OSTCBList")
     439                      .dwattr $C$DW$65, DW_AT_location[DW_OP_addr _OSTCBList]
     440                      .dwattr $C$DW$65, DW_AT_type(*$C$DW$T$56)
TMS320C2000 Assembler PC v20.2.1 Tue Feb 16 00:15:57 2021

Copyright (c) 1996-2018 Texas Instruments Incorporated
os_core.asm                                                          PAGE    9

     441                      .dwattr $C$DW$65, DW_AT_external
     442              
     443                      .global _OSMemFreeList
     444 00000020       _OSMemFreeList: .usect  ".ebss",2,1,1
     445              $C$DW$66        .dwtag  DW_TAG_variable
     446                      .dwattr $C$DW$66, DW_AT_name("OSMemFreeList")
     447                      .dwattr $C$DW$66, DW_AT_TI_symbol_name("_OSMemFreeList")
     448                      .dwattr $C$DW$66, DW_AT_location[DW_OP_addr _OSMemFreeList]
     449                      .dwattr $C$DW$66, DW_AT_type(*$C$DW$T$105)
     450                      .dwattr $C$DW$66, DW_AT_external
     451              
     452                      .global _OSQFreeList
     453 00000022       _OSQFreeList:   .usect  ".ebss",2,1,1
     454              $C$DW$67        .dwtag  DW_TAG_variable
     455                      .dwattr $C$DW$67, DW_AT_name("OSQFreeList")
     456                      .dwattr $C$DW$67, DW_AT_TI_symbol_name("_OSQFreeList")
     457                      .dwattr $C$DW$67, DW_AT_location[DW_OP_addr _OSQFreeList]
     458                      .dwattr $C$DW$67, DW_AT_type(*$C$DW$T$108)
     459                      .dwattr $C$DW$67, DW_AT_external
     460              
     461                      .global _OSTime
     462 00000024       _OSTime:        .usect  ".ebss",2,1,1
     463              $C$DW$68        .dwtag  DW_TAG_variable
     464                      .dwattr $C$DW$68, DW_AT_name("OSTime")
     465                      .dwattr $C$DW$68, DW_AT_TI_symbol_name("_OSTime")
     466                      .dwattr $C$DW$68, DW_AT_location[DW_OP_addr _OSTime]
     467                      .dwattr $C$DW$68, DW_AT_type(*$C$DW$T$96)
     468                      .dwattr $C$DW$68, DW_AT_external
     469              
     470                      .global _OSRdyTbl
     471 00000000       _OSRdyTbl:      .usect  ".ebss:_OSRdyTbl",8,1,0
     472                      .clink ".ebss:_OSRdyTbl"
     473              $C$DW$69        .dwtag  DW_TAG_variable
     474                      .dwattr $C$DW$69, DW_AT_name("OSRdyTbl")
     475                      .dwattr $C$DW$69, DW_AT_TI_symbol_name("_OSRdyTbl")
     476                      .dwattr $C$DW$69, DW_AT_location[DW_OP_addr _OSRdyTbl]
     477                      .dwattr $C$DW$69, DW_AT_type(*$C$DW$T$22)
     478                      .dwattr $C$DW$69, DW_AT_external
     479              
     480                      .global _OSFlagTbl
     481 00000000       _OSFlagTbl:     .usect  ".ebss:_OSFlagTbl",40,1,1
     482                      .clink ".ebss:_OSFlagTbl"
     483              $C$DW$70        .dwtag  DW_TAG_variable
     484                      .dwattr $C$DW$70, DW_AT_name("OSFlagTbl")
     485                      .dwattr $C$DW$70, DW_AT_TI_symbol_name("_OSFlagTbl")
     486                      .dwattr $C$DW$70, DW_AT_location[DW_OP_addr _OSFlagTbl]
     487                      .dwattr $C$DW$70, DW_AT_type(*$C$DW$T$102)
     488                      .dwattr $C$DW$70, DW_AT_external
     489              
     490                      .global _OSQTbl
     491 00000000       _OSQTbl:        .usect  ".ebss:_OSQTbl",48,1,1
     492                      .clink ".ebss:_OSQTbl"
     493              $C$DW$71        .dwtag  DW_TAG_variable
     494                      .dwattr $C$DW$71, DW_AT_name("OSQTbl")
     495                      .dwattr $C$DW$71, DW_AT_TI_symbol_name("_OSQTbl")
TMS320C2000 Assembler PC v20.2.1 Tue Feb 16 00:15:57 2021

Copyright (c) 1996-2018 Texas Instruments Incorporated
os_core.asm                                                          PAGE   10

     496                      .dwattr $C$DW$71, DW_AT_location[DW_OP_addr _OSQTbl]
     497                      .dwattr $C$DW$71, DW_AT_type(*$C$DW$T$109)
     498                      .dwattr $C$DW$71, DW_AT_external
     499              
     500                      .global _OSMemTbl
     501 00000000       _OSMemTbl:      .usect  ".ebss:_OSMemTbl",60,1,1
     502                      .clink ".ebss:_OSMemTbl"
     503              $C$DW$72        .dwtag  DW_TAG_variable
     504                      .dwattr $C$DW$72, DW_AT_name("OSMemTbl")
     505                      .dwattr $C$DW$72, DW_AT_TI_symbol_name("_OSMemTbl")
     506                      .dwattr $C$DW$72, DW_AT_location[DW_OP_addr _OSMemTbl]
     507                      .dwattr $C$DW$72, DW_AT_type(*$C$DW$T$106)
     508                      .dwattr $C$DW$72, DW_AT_external
     509              
     510                      .global _OSTCBPrioTbl
     511 00000000       _OSTCBPrioTbl:  .usect  ".ebss:_OSTCBPrioTbl",128,1,1
     512                      .clink ".ebss:_OSTCBPrioTbl"
     513              $C$DW$73        .dwtag  DW_TAG_variable
     514                      .dwattr $C$DW$73, DW_AT_name("OSTCBPrioTbl")
     515                      .dwattr $C$DW$73, DW_AT_TI_symbol_name("_OSTCBPrioTbl")
     516                      .dwattr $C$DW$73, DW_AT_location[DW_OP_addr _OSTCBPrioTbl]
     517                      .dwattr $C$DW$73, DW_AT_type(*$C$DW$T$110)
     518                      .dwattr $C$DW$73, DW_AT_external
     519              
     520                      .global _OSEventTbl
     521 00000000       _OSEventTbl:    .usect  ".ebss:_OSEventTbl",160,1,1
     522                      .clink ".ebss:_OSEventTbl"
     523              $C$DW$74        .dwtag  DW_TAG_variable
     524                      .dwattr $C$DW$74, DW_AT_name("OSEventTbl")
     525                      .dwattr $C$DW$74, DW_AT_TI_symbol_name("_OSEventTbl")
     526                      .dwattr $C$DW$74, DW_AT_location[DW_OP_addr _OSEventTbl]
     527                      .dwattr $C$DW$74, DW_AT_type(*$C$DW$T$100)
     528                      .dwattr $C$DW$74, DW_AT_external
     529              
     530                      .global _OSTaskStatStk
     531 00000000       _OSTaskStatStk: .usect  ".ebss:_OSTaskStatStk",256,1,0
     532                      .clink ".ebss:_OSTaskStatStk"
     533              $C$DW$75        .dwtag  DW_TAG_variable
     534                      .dwattr $C$DW$75, DW_AT_name("OSTaskStatStk")
     535                      .dwattr $C$DW$75, DW_AT_TI_symbol_name("_OSTaskStatStk")
     536                      .dwattr $C$DW$75, DW_AT_location[DW_OP_addr _OSTaskStatStk]
     537                      .dwattr $C$DW$75, DW_AT_type(*$C$DW$T$95)
     538                      .dwattr $C$DW$75, DW_AT_external
     539              
     540                      .global _OSTaskIdleStk
     541 00000000       _OSTaskIdleStk: .usect  ".ebss:_OSTaskIdleStk",256,1,0
     542                      .clink ".ebss:_OSTaskIdleStk"
     543              $C$DW$76        .dwtag  DW_TAG_variable
     544                      .dwattr $C$DW$76, DW_AT_name("OSTaskIdleStk")
     545                      .dwattr $C$DW$76, DW_AT_TI_symbol_name("_OSTaskIdleStk")
     546                      .dwattr $C$DW$76, DW_AT_location[DW_OP_addr _OSTaskIdleStk]
     547                      .dwattr $C$DW$76, DW_AT_type(*$C$DW$T$95)
     548                      .dwattr $C$DW$76, DW_AT_external
     549              
     550                      .global _OSUnMapTbl
TMS320C2000 Assembler PC v20.2.1 Tue Feb 16 00:15:57 2021

Copyright (c) 1996-2018 Texas Instruments Incorporated
os_core.asm                                                          PAGE   11

     551 00000000               .sect   ".econst:.string:_OSUnMapTbl"
     552                      .clink
     553                      .align  1
     554                      .elfsym _OSUnMapTbl,SYM_SIZE(256)
     555 00000000       _OSUnMapTbl:
     556 00000000 0000          .bits           0,16
     557                                      ; _OSUnMapTbl[0] @ 0
     558 00000001 0000          .bits           0,16
     559                                      ; _OSUnMapTbl[1] @ 16
     560 00000002 0001          .bits           0x1,16
     561                                      ; _OSUnMapTbl[2] @ 32
     562 00000003 0000          .bits           0,16
     563                                      ; _OSUnMapTbl[3] @ 48
     564 00000004 0002          .bits           0x2,16
     565                                      ; _OSUnMapTbl[4] @ 64
     566 00000005 0000          .bits           0,16
     567                                      ; _OSUnMapTbl[5] @ 80
     568 00000006 0001          .bits           0x1,16
     569                                      ; _OSUnMapTbl[6] @ 96
     570 00000007 0000          .bits           0,16
     571                                      ; _OSUnMapTbl[7] @ 112
     572 00000008 0003          .bits           0x3,16
     573                                      ; _OSUnMapTbl[8] @ 128
     574 00000009 0000          .bits           0,16
     575                                      ; _OSUnMapTbl[9] @ 144
     576 0000000a 0001          .bits           0x1,16
     577                                      ; _OSUnMapTbl[10] @ 160
     578 0000000b 0000          .bits           0,16
     579                                      ; _OSUnMapTbl[11] @ 176
     580 0000000c 0002          .bits           0x2,16
     581                                      ; _OSUnMapTbl[12] @ 192
     582 0000000d 0000          .bits           0,16
     583                                      ; _OSUnMapTbl[13] @ 208
     584 0000000e 0001          .bits           0x1,16
     585                                      ; _OSUnMapTbl[14] @ 224
     586 0000000f 0000          .bits           0,16
     587                                      ; _OSUnMapTbl[15] @ 240
     588 00000010 0004          .bits           0x4,16
     589                                      ; _OSUnMapTbl[16] @ 256
     590 00000011 0000          .bits           0,16
     591                                      ; _OSUnMapTbl[17] @ 272
     592 00000012 0001          .bits           0x1,16
     593                                      ; _OSUnMapTbl[18] @ 288
     594 00000013 0000          .bits           0,16
     595                                      ; _OSUnMapTbl[19] @ 304
     596 00000014 0002          .bits           0x2,16
     597                                      ; _OSUnMapTbl[20] @ 320
     598 00000015 0000          .bits           0,16
     599                                      ; _OSUnMapTbl[21] @ 336
     600 00000016 0001          .bits           0x1,16
     601                                      ; _OSUnMapTbl[22] @ 352
     602 00000017 0000          .bits           0,16
     603                                      ; _OSUnMapTbl[23] @ 368
     604 00000018 0003          .bits           0x3,16
     605                                      ; _OSUnMapTbl[24] @ 384
TMS320C2000 Assembler PC v20.2.1 Tue Feb 16 00:15:57 2021

Copyright (c) 1996-2018 Texas Instruments Incorporated
os_core.asm                                                          PAGE   12

     606 00000019 0000          .bits           0,16
     607                                      ; _OSUnMapTbl[25] @ 400
     608 0000001a 0001          .bits           0x1,16
     609                                      ; _OSUnMapTbl[26] @ 416
     610 0000001b 0000          .bits           0,16
     611                                      ; _OSUnMapTbl[27] @ 432
     612 0000001c 0002          .bits           0x2,16
     613                                      ; _OSUnMapTbl[28] @ 448
     614 0000001d 0000          .bits           0,16
     615                                      ; _OSUnMapTbl[29] @ 464
     616 0000001e 0001          .bits           0x1,16
     617                                      ; _OSUnMapTbl[30] @ 480
     618 0000001f 0000          .bits           0,16
     619                                      ; _OSUnMapTbl[31] @ 496
     620 00000020 0005          .bits           0x5,16
     621                                      ; _OSUnMapTbl[32] @ 512
     622 00000021 0000          .bits           0,16
     623                                      ; _OSUnMapTbl[33] @ 528
     624 00000022 0001          .bits           0x1,16
     625                                      ; _OSUnMapTbl[34] @ 544
     626 00000023 0000          .bits           0,16
     627                                      ; _OSUnMapTbl[35] @ 560
     628 00000024 0002          .bits           0x2,16
     629                                      ; _OSUnMapTbl[36] @ 576
     630 00000025 0000          .bits           0,16
     631                                      ; _OSUnMapTbl[37] @ 592
     632 00000026 0001          .bits           0x1,16
     633                                      ; _OSUnMapTbl[38] @ 608
     634 00000027 0000          .bits           0,16
     635                                      ; _OSUnMapTbl[39] @ 624
     636 00000028 0003          .bits           0x3,16
     637                                      ; _OSUnMapTbl[40] @ 640
     638 00000029 0000          .bits           0,16
     639                                      ; _OSUnMapTbl[41] @ 656
     640 0000002a 0001          .bits           0x1,16
     641                                      ; _OSUnMapTbl[42] @ 672
     642 0000002b 0000          .bits           0,16
     643                                      ; _OSUnMapTbl[43] @ 688
     644 0000002c 0002          .bits           0x2,16
     645                                      ; _OSUnMapTbl[44] @ 704
     646 0000002d 0000          .bits           0,16
     647                                      ; _OSUnMapTbl[45] @ 720
     648 0000002e 0001          .bits           0x1,16
     649                                      ; _OSUnMapTbl[46] @ 736
     650 0000002f 0000          .bits           0,16
     651                                      ; _OSUnMapTbl[47] @ 752
     652 00000030 0004          .bits           0x4,16
     653                                      ; _OSUnMapTbl[48] @ 768
     654 00000031 0000          .bits           0,16
     655                                      ; _OSUnMapTbl[49] @ 784
     656 00000032 0001          .bits           0x1,16
     657                                      ; _OSUnMapTbl[50] @ 800
     658 00000033 0000          .bits           0,16
     659                                      ; _OSUnMapTbl[51] @ 816
     660 00000034 0002          .bits           0x2,16
TMS320C2000 Assembler PC v20.2.1 Tue Feb 16 00:15:57 2021

Copyright (c) 1996-2018 Texas Instruments Incorporated
os_core.asm                                                          PAGE   13

     661                                      ; _OSUnMapTbl[52] @ 832
     662 00000035 0000          .bits           0,16
     663                                      ; _OSUnMapTbl[53] @ 848
     664 00000036 0001          .bits           0x1,16
     665                                      ; _OSUnMapTbl[54] @ 864
     666 00000037 0000          .bits           0,16
     667                                      ; _OSUnMapTbl[55] @ 880
     668 00000038 0003          .bits           0x3,16
     669                                      ; _OSUnMapTbl[56] @ 896
     670 00000039 0000          .bits           0,16
     671                                      ; _OSUnMapTbl[57] @ 912
     672 0000003a 0001          .bits           0x1,16
     673                                      ; _OSUnMapTbl[58] @ 928
     674 0000003b 0000          .bits           0,16
     675                                      ; _OSUnMapTbl[59] @ 944
     676 0000003c 0002          .bits           0x2,16
     677                                      ; _OSUnMapTbl[60] @ 960
     678 0000003d 0000          .bits           0,16
     679                                      ; _OSUnMapTbl[61] @ 976
     680 0000003e 0001          .bits           0x1,16
     681                                      ; _OSUnMapTbl[62] @ 992
     682 0000003f 0000          .bits           0,16
     683                                      ; _OSUnMapTbl[63] @ 1008
     684 00000040 0006          .bits           0x6,16
     685                                      ; _OSUnMapTbl[64] @ 1024
     686 00000041 0000          .bits           0,16
     687                                      ; _OSUnMapTbl[65] @ 1040
     688 00000042 0001          .bits           0x1,16
     689                                      ; _OSUnMapTbl[66] @ 1056
     690 00000043 0000          .bits           0,16
     691                                      ; _OSUnMapTbl[67] @ 1072
     692 00000044 0002          .bits           0x2,16
     693                                      ; _OSUnMapTbl[68] @ 1088
     694 00000045 0000          .bits           0,16
     695                                      ; _OSUnMapTbl[69] @ 1104
     696 00000046 0001          .bits           0x1,16
     697                                      ; _OSUnMapTbl[70] @ 1120
     698 00000047 0000          .bits           0,16
     699                                      ; _OSUnMapTbl[71] @ 1136
     700 00000048 0003          .bits           0x3,16
     701                                      ; _OSUnMapTbl[72] @ 1152
     702 00000049 0000          .bits           0,16
     703                                      ; _OSUnMapTbl[73] @ 1168
     704 0000004a 0001          .bits           0x1,16
     705                                      ; _OSUnMapTbl[74] @ 1184
     706 0000004b 0000          .bits           0,16
     707                                      ; _OSUnMapTbl[75] @ 1200
     708 0000004c 0002          .bits           0x2,16
     709                                      ; _OSUnMapTbl[76] @ 1216
     710 0000004d 0000          .bits           0,16
     711                                      ; _OSUnMapTbl[77] @ 1232
     712 0000004e 0001          .bits           0x1,16
     713                                      ; _OSUnMapTbl[78] @ 1248
     714 0000004f 0000          .bits           0,16
     715                                      ; _OSUnMapTbl[79] @ 1264
TMS320C2000 Assembler PC v20.2.1 Tue Feb 16 00:15:57 2021

Copyright (c) 1996-2018 Texas Instruments Incorporated
os_core.asm                                                          PAGE   14

     716 00000050 0004          .bits           0x4,16
     717                                      ; _OSUnMapTbl[80] @ 1280
     718 00000051 0000          .bits           0,16
     719                                      ; _OSUnMapTbl[81] @ 1296
     720 00000052 0001          .bits           0x1,16
     721                                      ; _OSUnMapTbl[82] @ 1312
     722 00000053 0000          .bits           0,16
     723                                      ; _OSUnMapTbl[83] @ 1328
     724 00000054 0002          .bits           0x2,16
     725                                      ; _OSUnMapTbl[84] @ 1344
     726 00000055 0000          .bits           0,16
     727                                      ; _OSUnMapTbl[85] @ 1360
     728 00000056 0001          .bits           0x1,16
     729                                      ; _OSUnMapTbl[86] @ 1376
     730 00000057 0000          .bits           0,16
     731                                      ; _OSUnMapTbl[87] @ 1392
     732 00000058 0003          .bits           0x3,16
     733                                      ; _OSUnMapTbl[88] @ 1408
     734 00000059 0000          .bits           0,16
     735                                      ; _OSUnMapTbl[89] @ 1424
     736 0000005a 0001          .bits           0x1,16
     737                                      ; _OSUnMapTbl[90] @ 1440
     738 0000005b 0000          .bits           0,16
     739                                      ; _OSUnMapTbl[91] @ 1456
     740 0000005c 0002          .bits           0x2,16
     741                                      ; _OSUnMapTbl[92] @ 1472
     742 0000005d 0000          .bits           0,16
     743                                      ; _OSUnMapTbl[93] @ 1488
     744 0000005e 0001          .bits           0x1,16
     745                                      ; _OSUnMapTbl[94] @ 1504
     746 0000005f 0000          .bits           0,16
     747                                      ; _OSUnMapTbl[95] @ 1520
     748 00000060 0005          .bits           0x5,16
     749                                      ; _OSUnMapTbl[96] @ 1536
     750 00000061 0000          .bits           0,16
     751                                      ; _OSUnMapTbl[97] @ 1552
     752 00000062 0001          .bits           0x1,16
     753                                      ; _OSUnMapTbl[98] @ 1568
     754 00000063 0000          .bits           0,16
     755                                      ; _OSUnMapTbl[99] @ 1584
     756 00000064 0002          .bits           0x2,16
     757                                      ; _OSUnMapTbl[100] @ 1600
     758 00000065 0000          .bits           0,16
     759                                      ; _OSUnMapTbl[101] @ 1616
     760 00000066 0001          .bits           0x1,16
     761                                      ; _OSUnMapTbl[102] @ 1632
     762 00000067 0000          .bits           0,16
     763                                      ; _OSUnMapTbl[103] @ 1648
     764 00000068 0003          .bits           0x3,16
     765                                      ; _OSUnMapTbl[104] @ 1664
     766 00000069 0000          .bits           0,16
     767                                      ; _OSUnMapTbl[105] @ 1680
     768 0000006a 0001          .bits           0x1,16
     769                                      ; _OSUnMapTbl[106] @ 1696
     770 0000006b 0000          .bits           0,16
TMS320C2000 Assembler PC v20.2.1 Tue Feb 16 00:15:57 2021

Copyright (c) 1996-2018 Texas Instruments Incorporated
os_core.asm                                                          PAGE   15

     771                                      ; _OSUnMapTbl[107] @ 1712
     772 0000006c 0002          .bits           0x2,16
     773                                      ; _OSUnMapTbl[108] @ 1728
     774 0000006d 0000          .bits           0,16
     775                                      ; _OSUnMapTbl[109] @ 1744
     776 0000006e 0001          .bits           0x1,16
     777                                      ; _OSUnMapTbl[110] @ 1760
     778 0000006f 0000          .bits           0,16
     779                                      ; _OSUnMapTbl[111] @ 1776
     780 00000070 0004          .bits           0x4,16
     781                                      ; _OSUnMapTbl[112] @ 1792
     782 00000071 0000          .bits           0,16
     783                                      ; _OSUnMapTbl[113] @ 1808
     784 00000072 0001          .bits           0x1,16
     785                                      ; _OSUnMapTbl[114] @ 1824
     786 00000073 0000          .bits           0,16
     787                                      ; _OSUnMapTbl[115] @ 1840
     788 00000074 0002          .bits           0x2,16
     789                                      ; _OSUnMapTbl[116] @ 1856
     790 00000075 0000          .bits           0,16
     791                                      ; _OSUnMapTbl[117] @ 1872
     792 00000076 0001          .bits           0x1,16
     793                                      ; _OSUnMapTbl[118] @ 1888
     794 00000077 0000          .bits           0,16
     795                                      ; _OSUnMapTbl[119] @ 1904
     796 00000078 0003          .bits           0x3,16
     797                                      ; _OSUnMapTbl[120] @ 1920
     798 00000079 0000          .bits           0,16
     799                                      ; _OSUnMapTbl[121] @ 1936
     800 0000007a 0001          .bits           0x1,16
     801                                      ; _OSUnMapTbl[122] @ 1952
     802 0000007b 0000          .bits           0,16
     803                                      ; _OSUnMapTbl[123] @ 1968
     804 0000007c 0002          .bits           0x2,16
     805                                      ; _OSUnMapTbl[124] @ 1984
     806 0000007d 0000          .bits           0,16
     807                                      ; _OSUnMapTbl[125] @ 2000
     808 0000007e 0001          .bits           0x1,16
     809                                      ; _OSUnMapTbl[126] @ 2016
     810 0000007f 0000          .bits           0,16
     811                                      ; _OSUnMapTbl[127] @ 2032
     812 00000080 0007          .bits           0x7,16
     813                                      ; _OSUnMapTbl[128] @ 2048
     814 00000081 0000          .bits           0,16
     815                                      ; _OSUnMapTbl[129] @ 2064
     816 00000082 0001          .bits           0x1,16
     817                                      ; _OSUnMapTbl[130] @ 2080
     818 00000083 0000          .bits           0,16
     819                                      ; _OSUnMapTbl[131] @ 2096
     820 00000084 0002          .bits           0x2,16
     821                                      ; _OSUnMapTbl[132] @ 2112
     822 00000085 0000          .bits           0,16
     823                                      ; _OSUnMapTbl[133] @ 2128
     824 00000086 0001          .bits           0x1,16
     825                                      ; _OSUnMapTbl[134] @ 2144
TMS320C2000 Assembler PC v20.2.1 Tue Feb 16 00:15:57 2021

Copyright (c) 1996-2018 Texas Instruments Incorporated
os_core.asm                                                          PAGE   16

     826 00000087 0000          .bits           0,16
     827                                      ; _OSUnMapTbl[135] @ 2160
     828 00000088 0003          .bits           0x3,16
     829                                      ; _OSUnMapTbl[136] @ 2176
     830 00000089 0000          .bits           0,16
     831                                      ; _OSUnMapTbl[137] @ 2192
     832 0000008a 0001          .bits           0x1,16
     833                                      ; _OSUnMapTbl[138] @ 2208
     834 0000008b 0000          .bits           0,16
     835                                      ; _OSUnMapTbl[139] @ 2224
     836 0000008c 0002          .bits           0x2,16
     837                                      ; _OSUnMapTbl[140] @ 2240
     838 0000008d 0000          .bits           0,16
     839                                      ; _OSUnMapTbl[141] @ 2256
     840 0000008e 0001          .bits           0x1,16
     841                                      ; _OSUnMapTbl[142] @ 2272
     842 0000008f 0000          .bits           0,16
     843                                      ; _OSUnMapTbl[143] @ 2288
     844 00000090 0004          .bits           0x4,16
     845                                      ; _OSUnMapTbl[144] @ 2304
     846 00000091 0000          .bits           0,16
     847                                      ; _OSUnMapTbl[145] @ 2320
     848 00000092 0001          .bits           0x1,16
     849                                      ; _OSUnMapTbl[146] @ 2336
     850 00000093 0000          .bits           0,16
     851                                      ; _OSUnMapTbl[147] @ 2352
     852 00000094 0002          .bits           0x2,16
     853                                      ; _OSUnMapTbl[148] @ 2368
     854 00000095 0000          .bits           0,16
     855                                      ; _OSUnMapTbl[149] @ 2384
     856 00000096 0001          .bits           0x1,16
     857                                      ; _OSUnMapTbl[150] @ 2400
     858 00000097 0000          .bits           0,16
     859                                      ; _OSUnMapTbl[151] @ 2416
     860 00000098 0003          .bits           0x3,16
     861                                      ; _OSUnMapTbl[152] @ 2432
     862 00000099 0000          .bits           0,16
     863                                      ; _OSUnMapTbl[153] @ 2448
     864 0000009a 0001          .bits           0x1,16
     865                                      ; _OSUnMapTbl[154] @ 2464
     866 0000009b 0000          .bits           0,16
     867                                      ; _OSUnMapTbl[155] @ 2480
     868 0000009c 0002          .bits           0x2,16
     869                                      ; _OSUnMapTbl[156] @ 2496
     870 0000009d 0000          .bits           0,16
     871                                      ; _OSUnMapTbl[157] @ 2512
     872 0000009e 0001          .bits           0x1,16
     873                                      ; _OSUnMapTbl[158] @ 2528
     874 0000009f 0000          .bits           0,16
     875                                      ; _OSUnMapTbl[159] @ 2544
     876 000000a0 0005          .bits           0x5,16
     877                                      ; _OSUnMapTbl[160] @ 2560
     878 000000a1 0000          .bits           0,16
     879                                      ; _OSUnMapTbl[161] @ 2576
     880 000000a2 0001          .bits           0x1,16
TMS320C2000 Assembler PC v20.2.1 Tue Feb 16 00:15:57 2021

Copyright (c) 1996-2018 Texas Instruments Incorporated
os_core.asm                                                          PAGE   17

     881                                      ; _OSUnMapTbl[162] @ 2592
     882 000000a3 0000          .bits           0,16
     883                                      ; _OSUnMapTbl[163] @ 2608
     884 000000a4 0002          .bits           0x2,16
     885                                      ; _OSUnMapTbl[164] @ 2624
     886 000000a5 0000          .bits           0,16
     887                                      ; _OSUnMapTbl[165] @ 2640
     888 000000a6 0001          .bits           0x1,16
     889                                      ; _OSUnMapTbl[166] @ 2656
     890 000000a7 0000          .bits           0,16
     891                                      ; _OSUnMapTbl[167] @ 2672
     892 000000a8 0003          .bits           0x3,16
     893                                      ; _OSUnMapTbl[168] @ 2688
     894 000000a9 0000          .bits           0,16
     895                                      ; _OSUnMapTbl[169] @ 2704
     896 000000aa 0001          .bits           0x1,16
     897                                      ; _OSUnMapTbl[170] @ 2720
     898 000000ab 0000          .bits           0,16
     899                                      ; _OSUnMapTbl[171] @ 2736
     900 000000ac 0002          .bits           0x2,16
     901                                      ; _OSUnMapTbl[172] @ 2752
     902 000000ad 0000          .bits           0,16
     903                                      ; _OSUnMapTbl[173] @ 2768
     904 000000ae 0001          .bits           0x1,16
     905                                      ; _OSUnMapTbl[174] @ 2784
     906 000000af 0000          .bits           0,16
     907                                      ; _OSUnMapTbl[175] @ 2800
     908 000000b0 0004          .bits           0x4,16
     909                                      ; _OSUnMapTbl[176] @ 2816
     910 000000b1 0000          .bits           0,16
     911                                      ; _OSUnMapTbl[177] @ 2832
     912 000000b2 0001          .bits           0x1,16
     913                                      ; _OSUnMapTbl[178] @ 2848
     914 000000b3 0000          .bits           0,16
     915                                      ; _OSUnMapTbl[179] @ 2864
     916 000000b4 0002          .bits           0x2,16
     917                                      ; _OSUnMapTbl[180] @ 2880
     918 000000b5 0000          .bits           0,16
     919                                      ; _OSUnMapTbl[181] @ 2896
     920 000000b6 0001          .bits           0x1,16
     921                                      ; _OSUnMapTbl[182] @ 2912
     922 000000b7 0000          .bits           0,16
     923                                      ; _OSUnMapTbl[183] @ 2928
     924 000000b8 0003          .bits           0x3,16
     925                                      ; _OSUnMapTbl[184] @ 2944
     926 000000b9 0000          .bits           0,16
     927                                      ; _OSUnMapTbl[185] @ 2960
     928 000000ba 0001          .bits           0x1,16
     929                                      ; _OSUnMapTbl[186] @ 2976
     930 000000bb 0000          .bits           0,16
     931                                      ; _OSUnMapTbl[187] @ 2992
     932 000000bc 0002          .bits           0x2,16
     933                                      ; _OSUnMapTbl[188] @ 3008
     934 000000bd 0000          .bits           0,16
     935                                      ; _OSUnMapTbl[189] @ 3024
TMS320C2000 Assembler PC v20.2.1 Tue Feb 16 00:15:57 2021

Copyright (c) 1996-2018 Texas Instruments Incorporated
os_core.asm                                                          PAGE   18

     936 000000be 0001          .bits           0x1,16
     937                                      ; _OSUnMapTbl[190] @ 3040
     938 000000bf 0000          .bits           0,16
     939                                      ; _OSUnMapTbl[191] @ 3056
     940 000000c0 0006          .bits           0x6,16
     941                                      ; _OSUnMapTbl[192] @ 3072
     942 000000c1 0000          .bits           0,16
     943                                      ; _OSUnMapTbl[193] @ 3088
     944 000000c2 0001          .bits           0x1,16
     945                                      ; _OSUnMapTbl[194] @ 3104
     946 000000c3 0000          .bits           0,16
     947                                      ; _OSUnMapTbl[195] @ 3120
     948 000000c4 0002          .bits           0x2,16
     949                                      ; _OSUnMapTbl[196] @ 3136
     950 000000c5 0000          .bits           0,16
     951                                      ; _OSUnMapTbl[197] @ 3152
     952 000000c6 0001          .bits           0x1,16
     953                                      ; _OSUnMapTbl[198] @ 3168
     954 000000c7 0000          .bits           0,16
     955                                      ; _OSUnMapTbl[199] @ 3184
     956 000000c8 0003          .bits           0x3,16
     957                                      ; _OSUnMapTbl[200] @ 3200
     958 000000c9 0000          .bits           0,16
     959                                      ; _OSUnMapTbl[201] @ 3216
     960 000000ca 0001          .bits           0x1,16
     961                                      ; _OSUnMapTbl[202] @ 3232
     962 000000cb 0000          .bits           0,16
     963                                      ; _OSUnMapTbl[203] @ 3248
     964 000000cc 0002          .bits           0x2,16
     965                                      ; _OSUnMapTbl[204] @ 3264
     966 000000cd 0000          .bits           0,16
     967                                      ; _OSUnMapTbl[205] @ 3280
     968 000000ce 0001          .bits           0x1,16
     969                                      ; _OSUnMapTbl[206] @ 3296
     970 000000cf 0000          .bits           0,16
     971                                      ; _OSUnMapTbl[207] @ 3312
     972 000000d0 0004          .bits           0x4,16
     973                                      ; _OSUnMapTbl[208] @ 3328
     974 000000d1 0000          .bits           0,16
     975                                      ; _OSUnMapTbl[209] @ 3344
     976 000000d2 0001          .bits           0x1,16
     977                                      ; _OSUnMapTbl[210] @ 3360
     978 000000d3 0000          .bits           0,16
     979                                      ; _OSUnMapTbl[211] @ 3376
     980 000000d4 0002          .bits           0x2,16
     981                                      ; _OSUnMapTbl[212] @ 3392
     982 000000d5 0000          .bits           0,16
     983                                      ; _OSUnMapTbl[213] @ 3408
     984 000000d6 0001          .bits           0x1,16
     985                                      ; _OSUnMapTbl[214] @ 3424
     986 000000d7 0000          .bits           0,16
     987                                      ; _OSUnMapTbl[215] @ 3440
     988 000000d8 0003          .bits           0x3,16
     989                                      ; _OSUnMapTbl[216] @ 3456
     990 000000d9 0000          .bits           0,16
TMS320C2000 Assembler PC v20.2.1 Tue Feb 16 00:15:57 2021

Copyright (c) 1996-2018 Texas Instruments Incorporated
os_core.asm                                                          PAGE   19

     991                                      ; _OSUnMapTbl[217] @ 3472
     992 000000da 0001          .bits           0x1,16
     993                                      ; _OSUnMapTbl[218] @ 3488
     994 000000db 0000          .bits           0,16
     995                                      ; _OSUnMapTbl[219] @ 3504
     996 000000dc 0002          .bits           0x2,16
     997                                      ; _OSUnMapTbl[220] @ 3520
     998 000000dd 0000          .bits           0,16
     999                                      ; _OSUnMapTbl[221] @ 3536
    1000 000000de 0001          .bits           0x1,16
    1001                                      ; _OSUnMapTbl[222] @ 3552
    1002 000000df 0000          .bits           0,16
    1003                                      ; _OSUnMapTbl[223] @ 3568
    1004 000000e0 0005          .bits           0x5,16
    1005                                      ; _OSUnMapTbl[224] @ 3584
    1006 000000e1 0000          .bits           0,16
    1007                                      ; _OSUnMapTbl[225] @ 3600
    1008 000000e2 0001          .bits           0x1,16
    1009                                      ; _OSUnMapTbl[226] @ 3616
    1010 000000e3 0000          .bits           0,16
    1011                                      ; _OSUnMapTbl[227] @ 3632
    1012 000000e4 0002          .bits           0x2,16
    1013                                      ; _OSUnMapTbl[228] @ 3648
    1014 000000e5 0000          .bits           0,16
    1015                                      ; _OSUnMapTbl[229] @ 3664
    1016 000000e6 0001          .bits           0x1,16
    1017                                      ; _OSUnMapTbl[230] @ 3680
    1018 000000e7 0000          .bits           0,16
    1019                                      ; _OSUnMapTbl[231] @ 3696
    1020 000000e8 0003          .bits           0x3,16
    1021                                      ; _OSUnMapTbl[232] @ 3712
    1022 000000e9 0000          .bits           0,16
    1023                                      ; _OSUnMapTbl[233] @ 3728
    1024 000000ea 0001          .bits           0x1,16
    1025                                      ; _OSUnMapTbl[234] @ 3744
    1026 000000eb 0000          .bits           0,16
    1027                                      ; _OSUnMapTbl[235] @ 3760
    1028 000000ec 0002          .bits           0x2,16
    1029                                      ; _OSUnMapTbl[236] @ 3776
    1030 000000ed 0000          .bits           0,16
    1031                                      ; _OSUnMapTbl[237] @ 3792
    1032 000000ee 0001          .bits           0x1,16
    1033                                      ; _OSUnMapTbl[238] @ 3808
    1034 000000ef 0000          .bits           0,16
    1035                                      ; _OSUnMapTbl[239] @ 3824
    1036 000000f0 0004          .bits           0x4,16
    1037                                      ; _OSUnMapTbl[240] @ 3840
    1038 000000f1 0000          .bits           0,16
    1039                                      ; _OSUnMapTbl[241] @ 3856
    1040 000000f2 0001          .bits           0x1,16
    1041                                      ; _OSUnMapTbl[242] @ 3872
    1042 000000f3 0000          .bits           0,16
    1043                                      ; _OSUnMapTbl[243] @ 3888
    1044 000000f4 0002          .bits           0x2,16
    1045                                      ; _OSUnMapTbl[244] @ 3904
TMS320C2000 Assembler PC v20.2.1 Tue Feb 16 00:15:57 2021

Copyright (c) 1996-2018 Texas Instruments Incorporated
os_core.asm                                                          PAGE   20

    1046 000000f5 0000          .bits           0,16
    1047                                      ; _OSUnMapTbl[245] @ 3920
    1048 000000f6 0001          .bits           0x1,16
    1049                                      ; _OSUnMapTbl[246] @ 3936
    1050 000000f7 0000          .bits           0,16
    1051                                      ; _OSUnMapTbl[247] @ 3952
    1052 000000f8 0003          .bits           0x3,16
    1053                                      ; _OSUnMapTbl[248] @ 3968
    1054 000000f9 0000          .bits           0,16
    1055                                      ; _OSUnMapTbl[249] @ 3984
    1056 000000fa 0001          .bits           0x1,16
    1057                                      ; _OSUnMapTbl[250] @ 4000
    1058 000000fb 0000          .bits           0,16
    1059                                      ; _OSUnMapTbl[251] @ 4016
    1060 000000fc 0002          .bits           0x2,16
    1061                                      ; _OSUnMapTbl[252] @ 4032
    1062 000000fd 0000          .bits           0,16
    1063                                      ; _OSUnMapTbl[253] @ 4048
    1064 000000fe 0001          .bits           0x1,16
    1065                                      ; _OSUnMapTbl[254] @ 4064
    1066 000000ff 0000          .bits           0,16
    1067                                      ; _OSUnMapTbl[255] @ 4080
    1068              
    1069              $C$DW$77        .dwtag  DW_TAG_variable
    1070                      .dwattr $C$DW$77, DW_AT_name("OSUnMapTbl")
    1071                      .dwattr $C$DW$77, DW_AT_TI_symbol_name("_OSUnMapTbl")
    1072                      .dwattr $C$DW$77, DW_AT_location[DW_OP_addr _OSUnMapTbl]
    1073                      .dwattr $C$DW$77, DW_AT_type(*$C$DW$T$72)
    1074                      .dwattr $C$DW$77, DW_AT_external
    1075              
    1076                      .global _OSTCBTbl
    1077 00000000       _OSTCBTbl:      .usect  ".ebss:_OSTCBTbl",1056,1,1
    1078                      .clink ".ebss:_OSTCBTbl"
    1079              $C$DW$78        .dwtag  DW_TAG_variable
    1080                      .dwattr $C$DW$78, DW_AT_name("OSTCBTbl")
    1081                      .dwattr $C$DW$78, DW_AT_TI_symbol_name("_OSTCBTbl")
    1082                      .dwattr $C$DW$78, DW_AT_location[DW_OP_addr _OSTCBTbl]
    1083                      .dwattr $C$DW$78, DW_AT_type(*$C$DW$T$112)
    1084                      .dwattr $C$DW$78, DW_AT_external
    1085              
    1086                      .sblock ".ebss"
    1087                      .sblock ".ebss:_OSEventTbl"
    1088                      .sblock ".ebss:_OSFlagTbl"
    1089                      .sblock ".ebss:_OSMemTbl"
    1090                      .sblock ".ebss:_OSQTbl"
    1091                      .sblock ".ebss:_OSRdyTbl"
    1092                      .sblock ".ebss:_OSTCBPrioTbl"
    1093                      .sblock ".ebss:_OSTCBTbl"
    1094                      .sblock ".ebss:_OSTaskIdleStk"
    1095                      .sblock ".ebss:_OSTaskStatStk"
    1096              ;       C:\ti\ccs1011\ccs\tools\compiler\ti-cgt-c2000_20.2.1.LTS\bin\ac2000.exe -@C:\\Users\\LEEKEO~1\\AppDat
    1097 00000000               .sect   ".text"
    1098                      .clink
    1099                      .global _OSEventNameGet
    1100              
TMS320C2000 Assembler PC v20.2.1 Tue Feb 16 00:15:57 2021

Copyright (c) 1996-2018 Texas Instruments Incorporated
os_core.asm                                                          PAGE   21

    1101              $C$DW$79        .dwtag  DW_TAG_subprogram
    1102                      .dwattr $C$DW$79, DW_AT_name("OSEventNameGet")
    1103                      .dwattr $C$DW$79, DW_AT_low_pc(_OSEventNameGet)
    1104                      .dwattr $C$DW$79, DW_AT_high_pc(0x00)
    1105                      .dwattr $C$DW$79, DW_AT_TI_symbol_name("_OSEventNameGet")
    1106                      .dwattr $C$DW$79, DW_AT_external
    1107                      .dwattr $C$DW$79, DW_AT_type(*$C$DW$T$19)
    1108                      .dwattr $C$DW$79, DW_AT_TI_begin_file("C:/ti/Workspace/PLC_certificate/Software/uCOS-II/Source/os_cor
    1109                      .dwattr $C$DW$79, DW_AT_TI_begin_line(0x6e)
    1110                      .dwattr $C$DW$79, DW_AT_TI_begin_column(0x08)
    1111                      .dwattr $C$DW$79, DW_AT_TI_max_frame_size(-8)
    1112                      .dwpsn  file "C:/ti/Workspace/PLC_certificate/Software/uCOS-II/Source/os_core.c",line 113,column 1,is
    1113              
    1114                      .dwfde $C$DW$CIE, _OSEventNameGet
    1115              $C$DW$80        .dwtag  DW_TAG_formal_parameter
    1116                      .dwattr $C$DW$80, DW_AT_name("pevent")
    1117                      .dwattr $C$DW$80, DW_AT_TI_symbol_name("_pevent")
    1118                      .dwattr $C$DW$80, DW_AT_type(*$C$DW$T$38)
    1119                      .dwattr $C$DW$80, DW_AT_location[DW_OP_reg12]
    1120              
    1121              $C$DW$81        .dwtag  DW_TAG_formal_parameter
    1122                      .dwattr $C$DW$81, DW_AT_name("pname")
    1123                      .dwattr $C$DW$81, DW_AT_TI_symbol_name("_pname")
    1124                      .dwattr $C$DW$81, DW_AT_type(*$C$DW$T$77)
    1125                      .dwattr $C$DW$81, DW_AT_location[DW_OP_reg14]
    1126              
    1127              $C$DW$82        .dwtag  DW_TAG_formal_parameter
    1128                      .dwattr $C$DW$82, DW_AT_name("perr")
    1129                      .dwattr $C$DW$82, DW_AT_TI_symbol_name("_perr")
    1130                      .dwattr $C$DW$82, DW_AT_type(*$C$DW$T$23)
    1131                      .dwattr $C$DW$82, DW_AT_location[DW_OP_breg20 -10]
    1132              
    1133              
    1134              ;***************************************************************
    1135              ;* FNAME: _OSEventNameGet               FR SIZE:   6           *
    1136              ;*                                                             *
    1137              ;* FUNCTION ENVIRONMENT                                        *
    1138              ;*                                                             *
    1139              ;* FUNCTION PROPERTIES                                         *
    1140              ;*                            0 Parameter,  6 Auto,  0 SOE     *
    1141              ;***************************************************************
    1142              
    1143 00000000       _OSEventNameGet:
    1144                      .dwcfi  cfa_offset, -2
    1145                      .dwcfi  save_reg_to_mem, 26, 0
    1146 00000000 FE06          ADDB      SP,#6                 ; [CPU_ARAU] 
    1147                      .dwcfi  cfa_offset, -8
    1148              $C$DW$83        .dwtag  DW_TAG_variable
    1149                      .dwattr $C$DW$83, DW_AT_name("pevent")
    1150                      .dwattr $C$DW$83, DW_AT_TI_symbol_name("_pevent")
    1151                      .dwattr $C$DW$83, DW_AT_type(*$C$DW$T$38)
    1152                      .dwattr $C$DW$83, DW_AT_location[DW_OP_breg20 -2]
    1153              
    1154              $C$DW$84        .dwtag  DW_TAG_variable
    1155                      .dwattr $C$DW$84, DW_AT_name("pname")
TMS320C2000 Assembler PC v20.2.1 Tue Feb 16 00:15:57 2021

Copyright (c) 1996-2018 Texas Instruments Incorporated
os_core.asm                                                          PAGE   22

    1156                      .dwattr $C$DW$84, DW_AT_TI_symbol_name("_pname")
    1157                      .dwattr $C$DW$84, DW_AT_type(*$C$DW$T$77)
    1158                      .dwattr $C$DW$84, DW_AT_location[DW_OP_breg20 -4]
    1159              
    1160              $C$DW$85        .dwtag  DW_TAG_variable
    1161                      .dwattr $C$DW$85, DW_AT_name("len")
    1162                      .dwattr $C$DW$85, DW_AT_TI_symbol_name("_len")
    1163                      .dwattr $C$DW$85, DW_AT_type(*$C$DW$T$19)
    1164                      .dwattr $C$DW$85, DW_AT_location[DW_OP_breg20 -5]
    1165              
    1166              $C$DW$86        .dwtag  DW_TAG_variable
    1167                      .dwattr $C$DW$86, DW_AT_name("cpu_sr")
    1168                      .dwattr $C$DW$86, DW_AT_TI_symbol_name("_cpu_sr")
    1169                      .dwattr $C$DW$86, DW_AT_type(*$C$DW$T$44)
    1170                      .dwattr $C$DW$86, DW_AT_location[DW_OP_breg20 -6]
    1171              
    1172 00000001 A044          MOVL      *-SP[4],XAR5          ; [CPU_ALU] |113| 
    1173 00000002 A842          MOVL      *-SP[2],XAR4          ; [CPU_ALU] |113| 
    1174                      .dwpsn  file "C:/ti/Workspace/PLC_certificate/Software/uCOS-II/Source/os_core.c",line 116,column 23,i
    1175 00000003 2B46          MOV       *-SP[6],#0            ; [CPU_ALU] |116| 
    1176                      .dwpsn  file "C:/ti/Workspace/PLC_certificate/Software/uCOS-II/Source/os_core.c",line 129,column 5,is
    1177 00000004 0642          MOVL      ACC,*-SP[2]           ; [CPU_ALU] |129| 
    1178 00000005 6006          B         $C$L1,NEQ             ; [CPU_ALU] |129| 
    1179                      ; branchcc occurs ; [] |129| 
    1180                      .dwpsn  file "C:/ti/Workspace/PLC_certificate/Software/uCOS-II/Source/os_core.c",line 130,column 9,is
    1181 00000006 8A4A          MOVL      XAR4,*-SP[10]         ; [CPU_ALU] |130| 
    1182 00000007 56BF          MOVB      *+XAR4[0],#4,UNC      ; [CPU_ALU] |130| 
         00000008 04C4 
    1183                      .dwpsn  file "C:/ti/Workspace/PLC_certificate/Software/uCOS-II/Source/os_core.c",line 131,column 9,is
    1184 00000009 9A00          MOVB      AL,#0                 ; [CPU_ALU] |131| 
    1185 0000000a 6F33          B         $C$L6,UNC             ; [CPU_ALU] |131| 
    1186                      ; branch occurs ; [] |131| 
    1187 0000000b       $C$L1:    
    1188                      .dwpsn  file "C:/ti/Workspace/PLC_certificate/Software/uCOS-II/Source/os_core.c",line 133,column 5,is
    1189 0000000b 0644          MOVL      ACC,*-SP[4]           ; [CPU_ALU] |133| 
    1190 0000000c 6006          B         $C$L2,NEQ             ; [CPU_ALU] |133| 
    1191                      ; branchcc occurs ; [] |133| 
    1192                      .dwpsn  file "C:/ti/Workspace/PLC_certificate/Software/uCOS-II/Source/os_core.c",line 134,column 9,is
    1193 0000000d 8A4A          MOVL      XAR4,*-SP[10]         ; [CPU_ALU] |134| 
    1194 0000000e 56BF          MOVB      *+XAR4[0],#12,UNC     ; [CPU_ALU] |134| 
         0000000f 0CC4 
    1195                      .dwpsn  file "C:/ti/Workspace/PLC_certificate/Software/uCOS-II/Source/os_core.c",line 135,column 9,is
    1196 00000010 9A00          MOVB      AL,#0                 ; [CPU_ALU] |135| 
    1197 00000011 6F2C          B         $C$L6,UNC             ; [CPU_ALU] |135| 
    1198                      ; branch occurs ; [] |135| 
    1199 00000012       $C$L2:    
    1200                      .dwpsn  file "C:/ti/Workspace/PLC_certificate/Software/uCOS-II/Source/os_core.c",line 138,column 5,is
    1201 00000012 761F-         MOVW      DP,#_OSIntNesting     ; [CPU_ARAU] 
         00000013 0000 
    1202 00000014 9202-         MOV       AL,@_OSIntNesting     ; [CPU_ALU] |138| 
    1203 00000015 610B          B         $C$L4,EQ              ; [CPU_ALU] |138| 
    1204                      ; branchcc occurs ; [] |138| 
    1205                      .dwpsn  file "C:/ti/Workspace/PLC_certificate/Software/uCOS-II/Source/os_core.c",line 139,column 9,is
    1206 00000016 8A4A          MOVL      XAR4,*-SP[10]         ; [CPU_ALU] |139| 
    1207 00000017 56BF          MOVB      *+XAR4[0],#17,UNC     ; [CPU_ALU] |139| 
TMS320C2000 Assembler PC v20.2.1 Tue Feb 16 00:15:57 2021

Copyright (c) 1996-2018 Texas Instruments Incorporated
os_core.asm                                                          PAGE   23

         00000018 11C4 
    1208                      .dwpsn  file "C:/ti/Workspace/PLC_certificate/Software/uCOS-II/Source/os_core.c",line 140,column 9,is
    1209 00000019 9A00          MOVB      AL,#0                 ; [CPU_ALU] |140| 
    1210 0000001a 6F23          B         $C$L6,UNC             ; [CPU_ALU] |140| 
    1211                      ; branch occurs ; [] |140| 
    1212 0000001b       $C$L3:    
    1213                      .dwpsn  file "C:/ti/Workspace/PLC_certificate/Software/uCOS-II/Source/os_core.c",line 150,column 14,i
    1214 0000001b 8A4A          MOVL      XAR4,*-SP[10]         ; [CPU_ALU] |150| 
    1215 0000001c 56BF          MOVB      *+XAR4[0],#1,UNC      ; [CPU_ALU] |150| 
         0000001d 01C4 
    1216                      .dwpsn  file "C:/ti/Workspace/PLC_certificate/Software/uCOS-II/Source/os_core.c",line 151,column 14,i
    1217 0000001e 9A00          MOVB      AL,#0                 ; [CPU_ALU] |151| 
    1218 0000001f 6F1E          B         $C$L6,UNC             ; [CPU_ALU] |151| 
    1219                      ; branch occurs ; [] |151| 
    1220 00000020       $C$L4:    
    1221                      .dwpsn  file "C:/ti/Workspace/PLC_certificate/Software/uCOS-II/Source/os_core.c",line 142,column 5,is
    1222 00000020 92C4          MOV       AL,*+XAR4[0]          ; [CPU_ALU] |142| 
    1223 00000021 5201          CMPB      AL,#1                 ; [CPU_ALU] |142| 
    1224 00000022 6107          B         $C$L5,EQ              ; [CPU_ALU] |142| 
    1225                      ; branchcc occurs ; [] |142| 
    1226 00000023 5202          CMPB      AL,#2                 ; [CPU_ALU] |142| 
    1227 00000024 6105          B         $C$L5,EQ              ; [CPU_ALU] |142| 
    1228                      ; branchcc occurs ; [] |142| 
    1229 00000025 5203          CMPB      AL,#3                 ; [CPU_ALU] |142| 
    1230 00000026 6103          B         $C$L5,EQ              ; [CPU_ALU] |142| 
    1231                      ; branchcc occurs ; [] |142| 
    1232 00000027 5204          CMPB      AL,#4                 ; [CPU_ALU] |142| 
    1233 00000028 60F3          B         $C$L3,NEQ             ; [CPU_ALU] |142| 
    1234                      ; branchcc occurs ; [] |142| 
    1235 00000029       $C$L5:    
    1236                      .dwpsn  file "C:/ti/Workspace/PLC_certificate/Software/uCOS-II/Source/os_core.c",line 153,column 5,is
    1237              $C$DW$87        .dwtag  DW_TAG_TI_branch
    1238                      .dwattr $C$DW$87, DW_AT_low_pc(0x00)
    1239                      .dwattr $C$DW$87, DW_AT_name("_OS_CPU_SR_Save")
    1240                      .dwattr $C$DW$87, DW_AT_TI_call
    1241              
    1242 00000029 7640!         LCR       #_OS_CPU_SR_Save      ; [CPU_ALU] |153| 
         0000002a 0000 
    1243                      ; call occurs [#_OS_CPU_SR_Save] ; [] |153| 
    1244 0000002b 9646          MOV       *-SP[6],AL            ; [CPU_ALU] |153| 
    1245                      .dwpsn  file "C:/ti/Workspace/PLC_certificate/Software/uCOS-II/Source/os_core.c",line 154,column 5,is
    1246 0000002c 020E          MOVB      ACC,#14               ; [CPU_ALU] |154| 
    1247 0000002d 0742          ADDL      ACC,*-SP[2]           ; [CPU_ALU] |154| 
    1248 0000002e 8AA9          MOVL      XAR4,ACC              ; [CPU_ALU] |154| 
    1249 0000002f 06C4          MOVL      ACC,*+XAR4[0]         ; [CPU_ALU] |154| 
    1250 00000030 8A44          MOVL      XAR4,*-SP[4]          ; [CPU_ALU] |154| 
    1251 00000031 1EC4          MOVL      *+XAR4[0],ACC         ; [CPU_ALU] |154| 
    1252                      .dwpsn  file "C:/ti/Workspace/PLC_certificate/Software/uCOS-II/Source/os_core.c",line 155,column 5,is
    1253 00000032 8A44          MOVL      XAR4,*-SP[4]          ; [CPU_ALU] |155| 
    1254 00000033 8AC4          MOVL      XAR4,*+XAR4[0]        ; [CPU_ALU] |155| 
    1255              $C$DW$88        .dwtag  DW_TAG_TI_branch
    1256                      .dwattr $C$DW$88, DW_AT_low_pc(0x00)
    1257                      .dwattr $C$DW$88, DW_AT_name("_OS_StrLen")
    1258                      .dwattr $C$DW$88, DW_AT_TI_call
    1259              
TMS320C2000 Assembler PC v20.2.1 Tue Feb 16 00:15:57 2021

Copyright (c) 1996-2018 Texas Instruments Incorporated
os_core.asm                                                          PAGE   24

    1260 00000034 7640'         LCR       #_OS_StrLen           ; [CPU_ALU] |155| 
         00000035 0627 
    1261                      ; call occurs [#_OS_StrLen] ; [] |155| 
    1262 00000036 9645          MOV       *-SP[5],AL            ; [CPU_ALU] |155| 
    1263                      .dwpsn  file "C:/ti/Workspace/PLC_certificate/Software/uCOS-II/Source/os_core.c",line 156,column 5,is
    1264 00000037 9246          MOV       AL,*-SP[6]            ; [CPU_ALU] |156| 
    1265              $C$DW$89        .dwtag  DW_TAG_TI_branch
    1266                      .dwattr $C$DW$89, DW_AT_low_pc(0x00)
    1267                      .dwattr $C$DW$89, DW_AT_name("_OS_CPU_SR_Restore")
    1268                      .dwattr $C$DW$89, DW_AT_TI_call
    1269              
    1270 00000038 7640!         LCR       #_OS_CPU_SR_Restore   ; [CPU_ALU] |156| 
         00000039 0000 
    1271                      ; call occurs [#_OS_CPU_SR_Restore] ; [] |156| 
    1272                      .dwpsn  file "C:/ti/Workspace/PLC_certificate/Software/uCOS-II/Source/os_core.c",line 157,column 5,is
    1273 0000003a 8A4A          MOVL      XAR4,*-SP[10]         ; [CPU_ALU] |157| 
    1274 0000003b 2BC4          MOV       *+XAR4[0],#0          ; [CPU_ALU] |157| 
    1275                      .dwpsn  file "C:/ti/Workspace/PLC_certificate/Software/uCOS-II/Source/os_core.c",line 158,column 5,is
    1276 0000003c 9245          MOV       AL,*-SP[5]            ; [CPU_ALU] |158| 
    1277 0000003d       $C$L6:    
    1278                      .dwpsn  file "C:/ti/Workspace/PLC_certificate/Software/uCOS-II/Source/os_core.c",line 159,column 1,is
    1279 0000003d FE86          SUBB      SP,#6                 ; [CPU_ARAU] 
    1280                      .dwcfi  cfa_offset, -2
    1281              $C$DW$90        .dwtag  DW_TAG_TI_branch
    1282                      .dwattr $C$DW$90, DW_AT_low_pc(0x00)
    1283                      .dwattr $C$DW$90, DW_AT_TI_return
    1284              
    1285 0000003e 0006          LRETR     ; [CPU_ALU] 
    1286                      ; return occurs ; [] 
    1287                      .dwattr $C$DW$79, DW_AT_TI_end_file("C:/ti/Workspace/PLC_certificate/Software/uCOS-II/Source/os_core.
    1288                      .dwattr $C$DW$79, DW_AT_TI_end_line(0x9f)
    1289                      .dwattr $C$DW$79, DW_AT_TI_end_column(0x01)
    1290                      .dwendentry
    1291                      .dwendtag $C$DW$79
    1292              
    1293 0000003f               .sect   ".text"
    1294                      .clink
    1295                      .global _OSEventNameSet
    1296              
    1297              $C$DW$91        .dwtag  DW_TAG_subprogram
    1298                      .dwattr $C$DW$91, DW_AT_name("OSEventNameSet")
    1299                      .dwattr $C$DW$91, DW_AT_low_pc(_OSEventNameSet)
    1300                      .dwattr $C$DW$91, DW_AT_high_pc(0x00)
    1301                      .dwattr $C$DW$91, DW_AT_TI_symbol_name("_OSEventNameSet")
    1302                      .dwattr $C$DW$91, DW_AT_external
    1303                      .dwattr $C$DW$91, DW_AT_TI_begin_file("C:/ti/Workspace/PLC_certificate/Software/uCOS-II/Source/os_cor
    1304                      .dwattr $C$DW$91, DW_AT_TI_begin_line(0xbe)
    1305                      .dwattr $C$DW$91, DW_AT_TI_begin_column(0x07)
    1306                      .dwattr $C$DW$91, DW_AT_TI_max_frame_size(-8)
    1307                      .dwpsn  file "C:/ti/Workspace/PLC_certificate/Software/uCOS-II/Source/os_core.c",line 193,column 1,is
    1308              
    1309                      .dwfde $C$DW$CIE, _OSEventNameSet
    1310              $C$DW$92        .dwtag  DW_TAG_formal_parameter
    1311                      .dwattr $C$DW$92, DW_AT_name("pevent")
    1312                      .dwattr $C$DW$92, DW_AT_TI_symbol_name("_pevent")
TMS320C2000 Assembler PC v20.2.1 Tue Feb 16 00:15:57 2021

Copyright (c) 1996-2018 Texas Instruments Incorporated
os_core.asm                                                          PAGE   25

    1313                      .dwattr $C$DW$92, DW_AT_type(*$C$DW$T$38)
    1314                      .dwattr $C$DW$92, DW_AT_location[DW_OP_reg12]
    1315              
    1316              $C$DW$93        .dwtag  DW_TAG_formal_parameter
    1317                      .dwattr $C$DW$93, DW_AT_name("pname")
    1318                      .dwattr $C$DW$93, DW_AT_TI_symbol_name("_pname")
    1319                      .dwattr $C$DW$93, DW_AT_type(*$C$DW$T$23)
    1320                      .dwattr $C$DW$93, DW_AT_location[DW_OP_reg14]
    1321              
    1322              $C$DW$94        .dwtag  DW_TAG_formal_parameter
    1323                      .dwattr $C$DW$94, DW_AT_name("perr")
    1324                      .dwattr $C$DW$94, DW_AT_TI_symbol_name("_perr")
    1325                      .dwattr $C$DW$94, DW_AT_type(*$C$DW$T$23)
    1326                      .dwattr $C$DW$94, DW_AT_location[DW_OP_breg20 -10]
    1327              
    1328              
    1329              ;***************************************************************
    1330              ;* FNAME: _OSEventNameSet               FR SIZE:   6           *
    1331              ;*                                                             *
    1332              ;* FUNCTION ENVIRONMENT                                        *
    1333              ;*                                                             *
    1334              ;* FUNCTION PROPERTIES                                         *
    1335              ;*                            0 Parameter,  5 Auto,  0 SOE     *
    1336              ;***************************************************************
    1337              
    1338 0000003f       _OSEventNameSet:
    1339                      .dwcfi  cfa_offset, -2
    1340                      .dwcfi  save_reg_to_mem, 26, 0
    1341 0000003f FE06          ADDB      SP,#6                 ; [CPU_ARAU] 
    1342                      .dwcfi  cfa_offset, -8
    1343              $C$DW$95        .dwtag  DW_TAG_variable
    1344                      .dwattr $C$DW$95, DW_AT_name("pevent")
    1345                      .dwattr $C$DW$95, DW_AT_TI_symbol_name("_pevent")
    1346                      .dwattr $C$DW$95, DW_AT_type(*$C$DW$T$38)
    1347                      .dwattr $C$DW$95, DW_AT_location[DW_OP_breg20 -2]
    1348              
    1349              $C$DW$96        .dwtag  DW_TAG_variable
    1350                      .dwattr $C$DW$96, DW_AT_name("pname")
    1351                      .dwattr $C$DW$96, DW_AT_TI_symbol_name("_pname")
    1352                      .dwattr $C$DW$96, DW_AT_type(*$C$DW$T$23)
    1353                      .dwattr $C$DW$96, DW_AT_location[DW_OP_breg20 -4]
    1354              
    1355              $C$DW$97        .dwtag  DW_TAG_variable
    1356                      .dwattr $C$DW$97, DW_AT_name("cpu_sr")
    1357                      .dwattr $C$DW$97, DW_AT_TI_symbol_name("_cpu_sr")
    1358                      .dwattr $C$DW$97, DW_AT_type(*$C$DW$T$44)
    1359                      .dwattr $C$DW$97, DW_AT_location[DW_OP_breg20 -5]
    1360              
    1361 00000040 A044          MOVL      *-SP[4],XAR5          ; [CPU_ALU] |193| 
    1362 00000041 A842          MOVL      *-SP[2],XAR4          ; [CPU_ALU] |193| 
    1363                      .dwpsn  file "C:/ti/Workspace/PLC_certificate/Software/uCOS-II/Source/os_core.c",line 195,column 23,i
    1364 00000042 2B45          MOV       *-SP[5],#0            ; [CPU_ALU] |195| 
    1365                      .dwpsn  file "C:/ti/Workspace/PLC_certificate/Software/uCOS-II/Source/os_core.c",line 208,column 5,is
    1366 00000043 0642          MOVL      ACC,*-SP[2]           ; [CPU_ALU] |208| 
    1367 00000044 6005          B         $C$L7,NEQ             ; [CPU_ALU] |208| 
TMS320C2000 Assembler PC v20.2.1 Tue Feb 16 00:15:57 2021

Copyright (c) 1996-2018 Texas Instruments Incorporated
os_core.asm                                                          PAGE   26

    1368                      ; branchcc occurs ; [] |208| 
    1369                      .dwpsn  file "C:/ti/Workspace/PLC_certificate/Software/uCOS-II/Source/os_core.c",line 209,column 9,is
    1370 00000045 8A4A          MOVL      XAR4,*-SP[10]         ; [CPU_ALU] |209| 
    1371 00000046 56BF          MOVB      *+XAR4[0],#4,UNC      ; [CPU_ALU] |209| 
         00000047 04C4 
    1372                      .dwpsn  file "C:/ti/Workspace/PLC_certificate/Software/uCOS-II/Source/os_core.c",line 210,column 9,is
    1373 00000048 6F29          B         $C$L12,UNC            ; [CPU_ALU] |210| 
    1374                      ; branch occurs ; [] |210| 
    1375 00000049       $C$L7:    
    1376                      .dwpsn  file "C:/ti/Workspace/PLC_certificate/Software/uCOS-II/Source/os_core.c",line 212,column 5,is
    1377 00000049 0644          MOVL      ACC,*-SP[4]           ; [CPU_ALU] |212| 
    1378 0000004a 6005          B         $C$L8,NEQ             ; [CPU_ALU] |212| 
    1379                      ; branchcc occurs ; [] |212| 
    1380                      .dwpsn  file "C:/ti/Workspace/PLC_certificate/Software/uCOS-II/Source/os_core.c",line 213,column 9,is
    1381 0000004b 8A4A          MOVL      XAR4,*-SP[10]         ; [CPU_ALU] |213| 
    1382 0000004c 56BF          MOVB      *+XAR4[0],#12,UNC     ; [CPU_ALU] |213| 
         0000004d 0CC4 
    1383                      .dwpsn  file "C:/ti/Workspace/PLC_certificate/Software/uCOS-II/Source/os_core.c",line 214,column 9,is
    1384 0000004e 6F23          B         $C$L12,UNC            ; [CPU_ALU] |214| 
    1385                      ; branch occurs ; [] |214| 
    1386 0000004f       $C$L8:    
    1387                      .dwpsn  file "C:/ti/Workspace/PLC_certificate/Software/uCOS-II/Source/os_core.c",line 217,column 5,is
    1388 0000004f 761F-         MOVW      DP,#_OSIntNesting     ; [CPU_ARAU] 
         00000050 0000 
    1389 00000051 9202-         MOV       AL,@_OSIntNesting     ; [CPU_ALU] |217| 
    1390 00000052 6109          B         $C$L10,EQ             ; [CPU_ALU] |217| 
    1391                      ; branchcc occurs ; [] |217| 
    1392                      .dwpsn  file "C:/ti/Workspace/PLC_certificate/Software/uCOS-II/Source/os_core.c",line 218,column 9,is
    1393 00000053 8A4A          MOVL      XAR4,*-SP[10]         ; [CPU_ALU] |218| 
    1394 00000054 56BF          MOVB      *+XAR4[0],#18,UNC     ; [CPU_ALU] |218| 
         00000055 12C4 
    1395                      .dwpsn  file "C:/ti/Workspace/PLC_certificate/Software/uCOS-II/Source/os_core.c",line 219,column 9,is
    1396 00000056 6F1B          B         $C$L12,UNC            ; [CPU_ALU] |219| 
    1397                      ; branch occurs ; [] |219| 
    1398 00000057       $C$L9:    
    1399                      .dwpsn  file "C:/ti/Workspace/PLC_certificate/Software/uCOS-II/Source/os_core.c",line 229,column 14,i
    1400 00000057 8A4A          MOVL      XAR4,*-SP[10]         ; [CPU_ALU] |229| 
    1401 00000058 56BF          MOVB      *+XAR4[0],#1,UNC      ; [CPU_ALU] |229| 
         00000059 01C4 
    1402                      .dwpsn  file "C:/ti/Workspace/PLC_certificate/Software/uCOS-II/Source/os_core.c",line 230,column 14,i
    1403 0000005a 6F17          B         $C$L12,UNC            ; [CPU_ALU] |230| 
    1404                      ; branch occurs ; [] |230| 
    1405 0000005b       $C$L10:    
    1406                      .dwpsn  file "C:/ti/Workspace/PLC_certificate/Software/uCOS-II/Source/os_core.c",line 221,column 5,is
    1407 0000005b 92C4          MOV       AL,*+XAR4[0]          ; [CPU_ALU] |221| 
    1408 0000005c 5201          CMPB      AL,#1                 ; [CPU_ALU] |221| 
    1409 0000005d 6107          B         $C$L11,EQ             ; [CPU_ALU] |221| 
    1410                      ; branchcc occurs ; [] |221| 
    1411 0000005e 5202          CMPB      AL,#2                 ; [CPU_ALU] |221| 
    1412 0000005f 6105          B         $C$L11,EQ             ; [CPU_ALU] |221| 
    1413                      ; branchcc occurs ; [] |221| 
    1414 00000060 5203          CMPB      AL,#3                 ; [CPU_ALU] |221| 
    1415 00000061 6103          B         $C$L11,EQ             ; [CPU_ALU] |221| 
    1416                      ; branchcc occurs ; [] |221| 
    1417 00000062 5204          CMPB      AL,#4                 ; [CPU_ALU] |221| 
TMS320C2000 Assembler PC v20.2.1 Tue Feb 16 00:15:57 2021

Copyright (c) 1996-2018 Texas Instruments Incorporated
os_core.asm                                                          PAGE   27

    1418 00000063 60F4          B         $C$L9,NEQ             ; [CPU_ALU] |221| 
    1419                      ; branchcc occurs ; [] |221| 
    1420 00000064       $C$L11:    
    1421                      .dwpsn  file "C:/ti/Workspace/PLC_certificate/Software/uCOS-II/Source/os_core.c",line 232,column 5,is
    1422              $C$DW$98        .dwtag  DW_TAG_TI_branch
    1423                      .dwattr $C$DW$98, DW_AT_low_pc(0x00)
    1424                      .dwattr $C$DW$98, DW_AT_name("_OS_CPU_SR_Save")
    1425                      .dwattr $C$DW$98, DW_AT_TI_call
    1426              
    1427 00000064 7640!         LCR       #_OS_CPU_SR_Save      ; [CPU_ALU] |232| 
         00000065 0000 
    1428                      ; call occurs [#_OS_CPU_SR_Save] ; [] |232| 
    1429 00000066 9645          MOV       *-SP[5],AL            ; [CPU_ALU] |232| 
    1430                      .dwpsn  file "C:/ti/Workspace/PLC_certificate/Software/uCOS-II/Source/os_core.c",line 233,column 5,is
    1431 00000067 C444          MOVL      XAR6,*-SP[4]          ; [CPU_ALU] |233| 
    1432 00000068 020E          MOVB      ACC,#14               ; [CPU_ALU] |233| 
    1433 00000069 0742          ADDL      ACC,*-SP[2]           ; [CPU_ALU] |233| 
    1434 0000006a 8AA9          MOVL      XAR4,ACC              ; [CPU_ALU] |233| 
    1435 0000006b C2C4          MOVL      *+XAR4[0],XAR6        ; [CPU_ALU] |233| 
    1436                      .dwpsn  file "C:/ti/Workspace/PLC_certificate/Software/uCOS-II/Source/os_core.c",line 234,column 5,is
    1437 0000006c 9245          MOV       AL,*-SP[5]            ; [CPU_ALU] |234| 
    1438              $C$DW$99        .dwtag  DW_TAG_TI_branch
    1439                      .dwattr $C$DW$99, DW_AT_low_pc(0x00)
    1440                      .dwattr $C$DW$99, DW_AT_name("_OS_CPU_SR_Restore")
    1441                      .dwattr $C$DW$99, DW_AT_TI_call
    1442              
    1443 0000006d 7640!         LCR       #_OS_CPU_SR_Restore   ; [CPU_ALU] |234| 
         0000006e 0000 
    1444                      ; call occurs [#_OS_CPU_SR_Restore] ; [] |234| 
    1445                      .dwpsn  file "C:/ti/Workspace/PLC_certificate/Software/uCOS-II/Source/os_core.c",line 235,column 5,is
    1446 0000006f 8A4A          MOVL      XAR4,*-SP[10]         ; [CPU_ALU] |235| 
    1447 00000070 2BC4          MOV       *+XAR4[0],#0          ; [CPU_ALU] |235| 
    1448                      .dwpsn  file "C:/ti/Workspace/PLC_certificate/Software/uCOS-II/Source/os_core.c",line 236,column 1,is
    1449 00000071       $C$L12:    
    1450 00000071 FE86          SUBB      SP,#6                 ; [CPU_ARAU] 
    1451                      .dwcfi  cfa_offset, -2
    1452              $C$DW$100       .dwtag  DW_TAG_TI_branch
    1453                      .dwattr $C$DW$100, DW_AT_low_pc(0x00)
    1454                      .dwattr $C$DW$100, DW_AT_TI_return
    1455              
    1456 00000072 0006          LRETR     ; [CPU_ALU] 
    1457                      ; return occurs ; [] 
    1458                      .dwattr $C$DW$91, DW_AT_TI_end_file("C:/ti/Workspace/PLC_certificate/Software/uCOS-II/Source/os_core.
    1459                      .dwattr $C$DW$91, DW_AT_TI_end_line(0xec)
    1460                      .dwattr $C$DW$91, DW_AT_TI_end_column(0x01)
    1461                      .dwendentry
    1462                      .dwendtag $C$DW$91
    1463              
    1464 00000073               .sect   ".text"
    1465                      .clink
    1466                      .global _OSEventPendMulti
    1467              
    1468              $C$DW$101       .dwtag  DW_TAG_subprogram
    1469                      .dwattr $C$DW$101, DW_AT_name("OSEventPendMulti")
    1470                      .dwattr $C$DW$101, DW_AT_low_pc(_OSEventPendMulti)
TMS320C2000 Assembler PC v20.2.1 Tue Feb 16 00:15:57 2021

Copyright (c) 1996-2018 Texas Instruments Incorporated
os_core.asm                                                          PAGE   28

    1471                      .dwattr $C$DW$101, DW_AT_high_pc(0x00)
    1472                      .dwattr $C$DW$101, DW_AT_TI_symbol_name("_OSEventPendMulti")
    1473                      .dwattr $C$DW$101, DW_AT_external
    1474                      .dwattr $C$DW$101, DW_AT_type(*$C$DW$T$20)
    1475                      .dwattr $C$DW$101, DW_AT_TI_begin_file("C:/ti/Workspace/PLC_certificate/Software/uCOS-II/Source/os_co
    1476                      .dwattr $C$DW$101, DW_AT_TI_begin_line(0x138)
    1477                      .dwattr $C$DW$101, DW_AT_TI_begin_column(0x09)
    1478                      .dwattr $C$DW$101, DW_AT_TI_max_frame_size(-18)
    1479                      .dwpsn  file "C:/ti/Workspace/PLC_certificate/Software/uCOS-II/Source/os_core.c",line 317,column 1,is
    1480              
    1481                      .dwfde $C$DW$CIE, _OSEventPendMulti
    1482              $C$DW$102       .dwtag  DW_TAG_formal_parameter
    1483                      .dwattr $C$DW$102, DW_AT_name("pevents_pend")
    1484                      .dwattr $C$DW$102, DW_AT_TI_symbol_name("_pevents_pend")
    1485                      .dwattr $C$DW$102, DW_AT_type(*$C$DW$T$39)
    1486                      .dwattr $C$DW$102, DW_AT_location[DW_OP_reg12]
    1487              
    1488              $C$DW$103       .dwtag  DW_TAG_formal_parameter
    1489                      .dwattr $C$DW$103, DW_AT_name("pevents_rdy")
    1490                      .dwattr $C$DW$103, DW_AT_TI_symbol_name("_pevents_rdy")
    1491                      .dwattr $C$DW$103, DW_AT_type(*$C$DW$T$39)
    1492                      .dwattr $C$DW$103, DW_AT_location[DW_OP_reg14]
    1493              
    1494              $C$DW$104       .dwtag  DW_TAG_formal_parameter
    1495                      .dwattr $C$DW$104, DW_AT_name("pmsgs_rdy")
    1496                      .dwattr $C$DW$104, DW_AT_TI_symbol_name("_pmsgs_rdy")
    1497                      .dwattr $C$DW$104, DW_AT_type(*$C$DW$T$31)
    1498                      .dwattr $C$DW$104, DW_AT_location[DW_OP_breg20 -20]
    1499              
    1500              $C$DW$105       .dwtag  DW_TAG_formal_parameter
    1501                      .dwattr $C$DW$105, DW_AT_name("timeout")
    1502                      .dwattr $C$DW$105, DW_AT_TI_symbol_name("_timeout")
    1503                      .dwattr $C$DW$105, DW_AT_type(*$C$DW$T$28)
    1504                      .dwattr $C$DW$105, DW_AT_location[DW_OP_reg0]
    1505              
    1506              $C$DW$106       .dwtag  DW_TAG_formal_parameter
    1507                      .dwattr $C$DW$106, DW_AT_name("perr")
    1508                      .dwattr $C$DW$106, DW_AT_TI_symbol_name("_perr")
    1509                      .dwattr $C$DW$106, DW_AT_type(*$C$DW$T$23)
    1510                      .dwattr $C$DW$106, DW_AT_location[DW_OP_breg20 -22]
    1511              
    1512              
    1513              ;***************************************************************
    1514              ;* FNAME: _OSEventPendMulti             FR SIZE:  16           *
    1515              ;*                                                             *
    1516              ;* FUNCTION ENVIRONMENT                                        *
    1517              ;*                                                             *
    1518              ;* FUNCTION PROPERTIES                                         *
    1519              ;*                            0 Parameter, 16 Auto,  0 SOE     *
    1520              ;***************************************************************
    1521              
    1522 00000073       _OSEventPendMulti:
    1523                      .dwcfi  cfa_offset, -2
    1524                      .dwcfi  save_reg_to_mem, 26, 0
    1525 00000073 FE10          ADDB      SP,#16                ; [CPU_ARAU] 
TMS320C2000 Assembler PC v20.2.1 Tue Feb 16 00:15:57 2021

Copyright (c) 1996-2018 Texas Instruments Incorporated
os_core.asm                                                          PAGE   29

    1526                      .dwcfi  cfa_offset, -18
    1527              $C$DW$107       .dwtag  DW_TAG_variable
    1528                      .dwattr $C$DW$107, DW_AT_name("pevents_pend")
    1529                      .dwattr $C$DW$107, DW_AT_TI_symbol_name("_pevents_pend")
    1530                      .dwattr $C$DW$107, DW_AT_type(*$C$DW$T$39)
    1531                      .dwattr $C$DW$107, DW_AT_location[DW_OP_breg20 -2]
    1532              
    1533              $C$DW$108       .dwtag  DW_TAG_variable
    1534                      .dwattr $C$DW$108, DW_AT_name("pevents_rdy")
    1535                      .dwattr $C$DW$108, DW_AT_TI_symbol_name("_pevents_rdy")
    1536                      .dwattr $C$DW$108, DW_AT_type(*$C$DW$T$39)
    1537                      .dwattr $C$DW$108, DW_AT_location[DW_OP_breg20 -4]
    1538              
    1539              $C$DW$109       .dwtag  DW_TAG_variable
    1540                      .dwattr $C$DW$109, DW_AT_name("timeout")
    1541                      .dwattr $C$DW$109, DW_AT_TI_symbol_name("_timeout")
    1542                      .dwattr $C$DW$109, DW_AT_type(*$C$DW$T$28)
    1543                      .dwattr $C$DW$109, DW_AT_location[DW_OP_breg20 -6]
    1544              
    1545              $C$DW$110       .dwtag  DW_TAG_variable
    1546                      .dwattr $C$DW$110, DW_AT_name("pevents")
    1547                      .dwattr $C$DW$110, DW_AT_TI_symbol_name("_pevents")
    1548                      .dwattr $C$DW$110, DW_AT_type(*$C$DW$T$39)
    1549                      .dwattr $C$DW$110, DW_AT_location[DW_OP_breg20 -8]
    1550              
    1551              $C$DW$111       .dwtag  DW_TAG_variable
    1552                      .dwattr $C$DW$111, DW_AT_name("pevent")
    1553                      .dwattr $C$DW$111, DW_AT_TI_symbol_name("_pevent")
    1554                      .dwattr $C$DW$111, DW_AT_type(*$C$DW$T$38)
    1555                      .dwattr $C$DW$111, DW_AT_location[DW_OP_breg20 -10]
    1556              
    1557              $C$DW$112       .dwtag  DW_TAG_variable
    1558                      .dwattr $C$DW$112, DW_AT_name("pq")
    1559                      .dwattr $C$DW$112, DW_AT_TI_symbol_name("_pq")
    1560                      .dwattr $C$DW$112, DW_AT_type(*$C$DW$T$108)
    1561                      .dwattr $C$DW$112, DW_AT_location[DW_OP_breg20 -12]
    1562              
    1563              $C$DW$113       .dwtag  DW_TAG_variable
    1564                      .dwattr $C$DW$113, DW_AT_name("events_rdy")
    1565                      .dwattr $C$DW$113, DW_AT_TI_symbol_name("_events_rdy")
    1566                      .dwattr $C$DW$113, DW_AT_type(*$C$DW$T$70)
    1567                      .dwattr $C$DW$113, DW_AT_location[DW_OP_breg20 -13]
    1568              
    1569              $C$DW$114       .dwtag  DW_TAG_variable
    1570                      .dwattr $C$DW$114, DW_AT_name("events_rdy_nbr")
    1571                      .dwattr $C$DW$114, DW_AT_TI_symbol_name("_events_rdy_nbr")
    1572                      .dwattr $C$DW$114, DW_AT_type(*$C$DW$T$20)
    1573                      .dwattr $C$DW$114, DW_AT_location[DW_OP_breg20 -14]
    1574              
    1575              $C$DW$115       .dwtag  DW_TAG_variable
    1576                      .dwattr $C$DW$115, DW_AT_name("events_stat")
    1577                      .dwattr $C$DW$115, DW_AT_TI_symbol_name("_events_stat")
    1578                      .dwattr $C$DW$115, DW_AT_type(*$C$DW$T$19)
    1579                      .dwattr $C$DW$115, DW_AT_location[DW_OP_breg20 -15]
    1580              
TMS320C2000 Assembler PC v20.2.1 Tue Feb 16 00:15:57 2021

Copyright (c) 1996-2018 Texas Instruments Incorporated
os_core.asm                                                          PAGE   30

    1581              $C$DW$116       .dwtag  DW_TAG_variable
    1582                      .dwattr $C$DW$116, DW_AT_name("cpu_sr")
    1583                      .dwattr $C$DW$116, DW_AT_TI_symbol_name("_cpu_sr")
    1584                      .dwattr $C$DW$116, DW_AT_type(*$C$DW$T$44)
    1585                      .dwattr $C$DW$116, DW_AT_location[DW_OP_breg20 -16]
    1586              
    1587 00000074 1E46          MOVL      *-SP[6],ACC           ; [CPU_ALU] |317| 
    1588 00000075 A044          MOVL      *-SP[4],XAR5          ; [CPU_ALU] |317| 
    1589 00000076 A842          MOVL      *-SP[2],XAR4          ; [CPU_ALU] |317| 
    1590                      .dwpsn  file "C:/ti/Workspace/PLC_certificate/Software/uCOS-II/Source/os_core.c",line 327,column 24,i
    1591 00000077 2B50          MOV       *-SP[16],#0           ; [CPU_ALU] |327| 
    1592                      .dwpsn  file "C:/ti/Workspace/PLC_certificate/Software/uCOS-II/Source/os_core.c",line 340,column 5,is
    1593 00000078 0642          MOVL      ACC,*-SP[2]           ; [CPU_ALU] |340| 
    1594 00000079 6007          B         $C$L13,NEQ            ; [CPU_ALU] |340| 
    1595                      ; branchcc occurs ; [] |340| 
    1596                      .dwpsn  file "C:/ti/Workspace/PLC_certificate/Software/uCOS-II/Source/os_core.c",line 341,column 8,is
    1597 0000007a 8A56          MOVL      XAR4,*-SP[22]         ; [CPU_ALU] |341| 
    1598 0000007b 56BF          MOVB      *+XAR4[0],#4,UNC      ; [CPU_ALU] |341| 
         0000007c 04C4 
    1599                      .dwpsn  file "C:/ti/Workspace/PLC_certificate/Software/uCOS-II/Source/os_core.c",line 342,column 9,is
    1600 0000007d 9A00          MOVB      AL,#0                 ; [CPU_ALU] |342| 
    1601 0000007e FFEF          B         $C$L51,UNC            ; [CPU_ALU] |342| 
         0000007f 01AD 
    1602                      ; branch occurs ; [] |342| 
    1603 00000080       $C$L13:    
    1604                      .dwpsn  file "C:/ti/Workspace/PLC_certificate/Software/uCOS-II/Source/os_core.c",line 344,column 5,is
    1605 00000080 06C4          MOVL      ACC,*+XAR4[0]         ; [CPU_ALU] |344| 
    1606 00000081 6007          B         $C$L14,NEQ            ; [CPU_ALU] |344| 
    1607                      ; branchcc occurs ; [] |344| 
    1608                      .dwpsn  file "C:/ti/Workspace/PLC_certificate/Software/uCOS-II/Source/os_core.c",line 345,column 8,is
    1609 00000082 8A56          MOVL      XAR4,*-SP[22]         ; [CPU_ALU] |345| 
    1610 00000083 56BF          MOVB      *+XAR4[0],#4,UNC      ; [CPU_ALU] |345| 
         00000084 04C4 
    1611                      .dwpsn  file "C:/ti/Workspace/PLC_certificate/Software/uCOS-II/Source/os_core.c",line 346,column 9,is
    1612 00000085 9A00          MOVB      AL,#0                 ; [CPU_ALU] |346| 
    1613 00000086 FFEF          B         $C$L51,UNC            ; [CPU_ALU] |346| 
         00000087 01A5 
    1614                      ; branch occurs ; [] |346| 
    1615 00000088       $C$L14:    
    1616                      .dwpsn  file "C:/ti/Workspace/PLC_certificate/Software/uCOS-II/Source/os_core.c",line 348,column 5,is
    1617 00000088 0644          MOVL      ACC,*-SP[4]           ; [CPU_ALU] |348| 
    1618 00000089 6007          B         $C$L15,NEQ            ; [CPU_ALU] |348| 
    1619                      ; branchcc occurs ; [] |348| 
    1620                      .dwpsn  file "C:/ti/Workspace/PLC_certificate/Software/uCOS-II/Source/os_core.c",line 349,column 8,is
    1621 0000008a 8A56          MOVL      XAR4,*-SP[22]         ; [CPU_ALU] |349| 
    1622 0000008b 56BF          MOVB      *+XAR4[0],#4,UNC      ; [CPU_ALU] |349| 
         0000008c 04C4 
    1623                      .dwpsn  file "C:/ti/Workspace/PLC_certificate/Software/uCOS-II/Source/os_core.c",line 350,column 9,is
    1624 0000008d 9A00          MOVB      AL,#0                 ; [CPU_ALU] |350| 
    1625 0000008e FFEF          B         $C$L51,UNC            ; [CPU_ALU] |350| 
         0000008f 019D 
    1626                      ; branch occurs ; [] |350| 
    1627 00000090       $C$L15:    
    1628                      .dwpsn  file "C:/ti/Workspace/PLC_certificate/Software/uCOS-II/Source/os_core.c",line 352,column 5,is
    1629 00000090 0654          MOVL      ACC,*-SP[20]          ; [CPU_ALU] |352| 
TMS320C2000 Assembler PC v20.2.1 Tue Feb 16 00:15:57 2021

Copyright (c) 1996-2018 Texas Instruments Incorporated
os_core.asm                                                          PAGE   31

    1630 00000091 6007          B         $C$L16,NEQ            ; [CPU_ALU] |352| 
    1631                      ; branchcc occurs ; [] |352| 
    1632                      .dwpsn  file "C:/ti/Workspace/PLC_certificate/Software/uCOS-II/Source/os_core.c",line 353,column 8,is
    1633 00000092 8A56          MOVL      XAR4,*-SP[22]         ; [CPU_ALU] |353| 
    1634 00000093 56BF          MOVB      *+XAR4[0],#4,UNC      ; [CPU_ALU] |353| 
         00000094 04C4 
    1635                      .dwpsn  file "C:/ti/Workspace/PLC_certificate/Software/uCOS-II/Source/os_core.c",line 354,column 9,is
    1636 00000095 9A00          MOVB      AL,#0                 ; [CPU_ALU] |354| 
    1637 00000096 FFEF          B         $C$L51,UNC            ; [CPU_ALU] |354| 
         00000097 0195 
    1638                      ; branch occurs ; [] |354| 
    1639 00000098       $C$L16:    
    1640                      .dwpsn  file "C:/ti/Workspace/PLC_certificate/Software/uCOS-II/Source/os_core.c",line 358,column 4,is
    1641 00000098 8A44          MOVL      XAR4,*-SP[4]          ; [CPU_ALU] |358| 
    1642 00000099 0200          MOVB      ACC,#0                ; [CPU_ALU] |358| 
    1643 0000009a 1EC4          MOVL      *+XAR4[0],ACC         ; [CPU_ALU] |358| 
    1644                      .dwpsn  file "C:/ti/Workspace/PLC_certificate/Software/uCOS-II/Source/os_core.c",line 360,column 5,is
    1645 0000009b 0642          MOVL      ACC,*-SP[2]           ; [CPU_ALU] |360| 
    1646 0000009c 1E48          MOVL      *-SP[8],ACC           ; [CPU_ALU] |360| 
    1647                      .dwpsn  file "C:/ti/Workspace/PLC_certificate/Software/uCOS-II/Source/os_core.c",line 361,column 5,is
    1648 0000009d 8A48          MOVL      XAR4,*-SP[8]          ; [CPU_ALU] |361| 
    1649 0000009e 06C4          MOVL      ACC,*+XAR4[0]         ; [CPU_ALU] |361| 
    1650 0000009f 1E4A          MOVL      *-SP[10],ACC          ; [CPU_ALU] |361| 
    1651                      .dwpsn  file "C:/ti/Workspace/PLC_certificate/Software/uCOS-II/Source/os_core.c",line 362,column 13,i
    1652 000000a0 064A          MOVL      ACC,*-SP[10]          ; [CPU_ALU] |362| 
    1653 000000a1 6120          B         $C$L21,EQ             ; [CPU_ALU] |362| 
    1654                      ; branchcc occurs ; [] |362| 
    1655                      .dwpsn  file "C:/ti/Workspace/PLC_certificate/Software/uCOS-II/Source/os_core.c",line 363,column 9,is
    1656 000000a2 6F07          B         $C$L18,UNC            ; [CPU_ALU] |363| 
    1657                      ; branch occurs ; [] |363| 
    1658 000000a3       $C$L17:    
    1659                      .dwpsn  file "C:/ti/Workspace/PLC_certificate/Software/uCOS-II/Source/os_core.c",line 380,column 17,i
    1660 000000a3 8A56          MOVL      XAR4,*-SP[22]         ; [CPU_ALU] |380| 
    1661 000000a4 56BF          MOVB      *+XAR4[0],#1,UNC      ; [CPU_ALU] |380| 
         000000a5 01C4 
    1662                      .dwpsn  file "C:/ti/Workspace/PLC_certificate/Software/uCOS-II/Source/os_core.c",line 381,column 18,i
    1663 000000a6 9A00          MOVB      AL,#0                 ; [CPU_ALU] |381| 
    1664 000000a7 FFEF          B         $C$L51,UNC            ; [CPU_ALU] |381| 
         000000a8 0184 
    1665                      ; branch occurs ; [] |381| 
    1666 000000a9       $C$L18:    
    1667                      .dwpsn  file "C:/ti/Workspace/PLC_certificate/Software/uCOS-II/Source/os_core.c",line 363,column 9,is
    1668 000000a9 8A4A          MOVL      XAR4,*-SP[10]         ; [CPU_ALU] |363| 
    1669 000000aa 92C4          MOV       AL,*+XAR4[0]          ; [CPU_ALU] |363| 
    1670 000000ab 5203          CMPB      AL,#3                 ; [CPU_ALU] |363| 
    1671 000000ac 6208          B         $C$L19,GT             ; [CPU_ALU] |363| 
    1672                      ; branchcc occurs ; [] |363| 
    1673 000000ad 5203          CMPB      AL,#3                 ; [CPU_ALU] |363| 
    1674 000000ae 610B          B         $C$L20,EQ             ; [CPU_ALU] |363| 
    1675                      ; branchcc occurs ; [] |363| 
    1676 000000af 5201          CMPB      AL,#1                 ; [CPU_ALU] |363| 
    1677 000000b0 6109          B         $C$L20,EQ             ; [CPU_ALU] |363| 
    1678                      ; branchcc occurs ; [] |363| 
    1679 000000b1 5202          CMPB      AL,#2                 ; [CPU_ALU] |363| 
    1680 000000b2 6107          B         $C$L20,EQ             ; [CPU_ALU] |363| 
TMS320C2000 Assembler PC v20.2.1 Tue Feb 16 00:15:57 2021

Copyright (c) 1996-2018 Texas Instruments Incorporated
os_core.asm                                                          PAGE   32

    1681                      ; branchcc occurs ; [] |363| 
    1682 000000b3 6FF0          B         $C$L17,UNC            ; [CPU_ALU] |363| 
    1683                      ; branch occurs ; [] |363| 
    1684 000000b4       $C$L19:    
    1685 000000b4 5204          CMPB      AL,#4                 ; [CPU_ALU] |363| 
    1686 000000b5 61EE          B         $C$L17,EQ             ; [CPU_ALU] |363| 
    1687                      ; branchcc occurs ; [] |363| 
    1688 000000b6 5205          CMPB      AL,#5                 ; [CPU_ALU] |363| 
    1689 000000b7 61EC          B         $C$L17,EQ             ; [CPU_ALU] |363| 
    1690                      ; branchcc occurs ; [] |363| 
    1691 000000b8 6FEB          B         $C$L17,UNC            ; [CPU_ALU] |363| 
    1692                      ; branch occurs ; [] |363| 
    1693 000000b9       $C$L20:    
    1694                      .dwpsn  file "C:/ti/Workspace/PLC_certificate/Software/uCOS-II/Source/os_core.c",line 383,column 9,is
    1695 000000b9 0202          MOVB      ACC,#2                ; [CPU_ALU] |383| 
    1696 000000ba 0748          ADDL      ACC,*-SP[8]           ; [CPU_ALU] |383| 
    1697 000000bb 1E48          MOVL      *-SP[8],ACC           ; [CPU_ALU] |383| 
    1698                      .dwpsn  file "C:/ti/Workspace/PLC_certificate/Software/uCOS-II/Source/os_core.c",line 384,column 9,is
    1699 000000bc 8A48          MOVL      XAR4,*-SP[8]          ; [CPU_ALU] |384| 
    1700 000000bd 06C4          MOVL      ACC,*+XAR4[0]         ; [CPU_ALU] |384| 
    1701 000000be 1E4A          MOVL      *-SP[10],ACC          ; [CPU_ALU] |384| 
    1702                      .dwpsn  file "C:/ti/Workspace/PLC_certificate/Software/uCOS-II/Source/os_core.c",line 362,column 13,i
    1703 000000bf 064A          MOVL      ACC,*-SP[10]          ; [CPU_ALU] |362| 
    1704 000000c0 60E9          B         $C$L18,NEQ            ; [CPU_ALU] |362| 
    1705                      ; branchcc occurs ; [] |362| 
    1706 000000c1       $C$L21:    
    1707                      .dwpsn  file "C:/ti/Workspace/PLC_certificate/Software/uCOS-II/Source/os_core.c",line 387,column 5,is
    1708 000000c1 761F-         MOVW      DP,#_OSIntNesting     ; [CPU_ARAU] 
         000000c2 0000 
    1709 000000c3 9202-         MOV       AL,@_OSIntNesting     ; [CPU_ALU] |387| 
    1710 000000c4 6107          B         $C$L22,EQ             ; [CPU_ALU] |387| 
    1711                      ; branchcc occurs ; [] |387| 
    1712                      .dwpsn  file "C:/ti/Workspace/PLC_certificate/Software/uCOS-II/Source/os_core.c",line 388,column 8,is
    1713 000000c5 8A56          MOVL      XAR4,*-SP[22]         ; [CPU_ALU] |388| 
    1714 000000c6 56BF          MOVB      *+XAR4[0],#2,UNC      ; [CPU_ALU] |388| 
         000000c7 02C4 
    1715                      .dwpsn  file "C:/ti/Workspace/PLC_certificate/Software/uCOS-II/Source/os_core.c",line 389,column 9,is
    1716 000000c8 9A00          MOVB      AL,#0                 ; [CPU_ALU] |389| 
    1717 000000c9 FFEF          B         $C$L51,UNC            ; [CPU_ALU] |389| 
         000000ca 0162 
    1718                      ; branch occurs ; [] |389| 
    1719 000000cb       $C$L22:    
    1720                      .dwpsn  file "C:/ti/Workspace/PLC_certificate/Software/uCOS-II/Source/os_core.c",line 391,column 5,is
    1721 000000cb 9203-         MOV       AL,@_OSLockNesting    ; [CPU_ALU] |391| 
    1722 000000cc 6107          B         $C$L23,EQ             ; [CPU_ALU] |391| 
    1723                      ; branchcc occurs ; [] |391| 
    1724                      .dwpsn  file "C:/ti/Workspace/PLC_certificate/Software/uCOS-II/Source/os_core.c",line 392,column 8,is
    1725 000000cd 8A56          MOVL      XAR4,*-SP[22]         ; [CPU_ALU] |392| 
    1726 000000ce 56BF          MOVB      *+XAR4[0],#13,UNC     ; [CPU_ALU] |392| 
         000000cf 0DC4 
    1727                      .dwpsn  file "C:/ti/Workspace/PLC_certificate/Software/uCOS-II/Source/os_core.c",line 393,column 9,is
    1728 000000d0 9A00          MOVB      AL,#0                 ; [CPU_ALU] |393| 
    1729 000000d1 FFEF          B         $C$L51,UNC            ; [CPU_ALU] |393| 
         000000d2 015A 
    1730                      ; branch occurs ; [] |393| 
TMS320C2000 Assembler PC v20.2.1 Tue Feb 16 00:15:57 2021

Copyright (c) 1996-2018 Texas Instruments Incorporated
os_core.asm                                                          PAGE   33

    1731 000000d3       $C$L23:    
    1732                      .dwpsn  file "C:/ti/Workspace/PLC_certificate/Software/uCOS-II/Source/os_core.c",line 397,column 5,is
    1733 000000d3 2B4D          MOV       *-SP[13],#0           ; [CPU_ALU] |397| 
    1734                      .dwpsn  file "C:/ti/Workspace/PLC_certificate/Software/uCOS-II/Source/os_core.c",line 398,column 5,is
    1735 000000d4 2B4E          MOV       *-SP[14],#0           ; [CPU_ALU] |398| 
    1736                      .dwpsn  file "C:/ti/Workspace/PLC_certificate/Software/uCOS-II/Source/os_core.c",line 399,column 5,is
    1737 000000d5 2B4F          MOV       *-SP[15],#0           ; [CPU_ALU] |399| 
    1738                      .dwpsn  file "C:/ti/Workspace/PLC_certificate/Software/uCOS-II/Source/os_core.c",line 400,column 5,is
    1739 000000d6 0642          MOVL      ACC,*-SP[2]           ; [CPU_ALU] |400| 
    1740 000000d7 1E48          MOVL      *-SP[8],ACC           ; [CPU_ALU] |400| 
    1741                      .dwpsn  file "C:/ti/Workspace/PLC_certificate/Software/uCOS-II/Source/os_core.c",line 401,column 5,is
    1742 000000d8 8A48          MOVL      XAR4,*-SP[8]          ; [CPU_ALU] |401| 
    1743 000000d9 06C4          MOVL      ACC,*+XAR4[0]         ; [CPU_ALU] |401| 
    1744 000000da 1E4A          MOVL      *-SP[10],ACC          ; [CPU_ALU] |401| 
    1745                      .dwpsn  file "C:/ti/Workspace/PLC_certificate/Software/uCOS-II/Source/os_core.c",line 402,column 5,is
    1746              $C$DW$117       .dwtag  DW_TAG_TI_branch
    1747                      .dwattr $C$DW$117, DW_AT_low_pc(0x00)
    1748                      .dwattr $C$DW$117, DW_AT_name("_OS_CPU_SR_Save")
    1749                      .dwattr $C$DW$117, DW_AT_TI_call
    1750              
    1751 000000db 7640!         LCR       #_OS_CPU_SR_Save      ; [CPU_ALU] |402| 
         000000dc 0000 
    1752                      ; call occurs [#_OS_CPU_SR_Save] ; [] |402| 
    1753 000000dd 9650          MOV       *-SP[16],AL           ; [CPU_ALU] |402| 
    1754                      .dwpsn  file "C:/ti/Workspace/PLC_certificate/Software/uCOS-II/Source/os_core.c",line 403,column 12,i
    1755 000000de 064A          MOVL      ACC,*-SP[10]          ; [CPU_ALU] |403| 
    1756 000000df FFE1          B         $C$L35,EQ             ; [CPU_ALU] |403| 
         000000e0 008A 
    1757                      ; branchcc occurs ; [] |403| 
    1758                      .dwpsn  file "C:/ti/Workspace/PLC_certificate/Software/uCOS-II/Source/os_core.c",line 404,column 9,is
    1759 000000e1 6F70          B         $C$L32,UNC            ; [CPU_ALU] |404| 
    1760                      ; branch occurs ; [] |404| 
    1761 000000e2       $C$L24:    
    1762                      .dwpsn  file "C:/ti/Workspace/PLC_certificate/Software/uCOS-II/Source/os_core.c",line 407,column 18,i
    1763 000000e2 92E4          MOV       AL,*+XAR4[4]          ; [CPU_ALU] |407| 
    1764 000000e3 6112          B         $C$L25,EQ             ; [CPU_ALU] |407| 
    1765                      ; branchcc occurs ; [] |407| 
    1766                      .dwpsn  file "C:/ti/Workspace/PLC_certificate/Software/uCOS-II/Source/os_core.c",line 408,column 22,i
    1767 000000e4 0BE4          DEC       *+XAR4[4]             ; [CPU_ALU] |408| 
    1768                      .dwpsn  file "C:/ti/Workspace/PLC_certificate/Software/uCOS-II/Source/os_core.c",line 409,column 21,i
    1769 000000e5 8A44          MOVL      XAR4,*-SP[4]          ; [CPU_ALU] |409| 
    1770 000000e6 A8A9          MOVL      ACC,XAR4              ; [CPU_ALU] |409| 
    1771 000000e7 0902          ADDB      ACC,#2                ; [CPU_ALU] |409| 
    1772 000000e8 1E44          MOVL      *-SP[4],ACC           ; [CPU_ALU] |409| 
    1773 000000e9 064A          MOVL      ACC,*-SP[10]          ; [CPU_ALU] |409| 
    1774 000000ea 1EC4          MOVL      *+XAR4[0],ACC         ; [CPU_ALU] |409| 
    1775                      .dwpsn  file "C:/ti/Workspace/PLC_certificate/Software/uCOS-II/Source/os_core.c",line 410,column 23,i
    1776 000000eb 56BF          MOVB      *-SP[13],#1,UNC       ; [CPU_ALU] |410| 
         000000ec 014D 
    1777                      .dwpsn  file "C:/ti/Workspace/PLC_certificate/Software/uCOS-II/Source/os_core.c",line 411,column 21,i
    1778 000000ed 8A54          MOVL      XAR4,*-SP[20]         ; [CPU_ALU] |411| 
    1779 000000ee A8A9          MOVL      ACC,XAR4              ; [CPU_ALU] |411| 
    1780 000000ef 0902          ADDB      ACC,#2                ; [CPU_ALU] |411| 
    1781 000000f0 1E54          MOVL      *-SP[20],ACC          ; [CPU_ALU] |411| 
    1782 000000f1 0200          MOVB      ACC,#0                ; [CPU_ALU] |411| 
TMS320C2000 Assembler PC v20.2.1 Tue Feb 16 00:15:57 2021

Copyright (c) 1996-2018 Texas Instruments Incorporated
os_core.asm                                                          PAGE   34

    1783 000000f2 1EC4          MOVL      *+XAR4[0],ACC         ; [CPU_ALU] |411| 
    1784                      .dwpsn  file "C:/ti/Workspace/PLC_certificate/Software/uCOS-II/Source/os_core.c",line 412,column 23,i
    1785 000000f3 0A4E          INC       *-SP[14]              ; [CPU_ALU] |412| 
    1786 000000f4 6F6D          B         $C$L34,UNC            ; [CPU_ALU] 
    1787                      ; branch occurs ; [] 
    1788 000000f5       $C$L25:    
    1789                      .dwpsn  file "C:/ti/Workspace/PLC_certificate/Software/uCOS-II/Source/os_core.c",line 415,column 23,i
    1790 000000f5 1A4F          OR        *-SP[15],#0x0001      ; [CPU_ALU] |415| 
         000000f6 0001 
    1791                      .dwpsn  file "C:/ti/Workspace/PLC_certificate/Software/uCOS-II/Source/os_core.c",line 417,column 18,i
    1792 000000f7 6F6A          B         $C$L34,UNC            ; [CPU_ALU] |417| 
    1793                      ; branch occurs ; [] |417| 
    1794 000000f8       $C$L26:    
    1795                      .dwpsn  file "C:/ti/Workspace/PLC_certificate/Software/uCOS-II/Source/os_core.c",line 422,column 18,i
    1796 000000f8 06D4          MOVL      ACC,*+XAR4[2]         ; [CPU_ALU] |422| 
    1797 000000f9 6115          B         $C$L27,EQ             ; [CPU_ALU] |422| 
    1798                      ; branchcc occurs ; [] |422| 
    1799                      .dwpsn  file "C:/ti/Workspace/PLC_certificate/Software/uCOS-II/Source/os_core.c",line 424,column 21,i
    1800 000000fa 8A54          MOVL      XAR4,*-SP[20]         ; [CPU_ALU] |424| 
    1801 000000fb 834A          MOVL      XAR5,*-SP[10]         ; [CPU_ALU] |424| 
    1802 000000fc A8A9          MOVL      ACC,XAR4              ; [CPU_ALU] |424| 
    1803 000000fd 0902          ADDB      ACC,#2                ; [CPU_ALU] |424| 
    1804 000000fe 1E54          MOVL      *-SP[20],ACC          ; [CPU_ALU] |424| 
    1805 000000ff 06D5          MOVL      ACC,*+XAR5[2]         ; [CPU_ALU] |424| 
    1806 00000100 1EC4          MOVL      *+XAR4[0],ACC         ; [CPU_ALU] |424| 
    1807                      .dwpsn  file "C:/ti/Workspace/PLC_certificate/Software/uCOS-II/Source/os_core.c",line 425,column 22,i
    1808 00000101 8A4A          MOVL      XAR4,*-SP[10]         ; [CPU_ALU] |425| 
    1809 00000102 0200          MOVB      ACC,#0                ; [CPU_ALU] |425| 
    1810 00000103 1ED4          MOVL      *+XAR4[2],ACC         ; [CPU_ALU] |425| 
    1811                      .dwpsn  file "C:/ti/Workspace/PLC_certificate/Software/uCOS-II/Source/os_core.c",line 426,column 21,i
    1812 00000104 8A44          MOVL      XAR4,*-SP[4]          ; [CPU_ALU] |426| 
    1813 00000105 A8A9          MOVL      ACC,XAR4              ; [CPU_ALU] |426| 
    1814 00000106 0902          ADDB      ACC,#2                ; [CPU_ALU] |426| 
    1815 00000107 1E44          MOVL      *-SP[4],ACC           ; [CPU_ALU] |426| 
    1816 00000108 064A          MOVL      ACC,*-SP[10]          ; [CPU_ALU] |426| 
    1817 00000109 1EC4          MOVL      *+XAR4[0],ACC         ; [CPU_ALU] |426| 
    1818                      .dwpsn  file "C:/ti/Workspace/PLC_certificate/Software/uCOS-II/Source/os_core.c",line 427,column 23,i
    1819 0000010a 56BF          MOVB      *-SP[13],#1,UNC       ; [CPU_ALU] |427| 
         0000010b 014D 
    1820                      .dwpsn  file "C:/ti/Workspace/PLC_certificate/Software/uCOS-II/Source/os_core.c",line 428,column 23,i
    1821 0000010c 0A4E          INC       *-SP[14]              ; [CPU_ALU] |428| 
    1822 0000010d 6F54          B         $C$L34,UNC            ; [CPU_ALU] 
    1823                      ; branch occurs ; [] 
    1824 0000010e       $C$L27:    
    1825                      .dwpsn  file "C:/ti/Workspace/PLC_certificate/Software/uCOS-II/Source/os_core.c",line 431,column 23,i
    1826 0000010e 1A4F          OR        *-SP[15],#0x0002      ; [CPU_ALU] |431| 
         0000010f 0002 
    1827                      .dwpsn  file "C:/ti/Workspace/PLC_certificate/Software/uCOS-II/Source/os_core.c",line 433,column 18,i
    1828 00000110 6F51          B         $C$L34,UNC            ; [CPU_ALU] |433| 
    1829                      ; branch occurs ; [] |433| 
    1830 00000111       $C$L28:    
    1831                      .dwpsn  file "C:/ti/Workspace/PLC_certificate/Software/uCOS-II/Source/os_core.c",line 438,column 18,i
    1832 00000111 06D4          MOVL      ACC,*+XAR4[2]         ; [CPU_ALU] |438| 
    1833 00000112 1E4C          MOVL      *-SP[12],ACC          ; [CPU_ALU] |438| 
    1834                      .dwpsn  file "C:/ti/Workspace/PLC_certificate/Software/uCOS-II/Source/os_core.c",line 439,column 18,i
TMS320C2000 Assembler PC v20.2.1 Tue Feb 16 00:15:57 2021

Copyright (c) 1996-2018 Texas Instruments Incorporated
os_core.asm                                                          PAGE   35

    1835 00000113 020B          MOVB      ACC,#11               ; [CPU_ALU] |439| 
    1836 00000114 074C          ADDL      ACC,*-SP[12]          ; [CPU_ALU] |439| 
    1837 00000115 8AA9          MOVL      XAR4,ACC              ; [CPU_ALU] |439| 
    1838 00000116 92C4          MOV       AL,*+XAR4[0]          ; [CPU_ALU] |439| 
    1839 00000117 612B          B         $C$L30,EQ             ; [CPU_ALU] |439| 
    1840                      ; branchcc occurs ; [] |439| 
    1841                      .dwpsn  file "C:/ti/Workspace/PLC_certificate/Software/uCOS-II/Source/os_core.c",line 441,column 21,i
    1842 00000118 0208          MOVB      ACC,#8                ; [CPU_ALU] |441| 
    1843 00000119 074C          ADDL      ACC,*-SP[12]          ; [CPU_ALU] |441| 
    1844 0000011a 8AA9          MOVL      XAR4,ACC              ; [CPU_ALU] |441| 
    1845 0000011b 83C4          MOVL      XAR5,*+XAR4[0]        ; [CPU_ALU] |441| 
    1846 0000011c 0208          MOVB      ACC,#8                ; [CPU_ALU] |441| 
    1847 0000011d 074C          ADDL      ACC,*-SP[12]          ; [CPU_ALU] |441| 
    1848 0000011e 8AA9          MOVL      XAR4,ACC              ; [CPU_ALU] |441| 
    1849 0000011f C485          MOVL      XAR6,*XAR5++          ; [CPU_ALU] |441| 
    1850 00000120 A0C4          MOVL      *+XAR4[0],XAR5        ; [CPU_ALU] |441| 
    1851 00000121 8A54          MOVL      XAR4,*-SP[20]         ; [CPU_ALU] |441| 
    1852 00000122 A8A9          MOVL      ACC,XAR4              ; [CPU_ALU] |441| 
    1853 00000123 0902          ADDB      ACC,#2                ; [CPU_ALU] |441| 
    1854 00000124 1E54          MOVL      *-SP[20],ACC          ; [CPU_ALU] |441| 
    1855 00000125 C2C4          MOVL      *+XAR4[0],XAR6        ; [CPU_ALU] |441| 
    1856                      .dwpsn  file "C:/ti/Workspace/PLC_certificate/Software/uCOS-II/Source/os_core.c",line 442,column 22,i
    1857 00000126 8A4C          MOVL      XAR4,*-SP[12]         ; [CPU_ALU] |442| 
    1858 00000127 C4E4          MOVL      XAR6,*+XAR4[4]        ; [CPU_ALU] |442| 
    1859 00000128 0208          MOVB      ACC,#8                ; [CPU_ALU] |442| 
    1860 00000129 074C          ADDL      ACC,*-SP[12]          ; [CPU_ALU] |442| 
    1861 0000012a 8AA9          MOVL      XAR4,ACC              ; [CPU_ALU] |442| 
    1862 0000012b 06A6          MOVL      ACC,XAR6              ; [CPU_ALU] |442| 
    1863 0000012c 0FC4          CMPL      ACC,*+XAR4[0]         ; [CPU_ALU] |442| 
    1864 0000012d 6007          B         $C$L29,NEQ            ; [CPU_ALU] |442| 
    1865                      ; branchcc occurs ; [] |442| 
    1866                      .dwpsn  file "C:/ti/Workspace/PLC_certificate/Software/uCOS-II/Source/os_core.c",line 443,column 26,i
    1867 0000012e 8A4C          MOVL      XAR4,*-SP[12]         ; [CPU_ALU] |443| 
    1868 0000012f C4D4          MOVL      XAR6,*+XAR4[2]        ; [CPU_ALU] |443| 
    1869 00000130 0208          MOVB      ACC,#8                ; [CPU_ALU] |443| 
    1870 00000131 074C          ADDL      ACC,*-SP[12]          ; [CPU_ALU] |443| 
    1871 00000132 8AA9          MOVL      XAR4,ACC              ; [CPU_ALU] |443| 
    1872 00000133 C2C4          MOVL      *+XAR4[0],XAR6        ; [CPU_ALU] |443| 
    1873 00000134       $C$L29:    
    1874                      .dwpsn  file "C:/ti/Workspace/PLC_certificate/Software/uCOS-II/Source/os_core.c",line 445,column 22,i
    1875 00000134 020B          MOVB      ACC,#11               ; [CPU_ALU] |445| 
    1876 00000135 074C          ADDL      ACC,*-SP[12]          ; [CPU_ALU] |445| 
    1877 00000136 8AA9          MOVL      XAR4,ACC              ; [CPU_ALU] |445| 
    1878 00000137 0BC4          DEC       *+XAR4[0]             ; [CPU_ALU] |445| 
    1879                      .dwpsn  file "C:/ti/Workspace/PLC_certificate/Software/uCOS-II/Source/os_core.c",line 446,column 21,i
    1880 00000138 8A44          MOVL      XAR4,*-SP[4]          ; [CPU_ALU] |446| 
    1881 00000139 A8A9          MOVL      ACC,XAR4              ; [CPU_ALU] |446| 
    1882 0000013a 0902          ADDB      ACC,#2                ; [CPU_ALU] |446| 
    1883 0000013b 1E44          MOVL      *-SP[4],ACC           ; [CPU_ALU] |446| 
    1884 0000013c 064A          MOVL      ACC,*-SP[10]          ; [CPU_ALU] |446| 
    1885 0000013d 1EC4          MOVL      *+XAR4[0],ACC         ; [CPU_ALU] |446| 
    1886                      .dwpsn  file "C:/ti/Workspace/PLC_certificate/Software/uCOS-II/Source/os_core.c",line 447,column 23,i
    1887 0000013e 56BF          MOVB      *-SP[13],#1,UNC       ; [CPU_ALU] |447| 
         0000013f 014D 
    1888                      .dwpsn  file "C:/ti/Workspace/PLC_certificate/Software/uCOS-II/Source/os_core.c",line 448,column 23,i
TMS320C2000 Assembler PC v20.2.1 Tue Feb 16 00:15:57 2021

Copyright (c) 1996-2018 Texas Instruments Incorporated
os_core.asm                                                          PAGE   36

    1889 00000140 0A4E          INC       *-SP[14]              ; [CPU_ALU] |448| 
    1890 00000141 6F20          B         $C$L34,UNC            ; [CPU_ALU] 
    1891                      ; branch occurs ; [] 
    1892 00000142       $C$L30:    
    1893                      .dwpsn  file "C:/ti/Workspace/PLC_certificate/Software/uCOS-II/Source/os_core.c",line 451,column 23,i
    1894 00000142 1A4F          OR        *-SP[15],#0x0004      ; [CPU_ALU] |451| 
         00000143 0004 
    1895                      .dwpsn  file "C:/ti/Workspace/PLC_certificate/Software/uCOS-II/Source/os_core.c",line 453,column 18,i
    1896 00000144 6F1D          B         $C$L34,UNC            ; [CPU_ALU] |453| 
    1897                      ; branch occurs ; [] |453| 
    1898 00000145       $C$L31:    
    1899                      .dwpsn  file "C:/ti/Workspace/PLC_certificate/Software/uCOS-II/Source/os_core.c",line 459,column 18,i
    1900 00000145 9250          MOV       AL,*-SP[16]           ; [CPU_ALU] |459| 
    1901              $C$DW$118       .dwtag  DW_TAG_TI_branch
    1902                      .dwattr $C$DW$118, DW_AT_low_pc(0x00)
    1903                      .dwattr $C$DW$118, DW_AT_name("_OS_CPU_SR_Restore")
    1904                      .dwattr $C$DW$118, DW_AT_TI_call
    1905              
    1906 00000146 7640!         LCR       #_OS_CPU_SR_Restore   ; [CPU_ALU] |459| 
         00000147 0000 
    1907                      ; call occurs [#_OS_CPU_SR_Restore] ; [] |459| 
    1908                      .dwpsn  file "C:/ti/Workspace/PLC_certificate/Software/uCOS-II/Source/os_core.c",line 460,column 17,i
    1909 00000148 8A44          MOVL      XAR4,*-SP[4]          ; [CPU_ALU] |460| 
    1910 00000149 0200          MOVB      ACC,#0                ; [CPU_ALU] |460| 
    1911 0000014a 1EC4          MOVL      *+XAR4[0],ACC         ; [CPU_ALU] |460| 
    1912                      .dwpsn  file "C:/ti/Workspace/PLC_certificate/Software/uCOS-II/Source/os_core.c",line 461,column 17,i
    1913 0000014b 8A56          MOVL      XAR4,*-SP[22]         ; [CPU_ALU] |461| 
    1914 0000014c 56BF          MOVB      *+XAR4[0],#1,UNC      ; [CPU_ALU] |461| 
         0000014d 01C4 
    1915                      .dwpsn  file "C:/ti/Workspace/PLC_certificate/Software/uCOS-II/Source/os_core.c",line 462,column 18,i
    1916 0000014e 924E          MOV       AL,*-SP[14]           ; [CPU_ALU] |462| 
    1917 0000014f FFEF          B         $C$L51,UNC            ; [CPU_ALU] |462| 
         00000150 00DC 
    1918                      ; branch occurs ; [] |462| 
    1919 00000151       $C$L32:    
    1920                      .dwpsn  file "C:/ti/Workspace/PLC_certificate/Software/uCOS-II/Source/os_core.c",line 404,column 9,is
    1921 00000151 8A4A          MOVL      XAR4,*-SP[10]         ; [CPU_ALU] |404| 
    1922 00000152 92C4          MOV       AL,*+XAR4[0]          ; [CPU_ALU] |404| 
    1923 00000153 5203          CMPB      AL,#3                 ; [CPU_ALU] |404| 
    1924 00000154 6208          B         $C$L33,GT             ; [CPU_ALU] |404| 
    1925                      ; branchcc occurs ; [] |404| 
    1926 00000155 5203          CMPB      AL,#3                 ; [CPU_ALU] |404| 
    1927 00000156 618C          B         $C$L24,EQ             ; [CPU_ALU] |404| 
    1928                      ; branchcc occurs ; [] |404| 
    1929 00000157 5201          CMPB      AL,#1                 ; [CPU_ALU] |404| 
    1930 00000158 61A0          B         $C$L26,EQ             ; [CPU_ALU] |404| 
    1931                      ; branchcc occurs ; [] |404| 
    1932 00000159 5202          CMPB      AL,#2                 ; [CPU_ALU] |404| 
    1933 0000015a 61B7          B         $C$L28,EQ             ; [CPU_ALU] |404| 
    1934                      ; branchcc occurs ; [] |404| 
    1935 0000015b 6FEA          B         $C$L31,UNC            ; [CPU_ALU] |404| 
    1936                      ; branch occurs ; [] |404| 
    1937 0000015c       $C$L33:    
    1938 0000015c 5204          CMPB      AL,#4                 ; [CPU_ALU] |404| 
    1939 0000015d 61E8          B         $C$L31,EQ             ; [CPU_ALU] |404| 
TMS320C2000 Assembler PC v20.2.1 Tue Feb 16 00:15:57 2021

Copyright (c) 1996-2018 Texas Instruments Incorporated
os_core.asm                                                          PAGE   37

    1940                      ; branchcc occurs ; [] |404| 
    1941 0000015e 5205          CMPB      AL,#5                 ; [CPU_ALU] |404| 
    1942 0000015f 61E6          B         $C$L31,EQ             ; [CPU_ALU] |404| 
    1943                      ; branchcc occurs ; [] |404| 
    1944 00000160 6FE5          B         $C$L31,UNC            ; [CPU_ALU] |404| 
    1945                      ; branch occurs ; [] |404| 
    1946 00000161       $C$L34:    
    1947                      .dwpsn  file "C:/ti/Workspace/PLC_certificate/Software/uCOS-II/Source/os_core.c",line 464,column 9,is
    1948 00000161 0202          MOVB      ACC,#2                ; [CPU_ALU] |464| 
    1949 00000162 0748          ADDL      ACC,*-SP[8]           ; [CPU_ALU] |464| 
    1950 00000163 1E48          MOVL      *-SP[8],ACC           ; [CPU_ALU] |464| 
    1951                      .dwpsn  file "C:/ti/Workspace/PLC_certificate/Software/uCOS-II/Source/os_core.c",line 465,column 9,is
    1952 00000164 8A48          MOVL      XAR4,*-SP[8]          ; [CPU_ALU] |465| 
    1953 00000165 06C4          MOVL      ACC,*+XAR4[0]         ; [CPU_ALU] |465| 
    1954 00000166 1E4A          MOVL      *-SP[10],ACC          ; [CPU_ALU] |465| 
    1955                      .dwpsn  file "C:/ti/Workspace/PLC_certificate/Software/uCOS-II/Source/os_core.c",line 403,column 12,i
    1956 00000167 064A          MOVL      ACC,*-SP[10]          ; [CPU_ALU] |403| 
    1957 00000168 60E9          B         $C$L32,NEQ            ; [CPU_ALU] |403| 
    1958                      ; branchcc occurs ; [] |403| 
    1959 00000169       $C$L35:    
    1960                      .dwpsn  file "C:/ti/Workspace/PLC_certificate/Software/uCOS-II/Source/os_core.c",line 468,column 5,is
    1961 00000169 924D          MOV       AL,*-SP[13]           ; [CPU_ALU] |468| 
    1962 0000016a 5201          CMPB      AL,#1                 ; [CPU_ALU] |468| 
    1963 0000016b 600C          B         $C$L36,NEQ            ; [CPU_ALU] |468| 
    1964                      ; branchcc occurs ; [] |468| 
    1965                      .dwpsn  file "C:/ti/Workspace/PLC_certificate/Software/uCOS-II/Source/os_core.c",line 469,column 8,is
    1966 0000016c 8A44          MOVL      XAR4,*-SP[4]          ; [CPU_ALU] |469| 
    1967 0000016d 0200          MOVB      ACC,#0                ; [CPU_ALU] |469| 
    1968 0000016e 1EC4          MOVL      *+XAR4[0],ACC         ; [CPU_ALU] |469| 
    1969                      .dwpsn  file "C:/ti/Workspace/PLC_certificate/Software/uCOS-II/Source/os_core.c",line 470,column 9,is
    1970 0000016f 9250          MOV       AL,*-SP[16]           ; [CPU_ALU] |470| 
    1971              $C$DW$119       .dwtag  DW_TAG_TI_branch
    1972                      .dwattr $C$DW$119, DW_AT_low_pc(0x00)
    1973                      .dwattr $C$DW$119, DW_AT_name("_OS_CPU_SR_Restore")
    1974                      .dwattr $C$DW$119, DW_AT_TI_call
    1975              
    1976 00000170 7640!         LCR       #_OS_CPU_SR_Restore   ; [CPU_ALU] |470| 
         00000171 0000 
    1977                      ; call occurs [#_OS_CPU_SR_Restore] ; [] |470| 
    1978                      .dwpsn  file "C:/ti/Workspace/PLC_certificate/Software/uCOS-II/Source/os_core.c",line 471,column 8,is
    1979 00000172 8A56          MOVL      XAR4,*-SP[22]         ; [CPU_ALU] |471| 
    1980 00000173 2BC4          MOV       *+XAR4[0],#0          ; [CPU_ALU] |471| 
    1981                      .dwpsn  file "C:/ti/Workspace/PLC_certificate/Software/uCOS-II/Source/os_core.c",line 472,column 9,is
    1982 00000174 924E          MOV       AL,*-SP[14]           ; [CPU_ALU] |472| 
    1983 00000175 FFEF          B         $C$L51,UNC            ; [CPU_ALU] |472| 
         00000176 00B6 
    1984                      ; branch occurs ; [] |472| 
    1985 00000177       $C$L36:    
    1986                      .dwpsn  file "C:/ti/Workspace/PLC_certificate/Software/uCOS-II/Source/os_core.c",line 476,column 5,is
    1987 00000177 021A          MOVB      ACC,#26               ; [CPU_ALU] |476| 
    1988 00000178 761F-         MOVW      DP,#_OSTCBCur         ; [CPU_ARAU] 
         00000179 0000 
    1989 0000017a 0718-         ADDL      ACC,@_OSTCBCur        ; [CPU_ALU] |476| 
    1990 0000017b 8AA9          MOVL      XAR4,ACC              ; [CPU_ALU] |476| 
    1991 0000017c 924F          MOV       AL,*-SP[15]           ; [CPU_ALU] |476| 
TMS320C2000 Assembler PC v20.2.1 Tue Feb 16 00:15:57 2021

Copyright (c) 1996-2018 Texas Instruments Incorporated
os_core.asm                                                          PAGE   38

    1992 0000017d CAC4          OR        AL,*+XAR4[0]          ; [CPU_ALU] |476| 
    1993 0000017e 5080          ORB       AL,#0x80              ; [CPU_ALU] |476| 
    1994 0000017f 96C4          MOV       *+XAR4[0],AL          ; [CPU_ALU] |476| 
    1995                      .dwpsn  file "C:/ti/Workspace/PLC_certificate/Software/uCOS-II/Source/os_core.c",line 478,column 5,is
    1996 00000180 021B          MOVB      ACC,#27               ; [CPU_ALU] |478| 
    1997 00000181 0718-         ADDL      ACC,@_OSTCBCur        ; [CPU_ALU] |478| 
    1998 00000182 8AA9          MOVL      XAR4,ACC              ; [CPU_ALU] |478| 
    1999 00000183 2BC4          MOV       *+XAR4[0],#0          ; [CPU_ALU] |478| 
    2000                      .dwpsn  file "C:/ti/Workspace/PLC_certificate/Software/uCOS-II/Source/os_core.c",line 479,column 5,is
    2001 00000184 C446          MOVL      XAR6,*-SP[6]          ; [CPU_ALU] |479| 
    2002 00000185 0218          MOVB      ACC,#24               ; [CPU_ALU] |479| 
    2003 00000186 0718-         ADDL      ACC,@_OSTCBCur        ; [CPU_ALU] |479| 
    2004 00000187 8AA9          MOVL      XAR4,ACC              ; [CPU_ALU] |479| 
    2005 00000188 C2C4          MOVL      *+XAR4[0],XAR6        ; [CPU_ALU] |479| 
    2006                      .dwpsn  file "C:/ti/Workspace/PLC_certificate/Software/uCOS-II/Source/os_core.c",line 480,column 5,is
    2007 00000189 8A42          MOVL      XAR4,*-SP[2]          ; [CPU_ALU] |480| 
    2008              $C$DW$120       .dwtag  DW_TAG_TI_branch
    2009                      .dwattr $C$DW$120, DW_AT_low_pc(0x00)
    2010                      .dwattr $C$DW$120, DW_AT_name("_OS_EventTaskWaitMulti")
    2011                      .dwattr $C$DW$120, DW_AT_TI_call
    2012              
    2013 0000018a 7640'         LCR       #_OS_EventTaskWaitMulti ; [CPU_ALU] |480| 
         0000018b 0416 
    2014                      ; call occurs [#_OS_EventTaskWaitMulti] ; [] |480| 
    2015                      .dwpsn  file "C:/ti/Workspace/PLC_certificate/Software/uCOS-II/Source/os_core.c",line 482,column 5,is
    2016 0000018c 9250          MOV       AL,*-SP[16]           ; [CPU_ALU] |482| 
    2017              $C$DW$121       .dwtag  DW_TAG_TI_branch
    2018                      .dwattr $C$DW$121, DW_AT_low_pc(0x00)
    2019                      .dwattr $C$DW$121, DW_AT_name("_OS_CPU_SR_Restore")
    2020                      .dwattr $C$DW$121, DW_AT_TI_call
    2021              
    2022 0000018d 7640!         LCR       #_OS_CPU_SR_Restore   ; [CPU_ALU] |482| 
         0000018e 0000 
    2023                      ; call occurs [#_OS_CPU_SR_Restore] ; [] |482| 
    2024                      .dwpsn  file "C:/ti/Workspace/PLC_certificate/Software/uCOS-II/Source/os_core.c",line 483,column 5,is
    2025              $C$DW$122       .dwtag  DW_TAG_TI_branch
    2026                      .dwattr $C$DW$122, DW_AT_low_pc(0x00)
    2027                      .dwattr $C$DW$122, DW_AT_name("_OS_Sched")
    2028                      .dwattr $C$DW$122, DW_AT_TI_call
    2029              
    2030 0000018f 7640'         LCR       #_OS_Sched            ; [CPU_ALU] |483| 
         00000190 05E8 
    2031                      ; call occurs [#_OS_Sched] ; [] |483| 
    2032                      .dwpsn  file "C:/ti/Workspace/PLC_certificate/Software/uCOS-II/Source/os_core.c",line 484,column 5,is
    2033              $C$DW$123       .dwtag  DW_TAG_TI_branch
    2034                      .dwattr $C$DW$123, DW_AT_low_pc(0x00)
    2035                      .dwattr $C$DW$123, DW_AT_name("_OS_CPU_SR_Save")
    2036                      .dwattr $C$DW$123, DW_AT_TI_call
    2037              
    2038 00000191 7640!         LCR       #_OS_CPU_SR_Save      ; [CPU_ALU] |484| 
         00000192 0000 
    2039                      ; call occurs [#_OS_CPU_SR_Save] ; [] |484| 
    2040 00000193 9650          MOV       *-SP[16],AL           ; [CPU_ALU] |484| 
    2041                      .dwpsn  file "C:/ti/Workspace/PLC_certificate/Software/uCOS-II/Source/os_core.c",line 486,column 5,is
    2042 00000194 6F23          B         $C$L40,UNC            ; [CPU_ALU] |486| 
TMS320C2000 Assembler PC v20.2.1 Tue Feb 16 00:15:57 2021

Copyright (c) 1996-2018 Texas Instruments Incorporated
os_core.asm                                                          PAGE   39

    2043                      ; branch occurs ; [] |486| 
    2044 00000195       $C$L37:    
    2045                      .dwpsn  file "C:/ti/Workspace/PLC_certificate/Software/uCOS-II/Source/os_core.c",line 489,column 14,i
    2046 00000195 020E          MOVB      ACC,#14               ; [CPU_ALU] |489| 
    2047 00000196 0718-         ADDL      ACC,@_OSTCBCur        ; [CPU_ALU] |489| 
    2048 00000197 8AA9          MOVL      XAR4,ACC              ; [CPU_ALU] |489| 
    2049 00000198 06C4          MOVL      ACC,*+XAR4[0]         ; [CPU_ALU] |489| 
    2050 00000199 1E4A          MOVL      *-SP[10],ACC          ; [CPU_ALU] |489| 
    2051                      .dwpsn  file "C:/ti/Workspace/PLC_certificate/Software/uCOS-II/Source/os_core.c",line 490,column 14,i
    2052 0000019a 064A          MOVL      ACC,*-SP[10]          ; [CPU_ALU] |490| 
    2053 0000019b 610D          B         $C$L38,EQ             ; [CPU_ALU] |490| 
    2054                      ; branchcc occurs ; [] |490| 
    2055                      .dwpsn  file "C:/ti/Workspace/PLC_certificate/Software/uCOS-II/Source/os_core.c",line 491,column 17,i
    2056 0000019c 8A44          MOVL      XAR4,*-SP[4]          ; [CPU_ALU] |491| 
    2057 0000019d A8A9          MOVL      ACC,XAR4              ; [CPU_ALU] |491| 
    2058 0000019e 0902          ADDB      ACC,#2                ; [CPU_ALU] |491| 
    2059 0000019f 1E44          MOVL      *-SP[4],ACC           ; [CPU_ALU] |491| 
    2060 000001a0 064A          MOVL      ACC,*-SP[10]          ; [CPU_ALU] |491| 
    2061 000001a1 1EC4          MOVL      *+XAR4[0],ACC         ; [CPU_ALU] |491| 
    2062                      .dwpsn  file "C:/ti/Workspace/PLC_certificate/Software/uCOS-II/Source/os_core.c",line 492,column 17,i
    2063 000001a2 8A44          MOVL      XAR4,*-SP[4]          ; [CPU_ALU] |492| 
    2064 000001a3 0200          MOVB      ACC,#0                ; [CPU_ALU] |492| 
    2065 000001a4 1EC4          MOVL      *+XAR4[0],ACC         ; [CPU_ALU] |492| 
    2066                      .dwpsn  file "C:/ti/Workspace/PLC_certificate/Software/uCOS-II/Source/os_core.c",line 493,column 19,i
    2067 000001a5 56BF          MOVB      *-SP[14],#1,UNC       ; [CPU_ALU] |493| 
         000001a6 014E 
    2068 000001a7 6F5F          B         $C$L49,UNC            ; [CPU_ALU] 
    2069                      ; branch occurs ; [] 
    2070 000001a8       $C$L38:    
    2071                      .dwpsn  file "C:/ti/Workspace/PLC_certificate/Software/uCOS-II/Source/os_core.c",line 496,column 18,i
    2072 000001a8 021B          MOVB      ACC,#27               ; [CPU_ALU] |496| 
    2073 000001a9 0718-         ADDL      ACC,@_OSTCBCur        ; [CPU_ALU] |496| 
    2074 000001aa 8AA9          MOVL      XAR4,ACC              ; [CPU_ALU] |496| 
    2075 000001ab 56BF          MOVB      *+XAR4[0],#1,UNC      ; [CPU_ALU] |496| 
         000001ac 01C4 
    2076                      .dwpsn  file "C:/ti/Workspace/PLC_certificate/Software/uCOS-II/Source/os_core.c",line 497,column 18,i
    2077 000001ad 8342          MOVL      XAR5,*-SP[2]          ; [CPU_ALU] |497| 
    2078 000001ae 8A18-         MOVL      XAR4,@_OSTCBCur       ; [CPU_ALU] |497| 
    2079              $C$DW$124       .dwtag  DW_TAG_TI_branch
    2080                      .dwattr $C$DW$124, DW_AT_low_pc(0x00)
    2081                      .dwattr $C$DW$124, DW_AT_name("_OS_EventTaskRemoveMulti")
    2082                      .dwattr $C$DW$124, DW_AT_TI_call
    2083              
    2084 000001af 7640'         LCR       #_OS_EventTaskRemoveMulti ; [CPU_ALU] |497| 
         000001b0 0488 
    2085                      ; call occurs [#_OS_EventTaskRemoveMulti] ; [] |497| 
    2086                      .dwpsn  file "C:/ti/Workspace/PLC_certificate/Software/uCOS-II/Source/os_core.c",line 499,column 14,i
    2087 000001b1 6F55          B         $C$L49,UNC            ; [CPU_ALU] |499| 
    2088                      ; branch occurs ; [] |499| 
    2089 000001b2       $C$L39:    
    2090                      .dwpsn  file "C:/ti/Workspace/PLC_certificate/Software/uCOS-II/Source/os_core.c",line 503,column 14,i
    2091 000001b2 8A18-         MOVL      XAR4,@_OSTCBCur       ; [CPU_ALU] |503| 
    2092 000001b3 8342          MOVL      XAR5,*-SP[2]          ; [CPU_ALU] |503| 
    2093              $C$DW$125       .dwtag  DW_TAG_TI_branch
    2094                      .dwattr $C$DW$125, DW_AT_low_pc(0x00)
TMS320C2000 Assembler PC v20.2.1 Tue Feb 16 00:15:57 2021

Copyright (c) 1996-2018 Texas Instruments Incorporated
os_core.asm                                                          PAGE   40

    2095                      .dwattr $C$DW$125, DW_AT_name("_OS_EventTaskRemoveMulti")
    2096                      .dwattr $C$DW$125, DW_AT_TI_call
    2097              
    2098 000001b4 7640'         LCR       #_OS_EventTaskRemoveMulti ; [CPU_ALU] |503| 
         000001b5 0488 
    2099                      ; call occurs [#_OS_EventTaskRemoveMulti] ; [] |503| 
    2100                      .dwpsn  file "C:/ti/Workspace/PLC_certificate/Software/uCOS-II/Source/os_core.c",line 504,column 14,i
    2101 000001b6 6F50          B         $C$L49,UNC            ; [CPU_ALU] |504| 
    2102                      ; branch occurs ; [] |504| 
    2103 000001b7       $C$L40:    
    2104                      .dwpsn  file "C:/ti/Workspace/PLC_certificate/Software/uCOS-II/Source/os_core.c",line 486,column 5,is
    2105 000001b7 021B          MOVB      ACC,#27               ; [CPU_ALU] |486| 
    2106 000001b8 761F-         MOVW      DP,#_OSTCBCur         ; [CPU_ARAU] 
         000001b9 0000 
    2107 000001ba 0718-         ADDL      ACC,@_OSTCBCur        ; [CPU_ALU] |486| 
    2108 000001bb 8AA9          MOVL      XAR4,ACC              ; [CPU_ALU] |486| 
    2109 000001bc 92C4          MOV       AL,*+XAR4[0]          ; [CPU_ALU] |486| 
    2110 000001bd 61D8          B         $C$L37,EQ             ; [CPU_ALU] |486| 
    2111                      ; branchcc occurs ; [] |486| 
    2112 000001be 5201          CMPB      AL,#1                 ; [CPU_ALU] |486| 
    2113 000001bf 61F3          B         $C$L39,EQ             ; [CPU_ALU] |486| 
    2114                      ; branchcc occurs ; [] |486| 
    2115 000001c0 5202          CMPB      AL,#2                 ; [CPU_ALU] |486| 
    2116 000001c1 61D4          B         $C$L37,EQ             ; [CPU_ALU] |486| 
    2117                      ; branchcc occurs ; [] |486| 
    2118 000001c2 6FF0          B         $C$L39,UNC            ; [CPU_ALU] |486| 
    2119                      ; branch occurs ; [] |486| 
    2120 000001c3       $C$L41:    
    2121                      .dwpsn  file "C:/ti/Workspace/PLC_certificate/Software/uCOS-II/Source/os_core.c",line 512,column 22,i
    2122 000001c3 8A54          MOVL      XAR4,*-SP[20]         ; [CPU_ALU] |512| 
    2123 000001c4 A8A9          MOVL      ACC,XAR4              ; [CPU_ALU] |512| 
    2124 000001c5 0902          ADDB      ACC,#2                ; [CPU_ALU] |512| 
    2125 000001c6 1E54          MOVL      *-SP[20],ACC          ; [CPU_ALU] |512| 
    2126 000001c7 0200          MOVB      ACC,#0                ; [CPU_ALU] |512| 
    2127 000001c8 1EC4          MOVL      *+XAR4[0],ACC         ; [CPU_ALU] |512| 
    2128                      .dwpsn  file "C:/ti/Workspace/PLC_certificate/Software/uCOS-II/Source/os_core.c",line 513,column 23,i
    2129 000001c9 6F26          B         $C$L46,UNC            ; [CPU_ALU] |513| 
    2130                      ; branch occurs ; [] |513| 
    2131 000001ca       $C$L42:    
    2132                      .dwpsn  file "C:/ti/Workspace/PLC_certificate/Software/uCOS-II/Source/os_core.c",line 520,column 22,i
    2133 000001ca 8354          MOVL      XAR5,*-SP[20]         ; [CPU_ALU] |520| 
    2134 000001cb A0A9          MOVL      ACC,XAR5              ; [CPU_ALU] |520| 
    2135 000001cc 0902          ADDB      ACC,#2                ; [CPU_ALU] |520| 
    2136 000001cd 1E54          MOVL      *-SP[20],ACC          ; [CPU_ALU] |520| 
    2137 000001ce 0212          MOVB      ACC,#18               ; [CPU_ALU] |520| 
    2138 000001cf 0718-         ADDL      ACC,@_OSTCBCur        ; [CPU_ALU] |520| 
    2139 000001d0 8AA9          MOVL      XAR4,ACC              ; [CPU_ALU] |520| 
    2140 000001d1 06C4          MOVL      ACC,*+XAR4[0]         ; [CPU_ALU] |520| 
    2141 000001d2 1EC5          MOVL      *+XAR5[0],ACC         ; [CPU_ALU] |520| 
    2142                      .dwpsn  file "C:/ti/Workspace/PLC_certificate/Software/uCOS-II/Source/os_core.c",line 521,column 23,i
    2143 000001d3 6F1C          B         $C$L46,UNC            ; [CPU_ALU] |521| 
    2144                      ; branch occurs ; [] |521| 
    2145 000001d4       $C$L43:    
    2146                      .dwpsn  file "C:/ti/Workspace/PLC_certificate/Software/uCOS-II/Source/os_core.c",line 527,column 23,i
    2147 000001d4 9250          MOV       AL,*-SP[16]           ; [CPU_ALU] |527| 
TMS320C2000 Assembler PC v20.2.1 Tue Feb 16 00:15:57 2021

Copyright (c) 1996-2018 Texas Instruments Incorporated
os_core.asm                                                          PAGE   41

    2148              $C$DW$126       .dwtag  DW_TAG_TI_branch
    2149                      .dwattr $C$DW$126, DW_AT_low_pc(0x00)
    2150                      .dwattr $C$DW$126, DW_AT_name("_OS_CPU_SR_Restore")
    2151                      .dwattr $C$DW$126, DW_AT_TI_call
    2152              
    2153 000001d5 7640!         LCR       #_OS_CPU_SR_Restore   ; [CPU_ALU] |527| 
         000001d6 0000 
    2154                      ; call occurs [#_OS_CPU_SR_Restore] ; [] |527| 
    2155                      .dwpsn  file "C:/ti/Workspace/PLC_certificate/Software/uCOS-II/Source/os_core.c",line 528,column 22,i
    2156 000001d7 8A44          MOVL      XAR4,*-SP[4]          ; [CPU_ALU] |528| 
    2157 000001d8 0200          MOVB      ACC,#0                ; [CPU_ALU] |528| 
    2158 000001d9 1EC4          MOVL      *+XAR4[0],ACC         ; [CPU_ALU] |528| 
    2159                      .dwpsn  file "C:/ti/Workspace/PLC_certificate/Software/uCOS-II/Source/os_core.c",line 529,column 22,i
    2160 000001da 8A56          MOVL      XAR4,*-SP[22]         ; [CPU_ALU] |529| 
    2161 000001db 56BF          MOVB      *+XAR4[0],#1,UNC      ; [CPU_ALU] |529| 
         000001dc 01C4 
    2162                      .dwpsn  file "C:/ti/Workspace/PLC_certificate/Software/uCOS-II/Source/os_core.c",line 530,column 23,i
    2163 000001dd 924E          MOV       AL,*-SP[14]           ; [CPU_ALU] |530| 
    2164 000001de 6F4D          B         $C$L51,UNC            ; [CPU_ALU] |530| 
    2165                      ; branch occurs ; [] |530| 
    2166 000001df       $C$L44:    
    2167                      .dwpsn  file "C:/ti/Workspace/PLC_certificate/Software/uCOS-II/Source/os_core.c",line 509,column 14,i
    2168 000001df 8A4A          MOVL      XAR4,*-SP[10]         ; [CPU_ALU] |509| 
    2169 000001e0 92C4          MOV       AL,*+XAR4[0]          ; [CPU_ALU] |509| 
    2170 000001e1 5203          CMPB      AL,#3                 ; [CPU_ALU] |509| 
    2171 000001e2 6208          B         $C$L45,GT             ; [CPU_ALU] |509| 
    2172                      ; branchcc occurs ; [] |509| 
    2173 000001e3 5203          CMPB      AL,#3                 ; [CPU_ALU] |509| 
    2174 000001e4 61DF          B         $C$L41,EQ             ; [CPU_ALU] |509| 
    2175                      ; branchcc occurs ; [] |509| 
    2176 000001e5 5201          CMPB      AL,#1                 ; [CPU_ALU] |509| 
    2177 000001e6 61E4          B         $C$L42,EQ             ; [CPU_ALU] |509| 
    2178                      ; branchcc occurs ; [] |509| 
    2179 000001e7 5202          CMPB      AL,#2                 ; [CPU_ALU] |509| 
    2180 000001e8 61E2          B         $C$L42,EQ             ; [CPU_ALU] |509| 
    2181                      ; branchcc occurs ; [] |509| 
    2182 000001e9 6FEB          B         $C$L43,UNC            ; [CPU_ALU] |509| 
    2183                      ; branch occurs ; [] |509| 
    2184 000001ea       $C$L45:    
    2185 000001ea 5204          CMPB      AL,#4                 ; [CPU_ALU] |509| 
    2186 000001eb 61E9          B         $C$L43,EQ             ; [CPU_ALU] |509| 
    2187                      ; branchcc occurs ; [] |509| 
    2188 000001ec 5205          CMPB      AL,#5                 ; [CPU_ALU] |509| 
    2189 000001ed 61E7          B         $C$L43,EQ             ; [CPU_ALU] |509| 
    2190                      ; branchcc occurs ; [] |509| 
    2191 000001ee 6FE6          B         $C$L43,UNC            ; [CPU_ALU] |509| 
    2192                      ; branch occurs ; [] |509| 
    2193 000001ef       $C$L46:    
    2194                      .dwpsn  file "C:/ti/Workspace/PLC_certificate/Software/uCOS-II/Source/os_core.c",line 532,column 13,i
    2195 000001ef 8A56          MOVL      XAR4,*-SP[22]         ; [CPU_ALU] |532| 
    2196 000001f0 2BC4          MOV       *+XAR4[0],#0          ; [CPU_ALU] |532| 
    2197                      .dwpsn  file "C:/ti/Workspace/PLC_certificate/Software/uCOS-II/Source/os_core.c",line 533,column 14,i
    2198 000001f1 6F21          B         $C$L50,UNC            ; [CPU_ALU] |533| 
    2199                      ; branch occurs ; [] |533| 
    2200 000001f2       $C$L47:    
TMS320C2000 Assembler PC v20.2.1 Tue Feb 16 00:15:57 2021

Copyright (c) 1996-2018 Texas Instruments Incorporated
os_core.asm                                                          PAGE   42

    2201                      .dwpsn  file "C:/ti/Workspace/PLC_certificate/Software/uCOS-II/Source/os_core.c",line 536,column 13,i
    2202 000001f2 8A54          MOVL      XAR4,*-SP[20]         ; [CPU_ALU] |536| 
    2203 000001f3 A8A9          MOVL      ACC,XAR4              ; [CPU_ALU] |536| 
    2204 000001f4 0902          ADDB      ACC,#2                ; [CPU_ALU] |536| 
    2205 000001f5 1E54          MOVL      *-SP[20],ACC          ; [CPU_ALU] |536| 
    2206 000001f6 0200          MOVB      ACC,#0                ; [CPU_ALU] |536| 
    2207 000001f7 1EC4          MOVL      *+XAR4[0],ACC         ; [CPU_ALU] |536| 
    2208                      .dwpsn  file "C:/ti/Workspace/PLC_certificate/Software/uCOS-II/Source/os_core.c",line 537,column 13,i
    2209 000001f8 8A56          MOVL      XAR4,*-SP[22]         ; [CPU_ALU] |537| 
    2210 000001f9 56BF          MOVB      *+XAR4[0],#14,UNC     ; [CPU_ALU] |537| 
         000001fa 0EC4 
    2211                      .dwpsn  file "C:/ti/Workspace/PLC_certificate/Software/uCOS-II/Source/os_core.c",line 538,column 14,i
    2212 000001fb 6F17          B         $C$L50,UNC            ; [CPU_ALU] |538| 
    2213                      ; branch occurs ; [] |538| 
    2214 000001fc       $C$L48:    
    2215                      .dwpsn  file "C:/ti/Workspace/PLC_certificate/Software/uCOS-II/Source/os_core.c",line 542,column 13,i
    2216 000001fc 8A54          MOVL      XAR4,*-SP[20]         ; [CPU_ALU] |542| 
    2217 000001fd A8A9          MOVL      ACC,XAR4              ; [CPU_ALU] |542| 
    2218 000001fe 0902          ADDB      ACC,#2                ; [CPU_ALU] |542| 
    2219 000001ff 1E54          MOVL      *-SP[20],ACC          ; [CPU_ALU] |542| 
    2220 00000200 0200          MOVB      ACC,#0                ; [CPU_ALU] |542| 
    2221 00000201 1EC4          MOVL      *+XAR4[0],ACC         ; [CPU_ALU] |542| 
    2222                      .dwpsn  file "C:/ti/Workspace/PLC_certificate/Software/uCOS-II/Source/os_core.c",line 543,column 13,i
    2223 00000202 8A56          MOVL      XAR4,*-SP[22]         ; [CPU_ALU] |543| 
    2224 00000203 56BF          MOVB      *+XAR4[0],#10,UNC     ; [CPU_ALU] |543| 
         00000204 0AC4 
    2225                      .dwpsn  file "C:/ti/Workspace/PLC_certificate/Software/uCOS-II/Source/os_core.c",line 544,column 14,i
    2226 00000205 6F0D          B         $C$L50,UNC            ; [CPU_ALU] |544| 
    2227                      ; branch occurs ; [] |544| 
    2228 00000206       $C$L49:    
    2229                      .dwpsn  file "C:/ti/Workspace/PLC_certificate/Software/uCOS-II/Source/os_core.c",line 507,column 5,is
    2230 00000206 021B          MOVB      ACC,#27               ; [CPU_ALU] |507| 
    2231 00000207 761F-         MOVW      DP,#_OSTCBCur         ; [CPU_ARAU] 
         00000208 0000 
    2232 00000209 0718-         ADDL      ACC,@_OSTCBCur        ; [CPU_ALU] |507| 
    2233 0000020a 8AA9          MOVL      XAR4,ACC              ; [CPU_ALU] |507| 
    2234 0000020b 92C4          MOV       AL,*+XAR4[0]          ; [CPU_ALU] |507| 
    2235 0000020c 61D3          B         $C$L44,EQ             ; [CPU_ALU] |507| 
    2236                      ; branchcc occurs ; [] |507| 
    2237 0000020d 5201          CMPB      AL,#1                 ; [CPU_ALU] |507| 
    2238 0000020e 61EE          B         $C$L48,EQ             ; [CPU_ALU] |507| 
    2239                      ; branchcc occurs ; [] |507| 
    2240 0000020f 5202          CMPB      AL,#2                 ; [CPU_ALU] |507| 
    2241 00000210 61E2          B         $C$L47,EQ             ; [CPU_ALU] |507| 
    2242                      ; branchcc occurs ; [] |507| 
    2243 00000211 6FEB          B         $C$L48,UNC            ; [CPU_ALU] |507| 
    2244                      ; branch occurs ; [] |507| 
    2245 00000212       $C$L50:    
    2246                      .dwpsn  file "C:/ti/Workspace/PLC_certificate/Software/uCOS-II/Source/os_core.c",line 547,column 5,is
    2247 00000212 021A          MOVB      ACC,#26               ; [CPU_ALU] |547| 
    2248 00000213 0718-         ADDL      ACC,@_OSTCBCur        ; [CPU_ALU] |547| 
    2249 00000214 8AA9          MOVL      XAR4,ACC              ; [CPU_ALU] |547| 
    2250 00000215 2BC4          MOV       *+XAR4[0],#0          ; [CPU_ALU] |547| 
    2251                      .dwpsn  file "C:/ti/Workspace/PLC_certificate/Software/uCOS-II/Source/os_core.c",line 548,column 5,is
    2252 00000216 021B          MOVB      ACC,#27               ; [CPU_ALU] |548| 
TMS320C2000 Assembler PC v20.2.1 Tue Feb 16 00:15:57 2021

Copyright (c) 1996-2018 Texas Instruments Incorporated
os_core.asm                                                          PAGE   43

    2253 00000217 0718-         ADDL      ACC,@_OSTCBCur        ; [CPU_ALU] |548| 
    2254 00000218 8AA9          MOVL      XAR4,ACC              ; [CPU_ALU] |548| 
    2255 00000219 2BC4          MOV       *+XAR4[0],#0          ; [CPU_ALU] |548| 
    2256                      .dwpsn  file "C:/ti/Workspace/PLC_certificate/Software/uCOS-II/Source/os_core.c",line 549,column 5,is
    2257 0000021a BE00          MOVB      XAR6,#0               ; [CPU_ALU] |549| 
    2258 0000021b 020E          MOVB      ACC,#14               ; [CPU_ALU] |549| 
    2259 0000021c 0718-         ADDL      ACC,@_OSTCBCur        ; [CPU_ALU] |549| 
    2260 0000021d 8AA9          MOVL      XAR4,ACC              ; [CPU_ALU] |549| 
    2261 0000021e C2C4          MOVL      *+XAR4[0],XAR6        ; [CPU_ALU] |549| 
    2262                      .dwpsn  file "C:/ti/Workspace/PLC_certificate/Software/uCOS-II/Source/os_core.c",line 550,column 5,is
    2263 0000021f 0210          MOVB      ACC,#16               ; [CPU_ALU] |550| 
    2264 00000220 0718-         ADDL      ACC,@_OSTCBCur        ; [CPU_ALU] |550| 
    2265 00000221 8AA9          MOVL      XAR4,ACC              ; [CPU_ALU] |550| 
    2266 00000222 C2C4          MOVL      *+XAR4[0],XAR6        ; [CPU_ALU] |550| 
    2267                      .dwpsn  file "C:/ti/Workspace/PLC_certificate/Software/uCOS-II/Source/os_core.c",line 553,column 5,is
    2268 00000223 0212          MOVB      ACC,#18               ; [CPU_ALU] |553| 
    2269 00000224 0718-         ADDL      ACC,@_OSTCBCur        ; [CPU_ALU] |553| 
    2270 00000225 8AA9          MOVL      XAR4,ACC              ; [CPU_ALU] |553| 
    2271 00000226 C2C4          MOVL      *+XAR4[0],XAR6        ; [CPU_ALU] |553| 
    2272                      .dwpsn  file "C:/ti/Workspace/PLC_certificate/Software/uCOS-II/Source/os_core.c",line 555,column 5,is
    2273 00000227 9250          MOV       AL,*-SP[16]           ; [CPU_ALU] |555| 
    2274              $C$DW$127       .dwtag  DW_TAG_TI_branch
    2275                      .dwattr $C$DW$127, DW_AT_low_pc(0x00)
    2276                      .dwattr $C$DW$127, DW_AT_name("_OS_CPU_SR_Restore")
    2277                      .dwattr $C$DW$127, DW_AT_TI_call
    2278              
    2279 00000228 7640!         LCR       #_OS_CPU_SR_Restore   ; [CPU_ALU] |555| 
         00000229 0000 
    2280                      ; call occurs [#_OS_CPU_SR_Restore] ; [] |555| 
    2281                      .dwpsn  file "C:/ti/Workspace/PLC_certificate/Software/uCOS-II/Source/os_core.c",line 557,column 5,is
    2282 0000022a 924E          MOV       AL,*-SP[14]           ; [CPU_ALU] |557| 
    2283 0000022b       $C$L51:    
    2284                      .dwpsn  file "C:/ti/Workspace/PLC_certificate/Software/uCOS-II/Source/os_core.c",line 558,column 1,is
    2285 0000022b FE90          SUBB      SP,#16                ; [CPU_ARAU] 
    2286                      .dwcfi  cfa_offset, -2
    2287              $C$DW$128       .dwtag  DW_TAG_TI_branch
    2288                      .dwattr $C$DW$128, DW_AT_low_pc(0x00)
    2289                      .dwattr $C$DW$128, DW_AT_TI_return
    2290              
    2291 0000022c 0006          LRETR     ; [CPU_ALU] 
    2292                      ; return occurs ; [] 
    2293                      .dwattr $C$DW$101, DW_AT_TI_end_file("C:/ti/Workspace/PLC_certificate/Software/uCOS-II/Source/os_core
    2294                      .dwattr $C$DW$101, DW_AT_TI_end_line(0x22e)
    2295                      .dwattr $C$DW$101, DW_AT_TI_end_column(0x01)
    2296                      .dwendentry
    2297                      .dwendtag $C$DW$101
    2298              
    2299 0000022d               .sect   ".text"
    2300                      .clink
    2301                      .global _OSInit
    2302              
    2303              $C$DW$129       .dwtag  DW_TAG_subprogram
    2304                      .dwattr $C$DW$129, DW_AT_name("OSInit")
    2305                      .dwattr $C$DW$129, DW_AT_low_pc(_OSInit)
    2306                      .dwattr $C$DW$129, DW_AT_high_pc(0x00)
TMS320C2000 Assembler PC v20.2.1 Tue Feb 16 00:15:57 2021

Copyright (c) 1996-2018 Texas Instruments Incorporated
os_core.asm                                                          PAGE   44

    2307                      .dwattr $C$DW$129, DW_AT_TI_symbol_name("_OSInit")
    2308                      .dwattr $C$DW$129, DW_AT_external
    2309                      .dwattr $C$DW$129, DW_AT_TI_begin_file("C:/ti/Workspace/PLC_certificate/Software/uCOS-II/Source/os_co
    2310                      .dwattr $C$DW$129, DW_AT_TI_begin_line(0x23f)
    2311                      .dwattr $C$DW$129, DW_AT_TI_begin_column(0x07)
    2312                      .dwattr $C$DW$129, DW_AT_TI_max_frame_size(-2)
    2313                      .dwpsn  file "C:/ti/Workspace/PLC_certificate/Software/uCOS-II/Source/os_core.c",line 576,column 1,is
    2314              
    2315                      .dwfde $C$DW$CIE, _OSInit
    2316              
    2317              ;***************************************************************
    2318              ;* FNAME: _OSInit                       FR SIZE:   0           *
    2319              ;*                                                             *
    2320              ;* FUNCTION ENVIRONMENT                                        *
    2321              ;*                                                             *
    2322              ;* FUNCTION PROPERTIES                                         *
    2323              ;*                            0 Parameter,  0 Auto,  0 SOE     *
    2324              ;***************************************************************
    2325              
    2326 0000022d       _OSInit:
    2327                      .dwcfi  cfa_offset, -2
    2328                      .dwcfi  save_reg_to_mem, 26, 0
    2329                      .dwpsn  file "C:/ti/Workspace/PLC_certificate/Software/uCOS-II/Source/os_core.c",line 583,column 5,is
    2330              $C$DW$130       .dwtag  DW_TAG_TI_branch
    2331                      .dwattr $C$DW$130, DW_AT_low_pc(0x00)
    2332                      .dwattr $C$DW$130, DW_AT_name("_OSInitHookBegin")
    2333                      .dwattr $C$DW$130, DW_AT_TI_call
    2334              
    2335 0000022d 7640!         LCR       #_OSInitHookBegin     ; [CPU_ALU] |583| 
         0000022e 0000 
    2336                      ; call occurs [#_OSInitHookBegin] ; [] |583| 
    2337                      .dwpsn  file "C:/ti/Workspace/PLC_certificate/Software/uCOS-II/Source/os_core.c",line 585,column 5,is
    2338              $C$DW$131       .dwtag  DW_TAG_TI_branch
    2339                      .dwattr $C$DW$131, DW_AT_low_pc(0x00)
    2340                      .dwattr $C$DW$131, DW_AT_name("_OS_InitMisc")
    2341                      .dwattr $C$DW$131, DW_AT_TI_call
    2342              
    2343 0000022f 7640'         LCR       #_OS_InitMisc         ; [CPU_ALU] |585| 
         00000230 0511 
    2344                      ; call occurs [#_OS_InitMisc] ; [] |585| 
    2345                      .dwpsn  file "C:/ti/Workspace/PLC_certificate/Software/uCOS-II/Source/os_core.c",line 587,column 5,is
    2346              $C$DW$132       .dwtag  DW_TAG_TI_branch
    2347                      .dwattr $C$DW$132, DW_AT_low_pc(0x00)
    2348                      .dwattr $C$DW$132, DW_AT_name("_OS_InitRdyList")
    2349                      .dwattr $C$DW$132, DW_AT_TI_call
    2350              
    2351 00000231 7640'         LCR       #_OS_InitRdyList      ; [CPU_ALU] |587| 
         00000232 0520 
    2352                      ; call occurs [#_OS_InitRdyList] ; [] |587| 
    2353                      .dwpsn  file "C:/ti/Workspace/PLC_certificate/Software/uCOS-II/Source/os_core.c",line 589,column 5,is
    2354              $C$DW$133       .dwtag  DW_TAG_TI_branch
    2355                      .dwattr $C$DW$133, DW_AT_low_pc(0x00)
    2356                      .dwattr $C$DW$133, DW_AT_name("_OS_InitTCBList")
    2357                      .dwattr $C$DW$133, DW_AT_TI_call
    2358              
TMS320C2000 Assembler PC v20.2.1 Tue Feb 16 00:15:57 2021

Copyright (c) 1996-2018 Texas Instruments Incorporated
os_core.asm                                                          PAGE   45

    2359 00000233 7640'         LCR       #_OS_InitTCBList      ; [CPU_ALU] |589| 
         00000234 057B 
    2360                      ; call occurs [#_OS_InitTCBList] ; [] |589| 
    2361                      .dwpsn  file "C:/ti/Workspace/PLC_certificate/Software/uCOS-II/Source/os_core.c",line 591,column 5,is
    2362              $C$DW$134       .dwtag  DW_TAG_TI_branch
    2363                      .dwattr $C$DW$134, DW_AT_low_pc(0x00)
    2364                      .dwattr $C$DW$134, DW_AT_name("_OS_InitEventList")
    2365                      .dwattr $C$DW$134, DW_AT_TI_call
    2366              
    2367 00000235 7640'         LCR       #_OS_InitEventList    ; [CPU_ALU] |591| 
         00000236 04CE 
    2368                      ; call occurs [#_OS_InitEventList] ; [] |591| 
    2369                      .dwpsn  file "C:/ti/Workspace/PLC_certificate/Software/uCOS-II/Source/os_core.c",line 595,column 5,is
    2370              $C$DW$135       .dwtag  DW_TAG_TI_branch
    2371                      .dwattr $C$DW$135, DW_AT_low_pc(0x00)
    2372                      .dwattr $C$DW$135, DW_AT_name("_OS_FlagInit")
    2373                      .dwattr $C$DW$135, DW_AT_TI_call
    2374              
    2375 00000237 7640!         LCR       #_OS_FlagInit         ; [CPU_ALU] |595| 
         00000238 0000 
    2376                      ; call occurs [#_OS_FlagInit] ; [] |595| 
    2377                      .dwpsn  file "C:/ti/Workspace/PLC_certificate/Software/uCOS-II/Source/os_core.c",line 599,column 5,is
    2378              $C$DW$136       .dwtag  DW_TAG_TI_branch
    2379                      .dwattr $C$DW$136, DW_AT_low_pc(0x00)
    2380                      .dwattr $C$DW$136, DW_AT_name("_OS_MemInit")
    2381                      .dwattr $C$DW$136, DW_AT_TI_call
    2382              
    2383 00000239 7640!         LCR       #_OS_MemInit          ; [CPU_ALU] |599| 
         0000023a 0000 
    2384                      ; call occurs [#_OS_MemInit] ; [] |599| 
    2385                      .dwpsn  file "C:/ti/Workspace/PLC_certificate/Software/uCOS-II/Source/os_core.c",line 603,column 5,is
    2386              $C$DW$137       .dwtag  DW_TAG_TI_branch
    2387                      .dwattr $C$DW$137, DW_AT_low_pc(0x00)
    2388                      .dwattr $C$DW$137, DW_AT_name("_OS_QInit")
    2389                      .dwattr $C$DW$137, DW_AT_TI_call
    2390              
    2391 0000023b 7640!         LCR       #_OS_QInit            ; [CPU_ALU] |603| 
         0000023c 0000 
    2392                      ; call occurs [#_OS_QInit] ; [] |603| 
    2393                      .dwpsn  file "C:/ti/Workspace/PLC_certificate/Software/uCOS-II/Source/os_core.c",line 615,column 5,is
    2394              $C$DW$138       .dwtag  DW_TAG_TI_branch
    2395                      .dwattr $C$DW$138, DW_AT_low_pc(0x00)
    2396                      .dwattr $C$DW$138, DW_AT_name("_OS_InitTaskIdle")
    2397                      .dwattr $C$DW$138, DW_AT_TI_call
    2398              
    2399 0000023d 7640'         LCR       #_OS_InitTaskIdle     ; [CPU_ALU] |615| 
         0000023e 0539 
    2400                      ; call occurs [#_OS_InitTaskIdle] ; [] |615| 
    2401                      .dwpsn  file "C:/ti/Workspace/PLC_certificate/Software/uCOS-II/Source/os_core.c",line 617,column 5,is
    2402              $C$DW$139       .dwtag  DW_TAG_TI_branch
    2403                      .dwattr $C$DW$139, DW_AT_low_pc(0x00)
    2404                      .dwattr $C$DW$139, DW_AT_name("_OS_InitTaskStat")
    2405                      .dwattr $C$DW$139, DW_AT_TI_call
    2406              
    2407 0000023f 7640'         LCR       #_OS_InitTaskStat     ; [CPU_ALU] |617| 
TMS320C2000 Assembler PC v20.2.1 Tue Feb 16 00:15:57 2021

Copyright (c) 1996-2018 Texas Instruments Incorporated
os_core.asm                                                          PAGE   46

         00000240 055A 
    2408                      ; call occurs [#_OS_InitTaskStat] ; [] |617| 
    2409                      .dwpsn  file "C:/ti/Workspace/PLC_certificate/Software/uCOS-II/Source/os_core.c",line 624,column 5,is
    2410              $C$DW$140       .dwtag  DW_TAG_TI_branch
    2411                      .dwattr $C$DW$140, DW_AT_low_pc(0x00)
    2412                      .dwattr $C$DW$140, DW_AT_name("_OSInitHookEnd")
    2413                      .dwattr $C$DW$140, DW_AT_TI_call
    2414              
    2415 00000241 7640!         LCR       #_OSInitHookEnd       ; [CPU_ALU] |624| 
         00000242 0000 
    2416                      ; call occurs [#_OSInitHookEnd] ; [] |624| 
    2417                      .dwpsn  file "C:/ti/Workspace/PLC_certificate/Software/uCOS-II/Source/os_core.c",line 627,column 5,is
    2418              $C$DW$141       .dwtag  DW_TAG_TI_branch
    2419                      .dwattr $C$DW$141, DW_AT_low_pc(0x00)
    2420                      .dwattr $C$DW$141, DW_AT_name("_OSDebugInit")
    2421                      .dwattr $C$DW$141, DW_AT_TI_call
    2422              
    2423 00000243 7640!         LCR       #_OSDebugInit         ; [CPU_ALU] |627| 
         00000244 0000 
    2424                      ; call occurs [#_OSDebugInit] ; [] |627| 
    2425                      .dwpsn  file "C:/ti/Workspace/PLC_certificate/Software/uCOS-II/Source/os_core.c",line 629,column 1,is
    2426              $C$DW$142       .dwtag  DW_TAG_TI_branch
    2427                      .dwattr $C$DW$142, DW_AT_low_pc(0x00)
    2428                      .dwattr $C$DW$142, DW_AT_TI_return
    2429              
    2430 00000245 0006          LRETR     ; [CPU_ALU] 
    2431                      ; return occurs ; [] 
    2432                      .dwattr $C$DW$129, DW_AT_TI_end_file("C:/ti/Workspace/PLC_certificate/Software/uCOS-II/Source/os_core
    2433                      .dwattr $C$DW$129, DW_AT_TI_end_line(0x275)
    2434                      .dwattr $C$DW$129, DW_AT_TI_end_column(0x01)
    2435                      .dwendentry
    2436                      .dwendtag $C$DW$129
    2437              
    2438 00000246               .sect   ".text"
    2439                      .clink
    2440                      .global _OSIntEnter
    2441              
    2442              $C$DW$143       .dwtag  DW_TAG_subprogram
    2443                      .dwattr $C$DW$143, DW_AT_name("OSIntEnter")
    2444                      .dwattr $C$DW$143, DW_AT_low_pc(_OSIntEnter)
    2445                      .dwattr $C$DW$143, DW_AT_high_pc(0x00)
    2446                      .dwattr $C$DW$143, DW_AT_TI_symbol_name("_OSIntEnter")
    2447                      .dwattr $C$DW$143, DW_AT_external
    2448                      .dwattr $C$DW$143, DW_AT_TI_begin_file("C:/ti/Workspace/PLC_certificate/Software/uCOS-II/Source/os_co
    2449                      .dwattr $C$DW$143, DW_AT_TI_begin_line(0x290)
    2450                      .dwattr $C$DW$143, DW_AT_TI_begin_column(0x07)
    2451                      .dwattr $C$DW$143, DW_AT_TI_max_frame_size(-2)
    2452                      .dwpsn  file "C:/ti/Workspace/PLC_certificate/Software/uCOS-II/Source/os_core.c",line 657,column 1,is
    2453              
    2454                      .dwfde $C$DW$CIE, _OSIntEnter
    2455              
    2456              ;***************************************************************
    2457              ;* FNAME: _OSIntEnter                   FR SIZE:   0           *
    2458              ;*                                                             *
    2459              ;* FUNCTION ENVIRONMENT                                        *
TMS320C2000 Assembler PC v20.2.1 Tue Feb 16 00:15:57 2021

Copyright (c) 1996-2018 Texas Instruments Incorporated
os_core.asm                                                          PAGE   47

    2460              ;*                                                             *
    2461              ;* FUNCTION PROPERTIES                                         *
    2462              ;*                            0 Parameter,  0 Auto,  0 SOE     *
    2463              ;***************************************************************
    2464              
    2465 00000246       _OSIntEnter:
    2466                      .dwcfi  cfa_offset, -2
    2467                      .dwcfi  save_reg_to_mem, 26, 0
    2468                      .dwpsn  file "C:/ti/Workspace/PLC_certificate/Software/uCOS-II/Source/os_core.c",line 658,column 5,is
    2469 00000246 761F-         MOVW      DP,#_OSRunning        ; [CPU_ARAU] 
         00000247 0000 
    2470 00000248 9207-         MOV       AL,@_OSRunning        ; [CPU_ALU] |658| 
    2471 00000249 5201          CMPB      AL,#1                 ; [CPU_ALU] |658| 
    2472 0000024a 6005          B         $C$L52,NEQ            ; [CPU_ALU] |658| 
    2473                      ; branchcc occurs ; [] |658| 
    2474                      .dwpsn  file "C:/ti/Workspace/PLC_certificate/Software/uCOS-II/Source/os_core.c",line 659,column 9,is
    2475 0000024b 9202-         MOV       AL,@_OSIntNesting     ; [CPU_ALU] |659| 
    2476 0000024c 52FF          CMPB      AL,#255               ; [CPU_ALU] |659| 
    2477 0000024d 6702          B         $C$L52,HIS            ; [CPU_ALU] |659| 
    2478                      ; branchcc occurs ; [] |659| 
    2479                      .dwpsn  file "C:/ti/Workspace/PLC_certificate/Software/uCOS-II/Source/os_core.c",line 660,column 13,i
    2480 0000024e 0A02-         INC       @_OSIntNesting        ; [CPU_ALU] |660| 
    2481                      .dwpsn  file "C:/ti/Workspace/PLC_certificate/Software/uCOS-II/Source/os_core.c",line 663,column 1,is
    2482              $C$L52:    
    2483              $C$DW$144       .dwtag  DW_TAG_TI_branch
    2484                      .dwattr $C$DW$144, DW_AT_low_pc(0x00)
    2485                      .dwattr $C$DW$144, DW_AT_TI_return
    2486              
    2487 0000024f 0006          LRETR     ; [CPU_ALU] 
    2488                      ; return occurs ; [] 
    2489                      .dwattr $C$DW$143, DW_AT_TI_end_file("C:/ti/Workspace/PLC_certificate/Software/uCOS-II/Source/os_core
    2490                      .dwattr $C$DW$143, DW_AT_TI_end_line(0x297)
    2491                      .dwattr $C$DW$143, DW_AT_TI_end_column(0x01)
    2492                      .dwendentry
    2493                      .dwendtag $C$DW$143
    2494              
    2495 00000250               .sect   ".text"
    2496                      .clink
    2497                      .global _OSIntExit
    2498              
    2499              $C$DW$145       .dwtag  DW_TAG_subprogram
    2500                      .dwattr $C$DW$145, DW_AT_name("OSIntExit")
    2501                      .dwattr $C$DW$145, DW_AT_low_pc(_OSIntExit)
    2502                      .dwattr $C$DW$145, DW_AT_high_pc(0x00)
    2503                      .dwattr $C$DW$145, DW_AT_TI_symbol_name("_OSIntExit")
    2504                      .dwattr $C$DW$145, DW_AT_external
    2505                      .dwattr $C$DW$145, DW_AT_TI_begin_file("C:/ti/Workspace/PLC_certificate/Software/uCOS-II/Source/os_co
    2506                      .dwattr $C$DW$145, DW_AT_TI_begin_line(0x2ac)
    2507                      .dwattr $C$DW$145, DW_AT_TI_begin_column(0x07)
    2508                      .dwattr $C$DW$145, DW_AT_TI_max_frame_size(-4)
    2509                      .dwpsn  file "C:/ti/Workspace/PLC_certificate/Software/uCOS-II/Source/os_core.c",line 685,column 1,is
    2510              
    2511                      .dwfde $C$DW$CIE, _OSIntExit
    2512              
    2513              ;***************************************************************
TMS320C2000 Assembler PC v20.2.1 Tue Feb 16 00:15:57 2021

Copyright (c) 1996-2018 Texas Instruments Incorporated
os_core.asm                                                          PAGE   48

    2514              ;* FNAME: _OSIntExit                    FR SIZE:   2           *
    2515              ;*                                                             *
    2516              ;* FUNCTION ENVIRONMENT                                        *
    2517              ;*                                                             *
    2518              ;* FUNCTION PROPERTIES                                         *
    2519              ;*                            0 Parameter,  1 Auto,  0 SOE     *
    2520              ;***************************************************************
    2521              
    2522 00000250       _OSIntExit:
    2523                      .dwcfi  cfa_offset, -2
    2524                      .dwcfi  save_reg_to_mem, 26, 0
    2525 00000250 FE02          ADDB      SP,#2                 ; [CPU_ARAU] 
    2526                      .dwcfi  cfa_offset, -4
    2527              $C$DW$146       .dwtag  DW_TAG_variable
    2528                      .dwattr $C$DW$146, DW_AT_name("cpu_sr")
    2529                      .dwattr $C$DW$146, DW_AT_TI_symbol_name("_cpu_sr")
    2530                      .dwattr $C$DW$146, DW_AT_type(*$C$DW$T$44)
    2531                      .dwattr $C$DW$146, DW_AT_location[DW_OP_breg20 -1]
    2532              
    2533                      .dwpsn  file "C:/ti/Workspace/PLC_certificate/Software/uCOS-II/Source/os_core.c",line 687,column 23,i
    2534 00000251 2B41          MOV       *-SP[1],#0            ; [CPU_ALU] |687| 
    2535                      .dwpsn  file "C:/ti/Workspace/PLC_certificate/Software/uCOS-II/Source/os_core.c",line 692,column 5,is
    2536 00000252 761F-         MOVW      DP,#_OSRunning        ; [CPU_ARAU] 
         00000253 0000 
    2537 00000254 9207-         MOV       AL,@_OSRunning        ; [CPU_ALU] |692| 
    2538 00000255 5201          CMPB      AL,#1                 ; [CPU_ALU] |692| 
    2539 00000256 602B          B         $C$L55,NEQ            ; [CPU_ALU] |692| 
    2540                      ; branchcc occurs ; [] |692| 
    2541                      .dwpsn  file "C:/ti/Workspace/PLC_certificate/Software/uCOS-II/Source/os_core.c",line 693,column 9,is
    2542              $C$DW$147       .dwtag  DW_TAG_TI_branch
    2543                      .dwattr $C$DW$147, DW_AT_low_pc(0x00)
    2544                      .dwattr $C$DW$147, DW_AT_name("_OS_CPU_SR_Save")
    2545                      .dwattr $C$DW$147, DW_AT_TI_call
    2546              
    2547 00000257 7640!         LCR       #_OS_CPU_SR_Save      ; [CPU_ALU] |693| 
         00000258 0000 
    2548                      ; call occurs [#_OS_CPU_SR_Save] ; [] |693| 
    2549 00000259 9641          MOV       *-SP[1],AL            ; [CPU_ALU] |693| 
    2550                      .dwpsn  file "C:/ti/Workspace/PLC_certificate/Software/uCOS-II/Source/os_core.c",line 694,column 9,is
    2551 0000025a 761F-         MOVW      DP,#_OSIntNesting     ; [CPU_ARAU] 
         0000025b 0000 
    2552 0000025c 9202-         MOV       AL,@_OSIntNesting     ; [CPU_ALU] |694| 
    2553 0000025d 6102          B         $C$L53,EQ             ; [CPU_ALU] |694| 
    2554                      ; branchcc occurs ; [] |694| 
    2555                      .dwpsn  file "C:/ti/Workspace/PLC_certificate/Software/uCOS-II/Source/os_core.c",line 695,column 13,i
    2556 0000025e 0B02-         DEC       @_OSIntNesting        ; [CPU_ALU] |695| 
    2557 0000025f       $C$L53:    
    2558                      .dwpsn  file "C:/ti/Workspace/PLC_certificate/Software/uCOS-II/Source/os_core.c",line 697,column 9,is
    2559 0000025f 9202-         MOV       AL,@_OSIntNesting     ; [CPU_ALU] |697| 
    2560 00000260 601D          B         $C$L54,NEQ            ; [CPU_ALU] |697| 
    2561                      ; branchcc occurs ; [] |697| 
    2562                      .dwpsn  file "C:/ti/Workspace/PLC_certificate/Software/uCOS-II/Source/os_core.c",line 698,column 13,i
    2563 00000261 9203-         MOV       AL,@_OSLockNesting    ; [CPU_ALU] |698| 
    2564 00000262 601B          B         $C$L54,NEQ            ; [CPU_ALU] |698| 
    2565                      ; branchcc occurs ; [] |698| 
TMS320C2000 Assembler PC v20.2.1 Tue Feb 16 00:15:57 2021

Copyright (c) 1996-2018 Texas Instruments Incorporated
os_core.asm                                                          PAGE   49

    2566                      .dwpsn  file "C:/ti/Workspace/PLC_certificate/Software/uCOS-II/Source/os_core.c",line 699,column 17,i
    2567              $C$DW$148       .dwtag  DW_TAG_TI_branch
    2568                      .dwattr $C$DW$148, DW_AT_low_pc(0x00)
    2569                      .dwattr $C$DW$148, DW_AT_name("_OS_SchedNew")
    2570                      .dwattr $C$DW$148, DW_AT_TI_call
    2571              
    2572 00000263 7640'         LCR       #_OS_SchedNew         ; [CPU_ALU] |699| 
         00000264 0613 
    2573                      ; call occurs [#_OS_SchedNew] ; [] |699| 
    2574                      .dwpsn  file "C:/ti/Workspace/PLC_certificate/Software/uCOS-II/Source/os_core.c",line 700,column 17,i
    2575 00000265 2901          CLRC      SXM                   ; [CPU_ALU] 
    2576 00000266 761F-         MOVW      DP,#_OSPrioHighRdy    ; [CPU_ARAU] 
         00000267 0000 
    2577 00000268 8F00-         MOVL      XAR4,#_OSTCBPrioTbl   ; [CPU_ARAU] |700| 
         00000269 0000 
    2578 0000026a 5603-         MOV       ACC,@_OSPrioHighRdy << 1 ; [CPU_ALU] |700| 
         0000026b 0105 
    2579 0000026c 5601          ADDL      XAR4,ACC              ; [CPU_ALU] |700| 
         0000026d 00A4 
    2580 0000026e 06C4          MOVL      ACC,*+XAR4[0]         ; [CPU_ALU] |700| 
    2581 0000026f 1E1C-         MOVL      @_OSTCBHighRdy,ACC    ; [CPU_ALU] |700| 
    2582                      .dwpsn  file "C:/ti/Workspace/PLC_certificate/Software/uCOS-II/Source/os_core.c",line 701,column 17,i
    2583 00000270 8805-         MOVZ      AR6,@_OSPrioHighRdy   ; [CPU_ALU] |701| 
    2584 00000271 0E04-         MOVU      ACC,@_OSPrioCur       ; [CPU_ALU] |701| 
    2585 00000272 0FA6          CMPL      ACC,XAR6              ; [CPU_ALU] |701| 
    2586 00000273 610A          B         $C$L54,EQ             ; [CPU_ALU] |701| 
    2587                      ; branchcc occurs ; [] |701| 
    2588                      .dwpsn  file "C:/ti/Workspace/PLC_certificate/Software/uCOS-II/Source/os_core.c",line 703,column 21,i
    2589 00000274 0222          MOVB      ACC,#34               ; [CPU_ALU] |703| 
    2590 00000275 071C-         ADDL      ACC,@_OSTCBHighRdy    ; [CPU_ALU] |703| 
    2591 00000276 8AA9          MOVL      XAR4,ACC              ; [CPU_ALU] |703| 
    2592 00000277 0201          MOVB      ACC,#1                ; [CPU_ALU] |703| 
    2593 00000278 5601          ADDL      *+XAR4[0],ACC         ; [CPU_ALU] |703| 
         00000279 00C4 
    2594                      .dwpsn  file "C:/ti/Workspace/PLC_certificate/Software/uCOS-II/Source/os_core.c",line 705,column 21,i
    2595 0000027a 5601-         ADDL      @_OSCtxSwCtr,ACC      ; [CPU_ALU] |705| 
         0000027b 000C 
    2596                      .dwpsn  file "C:/ti/Workspace/PLC_certificate/Software/uCOS-II/Source/os_core.c",line 713,column 21,i
    2597 0000027c 0030   TRAP #16
    2598 0000027d       $C$L54:    
    2599                      .dwpsn  file "C:/ti/Workspace/PLC_certificate/Software/uCOS-II/Source/os_core.c",line 717,column 9,is
    2600 0000027d 9241          MOV       AL,*-SP[1]            ; [CPU_ALU] |717| 
    2601 0000027e FF69          SPM       #0                    ; [CPU_ALU] 
    2602              $C$DW$149       .dwtag  DW_TAG_TI_branch
    2603                      .dwattr $C$DW$149, DW_AT_low_pc(0x00)
    2604                      .dwattr $C$DW$149, DW_AT_name("_OS_CPU_SR_Restore")
    2605                      .dwattr $C$DW$149, DW_AT_TI_call
    2606              
    2607 0000027f 7640!         LCR       #_OS_CPU_SR_Restore   ; [CPU_ALU] |717| 
         00000280 0000 
    2608                      ; call occurs [#_OS_CPU_SR_Restore] ; [] |717| 
    2609                      .dwpsn  file "C:/ti/Workspace/PLC_certificate/Software/uCOS-II/Source/os_core.c",line 719,column 1,is
    2610 00000281       $C$L55:    
    2611 00000281 FE82          SUBB      SP,#2                 ; [CPU_ARAU] 
    2612                      .dwcfi  cfa_offset, -2
TMS320C2000 Assembler PC v20.2.1 Tue Feb 16 00:15:57 2021

Copyright (c) 1996-2018 Texas Instruments Incorporated
os_core.asm                                                          PAGE   50

    2613              $C$DW$150       .dwtag  DW_TAG_TI_branch
    2614                      .dwattr $C$DW$150, DW_AT_low_pc(0x00)
    2615                      .dwattr $C$DW$150, DW_AT_TI_return
    2616              
    2617 00000282 0006          LRETR     ; [CPU_ALU] 
    2618                      ; return occurs ; [] 
    2619                      .dwattr $C$DW$145, DW_AT_TI_end_file("C:/ti/Workspace/PLC_certificate/Software/uCOS-II/Source/os_core
    2620                      .dwattr $C$DW$145, DW_AT_TI_end_line(0x2cf)
    2621                      .dwattr $C$DW$145, DW_AT_TI_end_column(0x01)
    2622                      .dwendentry
    2623                      .dwendtag $C$DW$145
    2624              
    2625 00000283               .sect   ".text"
    2626                      .clink
    2627                      .global _OSSchedLock
    2628              
    2629              $C$DW$151       .dwtag  DW_TAG_subprogram
    2630                      .dwattr $C$DW$151, DW_AT_name("OSSchedLock")
    2631                      .dwattr $C$DW$151, DW_AT_low_pc(_OSSchedLock)
    2632                      .dwattr $C$DW$151, DW_AT_high_pc(0x00)
    2633                      .dwattr $C$DW$151, DW_AT_TI_symbol_name("_OSSchedLock")
    2634                      .dwattr $C$DW$151, DW_AT_external
    2635                      .dwattr $C$DW$151, DW_AT_TI_begin_file("C:/ti/Workspace/PLC_certificate/Software/uCOS-II/Source/os_co
    2636                      .dwattr $C$DW$151, DW_AT_TI_begin_line(0x2fc)
    2637                      .dwattr $C$DW$151, DW_AT_TI_begin_column(0x07)
    2638                      .dwattr $C$DW$151, DW_AT_TI_max_frame_size(-4)
    2639                      .dwpsn  file "C:/ti/Workspace/PLC_certificate/Software/uCOS-II/Source/os_core.c",line 765,column 1,is
    2640              
    2641                      .dwfde $C$DW$CIE, _OSSchedLock
    2642              
    2643              ;***************************************************************
    2644              ;* FNAME: _OSSchedLock                  FR SIZE:   2           *
    2645              ;*                                                             *
    2646              ;* FUNCTION ENVIRONMENT                                        *
    2647              ;*                                                             *
    2648              ;* FUNCTION PROPERTIES                                         *
    2649              ;*                            0 Parameter,  1 Auto,  0 SOE     *
    2650              ;***************************************************************
    2651              
    2652 00000283       _OSSchedLock:
    2653                      .dwcfi  cfa_offset, -2
    2654                      .dwcfi  save_reg_to_mem, 26, 0
    2655 00000283 FE02          ADDB      SP,#2                 ; [CPU_ARAU] 
    2656                      .dwcfi  cfa_offset, -4
    2657              $C$DW$152       .dwtag  DW_TAG_variable
    2658                      .dwattr $C$DW$152, DW_AT_name("cpu_sr")
    2659                      .dwattr $C$DW$152, DW_AT_TI_symbol_name("_cpu_sr")
    2660                      .dwattr $C$DW$152, DW_AT_type(*$C$DW$T$44)
    2661                      .dwattr $C$DW$152, DW_AT_location[DW_OP_breg20 -1]
    2662              
    2663                      .dwpsn  file "C:/ti/Workspace/PLC_certificate/Software/uCOS-II/Source/os_core.c",line 767,column 23,i
    2664 00000284 2B41          MOV       *-SP[1],#0            ; [CPU_ALU] |767| 
    2665                      .dwpsn  file "C:/ti/Workspace/PLC_certificate/Software/uCOS-II/Source/os_core.c",line 772,column 5,is
    2666 00000285 761F-         MOVW      DP,#_OSRunning        ; [CPU_ARAU] 
         00000286 0000 
TMS320C2000 Assembler PC v20.2.1 Tue Feb 16 00:15:57 2021

Copyright (c) 1996-2018 Texas Instruments Incorporated
os_core.asm                                                          PAGE   51

    2667 00000287 9207-         MOV       AL,@_OSRunning        ; [CPU_ALU] |772| 
    2668 00000288 5201          CMPB      AL,#1                 ; [CPU_ALU] |772| 
    2669 00000289 600F          B         $C$L57,NEQ            ; [CPU_ALU] |772| 
    2670                      ; branchcc occurs ; [] |772| 
    2671                      .dwpsn  file "C:/ti/Workspace/PLC_certificate/Software/uCOS-II/Source/os_core.c",line 773,column 9,is
    2672              $C$DW$153       .dwtag  DW_TAG_TI_branch
    2673                      .dwattr $C$DW$153, DW_AT_low_pc(0x00)
    2674                      .dwattr $C$DW$153, DW_AT_name("_OS_CPU_SR_Save")
    2675                      .dwattr $C$DW$153, DW_AT_TI_call
    2676              
    2677 0000028a 7640!         LCR       #_OS_CPU_SR_Save      ; [CPU_ALU] |773| 
         0000028b 0000 
    2678                      ; call occurs [#_OS_CPU_SR_Save] ; [] |773| 
    2679 0000028c 9641          MOV       *-SP[1],AL            ; [CPU_ALU] |773| 
    2680                      .dwpsn  file "C:/ti/Workspace/PLC_certificate/Software/uCOS-II/Source/os_core.c",line 774,column 9,is
    2681 0000028d 761F-         MOVW      DP,#_OSIntNesting     ; [CPU_ARAU] 
         0000028e 0000 
    2682 0000028f 9202-         MOV       AL,@_OSIntNesting     ; [CPU_ALU] |774| 
    2683 00000290 6005          B         $C$L56,NEQ            ; [CPU_ALU] |774| 
    2684                      ; branchcc occurs ; [] |774| 
    2685                      .dwpsn  file "C:/ti/Workspace/PLC_certificate/Software/uCOS-II/Source/os_core.c",line 775,column 13,i
    2686 00000291 9203-         MOV       AL,@_OSLockNesting    ; [CPU_ALU] |775| 
    2687 00000292 52FF          CMPB      AL,#255               ; [CPU_ALU] |775| 
    2688 00000293 6702          B         $C$L56,HIS            ; [CPU_ALU] |775| 
    2689                      ; branchcc occurs ; [] |775| 
    2690                      .dwpsn  file "C:/ti/Workspace/PLC_certificate/Software/uCOS-II/Source/os_core.c",line 776,column 17,i
    2691 00000294 0A03-         INC       @_OSLockNesting       ; [CPU_ALU] |776| 
    2692 00000295       $C$L56:    
    2693                      .dwpsn  file "C:/ti/Workspace/PLC_certificate/Software/uCOS-II/Source/os_core.c",line 779,column 9,is
    2694 00000295 9241          MOV       AL,*-SP[1]            ; [CPU_ALU] |779| 
    2695              $C$DW$154       .dwtag  DW_TAG_TI_branch
    2696                      .dwattr $C$DW$154, DW_AT_low_pc(0x00)
    2697                      .dwattr $C$DW$154, DW_AT_name("_OS_CPU_SR_Restore")
    2698                      .dwattr $C$DW$154, DW_AT_TI_call
    2699              
    2700 00000296 7640!         LCR       #_OS_CPU_SR_Restore   ; [CPU_ALU] |779| 
         00000297 0000 
    2701                      ; call occurs [#_OS_CPU_SR_Restore] ; [] |779| 
    2702                      .dwpsn  file "C:/ti/Workspace/PLC_certificate/Software/uCOS-II/Source/os_core.c",line 781,column 1,is
    2703 00000298       $C$L57:    
    2704 00000298 FE82          SUBB      SP,#2                 ; [CPU_ARAU] 
    2705                      .dwcfi  cfa_offset, -2
    2706              $C$DW$155       .dwtag  DW_TAG_TI_branch
    2707                      .dwattr $C$DW$155, DW_AT_low_pc(0x00)
    2708                      .dwattr $C$DW$155, DW_AT_TI_return
    2709              
    2710 00000299 0006          LRETR     ; [CPU_ALU] 
    2711                      ; return occurs ; [] 
    2712                      .dwattr $C$DW$151, DW_AT_TI_end_file("C:/ti/Workspace/PLC_certificate/Software/uCOS-II/Source/os_core
    2713                      .dwattr $C$DW$151, DW_AT_TI_end_line(0x30d)
    2714                      .dwattr $C$DW$151, DW_AT_TI_end_column(0x01)
    2715                      .dwendentry
    2716                      .dwendtag $C$DW$151
    2717              
    2718 0000029a               .sect   ".text"
TMS320C2000 Assembler PC v20.2.1 Tue Feb 16 00:15:57 2021

Copyright (c) 1996-2018 Texas Instruments Incorporated
os_core.asm                                                          PAGE   52

    2719                      .clink
    2720                      .global _OSSchedUnlock
    2721              
    2722              $C$DW$156       .dwtag  DW_TAG_subprogram
    2723                      .dwattr $C$DW$156, DW_AT_name("OSSchedUnlock")
    2724                      .dwattr $C$DW$156, DW_AT_low_pc(_OSSchedUnlock)
    2725                      .dwattr $C$DW$156, DW_AT_high_pc(0x00)
    2726                      .dwattr $C$DW$156, DW_AT_TI_symbol_name("_OSSchedUnlock")
    2727                      .dwattr $C$DW$156, DW_AT_external
    2728                      .dwattr $C$DW$156, DW_AT_TI_begin_file("C:/ti/Workspace/PLC_certificate/Software/uCOS-II/Source/os_co
    2729                      .dwattr $C$DW$156, DW_AT_TI_begin_line(0x321)
    2730                      .dwattr $C$DW$156, DW_AT_TI_begin_column(0x07)
    2731                      .dwattr $C$DW$156, DW_AT_TI_max_frame_size(-4)
    2732                      .dwpsn  file "C:/ti/Workspace/PLC_certificate/Software/uCOS-II/Source/os_core.c",line 802,column 1,is
    2733              
    2734                      .dwfde $C$DW$CIE, _OSSchedUnlock
    2735              
    2736              ;***************************************************************
    2737              ;* FNAME: _OSSchedUnlock                FR SIZE:   2           *
    2738              ;*                                                             *
    2739              ;* FUNCTION ENVIRONMENT                                        *
    2740              ;*                                                             *
    2741              ;* FUNCTION PROPERTIES                                         *
    2742              ;*                            0 Parameter,  1 Auto,  0 SOE     *
    2743              ;***************************************************************
    2744              
    2745 0000029a       _OSSchedUnlock:
    2746                      .dwcfi  cfa_offset, -2
    2747                      .dwcfi  save_reg_to_mem, 26, 0
    2748 0000029a FE02          ADDB      SP,#2                 ; [CPU_ARAU] 
    2749                      .dwcfi  cfa_offset, -4
    2750              $C$DW$157       .dwtag  DW_TAG_variable
    2751                      .dwattr $C$DW$157, DW_AT_name("cpu_sr")
    2752                      .dwattr $C$DW$157, DW_AT_TI_symbol_name("_cpu_sr")
    2753                      .dwattr $C$DW$157, DW_AT_type(*$C$DW$T$44)
    2754                      .dwattr $C$DW$157, DW_AT_location[DW_OP_breg20 -1]
    2755              
    2756                      .dwpsn  file "C:/ti/Workspace/PLC_certificate/Software/uCOS-II/Source/os_core.c",line 804,column 23,i
    2757 0000029b 2B41          MOV       *-SP[1],#0            ; [CPU_ALU] |804| 
    2758                      .dwpsn  file "C:/ti/Workspace/PLC_certificate/Software/uCOS-II/Source/os_core.c",line 809,column 5,is
    2759 0000029c 761F-         MOVW      DP,#_OSRunning        ; [CPU_ARAU] 
         0000029d 0000 
    2760 0000029e 9207-         MOV       AL,@_OSRunning        ; [CPU_ALU] |809| 
    2761 0000029f 5201          CMPB      AL,#1                 ; [CPU_ALU] |809| 
    2762 000002a0 601E          B         $C$L61,NEQ            ; [CPU_ALU] |809| 
    2763                      ; branchcc occurs ; [] |809| 
    2764                      .dwpsn  file "C:/ti/Workspace/PLC_certificate/Software/uCOS-II/Source/os_core.c",line 810,column 9,is
    2765              $C$DW$158       .dwtag  DW_TAG_TI_branch
    2766                      .dwattr $C$DW$158, DW_AT_low_pc(0x00)
    2767                      .dwattr $C$DW$158, DW_AT_name("_OS_CPU_SR_Save")
    2768                      .dwattr $C$DW$158, DW_AT_TI_call
    2769              
    2770 000002a1 7640!         LCR       #_OS_CPU_SR_Save      ; [CPU_ALU] |810| 
         000002a2 0000 
    2771                      ; call occurs [#_OS_CPU_SR_Save] ; [] |810| 
TMS320C2000 Assembler PC v20.2.1 Tue Feb 16 00:15:57 2021

Copyright (c) 1996-2018 Texas Instruments Incorporated
os_core.asm                                                          PAGE   53

    2772 000002a3 9641          MOV       *-SP[1],AL            ; [CPU_ALU] |810| 
    2773                      .dwpsn  file "C:/ti/Workspace/PLC_certificate/Software/uCOS-II/Source/os_core.c",line 811,column 9,is
    2774 000002a4 761F-         MOVW      DP,#_OSIntNesting     ; [CPU_ARAU] 
         000002a5 0000 
    2775 000002a6 9202-         MOV       AL,@_OSIntNesting     ; [CPU_ALU] |811| 
    2776 000002a7 6014          B         $C$L60,NEQ            ; [CPU_ALU] |811| 
    2777                      ; branchcc occurs ; [] |811| 
    2778                      .dwpsn  file "C:/ti/Workspace/PLC_certificate/Software/uCOS-II/Source/os_core.c",line 812,column 13,i
    2779 000002a8 9203-         MOV       AL,@_OSLockNesting    ; [CPU_ALU] |812| 
    2780 000002a9 610E          B         $C$L59,EQ             ; [CPU_ALU] |812| 
    2781                      ; branchcc occurs ; [] |812| 
    2782                      .dwpsn  file "C:/ti/Workspace/PLC_certificate/Software/uCOS-II/Source/os_core.c",line 813,column 17,i
    2783 000002aa 0B03-         DEC       @_OSLockNesting       ; [CPU_ALU] |813| 
    2784                      .dwpsn  file "C:/ti/Workspace/PLC_certificate/Software/uCOS-II/Source/os_core.c",line 814,column 17,i
    2785 000002ab 9203-         MOV       AL,@_OSLockNesting    ; [CPU_ALU] |814| 
    2786 000002ac 6007          B         $C$L58,NEQ            ; [CPU_ALU] |814| 
    2787                      ; branchcc occurs ; [] |814| 
    2788                      .dwpsn  file "C:/ti/Workspace/PLC_certificate/Software/uCOS-II/Source/os_core.c",line 815,column 21,i
    2789 000002ad 9241          MOV       AL,*-SP[1]            ; [CPU_ALU] |815| 
    2790              $C$DW$159       .dwtag  DW_TAG_TI_branch
    2791                      .dwattr $C$DW$159, DW_AT_low_pc(0x00)
    2792                      .dwattr $C$DW$159, DW_AT_name("_OS_CPU_SR_Restore")
    2793                      .dwattr $C$DW$159, DW_AT_TI_call
    2794              
    2795 000002ae 7640!         LCR       #_OS_CPU_SR_Restore   ; [CPU_ALU] |815| 
         000002af 0000 
    2796                      ; call occurs [#_OS_CPU_SR_Restore] ; [] |815| 
    2797                      .dwpsn  file "C:/ti/Workspace/PLC_certificate/Software/uCOS-II/Source/os_core.c",line 816,column 21,i
    2798              $C$DW$160       .dwtag  DW_TAG_TI_branch
    2799                      .dwattr $C$DW$160, DW_AT_low_pc(0x00)
    2800                      .dwattr $C$DW$160, DW_AT_name("_OS_Sched")
    2801                      .dwattr $C$DW$160, DW_AT_TI_call
    2802              
    2803 000002b0 7640'         LCR       #_OS_Sched            ; [CPU_ALU] |816| 
         000002b1 05E8 
    2804                      ; call occurs [#_OS_Sched] ; [] |816| 
    2805 000002b2 6F0C          B         $C$L61,UNC            ; [CPU_ALU] 
    2806                      ; branch occurs ; [] 
    2807 000002b3       $C$L58:    
    2808                      .dwpsn  file "C:/ti/Workspace/PLC_certificate/Software/uCOS-II/Source/os_core.c",line 818,column 21,i
    2809 000002b3 9241          MOV       AL,*-SP[1]            ; [CPU_ALU] |818| 
    2810              $C$DW$161       .dwtag  DW_TAG_TI_branch
    2811                      .dwattr $C$DW$161, DW_AT_low_pc(0x00)
    2812                      .dwattr $C$DW$161, DW_AT_name("_OS_CPU_SR_Restore")
    2813                      .dwattr $C$DW$161, DW_AT_TI_call
    2814              
    2815 000002b4 7640!         LCR       #_OS_CPU_SR_Restore   ; [CPU_ALU] |818| 
         000002b5 0000 
    2816                      ; call occurs [#_OS_CPU_SR_Restore] ; [] |818| 
    2817 000002b6 6F08          B         $C$L61,UNC            ; [CPU_ALU] 
    2818                      ; branch occurs ; [] 
    2819 000002b7       $C$L59:    
    2820                      .dwpsn  file "C:/ti/Workspace/PLC_certificate/Software/uCOS-II/Source/os_core.c",line 821,column 17,i
    2821 000002b7 9241          MOV       AL,*-SP[1]            ; [CPU_ALU] |821| 
    2822              $C$DW$162       .dwtag  DW_TAG_TI_branch
TMS320C2000 Assembler PC v20.2.1 Tue Feb 16 00:15:57 2021

Copyright (c) 1996-2018 Texas Instruments Incorporated
os_core.asm                                                          PAGE   54

    2823                      .dwattr $C$DW$162, DW_AT_low_pc(0x00)
    2824                      .dwattr $C$DW$162, DW_AT_name("_OS_CPU_SR_Restore")
    2825                      .dwattr $C$DW$162, DW_AT_TI_call
    2826              
    2827 000002b8 7640!         LCR       #_OS_CPU_SR_Restore   ; [CPU_ALU] |821| 
         000002b9 0000 
    2828                      ; call occurs [#_OS_CPU_SR_Restore] ; [] |821| 
    2829 000002ba 6F04          B         $C$L61,UNC            ; [CPU_ALU] 
    2830                      ; branch occurs ; [] 
    2831 000002bb       $C$L60:    
    2832                      .dwpsn  file "C:/ti/Workspace/PLC_certificate/Software/uCOS-II/Source/os_core.c",line 824,column 13,i
    2833 000002bb 9241          MOV       AL,*-SP[1]            ; [CPU_ALU] |824| 
    2834              $C$DW$163       .dwtag  DW_TAG_TI_branch
    2835                      .dwattr $C$DW$163, DW_AT_low_pc(0x00)
    2836                      .dwattr $C$DW$163, DW_AT_name("_OS_CPU_SR_Restore")
    2837                      .dwattr $C$DW$163, DW_AT_TI_call
    2838              
    2839 000002bc 7640!         LCR       #_OS_CPU_SR_Restore   ; [CPU_ALU] |824| 
         000002bd 0000 
    2840                      ; call occurs [#_OS_CPU_SR_Restore] ; [] |824| 
    2841                      .dwpsn  file "C:/ti/Workspace/PLC_certificate/Software/uCOS-II/Source/os_core.c",line 827,column 1,is
    2842 000002be       $C$L61:    
    2843 000002be FE82          SUBB      SP,#2                 ; [CPU_ARAU] 
    2844                      .dwcfi  cfa_offset, -2
    2845              $C$DW$164       .dwtag  DW_TAG_TI_branch
    2846                      .dwattr $C$DW$164, DW_AT_low_pc(0x00)
    2847                      .dwattr $C$DW$164, DW_AT_TI_return
    2848              
    2849 000002bf 0006          LRETR     ; [CPU_ALU] 
    2850                      ; return occurs ; [] 
    2851                      .dwattr $C$DW$156, DW_AT_TI_end_file("C:/ti/Workspace/PLC_certificate/Software/uCOS-II/Source/os_core
    2852                      .dwattr $C$DW$156, DW_AT_TI_end_line(0x33b)
    2853                      .dwattr $C$DW$156, DW_AT_TI_end_column(0x01)
    2854                      .dwendentry
    2855                      .dwendtag $C$DW$156
    2856              
    2857 000002c0               .sect   ".text"
    2858                      .clink
    2859                      .global _OSStart
    2860              
    2861              $C$DW$165       .dwtag  DW_TAG_subprogram
    2862                      .dwattr $C$DW$165, DW_AT_name("OSStart")
    2863                      .dwattr $C$DW$165, DW_AT_low_pc(_OSStart)
    2864                      .dwattr $C$DW$165, DW_AT_high_pc(0x00)
    2865                      .dwattr $C$DW$165, DW_AT_TI_symbol_name("_OSStart")
    2866                      .dwattr $C$DW$165, DW_AT_external
    2867                      .dwattr $C$DW$165, DW_AT_TI_begin_file("C:/ti/Workspace/PLC_certificate/Software/uCOS-II/Source/os_co
    2868                      .dwattr $C$DW$165, DW_AT_TI_begin_line(0x353)
    2869                      .dwattr $C$DW$165, DW_AT_TI_begin_column(0x07)
    2870                      .dwattr $C$DW$165, DW_AT_TI_max_frame_size(-2)
    2871                      .dwpsn  file "C:/ti/Workspace/PLC_certificate/Software/uCOS-II/Source/os_core.c",line 852,column 1,is
    2872              
    2873                      .dwfde $C$DW$CIE, _OSStart
    2874              
    2875              ;***************************************************************
TMS320C2000 Assembler PC v20.2.1 Tue Feb 16 00:15:57 2021

Copyright (c) 1996-2018 Texas Instruments Incorporated
os_core.asm                                                          PAGE   55

    2876              ;* FNAME: _OSStart                      FR SIZE:   0           *
    2877              ;*                                                             *
    2878              ;* FUNCTION ENVIRONMENT                                        *
    2879              ;*                                                             *
    2880              ;* FUNCTION PROPERTIES                                         *
    2881              ;*                            0 Parameter,  0 Auto,  0 SOE     *
    2882              ;***************************************************************
    2883              
    2884 000002c0       _OSStart:
    2885                      .dwcfi  cfa_offset, -2
    2886                      .dwcfi  save_reg_to_mem, 26, 0
    2887                      .dwpsn  file "C:/ti/Workspace/PLC_certificate/Software/uCOS-II/Source/os_core.c",line 853,column 5,is
    2888 000002c0 761F-         MOVW      DP,#_OSRunning        ; [CPU_ARAU] 
         000002c1 0000 
    2889 000002c2 9207-         MOV       AL,@_OSRunning        ; [CPU_ALU] |853| 
    2890 000002c3 6013          B         $C$L62,NEQ            ; [CPU_ALU] |853| 
    2891                      ; branchcc occurs ; [] |853| 
    2892                      .dwpsn  file "C:/ti/Workspace/PLC_certificate/Software/uCOS-II/Source/os_core.c",line 854,column 9,is
    2893              $C$DW$166       .dwtag  DW_TAG_TI_branch
    2894                      .dwattr $C$DW$166, DW_AT_low_pc(0x00)
    2895                      .dwattr $C$DW$166, DW_AT_name("_OS_SchedNew")
    2896                      .dwattr $C$DW$166, DW_AT_TI_call
    2897              
    2898 000002c4 7640'         LCR       #_OS_SchedNew         ; [CPU_ALU] |854| 
         000002c5 0613 
    2899                      ; call occurs [#_OS_SchedNew] ; [] |854| 
    2900                      .dwpsn  file "C:/ti/Workspace/PLC_certificate/Software/uCOS-II/Source/os_core.c",line 855,column 9,is
    2901 000002c6 761F-         MOVW      DP,#_OSPrioHighRdy    ; [CPU_ARAU] 
         000002c7 0000 
    2902 000002c8 9205-         MOV       AL,@_OSPrioHighRdy    ; [CPU_ALU] |855| 
    2903 000002c9 9604-         MOV       @_OSPrioCur,AL        ; [CPU_ALU] |855| 
    2904                      .dwpsn  file "C:/ti/Workspace/PLC_certificate/Software/uCOS-II/Source/os_core.c",line 856,column 9,is
    2905 000002ca 2901          CLRC      SXM                   ; [CPU_ALU] 
    2906 000002cb 8F00-         MOVL      XAR4,#_OSTCBPrioTbl   ; [CPU_ARAU] |856| 
         000002cc 0000 
    2907 000002cd 5603-         MOV       ACC,@_OSPrioHighRdy << 1 ; [CPU_ALU] |856| 
         000002ce 0105 
    2908 000002cf 5601          ADDL      XAR4,ACC              ; [CPU_ALU] |856| 
         000002d0 00A4 
    2909 000002d1 06C4          MOVL      ACC,*+XAR4[0]         ; [CPU_ALU] |856| 
    2910 000002d2 1E1C-         MOVL      @_OSTCBHighRdy,ACC    ; [CPU_ALU] |856| 
    2911                      .dwpsn  file "C:/ti/Workspace/PLC_certificate/Software/uCOS-II/Source/os_core.c",line 857,column 9,is
    2912 000002d3 1E18-         MOVL      @_OSTCBCur,ACC        ; [CPU_ALU] |857| 
    2913                      .dwpsn  file "C:/ti/Workspace/PLC_certificate/Software/uCOS-II/Source/os_core.c",line 858,column 9,is
    2914              $C$DW$167       .dwtag  DW_TAG_TI_branch
    2915                      .dwattr $C$DW$167, DW_AT_low_pc(0x00)
    2916                      .dwattr $C$DW$167, DW_AT_name("_OSStartHighRdy")
    2917                      .dwattr $C$DW$167, DW_AT_TI_call
    2918              
    2919 000002d4 7640!         LCR       #_OSStartHighRdy      ; [CPU_ALU] |858| 
         000002d5 0000 
    2920                      ; call occurs [#_OSStartHighRdy] ; [] |858| 
    2921                      .dwpsn  file "C:/ti/Workspace/PLC_certificate/Software/uCOS-II/Source/os_core.c",line 860,column 1,is
    2922              $C$L62:    
    2923              $C$DW$168       .dwtag  DW_TAG_TI_branch
TMS320C2000 Assembler PC v20.2.1 Tue Feb 16 00:15:57 2021

Copyright (c) 1996-2018 Texas Instruments Incorporated
os_core.asm                                                          PAGE   56

    2924                      .dwattr $C$DW$168, DW_AT_low_pc(0x00)
    2925                      .dwattr $C$DW$168, DW_AT_TI_return
    2926              
    2927 000002d6 0006          LRETR     ; [CPU_ALU] 
    2928                      ; return occurs ; [] 
    2929                      .dwattr $C$DW$165, DW_AT_TI_end_file("C:/ti/Workspace/PLC_certificate/Software/uCOS-II/Source/os_core
    2930                      .dwattr $C$DW$165, DW_AT_TI_end_line(0x35c)
    2931                      .dwattr $C$DW$165, DW_AT_TI_end_column(0x01)
    2932                      .dwendentry
    2933                      .dwendtag $C$DW$165
    2934              
    2935 000002d7               .sect   ".text"
    2936                      .clink
    2937                      .global _OSStatInit
    2938              
    2939              $C$DW$169       .dwtag  DW_TAG_subprogram
    2940                      .dwattr $C$DW$169, DW_AT_name("OSStatInit")
    2941                      .dwattr $C$DW$169, DW_AT_low_pc(_OSStatInit)
    2942                      .dwattr $C$DW$169, DW_AT_high_pc(0x00)
    2943                      .dwattr $C$DW$169, DW_AT_TI_symbol_name("_OSStatInit")
    2944                      .dwattr $C$DW$169, DW_AT_external
    2945                      .dwattr $C$DW$169, DW_AT_TI_begin_file("C:/ti/Workspace/PLC_certificate/Software/uCOS-II/Source/os_co
    2946                      .dwattr $C$DW$169, DW_AT_TI_begin_line(0x373)
    2947                      .dwattr $C$DW$169, DW_AT_TI_begin_column(0x07)
    2948                      .dwattr $C$DW$169, DW_AT_TI_max_frame_size(-4)
    2949                      .dwpsn  file "C:/ti/Workspace/PLC_certificate/Software/uCOS-II/Source/os_core.c",line 884,column 1,is
    2950              
    2951                      .dwfde $C$DW$CIE, _OSStatInit
    2952              
    2953              ;***************************************************************
    2954              ;* FNAME: _OSStatInit                   FR SIZE:   2           *
    2955              ;*                                                             *
    2956              ;* FUNCTION ENVIRONMENT                                        *
    2957              ;*                                                             *
    2958              ;* FUNCTION PROPERTIES                                         *
    2959              ;*                            0 Parameter,  1 Auto,  0 SOE     *
    2960              ;***************************************************************
    2961              
    2962 000002d7       _OSStatInit:
    2963                      .dwcfi  cfa_offset, -2
    2964                      .dwcfi  save_reg_to_mem, 26, 0
    2965 000002d7 FE02          ADDB      SP,#2                 ; [CPU_ARAU] 
    2966                      .dwcfi  cfa_offset, -4
    2967              $C$DW$170       .dwtag  DW_TAG_variable
    2968                      .dwattr $C$DW$170, DW_AT_name("cpu_sr")
    2969                      .dwattr $C$DW$170, DW_AT_TI_symbol_name("_cpu_sr")
    2970                      .dwattr $C$DW$170, DW_AT_type(*$C$DW$T$44)
    2971                      .dwattr $C$DW$170, DW_AT_location[DW_OP_breg20 -1]
    2972              
    2973                      .dwpsn  file "C:/ti/Workspace/PLC_certificate/Software/uCOS-II/Source/os_core.c",line 886,column 23,i
    2974 000002d8 2B41          MOV       *-SP[1],#0            ; [CPU_ALU] |886| 
    2975                      .dwpsn  file "C:/ti/Workspace/PLC_certificate/Software/uCOS-II/Source/os_core.c",line 891,column 5,is
    2976 000002d9 0202          MOVB      ACC,#2                ; [CPU_ALU] |891| 
    2977              $C$DW$171       .dwtag  DW_TAG_TI_branch
    2978                      .dwattr $C$DW$171, DW_AT_low_pc(0x00)
TMS320C2000 Assembler PC v20.2.1 Tue Feb 16 00:15:57 2021

Copyright (c) 1996-2018 Texas Instruments Incorporated
os_core.asm                                                          PAGE   57

    2979                      .dwattr $C$DW$171, DW_AT_name("_OSTimeDly")
    2980                      .dwattr $C$DW$171, DW_AT_TI_call
    2981              
    2982 000002da 7640!         LCR       #_OSTimeDly           ; [CPU_ALU] |891| 
         000002db 0000 
    2983                      ; call occurs [#_OSTimeDly] ; [] |891| 
    2984                      .dwpsn  file "C:/ti/Workspace/PLC_certificate/Software/uCOS-II/Source/os_core.c",line 892,column 5,is
    2985              $C$DW$172       .dwtag  DW_TAG_TI_branch
    2986                      .dwattr $C$DW$172, DW_AT_low_pc(0x00)
    2987                      .dwattr $C$DW$172, DW_AT_name("_OS_CPU_SR_Save")
    2988                      .dwattr $C$DW$172, DW_AT_TI_call
    2989              
    2990 000002dc 7640!         LCR       #_OS_CPU_SR_Save      ; [CPU_ALU] |892| 
         000002dd 0000 
    2991                      ; call occurs [#_OS_CPU_SR_Save] ; [] |892| 
    2992 000002de 9641          MOV       *-SP[1],AL            ; [CPU_ALU] |892| 
    2993                      .dwpsn  file "C:/ti/Workspace/PLC_certificate/Software/uCOS-II/Source/os_core.c",line 893,column 5,is
    2994 000002df 761F-         MOVW      DP,#_OSIdleCtr        ; [CPU_ARAU] 
         000002e0 0000 
    2995 000002e1 0200          MOVB      ACC,#0                ; [CPU_ALU] |893| 
    2996 000002e2 1E16-         MOVL      @_OSIdleCtr,ACC       ; [CPU_ALU] |893| 
    2997                      .dwpsn  file "C:/ti/Workspace/PLC_certificate/Software/uCOS-II/Source/os_core.c",line 894,column 5,is
    2998 000002e3 9241          MOV       AL,*-SP[1]            ; [CPU_ALU] |894| 
    2999              $C$DW$173       .dwtag  DW_TAG_TI_branch
    3000                      .dwattr $C$DW$173, DW_AT_low_pc(0x00)
    3001                      .dwattr $C$DW$173, DW_AT_name("_OS_CPU_SR_Restore")
    3002                      .dwattr $C$DW$173, DW_AT_TI_call
    3003              
    3004 000002e4 7640!         LCR       #_OS_CPU_SR_Restore   ; [CPU_ALU] |894| 
         000002e5 0000 
    3005                      ; call occurs [#_OS_CPU_SR_Restore] ; [] |894| 
    3006                      .dwpsn  file "C:/ti/Workspace/PLC_certificate/Software/uCOS-II/Source/os_core.c",line 895,column 5,is
    3007 000002e6 0264          MOVB      ACC,#100              ; [CPU_ALU] |895| 
    3008              $C$DW$174       .dwtag  DW_TAG_TI_branch
    3009                      .dwattr $C$DW$174, DW_AT_low_pc(0x00)
    3010                      .dwattr $C$DW$174, DW_AT_name("_OSTimeDly")
    3011                      .dwattr $C$DW$174, DW_AT_TI_call
    3012              
    3013 000002e7 7640!         LCR       #_OSTimeDly           ; [CPU_ALU] |895| 
         000002e8 0000 
    3014                      ; call occurs [#_OSTimeDly] ; [] |895| 
    3015                      .dwpsn  file "C:/ti/Workspace/PLC_certificate/Software/uCOS-II/Source/os_core.c",line 896,column 5,is
    3016              $C$DW$175       .dwtag  DW_TAG_TI_branch
    3017                      .dwattr $C$DW$175, DW_AT_low_pc(0x00)
    3018                      .dwattr $C$DW$175, DW_AT_name("_OS_CPU_SR_Save")
    3019                      .dwattr $C$DW$175, DW_AT_TI_call
    3020              
    3021 000002e9 7640!         LCR       #_OS_CPU_SR_Save      ; [CPU_ALU] |896| 
         000002ea 0000 
    3022                      ; call occurs [#_OS_CPU_SR_Save] ; [] |896| 
    3023 000002eb 9641          MOV       *-SP[1],AL            ; [CPU_ALU] |896| 
    3024                      .dwpsn  file "C:/ti/Workspace/PLC_certificate/Software/uCOS-II/Source/os_core.c",line 897,column 5,is
    3025 000002ec 761F-         MOVW      DP,#_OSIdleCtr        ; [CPU_ARAU] 
         000002ed 0000 
    3026 000002ee 0616-         MOVL      ACC,@_OSIdleCtr       ; [CPU_ALU] |897| 
TMS320C2000 Assembler PC v20.2.1 Tue Feb 16 00:15:57 2021

Copyright (c) 1996-2018 Texas Instruments Incorporated
os_core.asm                                                          PAGE   58

    3027 000002ef 1E12-         MOVL      @_OSIdleCtrMax,ACC    ; [CPU_ALU] |897| 
    3028                      .dwpsn  file "C:/ti/Workspace/PLC_certificate/Software/uCOS-II/Source/os_core.c",line 898,column 5,is
    3029 000002f0 56BF-         MOVB      @_OSStatRdy,#1,UNC    ; [CPU_ALU] |898| 
         000002f1 0101 
    3030                      .dwpsn  file "C:/ti/Workspace/PLC_certificate/Software/uCOS-II/Source/os_core.c",line 899,column 5,is
    3031 000002f2 9241          MOV       AL,*-SP[1]            ; [CPU_ALU] |899| 
    3032              $C$DW$176       .dwtag  DW_TAG_TI_branch
    3033                      .dwattr $C$DW$176, DW_AT_low_pc(0x00)
    3034                      .dwattr $C$DW$176, DW_AT_name("_OS_CPU_SR_Restore")
    3035                      .dwattr $C$DW$176, DW_AT_TI_call
    3036              
    3037 000002f3 7640!         LCR       #_OS_CPU_SR_Restore   ; [CPU_ALU] |899| 
         000002f4 0000 
    3038                      ; call occurs [#_OS_CPU_SR_Restore] ; [] |899| 
    3039                      .dwpsn  file "C:/ti/Workspace/PLC_certificate/Software/uCOS-II/Source/os_core.c",line 900,column 1,is
    3040 000002f5 FE82          SUBB      SP,#2                 ; [CPU_ARAU] 
    3041                      .dwcfi  cfa_offset, -2
    3042              $C$DW$177       .dwtag  DW_TAG_TI_branch
    3043                      .dwattr $C$DW$177, DW_AT_low_pc(0x00)
    3044                      .dwattr $C$DW$177, DW_AT_TI_return
    3045              
    3046 000002f6 0006          LRETR     ; [CPU_ALU] 
    3047                      ; return occurs ; [] 
    3048                      .dwattr $C$DW$169, DW_AT_TI_end_file("C:/ti/Workspace/PLC_certificate/Software/uCOS-II/Source/os_core
    3049                      .dwattr $C$DW$169, DW_AT_TI_end_line(0x384)
    3050                      .dwattr $C$DW$169, DW_AT_TI_end_column(0x01)
    3051                      .dwendentry
    3052                      .dwendtag $C$DW$169
    3053              
    3054 000002f7               .sect   ".text"
    3055                      .clink
    3056                      .global _OSTimeTick
    3057              
    3058              $C$DW$178       .dwtag  DW_TAG_subprogram
    3059                      .dwattr $C$DW$178, DW_AT_name("OSTimeTick")
    3060                      .dwattr $C$DW$178, DW_AT_low_pc(_OSTimeTick)
    3061                      .dwattr $C$DW$178, DW_AT_high_pc(0x00)
    3062                      .dwattr $C$DW$178, DW_AT_TI_symbol_name("_OSTimeTick")
    3063                      .dwattr $C$DW$178, DW_AT_external
    3064                      .dwattr $C$DW$178, DW_AT_TI_begin_file("C:/ti/Workspace/PLC_certificate/Software/uCOS-II/Source/os_co
    3065                      .dwattr $C$DW$178, DW_AT_TI_begin_line(0x395)
    3066                      .dwattr $C$DW$178, DW_AT_TI_begin_column(0x07)
    3067                      .dwattr $C$DW$178, DW_AT_TI_max_frame_size(-6)
    3068                      .dwpsn  file "C:/ti/Workspace/PLC_certificate/Software/uCOS-II/Source/os_core.c",line 918,column 1,is
    3069              
    3070                      .dwfde $C$DW$CIE, _OSTimeTick
    3071              
    3072              ;***************************************************************
    3073              ;* FNAME: _OSTimeTick                   FR SIZE:   4           *
    3074              ;*                                                             *
    3075              ;* FUNCTION ENVIRONMENT                                        *
    3076              ;*                                                             *
    3077              ;* FUNCTION PROPERTIES                                         *
    3078              ;*                            0 Parameter,  4 Auto,  0 SOE     *
    3079              ;***************************************************************
TMS320C2000 Assembler PC v20.2.1 Tue Feb 16 00:15:57 2021

Copyright (c) 1996-2018 Texas Instruments Incorporated
os_core.asm                                                          PAGE   59

    3080              
    3081 000002f7       _OSTimeTick:
    3082                      .dwcfi  cfa_offset, -2
    3083                      .dwcfi  save_reg_to_mem, 26, 0
    3084 000002f7 FE04          ADDB      SP,#4                 ; [CPU_ARAU] 
    3085                      .dwcfi  cfa_offset, -6
    3086              $C$DW$179       .dwtag  DW_TAG_variable
    3087                      .dwattr $C$DW$179, DW_AT_name("ptcb")
    3088                      .dwattr $C$DW$179, DW_AT_TI_symbol_name("_ptcb")
    3089                      .dwattr $C$DW$179, DW_AT_type(*$C$DW$T$56)
    3090                      .dwattr $C$DW$179, DW_AT_location[DW_OP_breg20 -2]
    3091              
    3092              $C$DW$180       .dwtag  DW_TAG_variable
    3093                      .dwattr $C$DW$180, DW_AT_name("step")
    3094                      .dwattr $C$DW$180, DW_AT_TI_symbol_name("_step")
    3095                      .dwattr $C$DW$180, DW_AT_type(*$C$DW$T$70)
    3096                      .dwattr $C$DW$180, DW_AT_location[DW_OP_breg20 -3]
    3097              
    3098              $C$DW$181       .dwtag  DW_TAG_variable
    3099                      .dwattr $C$DW$181, DW_AT_name("cpu_sr")
    3100                      .dwattr $C$DW$181, DW_AT_TI_symbol_name("_cpu_sr")
    3101                      .dwattr $C$DW$181, DW_AT_type(*$C$DW$T$44)
    3102                      .dwattr $C$DW$181, DW_AT_location[DW_OP_breg20 -4]
    3103              
    3104                      .dwpsn  file "C:/ti/Workspace/PLC_certificate/Software/uCOS-II/Source/os_core.c",line 924,column 23,i
    3105 000002f8 2B44          MOV       *-SP[4],#0            ; [CPU_ALU] |924| 
    3106                      .dwpsn  file "C:/ti/Workspace/PLC_certificate/Software/uCOS-II/Source/os_core.c",line 930,column 5,is
    3107              $C$DW$182       .dwtag  DW_TAG_TI_branch
    3108                      .dwattr $C$DW$182, DW_AT_low_pc(0x00)
    3109                      .dwattr $C$DW$182, DW_AT_name("_OSTimeTickHook")
    3110                      .dwattr $C$DW$182, DW_AT_TI_call
    3111              
    3112 000002f9 7640!         LCR       #_OSTimeTickHook      ; [CPU_ALU] |930| 
         000002fa 0000 
    3113                      ; call occurs [#_OSTimeTickHook] ; [] |930| 
    3114                      .dwpsn  file "C:/ti/Workspace/PLC_certificate/Software/uCOS-II/Source/os_core.c",line 933,column 5,is
    3115              $C$DW$183       .dwtag  DW_TAG_TI_branch
    3116                      .dwattr $C$DW$183, DW_AT_low_pc(0x00)
    3117                      .dwattr $C$DW$183, DW_AT_name("_OS_CPU_SR_Save")
    3118                      .dwattr $C$DW$183, DW_AT_TI_call
    3119              
    3120 000002fb 7640!         LCR       #_OS_CPU_SR_Save      ; [CPU_ALU] |933| 
         000002fc 0000 
    3121                      ; call occurs [#_OS_CPU_SR_Save] ; [] |933| 
    3122 000002fd 9644          MOV       *-SP[4],AL            ; [CPU_ALU] |933| 
    3123                      .dwpsn  file "C:/ti/Workspace/PLC_certificate/Software/uCOS-II/Source/os_core.c",line 934,column 5,is
    3124 000002fe 761F-         MOVW      DP,#_OSTime           ; [CPU_ARAU] 
         000002ff 0000 
    3125 00000300 0201          MOVB      ACC,#1                ; [CPU_ALU] |934| 
    3126 00000301 5601-         ADDL      @_OSTime,ACC          ; [CPU_ALU] |934| 
         00000302 0024 
    3127                      .dwpsn  file "C:/ti/Workspace/PLC_certificate/Software/uCOS-II/Source/os_core.c",line 935,column 5,is
    3128 00000303 9244          MOV       AL,*-SP[4]            ; [CPU_ALU] |935| 
    3129              $C$DW$184       .dwtag  DW_TAG_TI_branch
    3130                      .dwattr $C$DW$184, DW_AT_low_pc(0x00)
TMS320C2000 Assembler PC v20.2.1 Tue Feb 16 00:15:57 2021

Copyright (c) 1996-2018 Texas Instruments Incorporated
os_core.asm                                                          PAGE   60

    3131                      .dwattr $C$DW$184, DW_AT_name("_OS_CPU_SR_Restore")
    3132                      .dwattr $C$DW$184, DW_AT_TI_call
    3133              
    3134 00000304 7640!         LCR       #_OS_CPU_SR_Restore   ; [CPU_ALU] |935| 
         00000305 0000 
    3135                      ; call occurs [#_OS_CPU_SR_Restore] ; [] |935| 
    3136                      .dwpsn  file "C:/ti/Workspace/PLC_certificate/Software/uCOS-II/Source/os_core.c",line 937,column 5,is
    3137 00000306 761F-         MOVW      DP,#_OSRunning        ; [CPU_ARAU] 
         00000307 0000 
    3138 00000308 9207-         MOV       AL,@_OSRunning        ; [CPU_ALU] |937| 
    3139 00000309 5201          CMPB      AL,#1                 ; [CPU_ALU] |937| 
    3140 0000030a 606B          B         $C$L74,NEQ            ; [CPU_ALU] |937| 
    3141                      ; branchcc occurs ; [] |937| 
    3142                      .dwpsn  file "C:/ti/Workspace/PLC_certificate/Software/uCOS-II/Source/os_core.c",line 939,column 9,is
    3143 0000030b 6F0F          B         $C$L67,UNC            ; [CPU_ALU] |939| 
    3144                      ; branch occurs ; [] |939| 
    3145 0000030c       $C$L63:    
    3146                      .dwpsn  file "C:/ti/Workspace/PLC_certificate/Software/uCOS-II/Source/os_core.c",line 941,column 18,i
    3147 0000030c 56BF          MOVB      *-SP[3],#1,UNC        ; [CPU_ALU] |941| 
         0000030d 0143 
    3148                      .dwpsn  file "C:/ti/Workspace/PLC_certificate/Software/uCOS-II/Source/os_core.c",line 942,column 18,i
    3149 0000030e 6F13          B         $C$L68,UNC            ; [CPU_ALU] |942| 
    3150                      ; branch occurs ; [] |942| 
    3151 0000030f       $C$L64:    
    3152                      .dwpsn  file "C:/ti/Workspace/PLC_certificate/Software/uCOS-II/Source/os_core.c",line 945,column 18,i
    3153 0000030f 2B43          MOV       *-SP[3],#0            ; [CPU_ALU] |945| 
    3154                      .dwpsn  file "C:/ti/Workspace/PLC_certificate/Software/uCOS-II/Source/os_core.c",line 946,column 18,i
    3155 00000310 6F11          B         $C$L68,UNC            ; [CPU_ALU] |946| 
    3156                      ; branch occurs ; [] |946| 
    3157 00000311       $C$L65:    
    3158                      .dwpsn  file "C:/ti/Workspace/PLC_certificate/Software/uCOS-II/Source/os_core.c",line 949,column 18,i
    3159 00000311 56BF          MOVB      *-SP[3],#1,UNC        ; [CPU_ALU] |949| 
         00000312 0143 
    3160                      .dwpsn  file "C:/ti/Workspace/PLC_certificate/Software/uCOS-II/Source/os_core.c",line 950,column 18,i
    3161 00000313 56BF-         MOVB      @_OSTickStepState,#1,UNC ; [CPU_ALU] |950| 
         00000314 0109 
    3162                      .dwpsn  file "C:/ti/Workspace/PLC_certificate/Software/uCOS-II/Source/os_core.c",line 951,column 18,i
    3163 00000315 6F0C          B         $C$L68,UNC            ; [CPU_ALU] |951| 
    3164                      ; branch occurs ; [] |951| 
    3165 00000316       $C$L66:    
    3166                      .dwpsn  file "C:/ti/Workspace/PLC_certificate/Software/uCOS-II/Source/os_core.c",line 954,column 18,i
    3167 00000316 56BF          MOVB      *-SP[3],#1,UNC        ; [CPU_ALU] |954| 
         00000317 0143 
    3168                      .dwpsn  file "C:/ti/Workspace/PLC_certificate/Software/uCOS-II/Source/os_core.c",line 955,column 18,i
    3169 00000318 2B09-         MOV       @_OSTickStepState,#0  ; [CPU_ALU] |955| 
    3170                      .dwpsn  file "C:/ti/Workspace/PLC_certificate/Software/uCOS-II/Source/os_core.c",line 956,column 18,i
    3171 00000319 6F08          B         $C$L68,UNC            ; [CPU_ALU] |956| 
    3172                      ; branch occurs ; [] |956| 
    3173 0000031a       $C$L67:    
    3174                      .dwpsn  file "C:/ti/Workspace/PLC_certificate/Software/uCOS-II/Source/os_core.c",line 939,column 9,is
    3175 0000031a 9209-         MOV       AL,@_OSTickStepState  ; [CPU_ALU] |939| 
    3176 0000031b 61F1          B         $C$L63,EQ             ; [CPU_ALU] |939| 
    3177                      ; branchcc occurs ; [] |939| 
    3178 0000031c 5201          CMPB      AL,#1                 ; [CPU_ALU] |939| 
    3179 0000031d 61F2          B         $C$L64,EQ             ; [CPU_ALU] |939| 
TMS320C2000 Assembler PC v20.2.1 Tue Feb 16 00:15:57 2021

Copyright (c) 1996-2018 Texas Instruments Incorporated
os_core.asm                                                          PAGE   61

    3180                      ; branchcc occurs ; [] |939| 
    3181 0000031e 5202          CMPB      AL,#2                 ; [CPU_ALU] |939| 
    3182 0000031f 61F2          B         $C$L65,EQ             ; [CPU_ALU] |939| 
    3183                      ; branchcc occurs ; [] |939| 
    3184 00000320 6FF6          B         $C$L66,UNC            ; [CPU_ALU] |939| 
    3185                      ; branch occurs ; [] |939| 
    3186 00000321       $C$L68:    
    3187                      .dwpsn  file "C:/ti/Workspace/PLC_certificate/Software/uCOS-II/Source/os_core.c",line 958,column 9,is
    3188 00000321 9243          MOV       AL,*-SP[3]            ; [CPU_ALU] |958| 
    3189 00000322 6153          B         $C$L74,EQ             ; [CPU_ALU] |958| 
    3190                      ; branchcc occurs ; [] |958| 
    3191                      .dwpsn  file "C:/ti/Workspace/PLC_certificate/Software/uCOS-II/Source/os_core.c",line 959,column 13,i
    3192                      .dwpsn  file "C:/ti/Workspace/PLC_certificate/Software/uCOS-II/Source/os_core.c",line 962,column 9,is
    3193 00000323 061E-         MOVL      ACC,@_OSTCBList       ; [CPU_ALU] |962| 
    3194 00000324 1E42          MOVL      *-SP[2],ACC           ; [CPU_ALU] |962| 
    3195                      .dwpsn  file "C:/ti/Workspace/PLC_certificate/Software/uCOS-II/Source/os_core.c",line 963,column 9,is
    3196 00000325 6F4A          B         $C$L73,UNC            ; [CPU_ALU] |963| 
    3197                      ; branch occurs ; [] |963| 
    3198 00000326       $C$L69:    
    3199                      .dwpsn  file "C:/ti/Workspace/PLC_certificate/Software/uCOS-II/Source/os_core.c",line 964,column 13,i
    3200              $C$DW$185       .dwtag  DW_TAG_TI_branch
    3201                      .dwattr $C$DW$185, DW_AT_low_pc(0x00)
    3202                      .dwattr $C$DW$185, DW_AT_name("_OS_CPU_SR_Save")
    3203                      .dwattr $C$DW$185, DW_AT_TI_call
    3204              
    3205 00000326 7640!         LCR       #_OS_CPU_SR_Save      ; [CPU_ALU] |964| 
         00000327 0000 
    3206                      ; call occurs [#_OS_CPU_SR_Save] ; [] |964| 
    3207 00000328 9644          MOV       *-SP[4],AL            ; [CPU_ALU] |964| 
    3208                      .dwpsn  file "C:/ti/Workspace/PLC_certificate/Software/uCOS-II/Source/os_core.c",line 965,column 13,i
    3209 00000329 0218          MOVB      ACC,#24               ; [CPU_ALU] |965| 
    3210 0000032a 0742          ADDL      ACC,*-SP[2]           ; [CPU_ALU] |965| 
    3211 0000032b 8AA9          MOVL      XAR4,ACC              ; [CPU_ALU] |965| 
    3212 0000032c 06C4          MOVL      ACC,*+XAR4[0]         ; [CPU_ALU] |965| 
    3213 0000032d 613A          B         $C$L72,EQ             ; [CPU_ALU] |965| 
    3214                      ; branchcc occurs ; [] |965| 
    3215                      .dwpsn  file "C:/ti/Workspace/PLC_certificate/Software/uCOS-II/Source/os_core.c",line 966,column 17,i
    3216 0000032e 0218          MOVB      ACC,#24               ; [CPU_ALU] |966| 
    3217 0000032f 0742          ADDL      ACC,*-SP[2]           ; [CPU_ALU] |966| 
    3218 00000330 8AA9          MOVL      XAR4,ACC              ; [CPU_ALU] |966| 
    3219 00000331 0201          MOVB      ACC,#1                ; [CPU_ALU] |966| 
    3220 00000332 5641          SUBL      *+XAR4[0],ACC         ; [CPU_ALU] |966| 
         00000333 00C4 
    3221                      .dwpsn  file "C:/ti/Workspace/PLC_certificate/Software/uCOS-II/Source/os_core.c",line 967,column 17,i
    3222 00000334 0218          MOVB      ACC,#24               ; [CPU_ALU] |967| 
    3223 00000335 0742          ADDL      ACC,*-SP[2]           ; [CPU_ALU] |967| 
    3224 00000336 8AA9          MOVL      XAR4,ACC              ; [CPU_ALU] |967| 
    3225 00000337 06C4          MOVL      ACC,*+XAR4[0]         ; [CPU_ALU] |967| 
    3226 00000338 602F          B         $C$L72,NEQ            ; [CPU_ALU] |967| 
    3227                      ; branchcc occurs ; [] |967| 
    3228                      .dwpsn  file "C:/ti/Workspace/PLC_certificate/Software/uCOS-II/Source/os_core.c",line 969,column 21,i
    3229 00000339 021A          MOVB      ACC,#26               ; [CPU_ALU] |969| 
    3230 0000033a 0742          ADDL      ACC,*-SP[2]           ; [CPU_ALU] |969| 
    3231 0000033b 8AA9          MOVL      XAR4,ACC              ; [CPU_ALU] |969| 
    3232 0000033c 92C4          MOV       AL,*+XAR4[0]          ; [CPU_ALU] |969| 
TMS320C2000 Assembler PC v20.2.1 Tue Feb 16 00:15:57 2021

Copyright (c) 1996-2018 Texas Instruments Incorporated
os_core.asm                                                          PAGE   62

    3233 0000033d 9037          ANDB      AL,#0x37              ; [CPU_ALU] |969| 
    3234 0000033e 610C          B         $C$L70,EQ             ; [CPU_ALU] |969| 
    3235                      ; branchcc occurs ; [] |969| 
    3236                      .dwpsn  file "C:/ti/Workspace/PLC_certificate/Software/uCOS-II/Source/os_core.c",line 970,column 25,i
    3237 0000033f 021A          MOVB      ACC,#26               ; [CPU_ALU] |970| 
    3238 00000340 0742          ADDL      ACC,*-SP[2]           ; [CPU_ALU] |970| 
    3239 00000341 8AA9          MOVL      XAR4,ACC              ; [CPU_ALU] |970| 
    3240 00000342 18C4          AND       *+XAR4[0],#0xffc8     ; [CPU_ALU] |970| 
         00000343 FFC8 
    3241                      .dwpsn  file "C:/ti/Workspace/PLC_certificate/Software/uCOS-II/Source/os_core.c",line 971,column 25,i
    3242 00000344 021B          MOVB      ACC,#27               ; [CPU_ALU] |971| 
    3243 00000345 0742          ADDL      ACC,*-SP[2]           ; [CPU_ALU] |971| 
    3244 00000346 8AA9          MOVL      XAR4,ACC              ; [CPU_ALU] |971| 
    3245 00000347 56BF          MOVB      *+XAR4[0],#1,UNC      ; [CPU_ALU] |971| 
         00000348 01C4 
    3246 00000349 6F05          B         $C$L71,UNC            ; [CPU_ALU] 
    3247                      ; branch occurs ; [] 
    3248 0000034a       $C$L70:    
    3249                      .dwpsn  file "C:/ti/Workspace/PLC_certificate/Software/uCOS-II/Source/os_core.c",line 973,column 25,i
    3250 0000034a 021B          MOVB      ACC,#27               ; [CPU_ALU] |973| 
    3251 0000034b 0742          ADDL      ACC,*-SP[2]           ; [CPU_ALU] |973| 
    3252 0000034c 8AA9          MOVL      XAR4,ACC              ; [CPU_ALU] |973| 
