TMS320C2000 Assembler PC v20.2.1 Tue Feb 16 00:15:58 2021

Copyright (c) 1996-2018 Texas Instruments Incorporated
os_flag.asm                                                          PAGE    1

       1              ;***************************************************************
       2              ;* TMS320C2000 G3 C/C++ Codegen                               PC v20.2.1.LTS *
       3              ;* Date/Time created: Tue Feb 16 00:15:58 2021                 *
       4              ;***************************************************************
       5                      .compiler_opts --abi=coffabi --diag_wrap=off --float_support=softlib --hll_source=on --mem_model:code
       6                      .asg    XAR2, FP
       7              
       8              $C$DW$CU        .dwtag  DW_TAG_compile_unit
       9                      .dwattr $C$DW$CU, DW_AT_name("C:/ti/Workspace/PLC_certificate/Software/uCOS-II/Source/os_flag.c")
      10                      .dwattr $C$DW$CU, DW_AT_producer("TI TMS320C2000 G3 C/C++ Codegen PC v20.2.1.LTS Copyright (c) 1996-2
      11                      .dwattr $C$DW$CU, DW_AT_TI_version(0x01)
      12                      .dwattr $C$DW$CU, DW_AT_comp_dir("C:\ti\Workspace\PLC_certificate\Examples\TI\TMDSDOCK28335\OS2\CCS\D
      13              
      14              $C$DW$1 .dwtag  DW_TAG_subprogram
      15                      .dwattr $C$DW$1, DW_AT_name("OS_CPU_SR_Restore")
      16                      .dwattr $C$DW$1, DW_AT_TI_symbol_name("_OS_CPU_SR_Restore")
      17                      .dwattr $C$DW$1, DW_AT_declaration
      18                      .dwattr $C$DW$1, DW_AT_external
      19              $C$DW$2 .dwtag  DW_TAG_formal_parameter
      20                      .dwattr $C$DW$2, DW_AT_type(*$C$DW$T$39)
      21              
      22                      .dwendtag $C$DW$1
      23              
      24              
      25              $C$DW$3 .dwtag  DW_TAG_subprogram
      26                      .dwattr $C$DW$3, DW_AT_name("OS_Sched")
      27                      .dwattr $C$DW$3, DW_AT_TI_symbol_name("_OS_Sched")
      28                      .dwattr $C$DW$3, DW_AT_declaration
      29                      .dwattr $C$DW$3, DW_AT_external
      30                      .dwendtag $C$DW$3
      31              
      32              
      33              $C$DW$4 .dwtag  DW_TAG_subprogram
      34                      .dwattr $C$DW$4, DW_AT_name("OS_MemClr")
      35                      .dwattr $C$DW$4, DW_AT_TI_symbol_name("_OS_MemClr")
      36                      .dwattr $C$DW$4, DW_AT_declaration
      37                      .dwattr $C$DW$4, DW_AT_external
      38              $C$DW$5 .dwtag  DW_TAG_formal_parameter
      39                      .dwattr $C$DW$5, DW_AT_type(*$C$DW$T$23)
      40              
      41              $C$DW$6 .dwtag  DW_TAG_formal_parameter
      42                      .dwattr $C$DW$6, DW_AT_type(*$C$DW$T$20)
      43              
      44                      .dwendtag $C$DW$4
      45              
      46              $C$DW$7 .dwtag  DW_TAG_variable
      47                      .dwattr $C$DW$7, DW_AT_name("OSIntNesting")
      48                      .dwattr $C$DW$7, DW_AT_TI_symbol_name("_OSIntNesting")
      49                      .dwattr $C$DW$7, DW_AT_type(*$C$DW$T$19)
      50                      .dwattr $C$DW$7, DW_AT_declaration
      51                      .dwattr $C$DW$7, DW_AT_external
      52              
      53              $C$DW$8 .dwtag  DW_TAG_variable
      54                      .dwattr $C$DW$8, DW_AT_name("OSLockNesting")
      55                      .dwattr $C$DW$8, DW_AT_TI_symbol_name("_OSLockNesting")
TMS320C2000 Assembler PC v20.2.1 Tue Feb 16 00:15:58 2021

Copyright (c) 1996-2018 Texas Instruments Incorporated
os_flag.asm                                                          PAGE    2

      56                      .dwattr $C$DW$8, DW_AT_type(*$C$DW$T$19)
      57                      .dwattr $C$DW$8, DW_AT_declaration
      58                      .dwattr $C$DW$8, DW_AT_external
      59              
      60              $C$DW$9 .dwtag  DW_TAG_variable
      61                      .dwattr $C$DW$9, DW_AT_name("OSRdyGrp")
      62                      .dwattr $C$DW$9, DW_AT_TI_symbol_name("_OSRdyGrp")
      63                      .dwattr $C$DW$9, DW_AT_type(*$C$DW$T$21)
      64                      .dwattr $C$DW$9, DW_AT_declaration
      65                      .dwattr $C$DW$9, DW_AT_external
      66              
      67              
      68              $C$DW$10        .dwtag  DW_TAG_subprogram
      69                      .dwattr $C$DW$10, DW_AT_name("OS_CPU_SR_Save")
      70                      .dwattr $C$DW$10, DW_AT_TI_symbol_name("_OS_CPU_SR_Save")
      71                      .dwattr $C$DW$10, DW_AT_type(*$C$DW$T$39)
      72                      .dwattr $C$DW$10, DW_AT_declaration
      73                      .dwattr $C$DW$10, DW_AT_external
      74                      .dwendtag $C$DW$10
      75              
      76              
      77              $C$DW$11        .dwtag  DW_TAG_subprogram
      78                      .dwattr $C$DW$11, DW_AT_name("OS_StrLen")
      79                      .dwattr $C$DW$11, DW_AT_TI_symbol_name("_OS_StrLen")
      80                      .dwattr $C$DW$11, DW_AT_type(*$C$DW$T$19)
      81                      .dwattr $C$DW$11, DW_AT_declaration
      82                      .dwattr $C$DW$11, DW_AT_external
      83              $C$DW$12        .dwtag  DW_TAG_formal_parameter
      84                      .dwattr $C$DW$12, DW_AT_type(*$C$DW$T$23)
      85              
      86                      .dwendtag $C$DW$11
      87              
      88              $C$DW$13        .dwtag  DW_TAG_variable
      89                      .dwattr $C$DW$13, DW_AT_name("OSFlagFreeList")
      90                      .dwattr $C$DW$13, DW_AT_TI_symbol_name("_OSFlagFreeList")
      91                      .dwattr $C$DW$13, DW_AT_type(*$C$DW$T$47)
      92                      .dwattr $C$DW$13, DW_AT_declaration
      93                      .dwattr $C$DW$13, DW_AT_external
      94              
      95              $C$DW$14        .dwtag  DW_TAG_variable
      96                      .dwattr $C$DW$14, DW_AT_name("OSTCBCur")
      97                      .dwattr $C$DW$14, DW_AT_TI_symbol_name("_OSTCBCur")
      98                      .dwattr $C$DW$14, DW_AT_type(*$C$DW$T$73)
      99                      .dwattr $C$DW$14, DW_AT_declaration
     100                      .dwattr $C$DW$14, DW_AT_external
     101              
     102              $C$DW$15        .dwtag  DW_TAG_variable
     103                      .dwattr $C$DW$15, DW_AT_name("OSRdyTbl")
     104                      .dwattr $C$DW$15, DW_AT_TI_symbol_name("_OSRdyTbl")
     105                      .dwattr $C$DW$15, DW_AT_type(*$C$DW$T$22)
     106                      .dwattr $C$DW$15, DW_AT_declaration
     107                      .dwattr $C$DW$15, DW_AT_external
     108              
     109              $C$DW$16        .dwtag  DW_TAG_variable
     110                      .dwattr $C$DW$16, DW_AT_name("OSFlagTbl")
TMS320C2000 Assembler PC v20.2.1 Tue Feb 16 00:15:58 2021

Copyright (c) 1996-2018 Texas Instruments Incorporated
os_flag.asm                                                          PAGE    3

     111                      .dwattr $C$DW$16, DW_AT_TI_symbol_name("_OSFlagTbl")
     112                      .dwattr $C$DW$16, DW_AT_type(*$C$DW$T$71)
     113                      .dwattr $C$DW$16, DW_AT_declaration
     114                      .dwattr $C$DW$16, DW_AT_external
     115              
     116              ;       C:\ti\ccs1011\ccs\tools\compiler\ti-cgt-c2000_20.2.1.LTS\bin\ac2000.exe -@C:\\Users\\LEEKEO~1\\AppDat
     117 00000000               .sect   ".text"
     118                      .clink
     119                      .global _OSFlagAccept
     120              
     121              $C$DW$17        .dwtag  DW_TAG_subprogram
     122                      .dwattr $C$DW$17, DW_AT_name("OSFlagAccept")
     123                      .dwattr $C$DW$17, DW_AT_low_pc(_OSFlagAccept)
     124                      .dwattr $C$DW$17, DW_AT_high_pc(0x00)
     125                      .dwattr $C$DW$17, DW_AT_TI_symbol_name("_OSFlagAccept")
     126                      .dwattr $C$DW$17, DW_AT_external
     127                      .dwattr $C$DW$17, DW_AT_type(*$C$DW$T$25)
     128                      .dwattr $C$DW$17, DW_AT_TI_begin_file("C:/ti/Workspace/PLC_certificate/Software/uCOS-II/Source/os_fla
     129                      .dwattr $C$DW$17, DW_AT_TI_begin_line(0x5e)
     130                      .dwattr $C$DW$17, DW_AT_TI_begin_column(0x0b)
     131                      .dwattr $C$DW$17, DW_AT_TI_max_frame_size(-12)
     132                      .dwpsn  file "C:/ti/Workspace/PLC_certificate/Software/uCOS-II/Source/os_flag.c",line 98,column 1,is_
     133              
     134                      .dwfde $C$DW$CIE, _OSFlagAccept
     135              $C$DW$18        .dwtag  DW_TAG_formal_parameter
     136                      .dwattr $C$DW$18, DW_AT_name("pgrp")
     137                      .dwattr $C$DW$18, DW_AT_TI_symbol_name("_pgrp")
     138                      .dwattr $C$DW$18, DW_AT_type(*$C$DW$T$47)
     139                      .dwattr $C$DW$18, DW_AT_location[DW_OP_reg12]
     140              
     141              $C$DW$19        .dwtag  DW_TAG_formal_parameter
     142                      .dwattr $C$DW$19, DW_AT_name("flags")
     143                      .dwattr $C$DW$19, DW_AT_TI_symbol_name("_flags")
     144                      .dwattr $C$DW$19, DW_AT_type(*$C$DW$T$25)
     145                      .dwattr $C$DW$19, DW_AT_location[DW_OP_reg0]
     146              
     147              $C$DW$20        .dwtag  DW_TAG_formal_parameter
     148                      .dwattr $C$DW$20, DW_AT_name("wait_type")
     149                      .dwattr $C$DW$20, DW_AT_TI_symbol_name("_wait_type")
     150                      .dwattr $C$DW$20, DW_AT_type(*$C$DW$T$19)
     151                      .dwattr $C$DW$20, DW_AT_location[DW_OP_reg1]
     152              
     153              $C$DW$21        .dwtag  DW_TAG_formal_parameter
     154                      .dwattr $C$DW$21, DW_AT_name("perr")
     155                      .dwattr $C$DW$21, DW_AT_TI_symbol_name("_perr")
     156                      .dwattr $C$DW$21, DW_AT_type(*$C$DW$T$23)
     157                      .dwattr $C$DW$21, DW_AT_location[DW_OP_reg14]
     158              
     159              
     160              ;***************************************************************
     161              ;* FNAME: _OSFlagAccept                 FR SIZE:  10           *
     162              ;*                                                             *
     163              ;* FUNCTION ENVIRONMENT                                        *
     164              ;*                                                             *
     165              ;* FUNCTION PROPERTIES                                         *
TMS320C2000 Assembler PC v20.2.1 Tue Feb 16 00:15:58 2021

Copyright (c) 1996-2018 Texas Instruments Incorporated
os_flag.asm                                                          PAGE    4

     166              ;*                            0 Parameter, 10 Auto,  0 SOE     *
     167              ;***************************************************************
     168              
     169 00000000       _OSFlagAccept:
     170                      .dwcfi  cfa_offset, -2
     171                      .dwcfi  save_reg_to_mem, 26, 0
     172 00000000 FE0A          ADDB      SP,#10                ; [CPU_ARAU] 
     173                      .dwcfi  cfa_offset, -12
     174              $C$DW$22        .dwtag  DW_TAG_variable
     175                      .dwattr $C$DW$22, DW_AT_name("pgrp")
     176                      .dwattr $C$DW$22, DW_AT_TI_symbol_name("_pgrp")
     177                      .dwattr $C$DW$22, DW_AT_type(*$C$DW$T$47)
     178                      .dwattr $C$DW$22, DW_AT_location[DW_OP_breg20 -2]
     179              
     180              $C$DW$23        .dwtag  DW_TAG_variable
     181                      .dwattr $C$DW$23, DW_AT_name("perr")
     182                      .dwattr $C$DW$23, DW_AT_TI_symbol_name("_perr")
     183                      .dwattr $C$DW$23, DW_AT_type(*$C$DW$T$23)
     184                      .dwattr $C$DW$23, DW_AT_location[DW_OP_breg20 -4]
     185              
     186              $C$DW$24        .dwtag  DW_TAG_variable
     187                      .dwattr $C$DW$24, DW_AT_name("flags")
     188                      .dwattr $C$DW$24, DW_AT_TI_symbol_name("_flags")
     189                      .dwattr $C$DW$24, DW_AT_type(*$C$DW$T$25)
     190                      .dwattr $C$DW$24, DW_AT_location[DW_OP_breg20 -5]
     191              
     192              $C$DW$25        .dwtag  DW_TAG_variable
     193                      .dwattr $C$DW$25, DW_AT_name("wait_type")
     194                      .dwattr $C$DW$25, DW_AT_TI_symbol_name("_wait_type")
     195                      .dwattr $C$DW$25, DW_AT_type(*$C$DW$T$19)
     196                      .dwattr $C$DW$25, DW_AT_location[DW_OP_breg20 -6]
     197              
     198              $C$DW$26        .dwtag  DW_TAG_variable
     199                      .dwattr $C$DW$26, DW_AT_name("flags_rdy")
     200                      .dwattr $C$DW$26, DW_AT_TI_symbol_name("_flags_rdy")
     201                      .dwattr $C$DW$26, DW_AT_type(*$C$DW$T$25)
     202                      .dwattr $C$DW$26, DW_AT_location[DW_OP_breg20 -7]
     203              
     204              $C$DW$27        .dwtag  DW_TAG_variable
     205                      .dwattr $C$DW$27, DW_AT_name("result")
     206                      .dwattr $C$DW$27, DW_AT_TI_symbol_name("_result")
     207                      .dwattr $C$DW$27, DW_AT_type(*$C$DW$T$19)
     208                      .dwattr $C$DW$27, DW_AT_location[DW_OP_breg20 -8]
     209              
     210              $C$DW$28        .dwtag  DW_TAG_variable
     211                      .dwattr $C$DW$28, DW_AT_name("consume")
     212                      .dwattr $C$DW$28, DW_AT_TI_symbol_name("_consume")
     213                      .dwattr $C$DW$28, DW_AT_type(*$C$DW$T$53)
     214                      .dwattr $C$DW$28, DW_AT_location[DW_OP_breg20 -9]
     215              
     216              $C$DW$29        .dwtag  DW_TAG_variable
     217                      .dwattr $C$DW$29, DW_AT_name("cpu_sr")
     218                      .dwattr $C$DW$29, DW_AT_TI_symbol_name("_cpu_sr")
     219                      .dwattr $C$DW$29, DW_AT_type(*$C$DW$T$39)
     220                      .dwattr $C$DW$29, DW_AT_location[DW_OP_breg20 -10]
TMS320C2000 Assembler PC v20.2.1 Tue Feb 16 00:15:58 2021

Copyright (c) 1996-2018 Texas Instruments Incorporated
os_flag.asm                                                          PAGE    5

     221              
     222 00000001 A044          MOVL      *-SP[4],XAR5          ; [CPU_ALU] |98| 
     223 00000002 9746          MOV       *-SP[6],AH            ; [CPU_ALU] |98| 
     224 00000003 9645          MOV       *-SP[5],AL            ; [CPU_ALU] |98| 
     225 00000004 A842          MOVL      *-SP[2],XAR4          ; [CPU_ALU] |98| 
     226                      .dwpsn  file "C:/ti/Workspace/PLC_certificate/Software/uCOS-II/Source/os_flag.c",line 103,column 26,i
     227 00000005 2B4A          MOV       *-SP[10],#0           ; [CPU_ALU] |103| 
     228                      .dwpsn  file "C:/ti/Workspace/PLC_certificate/Software/uCOS-II/Source/os_flag.c",line 116,column 5,is
     229 00000006 0642          MOVL      ACC,*-SP[2]           ; [CPU_ALU] |116| 
     230 00000007 6006          B         $C$L1,NEQ             ; [CPU_ALU] |116| 
     231                      ; branchcc occurs ; [] |116| 
     232                      .dwpsn  file "C:/ti/Workspace/PLC_certificate/Software/uCOS-II/Source/os_flag.c",line 117,column 9,is
     233 00000008 8A44          MOVL      XAR4,*-SP[4]          ; [CPU_ALU] |117| 
     234 00000009 56BF          MOVB      *+XAR4[0],#110,UNC    ; [CPU_ALU] |117| 
         0000000a 6EC4 
     235                      .dwpsn  file "C:/ti/Workspace/PLC_certificate/Software/uCOS-II/Source/os_flag.c",line 118,column 9,is
     236 0000000b 9A00          MOVB      AL,#0                 ; [CPU_ALU] |118| 
     237 0000000c 6F7D          B         $C$L20,UNC            ; [CPU_ALU] |118| 
     238                      ; branch occurs ; [] |118| 
     239 0000000d       $C$L1:    
     240                      .dwpsn  file "C:/ti/Workspace/PLC_certificate/Software/uCOS-II/Source/os_flag.c",line 121,column 5,is
     241 0000000d 92C4          MOV       AL,*+XAR4[0]          ; [CPU_ALU] |121| 
     242 0000000e 5205          CMPB      AL,#5                 ; [CPU_ALU] |121| 
     243 0000000f 6106          B         $C$L2,EQ              ; [CPU_ALU] |121| 
     244                      ; branchcc occurs ; [] |121| 
     245                      .dwpsn  file "C:/ti/Workspace/PLC_certificate/Software/uCOS-II/Source/os_flag.c",line 122,column 9,is
     246 00000010 8A44          MOVL      XAR4,*-SP[4]          ; [CPU_ALU] |122| 
     247 00000011 56BF          MOVB      *+XAR4[0],#1,UNC      ; [CPU_ALU] |122| 
         00000012 01C4 
     248                      .dwpsn  file "C:/ti/Workspace/PLC_certificate/Software/uCOS-II/Source/os_flag.c",line 123,column 9,is
     249 00000013 9A00          MOVB      AL,#0                 ; [CPU_ALU] |123| 
     250 00000014 6F75          B         $C$L20,UNC            ; [CPU_ALU] |123| 
     251                      ; branch occurs ; [] |123| 
     252 00000015       $C$L2:    
     253                      .dwpsn  file "C:/ti/Workspace/PLC_certificate/Software/uCOS-II/Source/os_flag.c",line 125,column 5,is
     254 00000015 9246          MOV       AL,*-SP[6]            ; [CPU_ALU] |125| 
     255 00000016 9080          ANDB      AL,#0x80              ; [CPU_ALU] |125| 
     256 00000017 9648          MOV       *-SP[8],AL            ; [CPU_ALU] |125| 
     257                      .dwpsn  file "C:/ti/Workspace/PLC_certificate/Software/uCOS-II/Source/os_flag.c",line 126,column 5,is
     258 00000018 6106          B         $C$L3,EQ              ; [CPU_ALU] |126| 
     259                      ; branchcc occurs ; [] |126| 
     260                      .dwpsn  file "C:/ti/Workspace/PLC_certificate/Software/uCOS-II/Source/os_flag.c",line 127,column 9,is
     261 00000019 1846          AND       *-SP[6],#0xff7f       ; [CPU_ALU] |127| 
         0000001a FF7F 
     262                      .dwpsn  file "C:/ti/Workspace/PLC_certificate/Software/uCOS-II/Source/os_flag.c",line 128,column 9,is
     263 0000001b 56BF          MOVB      *-SP[9],#1,UNC        ; [CPU_ALU] |128| 
         0000001c 0149 
     264 0000001d 6F02          B         $C$L4,UNC             ; [CPU_ALU] 
     265                      ; branch occurs ; [] 
     266 0000001e       $C$L3:    
     267                      .dwpsn  file "C:/ti/Workspace/PLC_certificate/Software/uCOS-II/Source/os_flag.c",line 130,column 9,is
     268 0000001e 2B49          MOV       *-SP[9],#0            ; [CPU_ALU] |130| 
     269 0000001f       $C$L4:    
     270                      .dwpsn  file "C:/ti/Workspace/PLC_certificate/Software/uCOS-II/Source/os_flag.c",line 133,column 5,is
     271 0000001f 8A44          MOVL      XAR4,*-SP[4]          ; [CPU_ALU] |133| 
TMS320C2000 Assembler PC v20.2.1 Tue Feb 16 00:15:58 2021

Copyright (c) 1996-2018 Texas Instruments Incorporated
os_flag.asm                                                          PAGE    6

     272 00000020 2BC4          MOV       *+XAR4[0],#0          ; [CPU_ALU] |133| 
     273                      .dwpsn  file "C:/ti/Workspace/PLC_certificate/Software/uCOS-II/Source/os_flag.c",line 134,column 5,is
     274              $C$DW$30        .dwtag  DW_TAG_TI_branch
     275                      .dwattr $C$DW$30, DW_AT_low_pc(0x00)
     276                      .dwattr $C$DW$30, DW_AT_name("_OS_CPU_SR_Save")
     277                      .dwattr $C$DW$30, DW_AT_TI_call
     278              
     279 00000021 7640!         LCR       #_OS_CPU_SR_Save      ; [CPU_ALU] |134| 
         00000022 0000 
     280                      ; call occurs [#_OS_CPU_SR_Save] ; [] |134| 
     281 00000023 964A          MOV       *-SP[10],AL           ; [CPU_ALU] |134| 
     282                      .dwpsn  file "C:/ti/Workspace/PLC_certificate/Software/uCOS-II/Source/os_flag.c",line 135,column 5,is
     283 00000024 6F5B          B         $C$L18,UNC            ; [CPU_ALU] |135| 
     284                      ; branch occurs ; [] |135| 
     285 00000025       $C$L5:    
     286                      .dwpsn  file "C:/ti/Workspace/PLC_certificate/Software/uCOS-II/Source/os_flag.c",line 137,column 14,i
     287 00000025 8A42          MOVL      XAR4,*-SP[2]          ; [CPU_ALU] |137| 
     288 00000026 9245          MOV       AL,*-SP[5]            ; [CPU_ALU] |137| 
     289 00000027 CEE4          AND       AL,*+XAR4[4]          ; [CPU_ALU] |137| 
     290 00000028 9647          MOV       *-SP[7],AL            ; [CPU_ALU] |137| 
     291                      .dwpsn  file "C:/ti/Workspace/PLC_certificate/Software/uCOS-II/Source/os_flag.c",line 138,column 14,i
     292 00000029 8847          MOVZ      AR6,*-SP[7]           ; [CPU_ALU] |138| 
     293 0000002a 0E45          MOVU      ACC,*-SP[5]           ; [CPU_ALU] |138| 
     294 0000002b 0FA6          CMPL      ACC,XAR6              ; [CPU_ALU] |138| 
     295 0000002c 6008          B         $C$L6,NEQ             ; [CPU_ALU] |138| 
     296                      ; branchcc occurs ; [] |138| 
     297                      .dwpsn  file "C:/ti/Workspace/PLC_certificate/Software/uCOS-II/Source/os_flag.c",line 139,column 18,i
     298 0000002d 9249          MOV       AL,*-SP[9]            ; [CPU_ALU] |139| 
     299 0000002e 5201          CMPB      AL,#1                 ; [CPU_ALU] |139| 
     300 0000002f 6008          B         $C$L7,NEQ             ; [CPU_ALU] |139| 
     301                      ; branchcc occurs ; [] |139| 
     302                      .dwpsn  file "C:/ti/Workspace/PLC_certificate/Software/uCOS-II/Source/os_flag.c",line 140,column 22,i
     303 00000030 9247          MOV       AL,*-SP[7]            ; [CPU_ALU] |140| 
     304 00000031 FF5E          NOT       AL                    ; [CPU_ALU] |140| 
     305 00000032 C0E4          AND       *+XAR4[4],AL          ; [CPU_ALU] |140| 
     306 00000033 6F04          B         $C$L7,UNC             ; [CPU_ALU] 
     307                      ; branch occurs ; [] 
     308 00000034       $C$L6:    
     309                      .dwpsn  file "C:/ti/Workspace/PLC_certificate/Software/uCOS-II/Source/os_flag.c",line 143,column 18,i
     310 00000034 8A44          MOVL      XAR4,*-SP[4]          ; [CPU_ALU] |143| 
     311 00000035 56BF          MOVB      *+XAR4[0],#112,UNC    ; [CPU_ALU] |143| 
         00000036 70C4 
     312 00000037       $C$L7:    
     313                      .dwpsn  file "C:/ti/Workspace/PLC_certificate/Software/uCOS-II/Source/os_flag.c",line 145,column 14,i
     314 00000037 924A          MOV       AL,*-SP[10]           ; [CPU_ALU] |145| 
     315              $C$DW$31        .dwtag  DW_TAG_TI_branch
     316                      .dwattr $C$DW$31, DW_AT_low_pc(0x00)
     317                      .dwattr $C$DW$31, DW_AT_name("_OS_CPU_SR_Restore")
     318                      .dwattr $C$DW$31, DW_AT_TI_call
     319              
     320 00000038 7640!         LCR       #_OS_CPU_SR_Restore   ; [CPU_ALU] |145| 
         00000039 0000 
     321                      ; call occurs [#_OS_CPU_SR_Restore] ; [] |145| 
     322                      .dwpsn  file "C:/ti/Workspace/PLC_certificate/Software/uCOS-II/Source/os_flag.c",line 146,column 14,i
     323 0000003a 6F4E          B         $C$L19,UNC            ; [CPU_ALU] |146| 
TMS320C2000 Assembler PC v20.2.1 Tue Feb 16 00:15:58 2021

Copyright (c) 1996-2018 Texas Instruments Incorporated
os_flag.asm                                                          PAGE    7

     324                      ; branch occurs ; [] |146| 
     325 0000003b       $C$L8:    
     326                      .dwpsn  file "C:/ti/Workspace/PLC_certificate/Software/uCOS-II/Source/os_flag.c",line 149,column 14,i
     327 0000003b 8A42          MOVL      XAR4,*-SP[2]          ; [CPU_ALU] |149| 
     328 0000003c 9245          MOV       AL,*-SP[5]            ; [CPU_ALU] |149| 
     329 0000003d CEE4          AND       AL,*+XAR4[4]          ; [CPU_ALU] |149| 
     330 0000003e 9647          MOV       *-SP[7],AL            ; [CPU_ALU] |149| 
     331                      .dwpsn  file "C:/ti/Workspace/PLC_certificate/Software/uCOS-II/Source/os_flag.c",line 150,column 14,i
     332 0000003f 6108          B         $C$L9,EQ              ; [CPU_ALU] |150| 
     333                      ; branchcc occurs ; [] |150| 
     334                      .dwpsn  file "C:/ti/Workspace/PLC_certificate/Software/uCOS-II/Source/os_flag.c",line 151,column 18,i
     335 00000040 9249          MOV       AL,*-SP[9]            ; [CPU_ALU] |151| 
     336 00000041 5201          CMPB      AL,#1                 ; [CPU_ALU] |151| 
     337 00000042 6008          B         $C$L10,NEQ            ; [CPU_ALU] |151| 
     338                      ; branchcc occurs ; [] |151| 
     339                      .dwpsn  file "C:/ti/Workspace/PLC_certificate/Software/uCOS-II/Source/os_flag.c",line 152,column 22,i
     340 00000043 9247          MOV       AL,*-SP[7]            ; [CPU_ALU] |152| 
     341 00000044 FF5E          NOT       AL                    ; [CPU_ALU] |152| 
     342 00000045 C0E4          AND       *+XAR4[4],AL          ; [CPU_ALU] |152| 
     343 00000046 6F04          B         $C$L10,UNC            ; [CPU_ALU] 
     344                      ; branch occurs ; [] 
     345 00000047       $C$L9:    
     346                      .dwpsn  file "C:/ti/Workspace/PLC_certificate/Software/uCOS-II/Source/os_flag.c",line 155,column 18,i
     347 00000047 8A44          MOVL      XAR4,*-SP[4]          ; [CPU_ALU] |155| 
     348 00000048 56BF          MOVB      *+XAR4[0],#112,UNC    ; [CPU_ALU] |155| 
         00000049 70C4 
     349 0000004a       $C$L10:    
     350                      .dwpsn  file "C:/ti/Workspace/PLC_certificate/Software/uCOS-II/Source/os_flag.c",line 157,column 14,i
     351 0000004a 924A          MOV       AL,*-SP[10]           ; [CPU_ALU] |157| 
     352              $C$DW$32        .dwtag  DW_TAG_TI_branch
     353                      .dwattr $C$DW$32, DW_AT_low_pc(0x00)
     354                      .dwattr $C$DW$32, DW_AT_name("_OS_CPU_SR_Restore")
     355                      .dwattr $C$DW$32, DW_AT_TI_call
     356              
     357 0000004b 7640!         LCR       #_OS_CPU_SR_Restore   ; [CPU_ALU] |157| 
         0000004c 0000 
     358                      ; call occurs [#_OS_CPU_SR_Restore] ; [] |157| 
     359                      .dwpsn  file "C:/ti/Workspace/PLC_certificate/Software/uCOS-II/Source/os_flag.c",line 158,column 14,i
     360 0000004d 6F3B          B         $C$L19,UNC            ; [CPU_ALU] |158| 
     361                      ; branch occurs ; [] |158| 
     362 0000004e       $C$L11:    
     363                      .dwpsn  file "C:/ti/Workspace/PLC_certificate/Software/uCOS-II/Source/os_flag.c",line 162,column 14,i
     364 0000004e 8A42          MOVL      XAR4,*-SP[2]          ; [CPU_ALU] |162| 
     365 0000004f 92E4          MOV       AL,*+XAR4[4]          ; [CPU_ALU] |162| 
     366 00000050 FF5E          NOT       AL                    ; [CPU_ALU] |162| 
     367 00000051 CE45          AND       AL,*-SP[5]            ; [CPU_ALU] |162| 
     368 00000052 9647          MOV       *-SP[7],AL            ; [CPU_ALU] |162| 
     369                      .dwpsn  file "C:/ti/Workspace/PLC_certificate/Software/uCOS-II/Source/os_flag.c",line 163,column 14,i
     370 00000053 8847          MOVZ      AR6,*-SP[7]           ; [CPU_ALU] |163| 
     371 00000054 0E45          MOVU      ACC,*-SP[5]           ; [CPU_ALU] |163| 
     372 00000055 0FA6          CMPL      ACC,XAR6              ; [CPU_ALU] |163| 
     373 00000056 6007          B         $C$L12,NEQ            ; [CPU_ALU] |163| 
     374                      ; branchcc occurs ; [] |163| 
     375                      .dwpsn  file "C:/ti/Workspace/PLC_certificate/Software/uCOS-II/Source/os_flag.c",line 164,column 18,i
     376 00000057 9249          MOV       AL,*-SP[9]            ; [CPU_ALU] |164| 
TMS320C2000 Assembler PC v20.2.1 Tue Feb 16 00:15:58 2021

Copyright (c) 1996-2018 Texas Instruments Incorporated
os_flag.asm                                                          PAGE    8

     377 00000058 5201          CMPB      AL,#1                 ; [CPU_ALU] |164| 
     378 00000059 6007          B         $C$L13,NEQ            ; [CPU_ALU] |164| 
     379                      ; branchcc occurs ; [] |164| 
     380                      .dwpsn  file "C:/ti/Workspace/PLC_certificate/Software/uCOS-II/Source/os_flag.c",line 165,column 22,i
     381 0000005a 9247          MOV       AL,*-SP[7]            ; [CPU_ALU] |165| 
     382 0000005b 98E4          OR        *+XAR4[4],AL          ; [CPU_ALU] |165| 
     383 0000005c 6F04          B         $C$L13,UNC            ; [CPU_ALU] 
     384                      ; branch occurs ; [] 
     385 0000005d       $C$L12:    
     386                      .dwpsn  file "C:/ti/Workspace/PLC_certificate/Software/uCOS-II/Source/os_flag.c",line 168,column 18,i
     387 0000005d 8A44          MOVL      XAR4,*-SP[4]          ; [CPU_ALU] |168| 
     388 0000005e 56BF          MOVB      *+XAR4[0],#112,UNC    ; [CPU_ALU] |168| 
         0000005f 70C4 
     389 00000060       $C$L13:    
     390                      .dwpsn  file "C:/ti/Workspace/PLC_certificate/Software/uCOS-II/Source/os_flag.c",line 170,column 14,i
     391 00000060 924A          MOV       AL,*-SP[10]           ; [CPU_ALU] |170| 
     392              $C$DW$33        .dwtag  DW_TAG_TI_branch
     393                      .dwattr $C$DW$33, DW_AT_low_pc(0x00)
     394                      .dwattr $C$DW$33, DW_AT_name("_OS_CPU_SR_Restore")
     395                      .dwattr $C$DW$33, DW_AT_TI_call
     396              
     397 00000061 7640!         LCR       #_OS_CPU_SR_Restore   ; [CPU_ALU] |170| 
         00000062 0000 
     398                      ; call occurs [#_OS_CPU_SR_Restore] ; [] |170| 
     399                      .dwpsn  file "C:/ti/Workspace/PLC_certificate/Software/uCOS-II/Source/os_flag.c",line 171,column 14,i
     400 00000063 6F25          B         $C$L19,UNC            ; [CPU_ALU] |171| 
     401                      ; branch occurs ; [] |171| 
     402 00000064       $C$L14:    
     403                      .dwpsn  file "C:/ti/Workspace/PLC_certificate/Software/uCOS-II/Source/os_flag.c",line 174,column 14,i
     404 00000064 8A42          MOVL      XAR4,*-SP[2]          ; [CPU_ALU] |174| 
     405 00000065 92E4          MOV       AL,*+XAR4[4]          ; [CPU_ALU] |174| 
     406 00000066 FF5E          NOT       AL                    ; [CPU_ALU] |174| 
     407 00000067 CE45          AND       AL,*-SP[5]            ; [CPU_ALU] |174| 
     408 00000068 9647          MOV       *-SP[7],AL            ; [CPU_ALU] |174| 
     409                      .dwpsn  file "C:/ti/Workspace/PLC_certificate/Software/uCOS-II/Source/os_flag.c",line 175,column 14,i
     410 00000069 6107          B         $C$L15,EQ             ; [CPU_ALU] |175| 
     411                      ; branchcc occurs ; [] |175| 
     412                      .dwpsn  file "C:/ti/Workspace/PLC_certificate/Software/uCOS-II/Source/os_flag.c",line 176,column 18,i
     413 0000006a 9249          MOV       AL,*-SP[9]            ; [CPU_ALU] |176| 
     414 0000006b 5201          CMPB      AL,#1                 ; [CPU_ALU] |176| 
     415 0000006c 6007          B         $C$L16,NEQ            ; [CPU_ALU] |176| 
     416                      ; branchcc occurs ; [] |176| 
     417                      .dwpsn  file "C:/ti/Workspace/PLC_certificate/Software/uCOS-II/Source/os_flag.c",line 177,column 22,i
     418 0000006d 9247          MOV       AL,*-SP[7]            ; [CPU_ALU] |177| 
     419 0000006e 98E4          OR        *+XAR4[4],AL          ; [CPU_ALU] |177| 
     420 0000006f 6F04          B         $C$L16,UNC            ; [CPU_ALU] 
     421                      ; branch occurs ; [] 
     422 00000070       $C$L15:    
     423                      .dwpsn  file "C:/ti/Workspace/PLC_certificate/Software/uCOS-II/Source/os_flag.c",line 180,column 18,i
     424 00000070 8A44          MOVL      XAR4,*-SP[4]          ; [CPU_ALU] |180| 
     425 00000071 56BF          MOVB      *+XAR4[0],#112,UNC    ; [CPU_ALU] |180| 
         00000072 70C4 
     426 00000073       $C$L16:    
     427                      .dwpsn  file "C:/ti/Workspace/PLC_certificate/Software/uCOS-II/Source/os_flag.c",line 182,column 14,i
     428 00000073 924A          MOV       AL,*-SP[10]           ; [CPU_ALU] |182| 
TMS320C2000 Assembler PC v20.2.1 Tue Feb 16 00:15:58 2021

Copyright (c) 1996-2018 Texas Instruments Incorporated
os_flag.asm                                                          PAGE    9

     429              $C$DW$34        .dwtag  DW_TAG_TI_branch
     430                      .dwattr $C$DW$34, DW_AT_low_pc(0x00)
     431                      .dwattr $C$DW$34, DW_AT_name("_OS_CPU_SR_Restore")
     432                      .dwattr $C$DW$34, DW_AT_TI_call
     433              
     434 00000074 7640!         LCR       #_OS_CPU_SR_Restore   ; [CPU_ALU] |182| 
         00000075 0000 
     435                      ; call occurs [#_OS_CPU_SR_Restore] ; [] |182| 
     436                      .dwpsn  file "C:/ti/Workspace/PLC_certificate/Software/uCOS-II/Source/os_flag.c",line 183,column 14,i
     437 00000076 6F12          B         $C$L19,UNC            ; [CPU_ALU] |183| 
     438                      ; branch occurs ; [] |183| 
     439 00000077       $C$L17:    
     440                      .dwpsn  file "C:/ti/Workspace/PLC_certificate/Software/uCOS-II/Source/os_flag.c",line 187,column 14,i
     441 00000077 924A          MOV       AL,*-SP[10]           ; [CPU_ALU] |187| 
     442              $C$DW$35        .dwtag  DW_TAG_TI_branch
     443                      .dwattr $C$DW$35, DW_AT_low_pc(0x00)
     444                      .dwattr $C$DW$35, DW_AT_name("_OS_CPU_SR_Restore")
     445                      .dwattr $C$DW$35, DW_AT_TI_call
     446              
     447 00000078 7640!         LCR       #_OS_CPU_SR_Restore   ; [CPU_ALU] |187| 
         00000079 0000 
     448                      ; call occurs [#_OS_CPU_SR_Restore] ; [] |187| 
     449                      .dwpsn  file "C:/ti/Workspace/PLC_certificate/Software/uCOS-II/Source/os_flag.c",line 188,column 14,i
     450 0000007a 2B47          MOV       *-SP[7],#0            ; [CPU_ALU] |188| 
     451                      .dwpsn  file "C:/ti/Workspace/PLC_certificate/Software/uCOS-II/Source/os_flag.c",line 189,column 14,i
     452 0000007b 8A44          MOVL      XAR4,*-SP[4]          ; [CPU_ALU] |189| 
     453 0000007c 56BF          MOVB      *+XAR4[0],#111,UNC    ; [CPU_ALU] |189| 
         0000007d 6FC4 
     454                      .dwpsn  file "C:/ti/Workspace/PLC_certificate/Software/uCOS-II/Source/os_flag.c",line 190,column 14,i
     455 0000007e 6F0A          B         $C$L19,UNC            ; [CPU_ALU] |190| 
     456                      ; branch occurs ; [] |190| 
     457 0000007f       $C$L18:    
     458                      .dwpsn  file "C:/ti/Workspace/PLC_certificate/Software/uCOS-II/Source/os_flag.c",line 135,column 5,is
     459 0000007f 9246          MOV       AL,*-SP[6]            ; [CPU_ALU] |135| 
     460 00000080 61CE          B         $C$L11,EQ             ; [CPU_ALU] |135| 
     461                      ; branchcc occurs ; [] |135| 
     462 00000081 5201          CMPB      AL,#1                 ; [CPU_ALU] |135| 
     463 00000082 61E2          B         $C$L14,EQ             ; [CPU_ALU] |135| 
     464                      ; branchcc occurs ; [] |135| 
     465 00000083 5202          CMPB      AL,#2                 ; [CPU_ALU] |135| 
     466 00000084 61A1          B         $C$L5,EQ              ; [CPU_ALU] |135| 
     467                      ; branchcc occurs ; [] |135| 
     468 00000085 5203          CMPB      AL,#3                 ; [CPU_ALU] |135| 
     469 00000086 61B5          B         $C$L8,EQ              ; [CPU_ALU] |135| 
     470                      ; branchcc occurs ; [] |135| 
     471 00000087 6FF0          B         $C$L17,UNC            ; [CPU_ALU] |135| 
     472                      ; branch occurs ; [] |135| 
     473 00000088       $C$L19:    
     474                      .dwpsn  file "C:/ti/Workspace/PLC_certificate/Software/uCOS-II/Source/os_flag.c",line 192,column 5,is
     475 00000088 9247          MOV       AL,*-SP[7]            ; [CPU_ALU] |192| 
     476 00000089       $C$L20:    
     477                      .dwpsn  file "C:/ti/Workspace/PLC_certificate/Software/uCOS-II/Source/os_flag.c",line 193,column 1,is
     478 00000089 FE8A          SUBB      SP,#10                ; [CPU_ARAU] 
     479                      .dwcfi  cfa_offset, -2
     480              $C$DW$36        .dwtag  DW_TAG_TI_branch
TMS320C2000 Assembler PC v20.2.1 Tue Feb 16 00:15:58 2021

Copyright (c) 1996-2018 Texas Instruments Incorporated
os_flag.asm                                                          PAGE   10

     481                      .dwattr $C$DW$36, DW_AT_low_pc(0x00)
     482                      .dwattr $C$DW$36, DW_AT_TI_return
     483              
     484 0000008a 0006          LRETR     ; [CPU_ALU] 
     485                      ; return occurs ; [] 
     486                      .dwattr $C$DW$17, DW_AT_TI_end_file("C:/ti/Workspace/PLC_certificate/Software/uCOS-II/Source/os_flag.
     487                      .dwattr $C$DW$17, DW_AT_TI_end_line(0xc1)
     488                      .dwattr $C$DW$17, DW_AT_TI_end_column(0x01)
     489                      .dwendentry
     490                      .dwendtag $C$DW$17
     491              
     492 0000008b               .sect   ".text"
     493                      .clink
     494                      .global _OSFlagCreate
     495              
     496              $C$DW$37        .dwtag  DW_TAG_subprogram
     497                      .dwattr $C$DW$37, DW_AT_name("OSFlagCreate")
     498                      .dwattr $C$DW$37, DW_AT_low_pc(_OSFlagCreate)
     499                      .dwattr $C$DW$37, DW_AT_high_pc(0x00)
     500                      .dwattr $C$DW$37, DW_AT_TI_symbol_name("_OSFlagCreate")
     501                      .dwattr $C$DW$37, DW_AT_external
     502                      .dwattr $C$DW$37, DW_AT_type(*$C$DW$T$47)
     503                      .dwattr $C$DW$37, DW_AT_TI_begin_file("C:/ti/Workspace/PLC_certificate/Software/uCOS-II/Source/os_fla
     504                      .dwattr $C$DW$37, DW_AT_TI_begin_line(0xd9)
     505                      .dwattr $C$DW$37, DW_AT_TI_begin_column(0x0f)
     506                      .dwattr $C$DW$37, DW_AT_TI_max_frame_size(-8)
     507                      .dwpsn  file "C:/ti/Workspace/PLC_certificate/Software/uCOS-II/Source/os_flag.c",line 219,column 1,is
     508              
     509                      .dwfde $C$DW$CIE, _OSFlagCreate
     510              $C$DW$38        .dwtag  DW_TAG_formal_parameter
     511                      .dwattr $C$DW$38, DW_AT_name("flags")
     512                      .dwattr $C$DW$38, DW_AT_TI_symbol_name("_flags")
     513                      .dwattr $C$DW$38, DW_AT_type(*$C$DW$T$25)
     514                      .dwattr $C$DW$38, DW_AT_location[DW_OP_reg0]
     515              
     516              $C$DW$39        .dwtag  DW_TAG_formal_parameter
     517                      .dwattr $C$DW$39, DW_AT_name("perr")
     518                      .dwattr $C$DW$39, DW_AT_TI_symbol_name("_perr")
     519                      .dwattr $C$DW$39, DW_AT_type(*$C$DW$T$23)
     520                      .dwattr $C$DW$39, DW_AT_location[DW_OP_reg12]
     521              
     522              
     523              ;***************************************************************
     524              ;* FNAME: _OSFlagCreate                 FR SIZE:   6           *
     525              ;*                                                             *
     526              ;* FUNCTION ENVIRONMENT                                        *
     527              ;*                                                             *
     528              ;* FUNCTION PROPERTIES                                         *
     529              ;*                            0 Parameter,  6 Auto,  0 SOE     *
     530              ;***************************************************************
     531              
     532 0000008b       _OSFlagCreate:
     533                      .dwcfi  cfa_offset, -2
     534                      .dwcfi  save_reg_to_mem, 26, 0
     535 0000008b FE06          ADDB      SP,#6                 ; [CPU_ARAU] 
TMS320C2000 Assembler PC v20.2.1 Tue Feb 16 00:15:58 2021

Copyright (c) 1996-2018 Texas Instruments Incorporated
os_flag.asm                                                          PAGE   11

     536                      .dwcfi  cfa_offset, -8
     537              $C$DW$40        .dwtag  DW_TAG_variable
     538                      .dwattr $C$DW$40, DW_AT_name("perr")
     539                      .dwattr $C$DW$40, DW_AT_TI_symbol_name("_perr")
     540                      .dwattr $C$DW$40, DW_AT_type(*$C$DW$T$23)
     541                      .dwattr $C$DW$40, DW_AT_location[DW_OP_breg20 -2]
     542              
     543              $C$DW$41        .dwtag  DW_TAG_variable
     544                      .dwattr $C$DW$41, DW_AT_name("pgrp")
     545                      .dwattr $C$DW$41, DW_AT_TI_symbol_name("_pgrp")
     546                      .dwattr $C$DW$41, DW_AT_type(*$C$DW$T$47)
     547                      .dwattr $C$DW$41, DW_AT_location[DW_OP_breg20 -4]
     548              
     549              $C$DW$42        .dwtag  DW_TAG_variable
     550                      .dwattr $C$DW$42, DW_AT_name("flags")
     551                      .dwattr $C$DW$42, DW_AT_TI_symbol_name("_flags")
     552                      .dwattr $C$DW$42, DW_AT_type(*$C$DW$T$25)
     553                      .dwattr $C$DW$42, DW_AT_location[DW_OP_breg20 -5]
     554              
     555              $C$DW$43        .dwtag  DW_TAG_variable
     556                      .dwattr $C$DW$43, DW_AT_name("cpu_sr")
     557                      .dwattr $C$DW$43, DW_AT_TI_symbol_name("_cpu_sr")
     558                      .dwattr $C$DW$43, DW_AT_type(*$C$DW$T$39)
     559                      .dwattr $C$DW$43, DW_AT_location[DW_OP_breg20 -6]
     560              
     561 0000008c A842          MOVL      *-SP[2],XAR4          ; [CPU_ALU] |219| 
     562 0000008d 9645          MOV       *-SP[5],AL            ; [CPU_ALU] |219| 
     563                      .dwpsn  file "C:/ti/Workspace/PLC_certificate/Software/uCOS-II/Source/os_flag.c",line 222,column 25,i
     564 0000008e 2B46          MOV       *-SP[6],#0            ; [CPU_ALU] |222| 
     565                      .dwpsn  file "C:/ti/Workspace/PLC_certificate/Software/uCOS-II/Source/os_flag.c",line 241,column 5,is
     566 0000008f 761F!         MOVW      DP,#_OSIntNesting     ; [CPU_ARAU] 
         00000090 0000 
     567 00000091 9200!         MOV       AL,@_OSIntNesting     ; [CPU_ALU] |241| 
     568 00000092 6105          B         $C$L21,EQ             ; [CPU_ALU] |241| 
     569                      ; branchcc occurs ; [] |241| 
     570                      .dwpsn  file "C:/ti/Workspace/PLC_certificate/Software/uCOS-II/Source/os_flag.c",line 242,column 9,is
     571 00000093 56BF          MOVB      *+XAR4[0],#16,UNC     ; [CPU_ALU] |242| 
         00000094 10C4 
     572                      .dwpsn  file "C:/ti/Workspace/PLC_certificate/Software/uCOS-II/Source/os_flag.c",line 243,column 9,is
     573 00000095 D400          MOVB      XAR4,#0               ; [CPU_ALU] |243| 
     574 00000096 6F26          B         $C$L24,UNC            ; [CPU_ALU] |243| 
     575                      ; branch occurs ; [] |243| 
     576 00000097       $C$L21:    
     577                      .dwpsn  file "C:/ti/Workspace/PLC_certificate/Software/uCOS-II/Source/os_flag.c",line 245,column 5,is
     578              $C$DW$44        .dwtag  DW_TAG_TI_branch
     579                      .dwattr $C$DW$44, DW_AT_low_pc(0x00)
     580                      .dwattr $C$DW$44, DW_AT_name("_OS_CPU_SR_Save")
     581                      .dwattr $C$DW$44, DW_AT_TI_call
     582              
     583 00000097 7640!         LCR       #_OS_CPU_SR_Save      ; [CPU_ALU] |245| 
         00000098 0000 
     584                      ; call occurs [#_OS_CPU_SR_Save] ; [] |245| 
     585 00000099 9646          MOV       *-SP[6],AL            ; [CPU_ALU] |245| 
     586                      .dwpsn  file "C:/ti/Workspace/PLC_certificate/Software/uCOS-II/Source/os_flag.c",line 246,column 5,is
     587 0000009a 761F!         MOVW      DP,#_OSFlagFreeList   ; [CPU_ARAU] 
TMS320C2000 Assembler PC v20.2.1 Tue Feb 16 00:15:58 2021

Copyright (c) 1996-2018 Texas Instruments Incorporated
os_flag.asm                                                          PAGE   12

         0000009b 0000 
     588 0000009c 0600!         MOVL      ACC,@_OSFlagFreeList  ; [CPU_ALU] |246| 
     589 0000009d 1E44          MOVL      *-SP[4],ACC           ; [CPU_ALU] |246| 
     590                      .dwpsn  file "C:/ti/Workspace/PLC_certificate/Software/uCOS-II/Source/os_flag.c",line 247,column 5,is
     591 0000009e 0644          MOVL      ACC,*-SP[4]           ; [CPU_ALU] |247| 
     592 0000009f 6116          B         $C$L22,EQ             ; [CPU_ALU] |247| 
     593                      ; branchcc occurs ; [] |247| 
     594                      .dwpsn  file "C:/ti/Workspace/PLC_certificate/Software/uCOS-II/Source/os_flag.c",line 249,column 9,is
     595 000000a0 8A00!         MOVL      XAR4,@_OSFlagFreeList ; [CPU_ALU] |249| 
     596 000000a1 06D4          MOVL      ACC,*+XAR4[2]         ; [CPU_ALU] |249| 
     597 000000a2 1E00!         MOVL      @_OSFlagFreeList,ACC  ; [CPU_ALU] |249| 
     598                      .dwpsn  file "C:/ti/Workspace/PLC_certificate/Software/uCOS-II/Source/os_flag.c",line 250,column 9,is
     599 000000a3 56BF          MOVB      *+XAR4[0],#5,UNC      ; [CPU_ALU] |250| 
         000000a4 05C4 
     600                      .dwpsn  file "C:/ti/Workspace/PLC_certificate/Software/uCOS-II/Source/os_flag.c",line 251,column 9,is
     601 000000a5 8A44          MOVL      XAR4,*-SP[4]          ; [CPU_ALU] |251| 
     602 000000a6 9245          MOV       AL,*-SP[5]            ; [CPU_ALU] |251| 
     603 000000a7 96E4          MOV       *+XAR4[4],AL          ; [CPU_ALU] |251| 
     604                      .dwpsn  file "C:/ti/Workspace/PLC_certificate/Software/uCOS-II/Source/os_flag.c",line 252,column 9,is
     605 000000a8 8A44          MOVL      XAR4,*-SP[4]          ; [CPU_ALU] |252| 
     606 000000a9 0200          MOVB      ACC,#0                ; [CPU_ALU] |252| 
     607 000000aa 1ED4          MOVL      *+XAR4[2],ACC         ; [CPU_ALU] |252| 
     608                      .dwpsn  file "C:/ti/Workspace/PLC_certificate/Software/uCOS-II/Source/os_flag.c",line 254,column 9,is
     609 000000ab 8344          MOVL      XAR5,*-SP[4]          ; [CPU_ALU] |254| 
     610 000000ac 8F00+         MOVL      XAR4,#$C$FSL1         ; [CPU_ARAU] |254| 
         000000ad 0000 
     611 000000ae A8F5          MOVL      *+XAR5[6],XAR4        ; [CPU_ALU] |254| 
     612                      .dwpsn  file "C:/ti/Workspace/PLC_certificate/Software/uCOS-II/Source/os_flag.c",line 256,column 9,is
     613 000000af 9246          MOV       AL,*-SP[6]            ; [CPU_ALU] |256| 
     614              $C$DW$45        .dwtag  DW_TAG_TI_branch
     615                      .dwattr $C$DW$45, DW_AT_low_pc(0x00)
     616                      .dwattr $C$DW$45, DW_AT_name("_OS_CPU_SR_Restore")
     617                      .dwattr $C$DW$45, DW_AT_TI_call
     618              
     619 000000b0 7640!         LCR       #_OS_CPU_SR_Restore   ; [CPU_ALU] |256| 
         000000b1 0000 
     620                      ; call occurs [#_OS_CPU_SR_Restore] ; [] |256| 
     621                      .dwpsn  file "C:/ti/Workspace/PLC_certificate/Software/uCOS-II/Source/os_flag.c",line 257,column 9,is
     622 000000b2 8A42          MOVL      XAR4,*-SP[2]          ; [CPU_ALU] |257| 
     623 000000b3 2BC4          MOV       *+XAR4[0],#0          ; [CPU_ALU] |257| 
     624 000000b4 6F07          B         $C$L23,UNC            ; [CPU_ALU] 
     625                      ; branch occurs ; [] 
     626 000000b5       $C$L22:    
     627                      .dwpsn  file "C:/ti/Workspace/PLC_certificate/Software/uCOS-II/Source/os_flag.c",line 259,column 9,is
     628 000000b5 9246          MOV       AL,*-SP[6]            ; [CPU_ALU] |259| 
     629              $C$DW$46        .dwtag  DW_TAG_TI_branch
     630                      .dwattr $C$DW$46, DW_AT_low_pc(0x00)
     631                      .dwattr $C$DW$46, DW_AT_name("_OS_CPU_SR_Restore")
     632                      .dwattr $C$DW$46, DW_AT_TI_call
     633              
     634 000000b6 7640!         LCR       #_OS_CPU_SR_Restore   ; [CPU_ALU] |259| 
         000000b7 0000 
     635                      ; call occurs [#_OS_CPU_SR_Restore] ; [] |259| 
     636                      .dwpsn  file "C:/ti/Workspace/PLC_certificate/Software/uCOS-II/Source/os_flag.c",line 260,column 9,is
     637 000000b8 8A42          MOVL      XAR4,*-SP[2]          ; [CPU_ALU] |260| 
TMS320C2000 Assembler PC v20.2.1 Tue Feb 16 00:15:58 2021

Copyright (c) 1996-2018 Texas Instruments Incorporated
os_flag.asm                                                          PAGE   13

     638 000000b9 56BF          MOVB      *+XAR4[0],#114,UNC    ; [CPU_ALU] |260| 
         000000ba 72C4 
     639 000000bb       $C$L23:    
     640                      .dwpsn  file "C:/ti/Workspace/PLC_certificate/Software/uCOS-II/Source/os_flag.c",line 262,column 5,is
     641 000000bb 8A44          MOVL      XAR4,*-SP[4]          ; [CPU_ALU] |262| 
     642 000000bc       $C$L24:    
     643                      .dwpsn  file "C:/ti/Workspace/PLC_certificate/Software/uCOS-II/Source/os_flag.c",line 263,column 1,is
     644 000000bc FE86          SUBB      SP,#6                 ; [CPU_ARAU] 
     645                      .dwcfi  cfa_offset, -2
     646              $C$DW$47        .dwtag  DW_TAG_TI_branch
     647                      .dwattr $C$DW$47, DW_AT_low_pc(0x00)
     648                      .dwattr $C$DW$47, DW_AT_TI_return
     649              
     650 000000bd 0006          LRETR     ; [CPU_ALU] 
     651                      ; return occurs ; [] 
     652                      .dwattr $C$DW$37, DW_AT_TI_end_file("C:/ti/Workspace/PLC_certificate/Software/uCOS-II/Source/os_flag.
     653                      .dwattr $C$DW$37, DW_AT_TI_end_line(0x107)
     654                      .dwattr $C$DW$37, DW_AT_TI_end_column(0x01)
     655                      .dwendentry
     656                      .dwendtag $C$DW$37
     657              
     658 000000be               .sect   ".text"
     659                      .clink
     660                      .global _OSFlagDel
     661              
     662              $C$DW$48        .dwtag  DW_TAG_subprogram
     663                      .dwattr $C$DW$48, DW_AT_name("OSFlagDel")
     664                      .dwattr $C$DW$48, DW_AT_low_pc(_OSFlagDel)
     665                      .dwattr $C$DW$48, DW_AT_high_pc(0x00)
     666                      .dwattr $C$DW$48, DW_AT_TI_symbol_name("_OSFlagDel")
     667                      .dwattr $C$DW$48, DW_AT_external
     668                      .dwattr $C$DW$48, DW_AT_type(*$C$DW$T$47)
     669                      .dwattr $C$DW$48, DW_AT_TI_begin_file("C:/ti/Workspace/PLC_certificate/Software/uCOS-II/Source/os_fla
     670                      .dwattr $C$DW$48, DW_AT_TI_begin_line(0x131)
     671                      .dwattr $C$DW$48, DW_AT_TI_begin_column(0x0f)
     672                      .dwattr $C$DW$48, DW_AT_TI_max_frame_size(-14)
     673                      .dwpsn  file "C:/ti/Workspace/PLC_certificate/Software/uCOS-II/Source/os_flag.c",line 308,column 1,is
     674              
     675                      .dwfde $C$DW$CIE, _OSFlagDel
     676              $C$DW$49        .dwtag  DW_TAG_formal_parameter
     677                      .dwattr $C$DW$49, DW_AT_name("pgrp")
     678                      .dwattr $C$DW$49, DW_AT_TI_symbol_name("_pgrp")
     679                      .dwattr $C$DW$49, DW_AT_type(*$C$DW$T$47)
     680                      .dwattr $C$DW$49, DW_AT_location[DW_OP_reg12]
     681              
     682              $C$DW$50        .dwtag  DW_TAG_formal_parameter
     683                      .dwattr $C$DW$50, DW_AT_name("opt")
     684                      .dwattr $C$DW$50, DW_AT_TI_symbol_name("_opt")
     685                      .dwattr $C$DW$50, DW_AT_type(*$C$DW$T$19)
     686                      .dwattr $C$DW$50, DW_AT_location[DW_OP_reg0]
     687              
     688              $C$DW$51        .dwtag  DW_TAG_formal_parameter
     689                      .dwattr $C$DW$51, DW_AT_name("perr")
     690                      .dwattr $C$DW$51, DW_AT_TI_symbol_name("_perr")
     691                      .dwattr $C$DW$51, DW_AT_type(*$C$DW$T$23)
TMS320C2000 Assembler PC v20.2.1 Tue Feb 16 00:15:58 2021

Copyright (c) 1996-2018 Texas Instruments Incorporated
os_flag.asm                                                          PAGE   14

     692                      .dwattr $C$DW$51, DW_AT_location[DW_OP_reg14]
     693              
     694              
     695              ;***************************************************************
     696              ;* FNAME: _OSFlagDel                    FR SIZE:  12           *
     697              ;*                                                             *
     698              ;* FUNCTION ENVIRONMENT                                        *
     699              ;*                                                             *
     700              ;* FUNCTION PROPERTIES                                         *
     701              ;*                            0 Parameter, 11 Auto,  0 SOE     *
     702              ;***************************************************************
     703              
     704 000000be       _OSFlagDel:
     705                      .dwcfi  cfa_offset, -2
     706                      .dwcfi  save_reg_to_mem, 26, 0
     707 000000be FE0C          ADDB      SP,#12                ; [CPU_ARAU] 
     708                      .dwcfi  cfa_offset, -14
     709              $C$DW$52        .dwtag  DW_TAG_variable
     710                      .dwattr $C$DW$52, DW_AT_name("pgrp")
     711                      .dwattr $C$DW$52, DW_AT_TI_symbol_name("_pgrp")
     712                      .dwattr $C$DW$52, DW_AT_type(*$C$DW$T$47)
     713                      .dwattr $C$DW$52, DW_AT_location[DW_OP_breg20 -2]
     714              
     715              $C$DW$53        .dwtag  DW_TAG_variable
     716                      .dwattr $C$DW$53, DW_AT_name("perr")
     717                      .dwattr $C$DW$53, DW_AT_TI_symbol_name("_perr")
     718                      .dwattr $C$DW$53, DW_AT_type(*$C$DW$T$23)
     719                      .dwattr $C$DW$53, DW_AT_location[DW_OP_breg20 -4]
     720              
     721              $C$DW$54        .dwtag  DW_TAG_variable
     722                      .dwattr $C$DW$54, DW_AT_name("pnode")
     723                      .dwattr $C$DW$54, DW_AT_TI_symbol_name("_pnode")
     724                      .dwattr $C$DW$54, DW_AT_type(*$C$DW$T$36)
     725                      .dwattr $C$DW$54, DW_AT_location[DW_OP_breg20 -6]
     726              
     727              $C$DW$55        .dwtag  DW_TAG_variable
     728                      .dwattr $C$DW$55, DW_AT_name("pgrp_return")
     729                      .dwattr $C$DW$55, DW_AT_TI_symbol_name("_pgrp_return")
     730                      .dwattr $C$DW$55, DW_AT_type(*$C$DW$T$47)
     731                      .dwattr $C$DW$55, DW_AT_location[DW_OP_breg20 -8]
     732              
     733              $C$DW$56        .dwtag  DW_TAG_variable
     734                      .dwattr $C$DW$56, DW_AT_name("opt")
     735                      .dwattr $C$DW$56, DW_AT_TI_symbol_name("_opt")
     736                      .dwattr $C$DW$56, DW_AT_type(*$C$DW$T$19)
     737                      .dwattr $C$DW$56, DW_AT_location[DW_OP_breg20 -9]
     738              
     739              $C$DW$57        .dwtag  DW_TAG_variable
     740                      .dwattr $C$DW$57, DW_AT_name("tasks_waiting")
     741                      .dwattr $C$DW$57, DW_AT_TI_symbol_name("_tasks_waiting")
     742                      .dwattr $C$DW$57, DW_AT_type(*$C$DW$T$53)
     743                      .dwattr $C$DW$57, DW_AT_location[DW_OP_breg20 -10]
     744              
     745              $C$DW$58        .dwtag  DW_TAG_variable
     746                      .dwattr $C$DW$58, DW_AT_name("cpu_sr")
TMS320C2000 Assembler PC v20.2.1 Tue Feb 16 00:15:58 2021

Copyright (c) 1996-2018 Texas Instruments Incorporated
os_flag.asm                                                          PAGE   15

     747                      .dwattr $C$DW$58, DW_AT_TI_symbol_name("_cpu_sr")
     748                      .dwattr $C$DW$58, DW_AT_type(*$C$DW$T$39)
     749                      .dwattr $C$DW$58, DW_AT_location[DW_OP_breg20 -11]
     750              
     751 000000bf A044          MOVL      *-SP[4],XAR5          ; [CPU_ALU] |308| 
     752 000000c0 9649          MOV       *-SP[9],AL            ; [CPU_ALU] |308| 
     753 000000c1 A842          MOVL      *-SP[2],XAR4          ; [CPU_ALU] |308| 
     754                      .dwpsn  file "C:/ti/Workspace/PLC_certificate/Software/uCOS-II/Source/os_flag.c",line 313,column 26,i
     755 000000c2 2B4B          MOV       *-SP[11],#0           ; [CPU_ALU] |313| 
     756                      .dwpsn  file "C:/ti/Workspace/PLC_certificate/Software/uCOS-II/Source/os_flag.c",line 326,column 5,is
     757 000000c3 0642          MOVL      ACC,*-SP[2]           ; [CPU_ALU] |326| 
     758 000000c4 6006          B         $C$L25,NEQ            ; [CPU_ALU] |326| 
     759                      ; branchcc occurs ; [] |326| 
     760                      .dwpsn  file "C:/ti/Workspace/PLC_certificate/Software/uCOS-II/Source/os_flag.c",line 327,column 9,is
     761 000000c5 8A44          MOVL      XAR4,*-SP[4]          ; [CPU_ALU] |327| 
     762 000000c6 56BF          MOVB      *+XAR4[0],#110,UNC    ; [CPU_ALU] |327| 
         000000c7 6EC4 
     763                      .dwpsn  file "C:/ti/Workspace/PLC_certificate/Software/uCOS-II/Source/os_flag.c",line 328,column 9,is
     764 000000c8 8A42          MOVL      XAR4,*-SP[2]          ; [CPU_ALU] |328| 
     765 000000c9 6F78          B         $C$L38,UNC            ; [CPU_ALU] |328| 
     766                      ; branch occurs ; [] |328| 
     767 000000ca       $C$L25:    
     768                      .dwpsn  file "C:/ti/Workspace/PLC_certificate/Software/uCOS-II/Source/os_flag.c",line 331,column 5,is
     769 000000ca 761F!         MOVW      DP,#_OSIntNesting     ; [CPU_ARAU] 
         000000cb 0000 
     770 000000cc 9200!         MOV       AL,@_OSIntNesting     ; [CPU_ALU] |331| 
     771 000000cd 6106          B         $C$L26,EQ             ; [CPU_ALU] |331| 
     772                      ; branchcc occurs ; [] |331| 
     773                      .dwpsn  file "C:/ti/Workspace/PLC_certificate/Software/uCOS-II/Source/os_flag.c",line 332,column 9,is
     774 000000ce 8A44          MOVL      XAR4,*-SP[4]          ; [CPU_ALU] |332| 
     775 000000cf 56BF          MOVB      *+XAR4[0],#15,UNC     ; [CPU_ALU] |332| 
         000000d0 0FC4 
     776                      .dwpsn  file "C:/ti/Workspace/PLC_certificate/Software/uCOS-II/Source/os_flag.c",line 333,column 9,is
     777 000000d1 8A42          MOVL      XAR4,*-SP[2]          ; [CPU_ALU] |333| 
     778 000000d2 6F6F          B         $C$L38,UNC            ; [CPU_ALU] |333| 
     779                      ; branch occurs ; [] |333| 
     780 000000d3       $C$L26:    
     781                      .dwpsn  file "C:/ti/Workspace/PLC_certificate/Software/uCOS-II/Source/os_flag.c",line 335,column 5,is
     782 000000d3 92C4          MOV       AL,*+XAR4[0]          ; [CPU_ALU] |335| 
     783 000000d4 5205          CMPB      AL,#5                 ; [CPU_ALU] |335| 
     784 000000d5 6106          B         $C$L27,EQ             ; [CPU_ALU] |335| 
     785                      ; branchcc occurs ; [] |335| 
     786                      .dwpsn  file "C:/ti/Workspace/PLC_certificate/Software/uCOS-II/Source/os_flag.c",line 336,column 9,is
     787 000000d6 8A44          MOVL      XAR4,*-SP[4]          ; [CPU_ALU] |336| 
     788 000000d7 56BF          MOVB      *+XAR4[0],#1,UNC      ; [CPU_ALU] |336| 
         000000d8 01C4 
     789                      .dwpsn  file "C:/ti/Workspace/PLC_certificate/Software/uCOS-II/Source/os_flag.c",line 337,column 9,is
     790 000000d9 8A42          MOVL      XAR4,*-SP[2]          ; [CPU_ALU] |337| 
     791 000000da 6F67          B         $C$L38,UNC            ; [CPU_ALU] |337| 
     792                      ; branch occurs ; [] |337| 
     793 000000db       $C$L27:    
     794                      .dwpsn  file "C:/ti/Workspace/PLC_certificate/Software/uCOS-II/Source/os_flag.c",line 339,column 5,is
     795              $C$DW$59        .dwtag  DW_TAG_TI_branch
     796                      .dwattr $C$DW$59, DW_AT_low_pc(0x00)
     797                      .dwattr $C$DW$59, DW_AT_name("_OS_CPU_SR_Save")
TMS320C2000 Assembler PC v20.2.1 Tue Feb 16 00:15:58 2021

Copyright (c) 1996-2018 Texas Instruments Incorporated
os_flag.asm                                                          PAGE   16

     798                      .dwattr $C$DW$59, DW_AT_TI_call
     799              
     800 000000db 7640!         LCR       #_OS_CPU_SR_Save      ; [CPU_ALU] |339| 
         000000dc 0000 
     801                      ; call occurs [#_OS_CPU_SR_Save] ; [] |339| 
     802 000000dd 964B          MOV       *-SP[11],AL           ; [CPU_ALU] |339| 
     803                      .dwpsn  file "C:/ti/Workspace/PLC_certificate/Software/uCOS-II/Source/os_flag.c",line 340,column 5,is
     804 000000de 8A42          MOVL      XAR4,*-SP[2]          ; [CPU_ALU] |340| 
     805 000000df 06D4          MOVL      ACC,*+XAR4[2]         ; [CPU_ALU] |340| 
     806 000000e0 6104          B         $C$L28,EQ             ; [CPU_ALU] |340| 
     807                      ; branchcc occurs ; [] |340| 
     808                      .dwpsn  file "C:/ti/Workspace/PLC_certificate/Software/uCOS-II/Source/os_flag.c",line 341,column 9,is
     809 000000e1 56BF          MOVB      *-SP[10],#1,UNC       ; [CPU_ALU] |341| 
         000000e2 014A 
     810 000000e3 6F58          B         $C$L36,UNC            ; [CPU_ALU] 
     811                      ; branch occurs ; [] 
     812 000000e4       $C$L28:    
     813                      .dwpsn  file "C:/ti/Workspace/PLC_certificate/Software/uCOS-II/Source/os_flag.c",line 343,column 9,is
     814 000000e4 2B4A          MOV       *-SP[10],#0           ; [CPU_ALU] |343| 
     815                      .dwpsn  file "C:/ti/Workspace/PLC_certificate/Software/uCOS-II/Source/os_flag.c",line 345,column 5,is
     816 000000e5 6F56          B         $C$L36,UNC            ; [CPU_ALU] |345| 
     817                      ; branch occurs ; [] |345| 
     818 000000e6       $C$L29:    
     819                      .dwpsn  file "C:/ti/Workspace/PLC_certificate/Software/uCOS-II/Source/os_flag.c",line 347,column 14,i
     820 000000e6 924A          MOV       AL,*-SP[10]           ; [CPU_ALU] |347| 
     821 000000e7 6018          B         $C$L30,NEQ            ; [CPU_ALU] |347| 
     822                      ; branchcc occurs ; [] |347| 
     823                      .dwpsn  file "C:/ti/Workspace/PLC_certificate/Software/uCOS-II/Source/os_flag.c",line 349,column 18,i
     824 000000e8 8342          MOVL      XAR5,*-SP[2]          ; [CPU_ALU] |349| 
     825 000000e9 8F00+         MOVL      XAR4,#$C$FSL1         ; [CPU_ARAU] |349| 
         000000ea 0000 
     826 000000eb A8F5          MOVL      *+XAR5[6],XAR4        ; [CPU_ALU] |349| 
     827                      .dwpsn  file "C:/ti/Workspace/PLC_certificate/Software/uCOS-II/Source/os_flag.c",line 351,column 18,i
     828 000000ec 8A42          MOVL      XAR4,*-SP[2]          ; [CPU_ALU] |351| 
     829 000000ed 2BC4          MOV       *+XAR4[0],#0          ; [CPU_ALU] |351| 
     830                      .dwpsn  file "C:/ti/Workspace/PLC_certificate/Software/uCOS-II/Source/os_flag.c",line 352,column 18,i
     831 000000ee 8A42          MOVL      XAR4,*-SP[2]          ; [CPU_ALU] |352| 
     832 000000ef 761F!         MOVW      DP,#_OSFlagFreeList   ; [CPU_ARAU] 
         000000f0 0000 
     833 000000f1 0600!         MOVL      ACC,@_OSFlagFreeList  ; [CPU_ALU] |352| 
     834 000000f2 1ED4          MOVL      *+XAR4[2],ACC         ; [CPU_ALU] |352| 
     835                      .dwpsn  file "C:/ti/Workspace/PLC_certificate/Software/uCOS-II/Source/os_flag.c",line 353,column 18,i
     836 000000f3 8A42          MOVL      XAR4,*-SP[2]          ; [CPU_ALU] |353| 
     837 000000f4 2BE4          MOV       *+XAR4[4],#0          ; [CPU_ALU] |353| 
     838                      .dwpsn  file "C:/ti/Workspace/PLC_certificate/Software/uCOS-II/Source/os_flag.c",line 354,column 18,i
     839 000000f5 0642          MOVL      ACC,*-SP[2]           ; [CPU_ALU] |354| 
     840 000000f6 1E00!         MOVL      @_OSFlagFreeList,ACC  ; [CPU_ALU] |354| 
     841                      .dwpsn  file "C:/ti/Workspace/PLC_certificate/Software/uCOS-II/Source/os_flag.c",line 355,column 18,i
     842 000000f7 924B          MOV       AL,*-SP[11]           ; [CPU_ALU] |355| 
     843              $C$DW$60        .dwtag  DW_TAG_TI_branch
     844                      .dwattr $C$DW$60, DW_AT_low_pc(0x00)
     845                      .dwattr $C$DW$60, DW_AT_name("_OS_CPU_SR_Restore")
     846                      .dwattr $C$DW$60, DW_AT_TI_call
     847              
     848 000000f8 7640!         LCR       #_OS_CPU_SR_Restore   ; [CPU_ALU] |355| 
TMS320C2000 Assembler PC v20.2.1 Tue Feb 16 00:15:58 2021

Copyright (c) 1996-2018 Texas Instruments Incorporated
os_flag.asm                                                          PAGE   17

         000000f9 0000 
     849                      ; call occurs [#_OS_CPU_SR_Restore] ; [] |355| 
     850                      .dwpsn  file "C:/ti/Workspace/PLC_certificate/Software/uCOS-II/Source/os_flag.c",line 356,column 18,i
     851 000000fa 8A44          MOVL      XAR4,*-SP[4]          ; [CPU_ALU] |356| 
     852 000000fb 2BC4          MOV       *+XAR4[0],#0          ; [CPU_ALU] |356| 
     853                      .dwpsn  file "C:/ti/Workspace/PLC_certificate/Software/uCOS-II/Source/os_flag.c",line 357,column 18,i
     854 000000fc 0200          MOVB      ACC,#0                ; [CPU_ALU] |357| 
     855 000000fd 1E48          MOVL      *-SP[8],ACC           ; [CPU_ALU] |357| 
     856 000000fe 6F42          B         $C$L37,UNC            ; [CPU_ALU] 
     857                      ; branch occurs ; [] 
     858 000000ff       $C$L30:    
     859                      .dwpsn  file "C:/ti/Workspace/PLC_certificate/Software/uCOS-II/Source/os_flag.c",line 359,column 18,i
     860 000000ff 924B          MOV       AL,*-SP[11]           ; [CPU_ALU] |359| 
     861              $C$DW$61        .dwtag  DW_TAG_TI_branch
     862                      .dwattr $C$DW$61, DW_AT_low_pc(0x00)
     863                      .dwattr $C$DW$61, DW_AT_name("_OS_CPU_SR_Restore")
     864                      .dwattr $C$DW$61, DW_AT_TI_call
     865              
     866 00000100 7640!         LCR       #_OS_CPU_SR_Restore   ; [CPU_ALU] |359| 
         00000101 0000 
     867                      ; call occurs [#_OS_CPU_SR_Restore] ; [] |359| 
     868                      .dwpsn  file "C:/ti/Workspace/PLC_certificate/Software/uCOS-II/Source/os_flag.c",line 360,column 18,i
     869 00000102 8A44          MOVL      XAR4,*-SP[4]          ; [CPU_ALU] |360| 
     870 00000103 56BF          MOVB      *+XAR4[0],#73,UNC     ; [CPU_ALU] |360| 
         00000104 49C4 
     871                      .dwpsn  file "C:/ti/Workspace/PLC_certificate/Software/uCOS-II/Source/os_flag.c",line 361,column 18,i
     872 00000105 0642          MOVL      ACC,*-SP[2]           ; [CPU_ALU] |361| 
     873 00000106 1E48          MOVL      *-SP[8],ACC           ; [CPU_ALU] |361| 
     874                      .dwpsn  file "C:/ti/Workspace/PLC_certificate/Software/uCOS-II/Source/os_flag.c",line 363,column 14,i
     875 00000107 6F39          B         $C$L37,UNC            ; [CPU_ALU] |363| 
     876                      ; branch occurs ; [] |363| 
     877 00000108       $C$L31:    
     878                      .dwpsn  file "C:/ti/Workspace/PLC_certificate/Software/uCOS-II/Source/os_flag.c",line 366,column 14,i
     879 00000108 06D4          MOVL      ACC,*+XAR4[2]         ; [CPU_ALU] |366| 
     880 00000109 1E46          MOVL      *-SP[6],ACC           ; [CPU_ALU] |366| 
     881                      .dwpsn  file "C:/ti/Workspace/PLC_certificate/Software/uCOS-II/Source/os_flag.c",line 367,column 21,i
     882 0000010a 0646          MOVL      ACC,*-SP[6]           ; [CPU_ALU] |367| 
     883 0000010b 610B          B         $C$L33,EQ             ; [CPU_ALU] |367| 
     884                      ; branchcc occurs ; [] |367| 
     885 0000010c       $C$L32:    
     886                      .dwpsn  file "C:/ti/Workspace/PLC_certificate/Software/uCOS-II/Source/os_flag.c",line 368,column 18,i
     887 0000010c 8A46          MOVL      XAR4,*-SP[6]          ; [CPU_ALU] |368| 
     888 0000010d 9A00          MOVB      AL,#0                 ; [CPU_ALU] |368| 
     889 0000010e 9B02          MOVB      AH,#2                 ; [CPU_ALU] |368| 
     890              $C$DW$62        .dwtag  DW_TAG_TI_branch
     891                      .dwattr $C$DW$62, DW_AT_low_pc(0x00)
     892                      .dwattr $C$DW$62, DW_AT_name("_OS_FlagTaskRdy")
     893                      .dwattr $C$DW$62, DW_AT_TI_call
     894              
     895 0000010f 7640'         LCR       #_OS_FlagTaskRdy      ; [CPU_ALU] |368| 
         00000110 0491 
     896                      ; call occurs [#_OS_FlagTaskRdy] ; [] |368| 
     897                      .dwpsn  file "C:/ti/Workspace/PLC_certificate/Software/uCOS-II/Source/os_flag.c",line 369,column 18,i
     898 00000111 8A46          MOVL      XAR4,*-SP[6]          ; [CPU_ALU] |369| 
     899 00000112 06C4          MOVL      ACC,*+XAR4[0]         ; [CPU_ALU] |369| 
TMS320C2000 Assembler PC v20.2.1 Tue Feb 16 00:15:58 2021

Copyright (c) 1996-2018 Texas Instruments Incorporated
os_flag.asm                                                          PAGE   18

     900 00000113 1E46          MOVL      *-SP[6],ACC           ; [CPU_ALU] |369| 
     901                      .dwpsn  file "C:/ti/Workspace/PLC_certificate/Software/uCOS-II/Source/os_flag.c",line 367,column 21,i
     902 00000114 0646          MOVL      ACC,*-SP[6]           ; [CPU_ALU] |367| 
     903 00000115 60F7          B         $C$L32,NEQ            ; [CPU_ALU] |367| 
     904                      ; branchcc occurs ; [] |367| 
     905 00000116       $C$L33:    
     906                      .dwpsn  file "C:/ti/Workspace/PLC_certificate/Software/uCOS-II/Source/os_flag.c",line 372,column 14,i
     907 00000116 8342          MOVL      XAR5,*-SP[2]          ; [CPU_ALU] |372| 
     908 00000117 8F00+         MOVL      XAR4,#$C$FSL1         ; [CPU_ARAU] |372| 
         00000118 0000 
     909 00000119 A8F5          MOVL      *+XAR5[6],XAR4        ; [CPU_ALU] |372| 
     910                      .dwpsn  file "C:/ti/Workspace/PLC_certificate/Software/uCOS-II/Source/os_flag.c",line 374,column 14,i
     911 0000011a 8A42          MOVL      XAR4,*-SP[2]          ; [CPU_ALU] |374| 
     912 0000011b 2BC4          MOV       *+XAR4[0],#0          ; [CPU_ALU] |374| 
     913                      .dwpsn  file "C:/ti/Workspace/PLC_certificate/Software/uCOS-II/Source/os_flag.c",line 375,column 14,i
     914 0000011c 8A42          MOVL      XAR4,*-SP[2]          ; [CPU_ALU] |375| 
     915 0000011d 761F!         MOVW      DP,#_OSFlagFreeList   ; [CPU_ARAU] 
         0000011e 0000 
     916 0000011f 0600!         MOVL      ACC,@_OSFlagFreeList  ; [CPU_ALU] |375| 
     917 00000120 1ED4          MOVL      *+XAR4[2],ACC         ; [CPU_ALU] |375| 
     918                      .dwpsn  file "C:/ti/Workspace/PLC_certificate/Software/uCOS-II/Source/os_flag.c",line 376,column 14,i
     919 00000121 8A42          MOVL      XAR4,*-SP[2]          ; [CPU_ALU] |376| 
     920 00000122 2BE4          MOV       *+XAR4[4],#0          ; [CPU_ALU] |376| 
     921                      .dwpsn  file "C:/ti/Workspace/PLC_certificate/Software/uCOS-II/Source/os_flag.c",line 377,column 14,i
     922 00000123 0642          MOVL      ACC,*-SP[2]           ; [CPU_ALU] |377| 
     923 00000124 1E00!         MOVL      @_OSFlagFreeList,ACC  ; [CPU_ALU] |377| 
     924                      .dwpsn  file "C:/ti/Workspace/PLC_certificate/Software/uCOS-II/Source/os_flag.c",line 378,column 14,i
     925 00000125 924B          MOV       AL,*-SP[11]           ; [CPU_ALU] |378| 
     926              $C$DW$63        .dwtag  DW_TAG_TI_branch
     927                      .dwattr $C$DW$63, DW_AT_low_pc(0x00)
     928                      .dwattr $C$DW$63, DW_AT_name("_OS_CPU_SR_Restore")
     929                      .dwattr $C$DW$63, DW_AT_TI_call
     930              
     931 00000126 7640!         LCR       #_OS_CPU_SR_Restore   ; [CPU_ALU] |378| 
         00000127 0000 
     932                      ; call occurs [#_OS_CPU_SR_Restore] ; [] |378| 
     933                      .dwpsn  file "C:/ti/Workspace/PLC_certificate/Software/uCOS-II/Source/os_flag.c",line 379,column 14,i
     934 00000128 924A          MOV       AL,*-SP[10]           ; [CPU_ALU] |379| 
     935 00000129 5201          CMPB      AL,#1                 ; [CPU_ALU] |379| 
     936 0000012a 6003          B         $C$L34,NEQ            ; [CPU_ALU] |379| 
     937                      ; branchcc occurs ; [] |379| 
     938                      .dwpsn  file "C:/ti/Workspace/PLC_certificate/Software/uCOS-II/Source/os_flag.c",line 380,column 18,i
     939              $C$DW$64        .dwtag  DW_TAG_TI_branch
     940                      .dwattr $C$DW$64, DW_AT_low_pc(0x00)
     941                      .dwattr $C$DW$64, DW_AT_name("_OS_Sched")
     942                      .dwattr $C$DW$64, DW_AT_TI_call
     943              
     944 0000012b 7640!         LCR       #_OS_Sched            ; [CPU_ALU] |380| 
         0000012c 0000 
     945                      ; call occurs [#_OS_Sched] ; [] |380| 
     946 0000012d       $C$L34:    
     947                      .dwpsn  file "C:/ti/Workspace/PLC_certificate/Software/uCOS-II/Source/os_flag.c",line 382,column 14,i
     948 0000012d 8A44          MOVL      XAR4,*-SP[4]          ; [CPU_ALU] |382| 
     949 0000012e 2BC4          MOV       *+XAR4[0],#0          ; [CPU_ALU] |382| 
     950                      .dwpsn  file "C:/ti/Workspace/PLC_certificate/Software/uCOS-II/Source/os_flag.c",line 383,column 14,i
TMS320C2000 Assembler PC v20.2.1 Tue Feb 16 00:15:58 2021

Copyright (c) 1996-2018 Texas Instruments Incorporated
os_flag.asm                                                          PAGE   19

     951 0000012f 0200          MOVB      ACC,#0                ; [CPU_ALU] |383| 
     952 00000130 1E48          MOVL      *-SP[8],ACC           ; [CPU_ALU] |383| 
     953                      .dwpsn  file "C:/ti/Workspace/PLC_certificate/Software/uCOS-II/Source/os_flag.c",line 384,column 14,i
     954 00000131 6F0F          B         $C$L37,UNC            ; [CPU_ALU] |384| 
     955                      ; branch occurs ; [] |384| 
     956 00000132       $C$L35:    
     957                      .dwpsn  file "C:/ti/Workspace/PLC_certificate/Software/uCOS-II/Source/os_flag.c",line 387,column 14,i
     958 00000132 924B          MOV       AL,*-SP[11]           ; [CPU_ALU] |387| 
     959              $C$DW$65        .dwtag  DW_TAG_TI_branch
     960                      .dwattr $C$DW$65, DW_AT_low_pc(0x00)
     961                      .dwattr $C$DW$65, DW_AT_name("_OS_CPU_SR_Restore")
     962                      .dwattr $C$DW$65, DW_AT_TI_call
     963              
     964 00000133 7640!         LCR       #_OS_CPU_SR_Restore   ; [CPU_ALU] |387| 
         00000134 0000 
     965                      ; call occurs [#_OS_CPU_SR_Restore] ; [] |387| 
     966                      .dwpsn  file "C:/ti/Workspace/PLC_certificate/Software/uCOS-II/Source/os_flag.c",line 388,column 14,i
     967 00000135 8A44          MOVL      XAR4,*-SP[4]          ; [CPU_ALU] |388| 
     968 00000136 56BF          MOVB      *+XAR4[0],#7,UNC      ; [CPU_ALU] |388| 
         00000137 07C4 
     969                      .dwpsn  file "C:/ti/Workspace/PLC_certificate/Software/uCOS-II/Source/os_flag.c",line 389,column 14,i
     970 00000138 0642          MOVL      ACC,*-SP[2]           ; [CPU_ALU] |389| 
     971 00000139 1E48          MOVL      *-SP[8],ACC           ; [CPU_ALU] |389| 
     972                      .dwpsn  file "C:/ti/Workspace/PLC_certificate/Software/uCOS-II/Source/os_flag.c",line 390,column 14,i
     973 0000013a 6F06          B         $C$L37,UNC            ; [CPU_ALU] |390| 
     974                      ; branch occurs ; [] |390| 
     975 0000013b       $C$L36:    
     976                      .dwpsn  file "C:/ti/Workspace/PLC_certificate/Software/uCOS-II/Source/os_flag.c",line 345,column 5,is
     977 0000013b 9249          MOV       AL,*-SP[9]            ; [CPU_ALU] |345| 
     978 0000013c 61AA          B         $C$L29,EQ             ; [CPU_ALU] |345| 
     979                      ; branchcc occurs ; [] |345| 
     980 0000013d 5201          CMPB      AL,#1                 ; [CPU_ALU] |345| 
     981 0000013e 61CA          B         $C$L31,EQ             ; [CPU_ALU] |345| 
     982                      ; branchcc occurs ; [] |345| 
     983 0000013f 6FF3          B         $C$L35,UNC            ; [CPU_ALU] |345| 
     984                      ; branch occurs ; [] |345| 
     985 00000140       $C$L37:    
     986                      .dwpsn  file "C:/ti/Workspace/PLC_certificate/Software/uCOS-II/Source/os_flag.c",line 392,column 5,is
     987 00000140 8A48          MOVL      XAR4,*-SP[8]          ; [CPU_ALU] |392| 
     988 00000141       $C$L38:    
     989                      .dwpsn  file "C:/ti/Workspace/PLC_certificate/Software/uCOS-II/Source/os_flag.c",line 393,column 1,is
     990 00000141 FE8C          SUBB      SP,#12                ; [CPU_ARAU] 
     991                      .dwcfi  cfa_offset, -2
     992              $C$DW$66        .dwtag  DW_TAG_TI_branch
     993                      .dwattr $C$DW$66, DW_AT_low_pc(0x00)
     994                      .dwattr $C$DW$66, DW_AT_TI_return
     995              
     996 00000142 0006          LRETR     ; [CPU_ALU] 
     997                      ; return occurs ; [] 
     998                      .dwattr $C$DW$48, DW_AT_TI_end_file("C:/ti/Workspace/PLC_certificate/Software/uCOS-II/Source/os_flag.
     999                      .dwattr $C$DW$48, DW_AT_TI_end_line(0x189)
    1000                      .dwattr $C$DW$48, DW_AT_TI_end_column(0x01)
    1001                      .dwendentry
    1002                      .dwendtag $C$DW$48
    1003              
TMS320C2000 Assembler PC v20.2.1 Tue Feb 16 00:15:58 2021

Copyright (c) 1996-2018 Texas Instruments Incorporated
os_flag.asm                                                          PAGE   20

    1004 00000143               .sect   ".text"
    1005                      .clink
    1006                      .global _OSFlagNameGet
    1007              
    1008              $C$DW$67        .dwtag  DW_TAG_subprogram
    1009                      .dwattr $C$DW$67, DW_AT_name("OSFlagNameGet")
    1010                      .dwattr $C$DW$67, DW_AT_low_pc(_OSFlagNameGet)
    1011                      .dwattr $C$DW$67, DW_AT_high_pc(0x00)
    1012                      .dwattr $C$DW$67, DW_AT_TI_symbol_name("_OSFlagNameGet")
    1013                      .dwattr $C$DW$67, DW_AT_external
    1014                      .dwattr $C$DW$67, DW_AT_type(*$C$DW$T$19)
    1015                      .dwattr $C$DW$67, DW_AT_TI_begin_file("C:/ti/Workspace/PLC_certificate/Software/uCOS-II/Source/os_fla
    1016                      .dwattr $C$DW$67, DW_AT_TI_begin_line(0x1a4)
    1017                      .dwattr $C$DW$67, DW_AT_TI_begin_column(0x08)
    1018                      .dwattr $C$DW$67, DW_AT_TI_max_frame_size(-8)
    1019                      .dwpsn  file "C:/ti/Workspace/PLC_certificate/Software/uCOS-II/Source/os_flag.c",line 423,column 1,is
    1020              
    1021                      .dwfde $C$DW$CIE, _OSFlagNameGet
    1022              $C$DW$68        .dwtag  DW_TAG_formal_parameter
    1023                      .dwattr $C$DW$68, DW_AT_name("pgrp")
    1024                      .dwattr $C$DW$68, DW_AT_TI_symbol_name("_pgrp")
    1025                      .dwattr $C$DW$68, DW_AT_type(*$C$DW$T$47)
    1026                      .dwattr $C$DW$68, DW_AT_location[DW_OP_reg12]
    1027              
    1028              $C$DW$69        .dwtag  DW_TAG_formal_parameter
    1029                      .dwattr $C$DW$69, DW_AT_name("pname")
    1030                      .dwattr $C$DW$69, DW_AT_TI_symbol_name("_pname")
    1031                      .dwattr $C$DW$69, DW_AT_type(*$C$DW$T$57)
    1032                      .dwattr $C$DW$69, DW_AT_location[DW_OP_reg14]
    1033              
    1034              $C$DW$70        .dwtag  DW_TAG_formal_parameter
    1035                      .dwattr $C$DW$70, DW_AT_name("perr")
    1036                      .dwattr $C$DW$70, DW_AT_TI_symbol_name("_perr")
    1037                      .dwattr $C$DW$70, DW_AT_type(*$C$DW$T$23)
    1038                      .dwattr $C$DW$70, DW_AT_location[DW_OP_breg20 -10]
    1039              
    1040              
    1041              ;***************************************************************
    1042              ;* FNAME: _OSFlagNameGet                FR SIZE:   6           *
    1043              ;*                                                             *
    1044              ;* FUNCTION ENVIRONMENT                                        *
    1045              ;*                                                             *
    1046              ;* FUNCTION PROPERTIES                                         *
    1047              ;*                            0 Parameter,  6 Auto,  0 SOE     *
    1048              ;***************************************************************
    1049              
    1050 00000143       _OSFlagNameGet:
    1051                      .dwcfi  cfa_offset, -2
    1052                      .dwcfi  save_reg_to_mem, 26, 0
    1053 00000143 FE06          ADDB      SP,#6                 ; [CPU_ARAU] 
    1054                      .dwcfi  cfa_offset, -8
    1055              $C$DW$71        .dwtag  DW_TAG_variable
    1056                      .dwattr $C$DW$71, DW_AT_name("pgrp")
    1057                      .dwattr $C$DW$71, DW_AT_TI_symbol_name("_pgrp")
    1058                      .dwattr $C$DW$71, DW_AT_type(*$C$DW$T$47)
TMS320C2000 Assembler PC v20.2.1 Tue Feb 16 00:15:58 2021

Copyright (c) 1996-2018 Texas Instruments Incorporated
os_flag.asm                                                          PAGE   21

    1059                      .dwattr $C$DW$71, DW_AT_location[DW_OP_breg20 -2]
    1060              
    1061              $C$DW$72        .dwtag  DW_TAG_variable
    1062                      .dwattr $C$DW$72, DW_AT_name("pname")
    1063                      .dwattr $C$DW$72, DW_AT_TI_symbol_name("_pname")
    1064                      .dwattr $C$DW$72, DW_AT_type(*$C$DW$T$57)
    1065                      .dwattr $C$DW$72, DW_AT_location[DW_OP_breg20 -4]
    1066              
    1067              $C$DW$73        .dwtag  DW_TAG_variable
    1068                      .dwattr $C$DW$73, DW_AT_name("len")
    1069                      .dwattr $C$DW$73, DW_AT_TI_symbol_name("_len")
    1070                      .dwattr $C$DW$73, DW_AT_type(*$C$DW$T$19)
    1071                      .dwattr $C$DW$73, DW_AT_location[DW_OP_breg20 -5]
    1072              
    1073              $C$DW$74        .dwtag  DW_TAG_variable
    1074                      .dwattr $C$DW$74, DW_AT_name("cpu_sr")
    1075                      .dwattr $C$DW$74, DW_AT_TI_symbol_name("_cpu_sr")
    1076                      .dwattr $C$DW$74, DW_AT_type(*$C$DW$T$39)
    1077                      .dwattr $C$DW$74, DW_AT_location[DW_OP_breg20 -6]
    1078              
    1079 00000144 A044          MOVL      *-SP[4],XAR5          ; [CPU_ALU] |423| 
    1080 00000145 A842          MOVL      *-SP[2],XAR4          ; [CPU_ALU] |423| 
    1081                      .dwpsn  file "C:/ti/Workspace/PLC_certificate/Software/uCOS-II/Source/os_flag.c",line 426,column 23,i
    1082 00000146 2B46          MOV       *-SP[6],#0            ; [CPU_ALU] |426| 
    1083                      .dwpsn  file "C:/ti/Workspace/PLC_certificate/Software/uCOS-II/Source/os_flag.c",line 439,column 5,is
    1084 00000147 0642          MOVL      ACC,*-SP[2]           ; [CPU_ALU] |439| 
    1085 00000148 6006          B         $C$L39,NEQ            ; [CPU_ALU] |439| 
    1086                      ; branchcc occurs ; [] |439| 
    1087                      .dwpsn  file "C:/ti/Workspace/PLC_certificate/Software/uCOS-II/Source/os_flag.c",line 440,column 9,is
    1088 00000149 8A4A          MOVL      XAR4,*-SP[10]         ; [CPU_ALU] |440| 
    1089 0000014a 56BF          MOVB      *+XAR4[0],#110,UNC    ; [CPU_ALU] |440| 
         0000014b 6EC4 
    1090                      .dwpsn  file "C:/ti/Workspace/PLC_certificate/Software/uCOS-II/Source/os_flag.c",line 441,column 9,is
    1091 0000014c 9A00          MOVB      AL,#0                 ; [CPU_ALU] |441| 
    1092 0000014d 6F2E          B         $C$L43,UNC            ; [CPU_ALU] |441| 
    1093                      ; branch occurs ; [] |441| 
    1094 0000014e       $C$L39:    
    1095                      .dwpsn  file "C:/ti/Workspace/PLC_certificate/Software/uCOS-II/Source/os_flag.c",line 443,column 5,is
    1096 0000014e 0644          MOVL      ACC,*-SP[4]           ; [CPU_ALU] |443| 
    1097 0000014f 6006          B         $C$L40,NEQ            ; [CPU_ALU] |443| 
    1098                      ; branchcc occurs ; [] |443| 
    1099                      .dwpsn  file "C:/ti/Workspace/PLC_certificate/Software/uCOS-II/Source/os_flag.c",line 444,column 9,is
    1100 00000150 8A4A          MOVL      XAR4,*-SP[10]         ; [CPU_ALU] |444| 
    1101 00000151 56BF          MOVB      *+XAR4[0],#12,UNC     ; [CPU_ALU] |444| 
         00000152 0CC4 
    1102                      .dwpsn  file "C:/ti/Workspace/PLC_certificate/Software/uCOS-II/Source/os_flag.c",line 445,column 9,is
    1103 00000153 9A00          MOVB      AL,#0                 ; [CPU_ALU] |445| 
    1104 00000154 6F27          B         $C$L43,UNC            ; [CPU_ALU] |445| 
    1105                      ; branch occurs ; [] |445| 
    1106 00000155       $C$L40:    
    1107                      .dwpsn  file "C:/ti/Workspace/PLC_certificate/Software/uCOS-II/Source/os_flag.c",line 448,column 5,is
    1108 00000155 761F!         MOVW      DP,#_OSIntNesting     ; [CPU_ARAU] 
         00000156 0000 
    1109 00000157 9200!         MOV       AL,@_OSIntNesting     ; [CPU_ALU] |448| 
    1110 00000158 6106          B         $C$L41,EQ             ; [CPU_ALU] |448| 
TMS320C2000 Assembler PC v20.2.1 Tue Feb 16 00:15:58 2021

Copyright (c) 1996-2018 Texas Instruments Incorporated
os_flag.asm                                                          PAGE   22

    1111                      ; branchcc occurs ; [] |448| 
    1112                      .dwpsn  file "C:/ti/Workspace/PLC_certificate/Software/uCOS-II/Source/os_flag.c",line 449,column 9,is
    1113 00000159 8A4A          MOVL      XAR4,*-SP[10]         ; [CPU_ALU] |449| 
    1114 0000015a 56BF          MOVB      *+XAR4[0],#17,UNC     ; [CPU_ALU] |449| 
         0000015b 11C4 
    1115                      .dwpsn  file "C:/ti/Workspace/PLC_certificate/Software/uCOS-II/Source/os_flag.c",line 450,column 9,is
    1116 0000015c 9A00          MOVB      AL,#0                 ; [CPU_ALU] |450| 
    1117 0000015d 6F1E          B         $C$L43,UNC            ; [CPU_ALU] |450| 
    1118                      ; branch occurs ; [] |450| 
    1119 0000015e       $C$L41:    
    1120                      .dwpsn  file "C:/ti/Workspace/PLC_certificate/Software/uCOS-II/Source/os_flag.c",line 452,column 5,is
    1121              $C$DW$75        .dwtag  DW_TAG_TI_branch
    1122                      .dwattr $C$DW$75, DW_AT_low_pc(0x00)
    1123                      .dwattr $C$DW$75, DW_AT_name("_OS_CPU_SR_Save")
    1124                      .dwattr $C$DW$75, DW_AT_TI_call
    1125              
    1126 0000015e 7640!         LCR       #_OS_CPU_SR_Save      ; [CPU_ALU] |452| 
         0000015f 0000 
    1127                      ; call occurs [#_OS_CPU_SR_Save] ; [] |452| 
    1128 00000160 9646          MOV       *-SP[6],AL            ; [CPU_ALU] |452| 
    1129                      .dwpsn  file "C:/ti/Workspace/PLC_certificate/Software/uCOS-II/Source/os_flag.c",line 453,column 5,is
    1130 00000161 8A42          MOVL      XAR4,*-SP[2]          ; [CPU_ALU] |453| 
    1131 00000162 92C4          MOV       AL,*+XAR4[0]          ; [CPU_ALU] |453| 
    1132 00000163 5205          CMPB      AL,#5                 ; [CPU_ALU] |453| 
    1133 00000164 6109          B         $C$L42,EQ             ; [CPU_ALU] |453| 
    1134                      ; branchcc occurs ; [] |453| 
    1135                      .dwpsn  file "C:/ti/Workspace/PLC_certificate/Software/uCOS-II/Source/os_flag.c",line 454,column 9,is
    1136 00000165 9246          MOV       AL,*-SP[6]            ; [CPU_ALU] |454| 
    1137              $C$DW$76        .dwtag  DW_TAG_TI_branch
    1138                      .dwattr $C$DW$76, DW_AT_low_pc(0x00)
    1139                      .dwattr $C$DW$76, DW_AT_name("_OS_CPU_SR_Restore")
    1140                      .dwattr $C$DW$76, DW_AT_TI_call
    1141              
    1142 00000166 7640!         LCR       #_OS_CPU_SR_Restore   ; [CPU_ALU] |454| 
         00000167 0000 
    1143                      ; call occurs [#_OS_CPU_SR_Restore] ; [] |454| 
    1144                      .dwpsn  file "C:/ti/Workspace/PLC_certificate/Software/uCOS-II/Source/os_flag.c",line 455,column 9,is
    1145 00000168 8A4A          MOVL      XAR4,*-SP[10]         ; [CPU_ALU] |455| 
    1146 00000169 56BF          MOVB      *+XAR4[0],#1,UNC      ; [CPU_ALU] |455| 
         0000016a 01C4 
    1147                      .dwpsn  file "C:/ti/Workspace/PLC_certificate/Software/uCOS-II/Source/os_flag.c",line 456,column 9,is
    1148 0000016b 9A00          MOVB      AL,#0                 ; [CPU_ALU] |456| 
    1149 0000016c 6F0F          B         $C$L43,UNC            ; [CPU_ALU] |456| 
    1150                      ; branch occurs ; [] |456| 
    1151 0000016d       $C$L42:    
    1152                      .dwpsn  file "C:/ti/Workspace/PLC_certificate/Software/uCOS-II/Source/os_flag.c",line 458,column 5,is
    1153 0000016d 06F4          MOVL      ACC,*+XAR4[6]         ; [CPU_ALU] |458| 
    1154 0000016e 8A44          MOVL      XAR4,*-SP[4]          ; [CPU_ALU] |458| 
    1155 0000016f 1EC4          MOVL      *+XAR4[0],ACC         ; [CPU_ALU] |458| 
    1156                      .dwpsn  file "C:/ti/Workspace/PLC_certificate/Software/uCOS-II/Source/os_flag.c",line 459,column 5,is
    1157 00000170 8A44          MOVL      XAR4,*-SP[4]          ; [CPU_ALU] |459| 
    1158 00000171 8AC4          MOVL      XAR4,*+XAR4[0]        ; [CPU_ALU] |459| 
    1159              $C$DW$77        .dwtag  DW_TAG_TI_branch
    1160                      .dwattr $C$DW$77, DW_AT_low_pc(0x00)
    1161                      .dwattr $C$DW$77, DW_AT_name("_OS_StrLen")
TMS320C2000 Assembler PC v20.2.1 Tue Feb 16 00:15:58 2021

Copyright (c) 1996-2018 Texas Instruments Incorporated
os_flag.asm                                                          PAGE   23

    1162                      .dwattr $C$DW$77, DW_AT_TI_call
    1163              
    1164 00000172 7640!         LCR       #_OS_StrLen           ; [CPU_ALU] |459| 
         00000173 0000 
    1165                      ; call occurs [#_OS_StrLen] ; [] |459| 
    1166 00000174 9645          MOV       *-SP[5],AL            ; [CPU_ALU] |459| 
    1167                      .dwpsn  file "C:/ti/Workspace/PLC_certificate/Software/uCOS-II/Source/os_flag.c",line 460,column 5,is
    1168 00000175 9246          MOV       AL,*-SP[6]            ; [CPU_ALU] |460| 
    1169              $C$DW$78        .dwtag  DW_TAG_TI_branch
    1170                      .dwattr $C$DW$78, DW_AT_low_pc(0x00)
    1171                      .dwattr $C$DW$78, DW_AT_name("_OS_CPU_SR_Restore")
    1172                      .dwattr $C$DW$78, DW_AT_TI_call
    1173              
    1174 00000176 7640!         LCR       #_OS_CPU_SR_Restore   ; [CPU_ALU] |460| 
         00000177 0000 
    1175                      ; call occurs [#_OS_CPU_SR_Restore] ; [] |460| 
    1176                      .dwpsn  file "C:/ti/Workspace/PLC_certificate/Software/uCOS-II/Source/os_flag.c",line 461,column 5,is
    1177 00000178 8A4A          MOVL      XAR4,*-SP[10]         ; [CPU_ALU] |461| 
    1178 00000179 2BC4          MOV       *+XAR4[0],#0          ; [CPU_ALU] |461| 
    1179                      .dwpsn  file "C:/ti/Workspace/PLC_certificate/Software/uCOS-II/Source/os_flag.c",line 462,column 5,is
    1180 0000017a 9245          MOV       AL,*-SP[5]            ; [CPU_ALU] |462| 
    1181 0000017b       $C$L43:    
    1182                      .dwpsn  file "C:/ti/Workspace/PLC_certificate/Software/uCOS-II/Source/os_flag.c",line 463,column 1,is
    1183 0000017b FE86          SUBB      SP,#6                 ; [CPU_ARAU] 
    1184                      .dwcfi  cfa_offset, -2
    1185              $C$DW$79        .dwtag  DW_TAG_TI_branch
    1186                      .dwattr $C$DW$79, DW_AT_low_pc(0x00)
    1187                      .dwattr $C$DW$79, DW_AT_TI_return
    1188              
    1189 0000017c 0006          LRETR     ; [CPU_ALU] 
    1190                      ; return occurs ; [] 
    1191                      .dwattr $C$DW$67, DW_AT_TI_end_file("C:/ti/Workspace/PLC_certificate/Software/uCOS-II/Source/os_flag.
    1192                      .dwattr $C$DW$67, DW_AT_TI_end_line(0x1cf)
    1193                      .dwattr $C$DW$67, DW_AT_TI_end_column(0x01)
    1194                      .dwendentry
    1195                      .dwendtag $C$DW$67
    1196              
    1197 0000017d               .sect   ".text"
    1198                      .clink
    1199                      .global _OSFlagNameSet
    1200              
    1201              $C$DW$80        .dwtag  DW_TAG_subprogram
    1202                      .dwattr $C$DW$80, DW_AT_name("OSFlagNameSet")
    1203                      .dwattr $C$DW$80, DW_AT_low_pc(_OSFlagNameSet)
    1204                      .dwattr $C$DW$80, DW_AT_high_pc(0x00)
    1205                      .dwattr $C$DW$80, DW_AT_TI_symbol_name("_OSFlagNameSet")
    1206                      .dwattr $C$DW$80, DW_AT_external
    1207                      .dwattr $C$DW$80, DW_AT_TI_begin_file("C:/ti/Workspace/PLC_certificate/Software/uCOS-II/Source/os_fla
    1208                      .dwattr $C$DW$80, DW_AT_TI_begin_line(0x1eb)
    1209                      .dwattr $C$DW$80, DW_AT_TI_begin_column(0x07)
    1210                      .dwattr $C$DW$80, DW_AT_TI_max_frame_size(-8)
    1211                      .dwpsn  file "C:/ti/Workspace/PLC_certificate/Software/uCOS-II/Source/os_flag.c",line 494,column 1,is
    1212              
    1213                      .dwfde $C$DW$CIE, _OSFlagNameSet
    1214              $C$DW$81        .dwtag  DW_TAG_formal_parameter
TMS320C2000 Assembler PC v20.2.1 Tue Feb 16 00:15:58 2021

Copyright (c) 1996-2018 Texas Instruments Incorporated
os_flag.asm                                                          PAGE   24

    1215                      .dwattr $C$DW$81, DW_AT_name("pgrp")
    1216                      .dwattr $C$DW$81, DW_AT_TI_symbol_name("_pgrp")
    1217                      .dwattr $C$DW$81, DW_AT_type(*$C$DW$T$47)
    1218                      .dwattr $C$DW$81, DW_AT_location[DW_OP_reg12]
    1219              
    1220              $C$DW$82        .dwtag  DW_TAG_formal_parameter
    1221                      .dwattr $C$DW$82, DW_AT_name("pname")
    1222                      .dwattr $C$DW$82, DW_AT_TI_symbol_name("_pname")
    1223                      .dwattr $C$DW$82, DW_AT_type(*$C$DW$T$23)
    1224                      .dwattr $C$DW$82, DW_AT_location[DW_OP_reg14]
    1225              
    1226              $C$DW$83        .dwtag  DW_TAG_formal_parameter
    1227                      .dwattr $C$DW$83, DW_AT_name("perr")
    1228                      .dwattr $C$DW$83, DW_AT_TI_symbol_name("_perr")
    1229                      .dwattr $C$DW$83, DW_AT_type(*$C$DW$T$23)
    1230                      .dwattr $C$DW$83, DW_AT_location[DW_OP_breg20 -10]
    1231              
    1232              
    1233              ;***************************************************************
    1234              ;* FNAME: _OSFlagNameSet                FR SIZE:   6           *
    1235              ;*                                                             *
    1236              ;* FUNCTION ENVIRONMENT                                        *
    1237              ;*                                                             *
    1238              ;* FUNCTION PROPERTIES                                         *
    1239              ;*                            0 Parameter,  5 Auto,  0 SOE     *
    1240              ;***************************************************************
    1241              
    1242 0000017d       _OSFlagNameSet:
    1243                      .dwcfi  cfa_offset, -2
    1244                      .dwcfi  save_reg_to_mem, 26, 0
    1245 0000017d FE06          ADDB      SP,#6                 ; [CPU_ARAU] 
    1246                      .dwcfi  cfa_offset, -8
    1247              $C$DW$84        .dwtag  DW_TAG_variable
    1248                      .dwattr $C$DW$84, DW_AT_name("pgrp")
    1249                      .dwattr $C$DW$84, DW_AT_TI_symbol_name("_pgrp")
    1250                      .dwattr $C$DW$84, DW_AT_type(*$C$DW$T$47)
    1251                      .dwattr $C$DW$84, DW_AT_location[DW_OP_breg20 -2]
    1252              
    1253              $C$DW$85        .dwtag  DW_TAG_variable
    1254                      .dwattr $C$DW$85, DW_AT_name("pname")
    1255                      .dwattr $C$DW$85, DW_AT_TI_symbol_name("_pname")
    1256                      .dwattr $C$DW$85, DW_AT_type(*$C$DW$T$23)
    1257                      .dwattr $C$DW$85, DW_AT_location[DW_OP_breg20 -4]
    1258              
    1259              $C$DW$86        .dwtag  DW_TAG_variable
    1260                      .dwattr $C$DW$86, DW_AT_name("cpu_sr")
    1261                      .dwattr $C$DW$86, DW_AT_TI_symbol_name("_cpu_sr")
    1262                      .dwattr $C$DW$86, DW_AT_type(*$C$DW$T$39)
    1263                      .dwattr $C$DW$86, DW_AT_location[DW_OP_breg20 -5]
    1264              
    1265 0000017e A044          MOVL      *-SP[4],XAR5          ; [CPU_ALU] |494| 
    1266 0000017f A842          MOVL      *-SP[2],XAR4          ; [CPU_ALU] |494| 
    1267                      .dwpsn  file "C:/ti/Workspace/PLC_certificate/Software/uCOS-II/Source/os_flag.c",line 496,column 23,i
    1268 00000180 2B45          MOV       *-SP[5],#0            ; [CPU_ALU] |496| 
    1269                      .dwpsn  file "C:/ti/Workspace/PLC_certificate/Software/uCOS-II/Source/os_flag.c",line 509,column 5,is
TMS320C2000 Assembler PC v20.2.1 Tue Feb 16 00:15:58 2021

Copyright (c) 1996-2018 Texas Instruments Incorporated
os_flag.asm                                                          PAGE   25

    1270 00000181 0642          MOVL      ACC,*-SP[2]           ; [CPU_ALU] |509| 
    1271 00000182 6005          B         $C$L44,NEQ            ; [CPU_ALU] |509| 
    1272                      ; branchcc occurs ; [] |509| 
    1273                      .dwpsn  file "C:/ti/Workspace/PLC_certificate/Software/uCOS-II/Source/os_flag.c",line 510,column 9,is
    1274 00000183 8A4A          MOVL      XAR4,*-SP[10]         ; [CPU_ALU] |510| 
    1275 00000184 56BF          MOVB      *+XAR4[0],#110,UNC    ; [CPU_ALU] |510| 
         00000185 6EC4 
    1276                      .dwpsn  file "C:/ti/Workspace/PLC_certificate/Software/uCOS-II/Source/os_flag.c",line 511,column 9,is
    1277 00000186 6F24          B         $C$L48,UNC            ; [CPU_ALU] |511| 
    1278                      ; branch occurs ; [] |511| 
    1279 00000187       $C$L44:    
    1280                      .dwpsn  file "C:/ti/Workspace/PLC_certificate/Software/uCOS-II/Source/os_flag.c",line 513,column 5,is
    1281 00000187 0644          MOVL      ACC,*-SP[4]           ; [CPU_ALU] |513| 
    1282 00000188 6005          B         $C$L45,NEQ            ; [CPU_ALU] |513| 
    1283                      ; branchcc occurs ; [] |513| 
    1284                      .dwpsn  file "C:/ti/Workspace/PLC_certificate/Software/uCOS-II/Source/os_flag.c",line 514,column 9,is
    1285 00000189 8A4A          MOVL      XAR4,*-SP[10]         ; [CPU_ALU] |514| 
    1286 0000018a 56BF          MOVB      *+XAR4[0],#12,UNC     ; [CPU_ALU] |514| 
         0000018b 0CC4 
    1287                      .dwpsn  file "C:/ti/Workspace/PLC_certificate/Software/uCOS-II/Source/os_flag.c",line 515,column 9,is
    1288 0000018c 6F1E          B         $C$L48,UNC            ; [CPU_ALU] |515| 
    1289                      ; branch occurs ; [] |515| 
    1290 0000018d       $C$L45:    
    1291                      .dwpsn  file "C:/ti/Workspace/PLC_certificate/Software/uCOS-II/Source/os_flag.c",line 518,column 5,is
    1292 0000018d 761F!         MOVW      DP,#_OSIntNesting     ; [CPU_ARAU] 
         0000018e 0000 
    1293 0000018f 9200!         MOV       AL,@_OSIntNesting     ; [CPU_ALU] |518| 
    1294 00000190 6105          B         $C$L46,EQ             ; [CPU_ALU] |518| 
    1295                      ; branchcc occurs ; [] |518| 
    1296                      .dwpsn  file "C:/ti/Workspace/PLC_certificate/Software/uCOS-II/Source/os_flag.c",line 519,column 9,is
    1297 00000191 8A4A          MOVL      XAR4,*-SP[10]         ; [CPU_ALU] |519| 
    1298 00000192 56BF          MOVB      *+XAR4[0],#18,UNC     ; [CPU_ALU] |519| 
         00000193 12C4 
    1299                      .dwpsn  file "C:/ti/Workspace/PLC_certificate/Software/uCOS-II/Source/os_flag.c",line 520,column 9,is
    1300 00000194 6F16          B         $C$L48,UNC            ; [CPU_ALU] |520| 
    1301                      ; branch occurs ; [] |520| 
    1302 00000195       $C$L46:    
    1303                      .dwpsn  file "C:/ti/Workspace/PLC_certificate/Software/uCOS-II/Source/os_flag.c",line 522,column 5,is
    1304              $C$DW$87        .dwtag  DW_TAG_TI_branch
    1305                      .dwattr $C$DW$87, DW_AT_low_pc(0x00)
    1306                      .dwattr $C$DW$87, DW_AT_name("_OS_CPU_SR_Save")
    1307                      .dwattr $C$DW$87, DW_AT_TI_call
    1308              
    1309 00000195 7640!         LCR       #_OS_CPU_SR_Save      ; [CPU_ALU] |522| 
         00000196 0000 
    1310                      ; call occurs [#_OS_CPU_SR_Save] ; [] |522| 
    1311 00000197 9645          MOV       *-SP[5],AL            ; [CPU_ALU] |522| 
    1312                      .dwpsn  file "C:/ti/Workspace/PLC_certificate/Software/uCOS-II/Source/os_flag.c",line 523,column 5,is
    1313 00000198 8A42          MOVL      XAR4,*-SP[2]          ; [CPU_ALU] |523| 
    1314 00000199 92C4          MOV       AL,*+XAR4[0]          ; [CPU_ALU] |523| 
    1315 0000019a 5205          CMPB      AL,#5                 ; [CPU_ALU] |523| 
    1316 0000019b 6108          B         $C$L47,EQ             ; [CPU_ALU] |523| 
    1317                      ; branchcc occurs ; [] |523| 
    1318                      .dwpsn  file "C:/ti/Workspace/PLC_certificate/Software/uCOS-II/Source/os_flag.c",line 524,column 9,is
    1319 0000019c 9245          MOV       AL,*-SP[5]            ; [CPU_ALU] |524| 
TMS320C2000 Assembler PC v20.2.1 Tue Feb 16 00:15:58 2021

Copyright (c) 1996-2018 Texas Instruments Incorporated
os_flag.asm                                                          PAGE   26

    1320              $C$DW$88        .dwtag  DW_TAG_TI_branch
    1321                      .dwattr $C$DW$88, DW_AT_low_pc(0x00)
    1322                      .dwattr $C$DW$88, DW_AT_name("_OS_CPU_SR_Restore")
    1323                      .dwattr $C$DW$88, DW_AT_TI_call
    1324              
    1325 0000019d 7640!         LCR       #_OS_CPU_SR_Restore   ; [CPU_ALU] |524| 
         0000019e 0000 
    1326                      ; call occurs [#_OS_CPU_SR_Restore] ; [] |524| 
    1327                      .dwpsn  file "C:/ti/Workspace/PLC_certificate/Software/uCOS-II/Source/os_flag.c",line 525,column 9,is
    1328 0000019f 8A4A          MOVL      XAR4,*-SP[10]         ; [CPU_ALU] |525| 
    1329 000001a0 56BF          MOVB      *+XAR4[0],#1,UNC      ; [CPU_ALU] |525| 
         000001a1 01C4 
    1330                      .dwpsn  file "C:/ti/Workspace/PLC_certificate/Software/uCOS-II/Source/os_flag.c",line 526,column 9,is
    1331 000001a2 6F08          B         $C$L48,UNC            ; [CPU_ALU] |526| 
    1332                      ; branch occurs ; [] |526| 
    1333 000001a3       $C$L47:    
    1334                      .dwpsn  file "C:/ti/Workspace/PLC_certificate/Software/uCOS-II/Source/os_flag.c",line 528,column 5,is
    1335 000001a3 0644          MOVL      ACC,*-SP[4]           ; [CPU_ALU] |528| 
    1336 000001a4 1EF4          MOVL      *+XAR4[6],ACC         ; [CPU_ALU] |528| 
    1337                      .dwpsn  file "C:/ti/Workspace/PLC_certificate/Software/uCOS-II/Source/os_flag.c",line 529,column 5,is
    1338 000001a5 9245          MOV       AL,*-SP[5]            ; [CPU_ALU] |529| 
    1339              $C$DW$89        .dwtag  DW_TAG_TI_branch
    1340                      .dwattr $C$DW$89, DW_AT_low_pc(0x00)
    1341                      .dwattr $C$DW$89, DW_AT_name("_OS_CPU_SR_Restore")
    1342                      .dwattr $C$DW$89, DW_AT_TI_call
    1343              
    1344 000001a6 7640!         LCR       #_OS_CPU_SR_Restore   ; [CPU_ALU] |529| 
         000001a7 0000 
    1345                      ; call occurs [#_OS_CPU_SR_Restore] ; [] |529| 
    1346                      .dwpsn  file "C:/ti/Workspace/PLC_certificate/Software/uCOS-II/Source/os_flag.c",line 530,column 5,is
    1347 000001a8 8A4A          MOVL      XAR4,*-SP[10]         ; [CPU_ALU] |530| 
    1348 000001a9 2BC4          MOV       *+XAR4[0],#0          ; [CPU_ALU] |530| 
    1349                      .dwpsn  file "C:/ti/Workspace/PLC_certificate/Software/uCOS-II/Source/os_flag.c",line 531,column 5,is
    1350 000001aa       $C$L48:    
    1351                      .dwpsn  file "C:/ti/Workspace/PLC_certificate/Software/uCOS-II/Source/os_flag.c",line 532,column 1,is
    1352 000001aa FE86          SUBB      SP,#6                 ; [CPU_ARAU] 
    1353                      .dwcfi  cfa_offset, -2
    1354              $C$DW$90        .dwtag  DW_TAG_TI_branch
    1355                      .dwattr $C$DW$90, DW_AT_low_pc(0x00)
    1356                      .dwattr $C$DW$90, DW_AT_TI_return
    1357              
    1358 000001ab 0006          LRETR     ; [CPU_ALU] 
    1359                      ; return occurs ; [] 
    1360                      .dwattr $C$DW$80, DW_AT_TI_end_file("C:/ti/Workspace/PLC_certificate/Software/uCOS-II/Source/os_flag.
    1361                      .dwattr $C$DW$80, DW_AT_TI_end_line(0x214)
    1362                      .dwattr $C$DW$80, DW_AT_TI_end_column(0x01)
    1363                      .dwendentry
    1364                      .dwendtag $C$DW$80
    1365              
    1366 000001ac               .sect   ".text"
    1367                      .clink
    1368                      .global _OSFlagPend
    1369              
    1370              $C$DW$91        .dwtag  DW_TAG_subprogram
    1371                      .dwattr $C$DW$91, DW_AT_name("OSFlagPend")
TMS320C2000 Assembler PC v20.2.1 Tue Feb 16 00:15:58 2021

Copyright (c) 1996-2018 Texas Instruments Incorporated
os_flag.asm                                                          PAGE   27

    1372                      .dwattr $C$DW$91, DW_AT_low_pc(_OSFlagPend)
    1373                      .dwattr $C$DW$91, DW_AT_high_pc(0x00)
    1374                      .dwattr $C$DW$91, DW_AT_TI_symbol_name("_OSFlagPend")
    1375                      .dwattr $C$DW$91, DW_AT_external
    1376                      .dwattr $C$DW$91, DW_AT_type(*$C$DW$T$25)
    1377                      .dwattr $C$DW$91, DW_AT_TI_begin_file("C:/ti/Workspace/PLC_certificate/Software/uCOS-II/Source/os_fla
    1378                      .dwattr $C$DW$91, DW_AT_TI_begin_line(0x24e)
    1379                      .dwattr $C$DW$91, DW_AT_TI_begin_column(0x0b)
    1380                      .dwattr $C$DW$91, DW_AT_TI_max_frame_size(-26)
    1381                      .dwpsn  file "C:/ti/Workspace/PLC_certificate/Software/uCOS-II/Source/os_flag.c",line 595,column 1,is
    1382              
    1383                      .dwfde $C$DW$CIE, _OSFlagPend
    1384              $C$DW$92        .dwtag  DW_TAG_formal_parameter
    1385                      .dwattr $C$DW$92, DW_AT_name("pgrp")
    1386                      .dwattr $C$DW$92, DW_AT_TI_symbol_name("_pgrp")
    1387                      .dwattr $C$DW$92, DW_AT_type(*$C$DW$T$47)
    1388                      .dwattr $C$DW$92, DW_AT_location[DW_OP_reg12]
    1389              
    1390              $C$DW$93        .dwtag  DW_TAG_formal_parameter
    1391                      .dwattr $C$DW$93, DW_AT_name("flags")
    1392                      .dwattr $C$DW$93, DW_AT_TI_symbol_name("_flags")
    1393                      .dwattr $C$DW$93, DW_AT_type(*$C$DW$T$25)
    1394                      .dwattr $C$DW$93, DW_AT_location[DW_OP_breg20 -27]
    1395              
    1396              $C$DW$94        .dwtag  DW_TAG_formal_parameter
    1397                      .dwattr $C$DW$94, DW_AT_name("wait_type")
    1398                      .dwattr $C$DW$94, DW_AT_TI_symbol_name("_wait_type")
    1399                      .dwattr $C$DW$94, DW_AT_type(*$C$DW$T$19)
    1400                      .dwattr $C$DW$94, DW_AT_location[DW_OP_breg20 -28]
    1401              
    1402              $C$DW$95        .dwtag  DW_TAG_formal_parameter
    1403                      .dwattr $C$DW$95, DW_AT_name("timeout")
    1404                      .dwattr $C$DW$95, DW_AT_TI_symbol_name("_timeout")
    1405                      .dwattr $C$DW$95, DW_AT_type(*$C$DW$T$30)
    1406                      .dwattr $C$DW$95, DW_AT_location[DW_OP_reg0]
    1407              
    1408              $C$DW$96        .dwtag  DW_TAG_formal_parameter
    1409                      .dwattr $C$DW$96, DW_AT_name("perr")
    1410                      .dwattr $C$DW$96, DW_AT_TI_symbol_name("_perr")
    1411                      .dwattr $C$DW$96, DW_AT_type(*$C$DW$T$23)
    1412                      .dwattr $C$DW$96, DW_AT_location[DW_OP_reg14]
    1413              
    1414              
    1415              ;***************************************************************
    1416              ;* FNAME: _OSFlagPend                   FR SIZE:  24           *
    1417              ;*                                                             *
    1418              ;* FUNCTION ENVIRONMENT                                        *
    1419              ;*                                                             *
    1420              ;* FUNCTION PROPERTIES                                         *
    1421              ;*                            2 Parameter, 21 Auto,  0 SOE     *
    1422              ;***************************************************************
    1423              
    1424 000001ac       _OSFlagPend:
    1425                      .dwcfi  cfa_offset, -2
    1426                      .dwcfi  save_reg_to_mem, 26, 0
TMS320C2000 Assembler PC v20.2.1 Tue Feb 16 00:15:58 2021

Copyright (c) 1996-2018 Texas Instruments Incorporated
os_flag.asm                                                          PAGE   28

    1427 000001ac FE18          ADDB      SP,#24                ; [CPU_ARAU] 
    1428                      .dwcfi  cfa_offset, -26
    1429              $C$DW$97        .dwtag  DW_TAG_variable
    1430                      .dwattr $C$DW$97, DW_AT_name("node")
    1431                      .dwattr $C$DW$97, DW_AT_TI_symbol_name("_node")
    1432                      .dwattr $C$DW$97, DW_AT_type(*$C$DW$T$35)
    1433                      .dwattr $C$DW$97, DW_AT_location[DW_OP_breg20 -12]
    1434              
    1435              $C$DW$98        .dwtag  DW_TAG_variable
    1436                      .dwattr $C$DW$98, DW_AT_name("pgrp")
    1437                      .dwattr $C$DW$98, DW_AT_TI_symbol_name("_pgrp")
    1438                      .dwattr $C$DW$98, DW_AT_type(*$C$DW$T$47)
    1439                      .dwattr $C$DW$98, DW_AT_location[DW_OP_breg20 -14]
    1440              
    1441              $C$DW$99        .dwtag  DW_TAG_variable
    1442                      .dwattr $C$DW$99, DW_AT_name("timeout")
    1443                      .dwattr $C$DW$99, DW_AT_TI_symbol_name("_timeout")
    1444                      .dwattr $C$DW$99, DW_AT_type(*$C$DW$T$30)
    1445                      .dwattr $C$DW$99, DW_AT_location[DW_OP_breg20 -16]
    1446              
    1447              $C$DW$100       .dwtag  DW_TAG_variable
    1448                      .dwattr $C$DW$100, DW_AT_name("perr")
    1449                      .dwattr $C$DW$100, DW_AT_TI_symbol_name("_perr")
    1450                      .dwattr $C$DW$100, DW_AT_type(*$C$DW$T$23)
    1451                      .dwattr $C$DW$100, DW_AT_location[DW_OP_breg20 -18]
    1452              
    1453              $C$DW$101       .dwtag  DW_TAG_variable
    1454                      .dwattr $C$DW$101, DW_AT_name("flags_rdy")
    1455                      .dwattr $C$DW$101, DW_AT_TI_symbol_name("_flags_rdy")
    1456                      .dwattr $C$DW$101, DW_AT_type(*$C$DW$T$25)
    1457                      .dwattr $C$DW$101, DW_AT_location[DW_OP_breg20 -19]
    1458              
    1459              $C$DW$102       .dwtag  DW_TAG_variable
    1460                      .dwattr $C$DW$102, DW_AT_name("result")
    1461                      .dwattr $C$DW$102, DW_AT_TI_symbol_name("_result")
    1462                      .dwattr $C$DW$102, DW_AT_type(*$C$DW$T$19)
    1463                      .dwattr $C$DW$102, DW_AT_location[DW_OP_breg20 -20]
    1464              
    1465              $C$DW$103       .dwtag  DW_TAG_variable
    1466                      .dwattr $C$DW$103, DW_AT_name("pend_stat")
    1467                      .dwattr $C$DW$103, DW_AT_TI_symbol_name("_pend_stat")
    1468                      .dwattr $C$DW$103, DW_AT_type(*$C$DW$T$19)
    1469                      .dwattr $C$DW$103, DW_AT_location[DW_OP_breg20 -21]
    1470              
    1471              $C$DW$104       .dwtag  DW_TAG_variable
    1472                      .dwattr $C$DW$104, DW_AT_name("consume")
    1473                      .dwattr $C$DW$104, DW_AT_TI_symbol_name("_consume")
    1474                      .dwattr $C$DW$104, DW_AT_type(*$C$DW$T$53)
    1475                      .dwattr $C$DW$104, DW_AT_location[DW_OP_breg20 -22]
    1476              
    1477              $C$DW$105       .dwtag  DW_TAG_variable
    1478                      .dwattr $C$DW$105, DW_AT_name("cpu_sr")
    1479                      .dwattr $C$DW$105, DW_AT_TI_symbol_name("_cpu_sr")
    1480                      .dwattr $C$DW$105, DW_AT_type(*$C$DW$T$39)
    1481                      .dwattr $C$DW$105, DW_AT_location[DW_OP_breg20 -23]
TMS320C2000 Assembler PC v20.2.1 Tue Feb 16 00:15:58 2021

Copyright (c) 1996-2018 Texas Instruments Incorporated
os_flag.asm                                                          PAGE   29

    1482              
    1483 000001ad A052          MOVL      *-SP[18],XAR5         ; [CPU_ALU] |595| 
    1484 000001ae 1E50          MOVL      *-SP[16],ACC          ; [CPU_ALU] |595| 
    1485 000001af A84E          MOVL      *-SP[14],XAR4         ; [CPU_ALU] |595| 
    1486                      .dwpsn  file "C:/ti/Workspace/PLC_certificate/Software/uCOS-II/Source/os_flag.c",line 602,column 26,i
    1487 000001b0 2B57          MOV       *-SP[23],#0           ; [CPU_ALU] |602| 
    1488                      .dwpsn  file "C:/ti/Workspace/PLC_certificate/Software/uCOS-II/Source/os_flag.c",line 615,column 5,is
    1489 000001b1 064E          MOVL      ACC,*-SP[14]          ; [CPU_ALU] |615| 
    1490 000001b2 6007          B         $C$L49,NEQ            ; [CPU_ALU] |615| 
    1491                      ; branchcc occurs ; [] |615| 
    1492                      .dwpsn  file "C:/ti/Workspace/PLC_certificate/Software/uCOS-II/Source/os_flag.c",line 616,column 9,is
    1493 000001b3 8A52          MOVL      XAR4,*-SP[18]         ; [CPU_ALU] |616| 
    1494 000001b4 56BF          MOVB      *+XAR4[0],#110,UNC    ; [CPU_ALU] |616| 
         000001b5 6EC4 
    1495                      .dwpsn  file "C:/ti/Workspace/PLC_certificate/Software/uCOS-II/Source/os_flag.c",line 617,column 9,is
    1496 000001b6 9A00          MOVB      AL,#0                 ; [CPU_ALU] |617| 
    1497 000001b7 FFEF          B         $C$L80,UNC            ; [CPU_ALU] |617| 
         000001b8 014C 
    1498                      ; branch occurs ; [] |617| 
    1499 000001b9       $C$L49:    
    1500                      .dwpsn  file "C:/ti/Workspace/PLC_certificate/Software/uCOS-II/Source/os_flag.c",line 620,column 5,is
    1501 000001b9 761F!         MOVW      DP,#_OSIntNesting     ; [CPU_ARAU] 
         000001ba 0000 
    1502 000001bb 9200!         MOV       AL,@_OSIntNesting     ; [CPU_ALU] |620| 
    1503 000001bc 6107          B         $C$L50,EQ             ; [CPU_ALU] |620| 
    1504                      ; branchcc occurs ; [] |620| 
    1505                      .dwpsn  file "C:/ti/Workspace/PLC_certificate/Software/uCOS-II/Source/os_flag.c",line 621,column 9,is
    1506 000001bd 8A52          MOVL      XAR4,*-SP[18]         ; [CPU_ALU] |621| 
    1507 000001be 56BF          MOVB      *+XAR4[0],#2,UNC      ; [CPU_ALU] |621| 
         000001bf 02C4 
    1508                      .dwpsn  file "C:/ti/Workspace/PLC_certificate/Software/uCOS-II/Source/os_flag.c",line 622,column 9,is
    1509 000001c0 9A00          MOVB      AL,#0                 ; [CPU_ALU] |622| 
    1510 000001c1 FFEF          B         $C$L80,UNC            ; [CPU_ALU] |622| 
         000001c2 0142 
    1511                      ; branch occurs ; [] |622| 
    1512 000001c3       $C$L50:    
    1513                      .dwpsn  file "C:/ti/Workspace/PLC_certificate/Software/uCOS-II/Source/os_flag.c",line 624,column 5,is
    1514 000001c3 761F!         MOVW      DP,#_OSLockNesting    ; [CPU_ARAU] 
         000001c4 0000 
    1515 000001c5 9200!         MOV       AL,@_OSLockNesting    ; [CPU_ALU] |624| 
    1516 000001c6 6107          B         $C$L51,EQ             ; [CPU_ALU] |624| 
    1517                      ; branchcc occurs ; [] |624| 
    1518                      .dwpsn  file "C:/ti/Workspace/PLC_certificate/Software/uCOS-II/Source/os_flag.c",line 625,column 9,is
    1519 000001c7 8A52          MOVL      XAR4,*-SP[18]         ; [CPU_ALU] |625| 
    1520 000001c8 56BF          MOVB      *+XAR4[0],#13,UNC     ; [CPU_ALU] |625| 
         000001c9 0DC4 
    1521                      .dwpsn  file "C:/ti/Workspace/PLC_certificate/Software/uCOS-II/Source/os_flag.c",line 626,column 9,is
    1522 000001ca 9A00          MOVB      AL,#0                 ; [CPU_ALU] |626| 
    1523 000001cb FFEF          B         $C$L80,UNC            ; [CPU_ALU] |626| 
         000001cc 0138 
    1524                      ; branch occurs ; [] |626| 
    1525 000001cd       $C$L51:    
    1526                      .dwpsn  file "C:/ti/Workspace/PLC_certificate/Software/uCOS-II/Source/os_flag.c",line 628,column 5,is
    1527 000001cd 92C4          MOV       AL,*+XAR4[0]          ; [CPU_ALU] |628| 
    1528 000001ce 5205          CMPB      AL,#5                 ; [CPU_ALU] |628| 
TMS320C2000 Assembler PC v20.2.1 Tue Feb 16 00:15:58 2021

Copyright (c) 1996-2018 Texas Instruments Incorporated
os_flag.asm                                                          PAGE   30

    1529 000001cf 6107          B         $C$L52,EQ             ; [CPU_ALU] |628| 
    1530                      ; branchcc occurs ; [] |628| 
    1531                      .dwpsn  file "C:/ti/Workspace/PLC_certificate/Software/uCOS-II/Source/os_flag.c",line 629,column 9,is
    1532 000001d0 8A52          MOVL      XAR4,*-SP[18]         ; [CPU_ALU] |629| 
    1533 000001d1 56BF          MOVB      *+XAR4[0],#1,UNC      ; [CPU_ALU] |629| 
         000001d2 01C4 
    1534                      .dwpsn  file "C:/ti/Workspace/PLC_certificate/Software/uCOS-II/Source/os_flag.c",line 630,column 9,is
    1535 000001d3 9A00          MOVB      AL,#0                 ; [CPU_ALU] |630| 
    1536 000001d4 FFEF          B         $C$L80,UNC            ; [CPU_ALU] |630| 
         000001d5 012F 
    1537                      ; branch occurs ; [] |630| 
    1538 000001d6       $C$L52:    
    1539                      .dwpsn  file "C:/ti/Workspace/PLC_certificate/Software/uCOS-II/Source/os_flag.c",line 632,column 5,is
    1540 000001d6 925C          MOV       AL,*-SP[28]           ; [CPU_ALU] |632| 
    1541 000001d7 9080          ANDB      AL,#0x80              ; [CPU_ALU] |632| 
    1542 000001d8 9654          MOV       *-SP[20],AL           ; [CPU_ALU] |632| 
    1543                      .dwpsn  file "C:/ti/Workspace/PLC_certificate/Software/uCOS-II/Source/os_flag.c",line 633,column 5,is
    1544 000001d9 6107          B         $C$L53,EQ             ; [CPU_ALU] |633| 
    1545                      ; branchcc occurs ; [] |633| 
    1546                      .dwpsn  file "C:/ti/Workspace/PLC_certificate/Software/uCOS-II/Source/os_flag.c",line 634,column 9,is
    1547 000001da CC5C          AND       AL,*-SP[28],#0xff7f   ; [CPU_ALU] |634| 
         000001db FF7F 
    1548 000001dc 965C          MOV       *-SP[28],AL           ; [CPU_ALU] |634| 
    1549                      .dwpsn  file "C:/ti/Workspace/PLC_certificate/Software/uCOS-II/Source/os_flag.c",line 635,column 9,is
    1550 000001dd 56BF          MOVB      *-SP[22],#1,UNC       ; [CPU_ALU] |635| 
         000001de 0156 
    1551 000001df 6F02          B         $C$L54,UNC            ; [CPU_ALU] 
    1552                      ; branch occurs ; [] 
    1553 000001e0       $C$L53:    
    1554                      .dwpsn  file "C:/ti/Workspace/PLC_certificate/Software/uCOS-II/Source/os_flag.c",line 637,column 9,is
    1555 000001e0 2B56          MOV       *-SP[22],#0           ; [CPU_ALU] |637| 
    1556 000001e1       $C$L54:    
    1557                      .dwpsn  file "C:/ti/Workspace/PLC_certificate/Software/uCOS-II/Source/os_flag.c",line 640,column 5,is
    1558              $C$DW$106       .dwtag  DW_TAG_TI_branch
    1559                      .dwattr $C$DW$106, DW_AT_low_pc(0x00)
    1560                      .dwattr $C$DW$106, DW_AT_name("_OS_CPU_SR_Save")
    1561                      .dwattr $C$DW$106, DW_AT_TI_call
    1562              
    1563 000001e1 7640!         LCR       #_OS_CPU_SR_Save      ; [CPU_ALU] |640| 
         000001e2 0000 
    1564                      ; call occurs [#_OS_CPU_SR_Save] ; [] |640| 
    1565 000001e3 9657          MOV       *-SP[23],AL           ; [CPU_ALU] |640| 
    1566                      .dwpsn  file "C:/ti/Workspace/PLC_certificate/Software/uCOS-II/Source/os_flag.c",line 641,column 5,is
    1567 000001e4 FFEF          B         $C$L68,UNC            ; [CPU_ALU] |641| 
         000001e5 00B6 
    1568                      ; branch occurs ; [] |641| 
    1569 000001e6       $C$L55:    
    1570                      .dwpsn  file "C:/ti/Workspace/PLC_certificate/Software/uCOS-II/Source/os_flag.c",line 643,column 14,i
    1571 000001e6 8A4E          MOVL      XAR4,*-SP[14]         ; [CPU_ALU] |643| 
    1572 000001e7 925B          MOV       AL,*-SP[27]           ; [CPU_ALU] |643| 
    1573 000001e8 CEE4          AND       AL,*+XAR4[4]          ; [CPU_ALU] |643| 
    1574 000001e9 9653          MOV       *-SP[19],AL           ; [CPU_ALU] |643| 
    1575                      .dwpsn  file "C:/ti/Workspace/PLC_certificate/Software/uCOS-II/Source/os_flag.c",line 644,column 14,i
    1576 000001ea 8853          MOVZ      AR6,*-SP[19]          ; [CPU_ALU] |644| 
    1577 000001eb 0E5B          MOVU      ACC,*-SP[27]          ; [CPU_ALU] |644| 
TMS320C2000 Assembler PC v20.2.1 Tue Feb 16 00:15:58 2021

Copyright (c) 1996-2018 Texas Instruments Incorporated
os_flag.asm                                                          PAGE   31

    1578 000001ec 0FA6          CMPL      ACC,XAR6              ; [CPU_ALU] |644| 
    1579 000001ed 6016          B         $C$L57,NEQ            ; [CPU_ALU] |644| 
    1580                      ; branchcc occurs ; [] |644| 
    1581                      .dwpsn  file "C:/ti/Workspace/PLC_certificate/Software/uCOS-II/Source/os_flag.c",line 645,column 18,i
    1582 000001ee 9256          MOV       AL,*-SP[22]           ; [CPU_ALU] |645| 
    1583 000001ef 5201          CMPB      AL,#1                 ; [CPU_ALU] |645| 
    1584 000001f0 6004          B         $C$L56,NEQ            ; [CPU_ALU] |645| 
    1585                      ; branchcc occurs ; [] |645| 
    1586                      .dwpsn  file "C:/ti/Workspace/PLC_certificate/Software/uCOS-II/Source/os_flag.c",line 646,column 22,i
    1587 000001f1 9253          MOV       AL,*-SP[19]           ; [CPU_ALU] |646| 
    1588 000001f2 FF5E          NOT       AL                    ; [CPU_ALU] |646| 
    1589 000001f3 C0E4          AND       *+XAR4[4],AL          ; [CPU_ALU] |646| 
    1590 000001f4       $C$L56:    
    1591                      .dwpsn  file "C:/ti/Workspace/PLC_certificate/Software/uCOS-II/Source/os_flag.c",line 648,column 18,i
    1592 000001f4 0216          MOVB      ACC,#22               ; [CPU_ALU] |648| 
    1593 000001f5 761F!         MOVW      DP,#_OSTCBCur         ; [CPU_ARAU] 
         000001f6 0000 
    1594 000001f7 0700!         ADDL      ACC,@_OSTCBCur        ; [CPU_ALU] |648| 
    1595 000001f8 1EA7          MOVL      XAR7,ACC              ; [CPU_ALU] |648| 
    1596 000001f9 9253          MOV       AL,*-SP[19]           ; [CPU_ALU] |648| 
    1597 000001fa 96C7          MOV       *+XAR7[0],AL          ; [CPU_ALU] |648| 
    1598                      .dwpsn  file "C:/ti/Workspace/PLC_certificate/Software/uCOS-II/Source/os_flag.c",line 649,column 18,i
    1599 000001fb 9257          MOV       AL,*-SP[23]           ; [CPU_ALU] |649| 
    1600              $C$DW$107       .dwtag  DW_TAG_TI_branch
    1601                      .dwattr $C$DW$107, DW_AT_low_pc(0x00)
    1602                      .dwattr $C$DW$107, DW_AT_name("_OS_CPU_SR_Restore")
    1603                      .dwattr $C$DW$107, DW_AT_TI_call
    1604              
    1605 000001fc 7640!         LCR       #_OS_CPU_SR_Restore   ; [CPU_ALU] |649| 
         000001fd 0000 
    1606                      ; call occurs [#_OS_CPU_SR_Restore] ; [] |649| 
    1607                      .dwpsn  file "C:/ti/Workspace/PLC_certificate/Software/uCOS-II/Source/os_flag.c",line 650,column 18,i
    1608 000001fe 8A52          MOVL      XAR4,*-SP[18]         ; [CPU_ALU] |650| 
    1609 000001ff 2BC4          MOV       *+XAR4[0],#0          ; [CPU_ALU] |650| 
    1610                      .dwpsn  file "C:/ti/Workspace/PLC_certificate/Software/uCOS-II/Source/os_flag.c",line 651,column 18,i
    1611 00000200 9253          MOV       AL,*-SP[19]           ; [CPU_ALU] |651| 
    1612 00000201 FFEF          B         $C$L80,UNC            ; [CPU_ALU] |651| 
         00000202 0102 
    1613                      ; branch occurs ; [] |651| 
    1614 00000203       $C$L57:    
    1615                      .dwpsn  file "C:/ti/Workspace/PLC_certificate/Software/uCOS-II/Source/os_flag.c",line 653,column 18,i
    1616 00000203 925B          MOV       AL,*-SP[27]           ; [CPU_ALU] |653| 
    1617 00000204 5DAD          MOVZ      AR5,SP                ; [CPU_ALU] |653| 
    1618 00000205 9641          MOV       *-SP[1],AL            ; [CPU_ALU] |653| 
    1619 00000206 925C          MOV       AL,*-SP[28]           ; [CPU_ALU] |653| 
    1620 00000207 9642          MOV       *-SP[2],AL            ; [CPU_ALU] |653| 
    1621 00000208 DD8C          SUBB      XAR5,#12              ; [CPU_ARAU] |653| 
    1622 00000209 8A4E          MOVL      XAR4,*-SP[14]         ; [CPU_ALU] |653| 
    1623 0000020a 5DA5          MOVZ      AR5,AR5               ; [CPU_ALU] |653| 
    1624 0000020b 0650          MOVL      ACC,*-SP[16]          ; [CPU_ALU] |653| 
    1625              $C$DW$108       .dwtag  DW_TAG_TI_branch
    1626                      .dwattr $C$DW$108, DW_AT_low_pc(0x00)
    1627                      .dwattr $C$DW$108, DW_AT_name("_OS_FlagBlock")
    1628                      .dwattr $C$DW$108, DW_AT_TI_call
    1629              
TMS320C2000 Assembler PC v20.2.1 Tue Feb 16 00:15:58 2021

Copyright (c) 1996-2018 Texas Instruments Incorporated
os_flag.asm                                                          PAGE   32

    1630 0000020c 7640'         LCR       #_OS_FlagBlock        ; [CPU_ALU] |653| 
         0000020d 03F8 
    1631                      ; call occurs [#_OS_FlagBlock] ; [] |653| 
    1632                      .dwpsn  file "C:/ti/Workspace/PLC_certificate/Software/uCOS-II/Source/os_flag.c",line 654,column 18,i
    1633 0000020e 9257          MOV       AL,*-SP[23]           ; [CPU_ALU] |654| 
    1634              $C$DW$109       .dwtag  DW_TAG_TI_branch
    1635                      .dwattr $C$DW$109, DW_AT_low_pc(0x00)
    1636                      .dwattr $C$DW$109, DW_AT_name("_OS_CPU_SR_Restore")
    1637                      .dwattr $C$DW$109, DW_AT_TI_call
    1638              
    1639 0000020f 7640!         LCR       #_OS_CPU_SR_Restore   ; [CPU_ALU] |654| 
         00000210 0000 
    1640                      ; call occurs [#_OS_CPU_SR_Restore] ; [] |654| 
    1641                      .dwpsn  file "C:/ti/Workspace/PLC_certificate/Software/uCOS-II/Source/os_flag.c",line 656,column 14,i
    1642 00000211 FFEF          B         $C$L69,UNC            ; [CPU_ALU] |656| 
         00000212 0094 
    1643                      ; branch occurs ; [] |656| 
    1644 00000213       $C$L58:    
    1645                      .dwpsn  file "C:/ti/Workspace/PLC_certificate/Software/uCOS-II/Source/os_flag.c",line 659,column 14,i
    1646 00000213 8A4E          MOVL      XAR4,*-SP[14]         ; [CPU_ALU] |659| 
    1647 00000214 925B          MOV       AL,*-SP[27]           ; [CPU_ALU] |659| 
    1648 00000215 CEE4          AND       AL,*+XAR4[4]          ; [CPU_ALU] |659| 
    1649 00000216 9653          MOV       *-SP[19],AL           ; [CPU_ALU] |659| 
    1650                      .dwpsn  file "C:/ti/Workspace/PLC_certificate/Software/uCOS-II/Source/os_flag.c",line 660,column 14,i
    1651 00000217 6116          B         $C$L60,EQ             ; [CPU_ALU] |660| 
    1652                      ; branchcc occurs ; [] |660| 
    1653                      .dwpsn  file "C:/ti/Workspace/PLC_certificate/Software/uCOS-II/Source/os_flag.c",line 661,column 18,i
    1654 00000218 9256          MOV       AL,*-SP[22]           ; [CPU_ALU] |661| 
    1655 00000219 5201          CMPB      AL,#1                 ; [CPU_ALU] |661| 
    1656 0000021a 6004          B         $C$L59,NEQ            ; [CPU_ALU] |661| 
    1657                      ; branchcc occurs ; [] |661| 
    1658                      .dwpsn  file "C:/ti/Workspace/PLC_certificate/Software/uCOS-II/Source/os_flag.c",line 662,column 22,i
    1659 0000021b 9253          MOV       AL,*-SP[19]           ; [CPU_ALU] |662| 
    1660 0000021c FF5E          NOT       AL                    ; [CPU_ALU] |662| 
    1661 0000021d C0E4          AND       *+XAR4[4],AL          ; [CPU_ALU] |662| 
    1662 0000021e       $C$L59:    
    1663                      .dwpsn  file "C:/ti/Workspace/PLC_certificate/Software/uCOS-II/Source/os_flag.c",line 664,column 18,i
    1664 0000021e 0216          MOVB      ACC,#22               ; [CPU_ALU] |664| 
    1665 0000021f 761F!         MOVW      DP,#_OSTCBCur         ; [CPU_ARAU] 
         00000220 0000 
    1666 00000221 0700!         ADDL      ACC,@_OSTCBCur        ; [CPU_ALU] |664| 
    1667 00000222 1EA7          MOVL      XAR7,ACC              ; [CPU_ALU] |664| 
    1668 00000223 9253          MOV       AL,*-SP[19]           ; [CPU_ALU] |664| 
    1669 00000224 96C7          MOV       *+XAR7[0],AL          ; [CPU_ALU] |664| 
    1670                      .dwpsn  file "C:/ti/Workspace/PLC_certificate/Software/uCOS-II/Source/os_flag.c",line 665,column 18,i
    1671 00000225 9257          MOV       AL,*-SP[23]           ; [CPU_ALU] |665| 
    1672              $C$DW$110       .dwtag  DW_TAG_TI_branch
    1673                      .dwattr $C$DW$110, DW_AT_low_pc(0x00)
    1674                      .dwattr $C$DW$110, DW_AT_name("_OS_CPU_SR_Restore")
    1675                      .dwattr $C$DW$110, DW_AT_TI_call
    1676              
    1677 00000226 7640!         LCR       #_OS_CPU_SR_Restore   ; [CPU_ALU] |665| 
         00000227 0000 
    1678                      ; call occurs [#_OS_CPU_SR_Restore] ; [] |665| 
    1679                      .dwpsn  file "C:/ti/Workspace/PLC_certificate/Software/uCOS-II/Source/os_flag.c",line 666,column 18,i
TMS320C2000 Assembler PC v20.2.1 Tue Feb 16 00:15:58 2021

Copyright (c) 1996-2018 Texas Instruments Incorporated
os_flag.asm                                                          PAGE   33

    1680 00000228 8A52          MOVL      XAR4,*-SP[18]         ; [CPU_ALU] |666| 
    1681 00000229 2BC4          MOV       *+XAR4[0],#0          ; [CPU_ALU] |666| 
    1682                      .dwpsn  file "C:/ti/Workspace/PLC_certificate/Software/uCOS-II/Source/os_flag.c",line 667,column 18,i
    1683 0000022a 9253          MOV       AL,*-SP[19]           ; [CPU_ALU] |667| 
    1684 0000022b FFEF          B         $C$L80,UNC            ; [CPU_ALU] |667| 
         0000022c 00D8 
    1685                      ; branch occurs ; [] |667| 
    1686 0000022d       $C$L60:    
    1687                      .dwpsn  file "C:/ti/Workspace/PLC_certificate/Software/uCOS-II/Source/os_flag.c",line 669,column 18,i
    1688 0000022d 925B          MOV       AL,*-SP[27]           ; [CPU_ALU] |669| 
    1689 0000022e 5DAD          MOVZ      AR5,SP                ; [CPU_ALU] |669| 
    1690 0000022f 9641          MOV       *-SP[1],AL            ; [CPU_ALU] |669| 
    1691 00000230 925C          MOV       AL,*-SP[28]           ; [CPU_ALU] |669| 
    1692 00000231 9642          MOV       *-SP[2],AL            ; [CPU_ALU] |669| 
    1693 00000232 DD8C          SUBB      XAR5,#12              ; [CPU_ARAU] |669| 
    1694 00000233 8A4E          MOVL      XAR4,*-SP[14]         ; [CPU_ALU] |669| 
    1695 00000234 5DA5          MOVZ      AR5,AR5               ; [CPU_ALU] |669| 
    1696 00000235 0650          MOVL      ACC,*-SP[16]          ; [CPU_ALU] |669| 
    1697              $C$DW$111       .dwtag  DW_TAG_TI_branch
    1698                      .dwattr $C$DW$111, DW_AT_low_pc(0x00)
    1699                      .dwattr $C$DW$111, DW_AT_name("_OS_FlagBlock")
    1700                      .dwattr $C$DW$111, DW_AT_TI_call
    1701              
    1702 00000236 7640'         LCR       #_OS_FlagBlock        ; [CPU_ALU] |669| 
         00000237 03F8 
    1703                      ; call occurs [#_OS_FlagBlock] ; [] |669| 
    1704                      .dwpsn  file "C:/ti/Workspace/PLC_certificate/Software/uCOS-II/Source/os_flag.c",line 670,column 18,i
    1705 00000238 9257          MOV       AL,*-SP[23]           ; [CPU_ALU] |670| 
    1706              $C$DW$112       .dwtag  DW_TAG_TI_branch
    1707                      .dwattr $C$DW$112, DW_AT_low_pc(0x00)
    1708                      .dwattr $C$DW$112, DW_AT_name("_OS_CPU_SR_Restore")
    1709                      .dwattr $C$DW$112, DW_AT_TI_call
    1710              
    1711 00000239 7640!         LCR       #_OS_CPU_SR_Restore   ; [CPU_ALU] |670| 
         0000023a 0000 
    1712                      ; call occurs [#_OS_CPU_SR_Restore] ; [] |670| 
    1713                      .dwpsn  file "C:/ti/Workspace/PLC_certificate/Software/uCOS-II/Source/os_flag.c",line 672,column 14,i
    1714 0000023b 6F6A          B         $C$L69,UNC            ; [CPU_ALU] |672| 
    1715                      ; branch occurs ; [] |672| 
    1716 0000023c       $C$L61:    
    1717                      .dwpsn  file "C:/ti/Workspace/PLC_certificate/Software/uCOS-II/Source/os_flag.c",line 676,column 14,i
    1718 0000023c 8A4E          MOVL      XAR4,*-SP[14]         ; [CPU_ALU] |676| 
    1719 0000023d 92E4          MOV       AL,*+XAR4[4]          ; [CPU_ALU] |676| 
    1720 0000023e FF5E          NOT       AL                    ; [CPU_ALU] |676| 
    1721 0000023f CE5B          AND       AL,*-SP[27]           ; [CPU_ALU] |676| 
    1722 00000240 9653          MOV       *-SP[19],AL           ; [CPU_ALU] |676| 
    1723                      .dwpsn  file "C:/ti/Workspace/PLC_certificate/Software/uCOS-II/Source/os_flag.c",line 677,column 14,i
    1724 00000241 8853          MOVZ      AR6,*-SP[19]          ; [CPU_ALU] |677| 
    1725 00000242 0E5B          MOVU      ACC,*-SP[27]          ; [CPU_ALU] |677| 
    1726 00000243 0FA6          CMPL      ACC,XAR6              ; [CPU_ALU] |677| 
    1727 00000244 6015          B         $C$L63,NEQ            ; [CPU_ALU] |677| 
    1728                      ; branchcc occurs ; [] |677| 
    1729                      .dwpsn  file "C:/ti/Workspace/PLC_certificate/Software/uCOS-II/Source/os_flag.c",line 678,column 18,i
    1730 00000245 9256          MOV       AL,*-SP[22]           ; [CPU_ALU] |678| 
    1731 00000246 5201          CMPB      AL,#1                 ; [CPU_ALU] |678| 
TMS320C2000 Assembler PC v20.2.1 Tue Feb 16 00:15:58 2021

Copyright (c) 1996-2018 Texas Instruments Incorporated
os_flag.asm                                                          PAGE   34

    1732 00000247 6003          B         $C$L62,NEQ            ; [CPU_ALU] |678| 
    1733                      ; branchcc occurs ; [] |678| 
    1734                      .dwpsn  file "C:/ti/Workspace/PLC_certificate/Software/uCOS-II/Source/os_flag.c",line 679,column 22,i
    1735 00000248 9253          MOV       AL,*-SP[19]           ; [CPU_ALU] |679| 
    1736 00000249 98E4          OR        *+XAR4[4],AL          ; [CPU_ALU] |679| 
    1737 0000024a       $C$L62:    
    1738                      .dwpsn  file "C:/ti/Workspace/PLC_certificate/Software/uCOS-II/Source/os_flag.c",line 681,column 18,i
    1739 0000024a 0216          MOVB      ACC,#22               ; [CPU_ALU] |681| 
    1740 0000024b 761F!         MOVW      DP,#_OSTCBCur         ; [CPU_ARAU] 
         0000024c 0000 
    1741 0000024d 0700!         ADDL      ACC,@_OSTCBCur        ; [CPU_ALU] |681| 
    1742 0000024e 1EA7          MOVL      XAR7,ACC              ; [CPU_ALU] |681| 
    1743 0000024f 9253          MOV       AL,*-SP[19]           ; [CPU_ALU] |681| 
    1744 00000250 96C7          MOV       *+XAR7[0],AL          ; [CPU_ALU] |681| 
    1745                      .dwpsn  file "C:/ti/Workspace/PLC_certificate/Software/uCOS-II/Source/os_flag.c",line 682,column 18,i
    1746 00000251 9257          MOV       AL,*-SP[23]           ; [CPU_ALU] |682| 
    1747              $C$DW$113       .dwtag  DW_TAG_TI_branch
    1748                      .dwattr $C$DW$113, DW_AT_low_pc(0x00)
    1749                      .dwattr $C$DW$113, DW_AT_name("_OS_CPU_SR_Restore")
    1750                      .dwattr $C$DW$113, DW_AT_TI_call
    1751              
    1752 00000252 7640!         LCR       #_OS_CPU_SR_Restore   ; [CPU_ALU] |682| 
         00000253 0000 
    1753                      ; call occurs [#_OS_CPU_SR_Restore] ; [] |682| 
    1754                      .dwpsn  file "C:/ti/Workspace/PLC_certificate/Software/uCOS-II/Source/os_flag.c",line 683,column 18,i
    1755 00000254 8A52          MOVL      XAR4,*-SP[18]         ; [CPU_ALU] |683| 
    1756 00000255 2BC4          MOV       *+XAR4[0],#0          ; [CPU_ALU] |683| 
    1757                      .dwpsn  file "C:/ti/Workspace/PLC_certificate/Software/uCOS-II/Source/os_flag.c",line 684,column 18,i
    1758 00000256 9253          MOV       AL,*-SP[19]           ; [CPU_ALU] |684| 
    1759 00000257 FFEF          B         $C$L80,UNC            ; [CPU_ALU] |684| 
         00000258 00AC 
    1760                      ; branch occurs ; [] |684| 
    1761 00000259       $C$L63:    
    1762                      .dwpsn  file "C:/ti/Workspace/PLC_certificate/Software/uCOS-II/Source/os_flag.c",line 686,column 18,i
    1763 00000259 925B          MOV       AL,*-SP[27]           ; [CPU_ALU] |686| 
    1764 0000025a 5DAD          MOVZ      AR5,SP                ; [CPU_ALU] |686| 
    1765 0000025b 9641          MOV       *-SP[1],AL            ; [CPU_ALU] |686| 
    1766 0000025c 925C          MOV       AL,*-SP[28]           ; [CPU_ALU] |686| 
    1767 0000025d 9642          MOV       *-SP[2],AL            ; [CPU_ALU] |686| 
    1768 0000025e DD8C          SUBB      XAR5,#12              ; [CPU_ARAU] |686| 
    1769 0000025f 8A4E          MOVL      XAR4,*-SP[14]         ; [CPU_ALU] |686| 
    1770 00000260 5DA5          MOVZ      AR5,AR5               ; [CPU_ALU] |686| 
    1771 00000261 0650          MOVL      ACC,*-SP[16]          ; [CPU_ALU] |686| 
    1772              $C$DW$114       .dwtag  DW_TAG_TI_branch
    1773                      .dwattr $C$DW$114, DW_AT_low_pc(0x00)
    1774                      .dwattr $C$DW$114, DW_AT_name("_OS_FlagBlock")
    1775                      .dwattr $C$DW$114, DW_AT_TI_call
    1776              
    1777 00000262 7640'         LCR       #_OS_FlagBlock        ; [CPU_ALU] |686| 
         00000263 03F8 
    1778                      ; call occurs [#_OS_FlagBlock] ; [] |686| 
    1779                      .dwpsn  file "C:/ti/Workspace/PLC_certificate/Software/uCOS-II/Source/os_flag.c",line 687,column 18,i
    1780 00000264 9257          MOV       AL,*-SP[23]           ; [CPU_ALU] |687| 
    1781              $C$DW$115       .dwtag  DW_TAG_TI_branch
    1782                      .dwattr $C$DW$115, DW_AT_low_pc(0x00)
TMS320C2000 Assembler PC v20.2.1 Tue Feb 16 00:15:58 2021

Copyright (c) 1996-2018 Texas Instruments Incorporated
os_flag.asm                                                          PAGE   35

    1783                      .dwattr $C$DW$115, DW_AT_name("_OS_CPU_SR_Restore")
    1784                      .dwattr $C$DW$115, DW_AT_TI_call
    1785              
    1786 00000265 7640!         LCR       #_OS_CPU_SR_Restore   ; [CPU_ALU] |687| 
         00000266 0000 
    1787                      ; call occurs [#_OS_CPU_SR_Restore] ; [] |687| 
    1788                      .dwpsn  file "C:/ti/Workspace/PLC_certificate/Software/uCOS-II/Source/os_flag.c",line 689,column 14,i
    1789 00000267 6F3E          B         $C$L69,UNC            ; [CPU_ALU] |689| 
    1790                      ; branch occurs ; [] |689| 
    1791 00000268       $C$L64:    
    1792                      .dwpsn  file "C:/ti/Workspace/PLC_certificate/Software/uCOS-II/Source/os_flag.c",line 692,column 14,i
    1793 00000268 8A4E          MOVL      XAR4,*-SP[14]         ; [CPU_ALU] |692| 
    1794 00000269 92E4          MOV       AL,*+XAR4[4]          ; [CPU_ALU] |692| 
    1795 0000026a FF5E          NOT       AL                    ; [CPU_ALU] |692| 
    1796 0000026b CE5B          AND       AL,*-SP[27]           ; [CPU_ALU] |692| 
    1797 0000026c 9653          MOV       *-SP[19],AL           ; [CPU_ALU] |692| 
    1798                      .dwpsn  file "C:/ti/Workspace/PLC_certificate/Software/uCOS-II/Source/os_flag.c",line 693,column 14,i
    1799 0000026d 6115          B         $C$L66,EQ             ; [CPU_ALU] |693| 
    1800                      ; branchcc occurs ; [] |693| 
    1801                      .dwpsn  file "C:/ti/Workspace/PLC_certificate/Software/uCOS-II/Source/os_flag.c",line 694,column 18,i
    1802 0000026e 9256          MOV       AL,*-SP[22]           ; [CPU_ALU] |694| 
    1803 0000026f 5201          CMPB      AL,#1                 ; [CPU_ALU] |694| 
    1804 00000270 6003          B         $C$L65,NEQ            ; [CPU_ALU] |694| 
    1805                      ; branchcc occurs ; [] |694| 
    1806                      .dwpsn  file "C:/ti/Workspace/PLC_certificate/Software/uCOS-II/Source/os_flag.c",line 695,column 22,i
    1807 00000271 9253          MOV       AL,*-SP[19]           ; [CPU_ALU] |695| 
    1808 00000272 98E4          OR        *+XAR4[4],AL          ; [CPU_ALU] |695| 
    1809 00000273       $C$L65:    
    1810                      .dwpsn  file "C:/ti/Workspace/PLC_certificate/Software/uCOS-II/Source/os_flag.c",line 697,column 18,i
    1811 00000273 0216          MOVB      ACC,#22               ; [CPU_ALU] |697| 
    1812 00000274 761F!         MOVW      DP,#_OSTCBCur         ; [CPU_ARAU] 
         00000275 0000 
    1813 00000276 0700!         ADDL      ACC,@_OSTCBCur        ; [CPU_ALU] |697| 
    1814 00000277 1EA7          MOVL      XAR7,ACC              ; [CPU_ALU] |697| 
    1815 00000278 9253          MOV       AL,*-SP[19]           ; [CPU_ALU] |697| 
    1816 00000279 96C7          MOV       *+XAR7[0],AL          ; [CPU_ALU] |697| 
    1817                      .dwpsn  file "C:/ti/Workspace/PLC_certificate/Software/uCOS-II/Source/os_flag.c",line 698,column 18,i
    1818 0000027a 9257          MOV       AL,*-SP[23]           ; [CPU_ALU] |698| 
    1819              $C$DW$116       .dwtag  DW_TAG_TI_branch
    1820                      .dwattr $C$DW$116, DW_AT_low_pc(0x00)
    1821                      .dwattr $C$DW$116, DW_AT_name("_OS_CPU_SR_Restore")
    1822                      .dwattr $C$DW$116, DW_AT_TI_call
    1823              
    1824 0000027b 7640!         LCR       #_OS_CPU_SR_Restore   ; [CPU_ALU] |698| 
         0000027c 0000 
    1825                      ; call occurs [#_OS_CPU_SR_Restore] ; [] |698| 
    1826                      .dwpsn  file "C:/ti/Workspace/PLC_certificate/Software/uCOS-II/Source/os_flag.c",line 699,column 18,i
    1827 0000027d 8A52          MOVL      XAR4,*-SP[18]         ; [CPU_ALU] |699| 
    1828 0000027e 2BC4          MOV       *+XAR4[0],#0          ; [CPU_ALU] |699| 
    1829                      .dwpsn  file "C:/ti/Workspace/PLC_certificate/Software/uCOS-II/Source/os_flag.c",line 700,column 18,i
    1830 0000027f 9253          MOV       AL,*-SP[19]           ; [CPU_ALU] |700| 
    1831 00000280 FFEF          B         $C$L80,UNC            ; [CPU_ALU] |700| 
         00000281 0083 
    1832                      ; branch occurs ; [] |700| 
    1833 00000282       $C$L66:    
TMS320C2000 Assembler PC v20.2.1 Tue Feb 16 00:15:58 2021

Copyright (c) 1996-2018 Texas Instruments Incorporated
os_flag.asm                                                          PAGE   36

    1834                      .dwpsn  file "C:/ti/Workspace/PLC_certificate/Software/uCOS-II/Source/os_flag.c",line 702,column 18,i
    1835 00000282 925B          MOV       AL,*-SP[27]           ; [CPU_ALU] |702| 
    1836 00000283 5DAD          MOVZ      AR5,SP                ; [CPU_ALU] |702| 
    1837 00000284 9641          MOV       *-SP[1],AL            ; [CPU_ALU] |702| 
    1838 00000285 925C          MOV       AL,*-SP[28]           ; [CPU_ALU] |702| 
    1839 00000286 9642          MOV       *-SP[2],AL            ; [CPU_ALU] |702| 
    1840 00000287 DD8C          SUBB      XAR5,#12              ; [CPU_ARAU] |702| 
    1841 00000288 8A4E          MOVL      XAR4,*-SP[14]         ; [CPU_ALU] |702| 
    1842 00000289 5DA5          MOVZ      AR5,AR5               ; [CPU_ALU] |702| 
    1843 0000028a 0650          MOVL      ACC,*-SP[16]          ; [CPU_ALU] |702| 
    1844              $C$DW$117       .dwtag  DW_TAG_TI_branch
    1845                      .dwattr $C$DW$117, DW_AT_low_pc(0x00)
    1846                      .dwattr $C$DW$117, DW_AT_name("_OS_FlagBlock")
    1847                      .dwattr $C$DW$117, DW_AT_TI_call
    1848              
    1849 0000028b 7640'         LCR       #_OS_FlagBlock        ; [CPU_ALU] |702| 
         0000028c 03F8 
    1850                      ; call occurs [#_OS_FlagBlock] ; [] |702| 
    1851                      .dwpsn  file "C:/ti/Workspace/PLC_certificate/Software/uCOS-II/Source/os_flag.c",line 703,column 18,i
    1852 0000028d 9257          MOV       AL,*-SP[23]           ; [CPU_ALU] |703| 
    1853              $C$DW$118       .dwtag  DW_TAG_TI_branch
    1854                      .dwattr $C$DW$118, DW_AT_low_pc(0x00)
    1855                      .dwattr $C$DW$118, DW_AT_name("_OS_CPU_SR_Restore")
    1856                      .dwattr $C$DW$118, DW_AT_TI_call
    1857              
    1858 0000028e 7640!         LCR       #_OS_CPU_SR_Restore   ; [CPU_ALU] |703| 
         0000028f 0000 
    1859                      ; call occurs [#_OS_CPU_SR_Restore] ; [] |703| 
    1860                      .dwpsn  file "C:/ti/Workspace/PLC_certificate/Software/uCOS-II/Source/os_flag.c",line 705,column 14,i
    1861 00000290 6F15          B         $C$L69,UNC            ; [CPU_ALU] |705| 
    1862                      ; branch occurs ; [] |705| 
    1863 00000291       $C$L67:    
    1864                      .dwpsn  file "C:/ti/Workspace/PLC_certificate/Software/uCOS-II/Source/os_flag.c",line 709,column 14,i
    1865 00000291 9257          MOV       AL,*-SP[23]           ; [CPU_ALU] |709| 
    1866              $C$DW$119       .dwtag  DW_TAG_TI_branch
    1867                      .dwattr $C$DW$119, DW_AT_low_pc(0x00)
    1868                      .dwattr $C$DW$119, DW_AT_name("_OS_CPU_SR_Restore")
    1869                      .dwattr $C$DW$119, DW_AT_TI_call
    1870              
    1871 00000292 7640!         LCR       #_OS_CPU_SR_Restore   ; [CPU_ALU] |709| 
         00000293 0000 
    1872                      ; call occurs [#_OS_CPU_SR_Restore] ; [] |709| 
    1873                      .dwpsn  file "C:/ti/Workspace/PLC_certificate/Software/uCOS-II/Source/os_flag.c",line 710,column 14,i
    1874 00000294 2B53          MOV       *-SP[19],#0           ; [CPU_ALU] |710| 
    1875                      .dwpsn  file "C:/ti/Workspace/PLC_certificate/Software/uCOS-II/Source/os_flag.c",line 711,column 14,i
    1876 00000295 8A52          MOVL      XAR4,*-SP[18]         ; [CPU_ALU] |711| 
    1877 00000296 56BF          MOVB      *+XAR4[0],#111,UNC    ; [CPU_ALU] |711| 
         00000297 6FC4 
    1878                      .dwpsn  file "C:/ti/Workspace/PLC_certificate/Software/uCOS-II/Source/os_flag.c",line 712,column 14,i
    1879 00000298 9253          MOV       AL,*-SP[19]           ; [CPU_ALU] |712| 
    1880 00000299 6F6A          B         $C$L80,UNC            ; [CPU_ALU] |712| 
    1881                      ; branch occurs ; [] |712| 
    1882 0000029a       $C$L68:    
    1883                      .dwpsn  file "C:/ti/Workspace/PLC_certificate/Software/uCOS-II/Source/os_flag.c",line 641,column 5,is
    1884 0000029a 925C          MOV       AL,*-SP[28]           ; [CPU_ALU] |641| 
TMS320C2000 Assembler PC v20.2.1 Tue Feb 16 00:15:58 2021

Copyright (c) 1996-2018 Texas Instruments Incorporated
os_flag.asm                                                          PAGE   37

    1885 0000029b 61A1          B         $C$L61,EQ             ; [CPU_ALU] |641| 
    1886                      ; branchcc occurs ; [] |641| 
    1887 0000029c 5201          CMPB      AL,#1                 ; [CPU_ALU] |641| 
    1888 0000029d 61CB          B         $C$L64,EQ             ; [CPU_ALU] |641| 
    1889                      ; branchcc occurs ; [] |641| 
    1890 0000029e 5202          CMPB      AL,#2                 ; [CPU_ALU] |641| 
    1891 0000029f FFE1          B         $C$L55,EQ             ; [CPU_ALU] |641| 
         000002a0 FF47 
    1892                      ; branchcc occurs ; [] |641| 
    1893 000002a1 5203          CMPB      AL,#3                 ; [CPU_ALU] |641| 
    1894 000002a2 FFE1          B         $C$L58,EQ             ; [CPU_ALU] |641| 
         000002a3 FF71 
    1895                      ; branchcc occurs ; [] |641| 
    1896 000002a4 6FED          B         $C$L67,UNC            ; [CPU_ALU] |641| 
    1897                      ; branch occurs ; [] |641| 
    1898 000002a5       $C$L69:    
    1899                      .dwpsn  file "C:/ti/Workspace/PLC_certificate/Software/uCOS-II/Source/os_flag.c",line 715,column 5,is
    1900              $C$DW$120       .dwtag  DW_TAG_TI_branch
    1901                      .dwattr $C$DW$120, DW_AT_low_pc(0x00)
    1902                      .dwattr $C$DW$120, DW_AT_name("_OS_Sched")
    1903                      .dwattr $C$DW$120, DW_AT_TI_call
    1904              
    1905 000002a5 7640!         LCR       #_OS_Sched            ; [CPU_ALU] |715| 
         000002a6 0000 
    1906                      ; call occurs [#_OS_Sched] ; [] |715| 
    1907                      .dwpsn  file "C:/ti/Workspace/PLC_certificate/Software/uCOS-II/Source/os_flag.c",line 716,column 5,is
    1908              $C$DW$121       .dwtag  DW_TAG_TI_branch
    1909                      .dwattr $C$DW$121, DW_AT_low_pc(0x00)
    1910                      .dwattr $C$DW$121, DW_AT_name("_OS_CPU_SR_Save")
    1911                      .dwattr $C$DW$121, DW_AT_TI_call
    1912              
    1913 000002a7 7640!         LCR       #_OS_CPU_SR_Save      ; [CPU_ALU] |716| 
         000002a8 0000 
    1914                      ; call occurs [#_OS_CPU_SR_Save] ; [] |716| 
    1915 000002a9 9657          MOV       *-SP[23],AL           ; [CPU_ALU] |716| 
    1916                      .dwpsn  file "C:/ti/Workspace/PLC_certificate/Software/uCOS-II/Source/os_flag.c",line 717,column 5,is
    1917 000002aa 761F!         MOVW      DP,#_OSTCBCur         ; [CPU_ARAU] 
         000002ab 0000 
    1918 000002ac 021B          MOVB      ACC,#27               ; [CPU_ALU] |717| 
    1919 000002ad 0700!         ADDL      ACC,@_OSTCBCur        ; [CPU_ALU] |717| 
    1920 000002ae 8AA9          MOVL      XAR4,ACC              ; [CPU_ALU] |717| 
    1921 000002af 92C4          MOV       AL,*+XAR4[0]          ; [CPU_ALU] |717| 
    1922 000002b0 612A          B         $C$L74,EQ             ; [CPU_ALU] |717| 
    1923                      ; branchcc occurs ; [] |717| 
    1924                      .dwpsn  file "C:/ti/Workspace/PLC_certificate/Software/uCOS-II/Source/os_flag.c",line 718,column 9,is
    1925 000002b1 021B          MOVB      ACC,#27               ; [CPU_ALU] |718| 
    1926 000002b2 0700!         ADDL      ACC,@_OSTCBCur        ; [CPU_ALU] |718| 
    1927 000002b3 1EA7          MOVL      XAR7,ACC              ; [CPU_ALU] |718| 
    1928 000002b4 92C7          MOV       AL,*+XAR7[0]          ; [CPU_ALU] |718| 
    1929 000002b5 9655          MOV       *-SP[21],AL           ; [CPU_ALU] |718| 
    1930                      .dwpsn  file "C:/ti/Workspace/PLC_certificate/Software/uCOS-II/Source/os_flag.c",line 719,column 9,is
    1931 000002b6 021B          MOVB      ACC,#27               ; [CPU_ALU] |719| 
    1932 000002b7 0700!         ADDL      ACC,@_OSTCBCur        ; [CPU_ALU] |719| 
    1933 000002b8 8AA9          MOVL      XAR4,ACC              ; [CPU_ALU] |719| 
    1934 000002b9 2BC4          MOV       *+XAR4[0],#0          ; [CPU_ALU] |719| 
TMS320C2000 Assembler PC v20.2.1 Tue Feb 16 00:15:58 2021

Copyright (c) 1996-2018 Texas Instruments Incorporated
os_flag.asm                                                          PAGE   38

    1935                      .dwpsn  file "C:/ti/Workspace/PLC_certificate/Software/uCOS-II/Source/os_flag.c",line 720,column 9,is
    1936 000002ba 5CAD          MOVZ      AR4,SP                ; [CPU_ALU] |720| 
    1937 000002bb DC8C          SUBB      XAR4,#12              ; [CPU_ARAU] |720| 
    1938 000002bc 5CA4          MOVZ      AR4,AR4               ; [CPU_ALU] |720| 
    1939              $C$DW$122       .dwtag  DW_TAG_TI_branch
    1940                      .dwattr $C$DW$122, DW_AT_low_pc(0x00)
    1941                      .dwattr $C$DW$122, DW_AT_name("_OS_FlagUnlink")
    1942                      .dwattr $C$DW$122, DW_AT_TI_call
    1943              
    1944 000002bd 7640'         LCR       #_OS_FlagUnlink       ; [CPU_ALU] |720| 
         000002be 04CE 
    1945                      ; call occurs [#_OS_FlagUnlink] ; [] |720| 
    1946                      .dwpsn  file "C:/ti/Workspace/PLC_certificate/Software/uCOS-II/Source/os_flag.c",line 721,column 9,is
    1947 000002bf 761F!         MOVW      DP,#_OSTCBCur         ; [CPU_ARAU] 
         000002c0 0000 
    1948 000002c1 021A          MOVB      ACC,#26               ; [CPU_ALU] |721| 
    1949 000002c2 0700!         ADDL      ACC,@_OSTCBCur        ; [CPU_ALU] |721| 
    1950 000002c3 8AA9          MOVL      XAR4,ACC              ; [CPU_ALU] |721| 
    1951 000002c4 2BC4          MOV       *+XAR4[0],#0          ; [CPU_ALU] |721| 
    1952                      .dwpsn  file "C:/ti/Workspace/PLC_certificate/Software/uCOS-II/Source/os_flag.c",line 722,column 9,is
    1953 000002c5 9257          MOV       AL,*-SP[23]           ; [CPU_ALU] |722| 
    1954              $C$DW$123       .dwtag  DW_TAG_TI_branch
    1955                      .dwattr $C$DW$123, DW_AT_low_pc(0x00)
    1956                      .dwattr $C$DW$123, DW_AT_name("_OS_CPU_SR_Restore")
    1957                      .dwattr $C$DW$123, DW_AT_TI_call
    1958              
    1959 000002c6 7640!         LCR       #_OS_CPU_SR_Restore   ; [CPU_ALU] |722| 
         000002c7 0000 
    1960                      ; call occurs [#_OS_CPU_SR_Restore] ; [] |722| 
    1961                      .dwpsn  file "C:/ti/Workspace/PLC_certificate/Software/uCOS-II/Source/os_flag.c",line 723,column 9,is
    1962 000002c8 2B53          MOV       *-SP[19],#0           ; [CPU_ALU] |723| 
    1963                      .dwpsn  file "C:/ti/Workspace/PLC_certificate/Software/uCOS-II/Source/os_flag.c",line 724,column 9,is
    1964 000002c9 6F09          B         $C$L72,UNC            ; [CPU_ALU] |724| 
    1965                      ; branch occurs ; [] |724| 
    1966 000002ca       $C$L70:    
    1967                      .dwpsn  file "C:/ti/Workspace/PLC_certificate/Software/uCOS-II/Source/os_flag.c",line 726,column 18,i
    1968 000002ca 8A52          MOVL      XAR4,*-SP[18]         ; [CPU_ALU] |726| 
    1969 000002cb 56BF          MOVB      *+XAR4[0],#14,UNC     ; [CPU_ALU] |726| 
         000002cc 0EC4 
    1970                      .dwpsn  file "C:/ti/Workspace/PLC_certificate/Software/uCOS-II/Source/os_flag.c",line 727,column 18,i
    1971 000002cd 6F0B          B         $C$L73,UNC            ; [CPU_ALU] |727| 
    1972                      ; branch occurs ; [] |727| 
    1973 000002ce       $C$L71:    
    1974                      .dwpsn  file "C:/ti/Workspace/PLC_certificate/Software/uCOS-II/Source/os_flag.c",line 731,column 18,i
    1975 000002ce 8A52          MOVL      XAR4,*-SP[18]         ; [CPU_ALU] |731| 
    1976 000002cf 56BF          MOVB      *+XAR4[0],#10,UNC     ; [CPU_ALU] |731| 
         000002d0 0AC4 
    1977                      .dwpsn  file "C:/ti/Workspace/PLC_certificate/Software/uCOS-II/Source/os_flag.c",line 732,column 18,i
    1978 000002d1 6F07          B         $C$L73,UNC            ; [CPU_ALU] |732| 
    1979                      ; branch occurs ; [] |732| 
    1980 000002d2       $C$L72:    
    1981                      .dwpsn  file "C:/ti/Workspace/PLC_certificate/Software/uCOS-II/Source/os_flag.c",line 724,column 9,is
    1982 000002d2 9255          MOV       AL,*-SP[21]           ; [CPU_ALU] |724| 
    1983 000002d3 5201          CMPB      AL,#1                 ; [CPU_ALU] |724| 
    1984 000002d4 61FA          B         $C$L71,EQ             ; [CPU_ALU] |724| 
TMS320C2000 Assembler PC v20.2.1 Tue Feb 16 00:15:58 2021

Copyright (c) 1996-2018 Texas Instruments Incorporated
os_flag.asm                                                          PAGE   39

    1985                      ; branchcc occurs ; [] |724| 
    1986 000002d5 5202          CMPB      AL,#2                 ; [CPU_ALU] |724| 
    1987 000002d6 61F4          B         $C$L70,EQ             ; [CPU_ALU] |724| 
    1988                      ; branchcc occurs ; [] |724| 
    1989 000002d7 6FF7          B         $C$L71,UNC            ; [CPU_ALU] |724| 
    1990                      ; branch occurs ; [] |724| 
    1991 000002d8       $C$L73:    
    1992                      .dwpsn  file "C:/ti/Workspace/PLC_certificate/Software/uCOS-II/Source/os_flag.c",line 734,column 9,is
    1993 000002d8 9253          MOV       AL,*-SP[19]           ; [CPU_ALU] |734| 
    1994 000002d9 6F2A          B         $C$L80,UNC            ; [CPU_ALU] |734| 
    1995                      ; branch occurs ; [] |734| 
    1996 000002da       $C$L74:    
    1997                      .dwpsn  file "C:/ti/Workspace/PLC_certificate/Software/uCOS-II/Source/os_flag.c",line 736,column 5,is
    1998 000002da 0216          MOVB      ACC,#22               ; [CPU_ALU] |736| 
    1999 000002db 0700!         ADDL      ACC,@_OSTCBCur        ; [CPU_ALU] |736| 
    2000 000002dc 1EA7          MOVL      XAR7,ACC              ; [CPU_ALU] |736| 
    2001 000002dd 92C7          MOV       AL,*+XAR7[0]          ; [CPU_ALU] |736| 
    2002 000002de 9653          MOV       *-SP[19],AL           ; [CPU_ALU] |736| 
    2003                      .dwpsn  file "C:/ti/Workspace/PLC_certificate/Software/uCOS-II/Source/os_flag.c",line 737,column 5,is
    2004 000002df 9256          MOV       AL,*-SP[22]           ; [CPU_ALU] |737| 
    2005 000002e0 5201          CMPB      AL,#1                 ; [CPU_ALU] |737| 
    2006 000002e1 601C          B         $C$L79,NEQ            ; [CPU_ALU] |737| 
    2007                      ; branchcc occurs ; [] |737| 
    2008                      .dwpsn  file "C:/ti/Workspace/PLC_certificate/Software/uCOS-II/Source/os_flag.c",line 738,column 9,is
    2009 000002e2 6F12          B         $C$L78,UNC            ; [CPU_ALU] |738| 
    2010                      ; branch occurs ; [] |738| 
    2011 000002e3       $C$L75:    
    2012                      .dwpsn  file "C:/ti/Workspace/PLC_certificate/Software/uCOS-II/Source/os_flag.c",line 741,column 18,i
    2013 000002e3 8A4E          MOVL      XAR4,*-SP[14]         ; [CPU_ALU] |741| 
    2014 000002e4 9253          MOV       AL,*-SP[19]           ; [CPU_ALU] |741| 
    2015 000002e5 FF5E          NOT       AL                    ; [CPU_ALU] |741| 
    2016 000002e6 C0E4          AND       *+XAR4[4],AL          ; [CPU_ALU] |741| 
    2017                      .dwpsn  file "C:/ti/Workspace/PLC_certificate/Software/uCOS-II/Source/os_flag.c",line 742,column 18,i
    2018 000002e7 6F16          B         $C$L79,UNC            ; [CPU_ALU] |742| 
    2019                      ; branch occurs ; [] |742| 
    2020 000002e8       $C$L76:    
    2021                      .dwpsn  file "C:/ti/Workspace/PLC_certificate/Software/uCOS-II/Source/os_flag.c",line 747,column 18,i
    2022 000002e8 8A4E          MOVL      XAR4,*-SP[14]         ; [CPU_ALU] |747| 
    2023 000002e9 9253          MOV       AL,*-SP[19]           ; [CPU_ALU] |747| 
    2024 000002ea 98E4          OR        *+XAR4[4],AL          ; [CPU_ALU] |747| 
    2025                      .dwpsn  file "C:/ti/Workspace/PLC_certificate/Software/uCOS-II/Source/os_flag.c",line 748,column 18,i
    2026 000002eb 6F12          B         $C$L79,UNC            ; [CPU_ALU] |748| 
    2027                      ; branch occurs ; [] |748| 
    2028 000002ec       $C$L77:    
    2029                      .dwpsn  file "C:/ti/Workspace/PLC_certificate/Software/uCOS-II/Source/os_flag.c",line 751,column 18,i
    2030 000002ec 9257          MOV       AL,*-SP[23]           ; [CPU_ALU] |751| 
    2031              $C$DW$124       .dwtag  DW_TAG_TI_branch
    2032                      .dwattr $C$DW$124, DW_AT_low_pc(0x00)
    2033                      .dwattr $C$DW$124, DW_AT_name("_OS_CPU_SR_Restore")
    2034                      .dwattr $C$DW$124, DW_AT_TI_call
    2035              
    2036 000002ed 7640!         LCR       #_OS_CPU_SR_Restore   ; [CPU_ALU] |751| 
         000002ee 0000 
    2037                      ; call occurs [#_OS_CPU_SR_Restore] ; [] |751| 
    2038                      .dwpsn  file "C:/ti/Workspace/PLC_certificate/Software/uCOS-II/Source/os_flag.c",line 752,column 18,i
TMS320C2000 Assembler PC v20.2.1 Tue Feb 16 00:15:58 2021

Copyright (c) 1996-2018 Texas Instruments Incorporated
os_flag.asm                                                          PAGE   40

    2039 000002ef 8A52          MOVL      XAR4,*-SP[18]         ; [CPU_ALU] |752| 
    2040 000002f0 56BF          MOVB      *+XAR4[0],#111,UNC    ; [CPU_ALU] |752| 
         000002f1 6FC4 
    2041                      .dwpsn  file "C:/ti/Workspace/PLC_certificate/Software/uCOS-II/Source/os_flag.c",line 753,column 18,i
    2042 000002f2 9A00          MOVB      AL,#0                 ; [CPU_ALU] |753| 
    2043 000002f3 6F10          B         $C$L80,UNC            ; [CPU_ALU] |753| 
    2044                      ; branch occurs ; [] |753| 
    2045 000002f4       $C$L78:    
    2046                      .dwpsn  file "C:/ti/Workspace/PLC_certificate/Software/uCOS-II/Source/os_flag.c",line 738,column 9,is
    2047 000002f4 925C          MOV       AL,*-SP[28]           ; [CPU_ALU] |738| 
    2048 000002f5 61F3          B         $C$L76,EQ             ; [CPU_ALU] |738| 
    2049                      ; branchcc occurs ; [] |738| 
    2050 000002f6 5201          CMPB      AL,#1                 ; [CPU_ALU] |738| 
    2051 000002f7 61F1          B         $C$L76,EQ             ; [CPU_ALU] |738| 
    2052                      ; branchcc occurs ; [] |738| 
    2053 000002f8 5202          CMPB      AL,#2                 ; [CPU_ALU] |738| 
    2054 000002f9 61EA          B         $C$L75,EQ             ; [CPU_ALU] |738| 
    2055                      ; branchcc occurs ; [] |738| 
    2056 000002fa 5203          CMPB      AL,#3                 ; [CPU_ALU] |738| 
    2057 000002fb 61E8          B         $C$L75,EQ             ; [CPU_ALU] |738| 
    2058                      ; branchcc occurs ; [] |738| 
    2059 000002fc 6FF0          B         $C$L77,UNC            ; [CPU_ALU] |738| 
    2060                      ; branch occurs ; [] |738| 
    2061 000002fd       $C$L79:    
    2062                      .dwpsn  file "C:/ti/Workspace/PLC_certificate/Software/uCOS-II/Source/os_flag.c",line 756,column 5,is
    2063 000002fd 9257          MOV       AL,*-SP[23]           ; [CPU_ALU] |756| 
    2064              $C$DW$125       .dwtag  DW_TAG_TI_branch
    2065                      .dwattr $C$DW$125, DW_AT_low_pc(0x00)
    2066                      .dwattr $C$DW$125, DW_AT_name("_OS_CPU_SR_Restore")
    2067                      .dwattr $C$DW$125, DW_AT_TI_call
    2068              
    2069 000002fe 7640!         LCR       #_OS_CPU_SR_Restore   ; [CPU_ALU] |756| 
         000002ff 0000 
    2070                      ; call occurs [#_OS_CPU_SR_Restore] ; [] |756| 
    2071                      .dwpsn  file "C:/ti/Workspace/PLC_certificate/Software/uCOS-II/Source/os_flag.c",line 757,column 5,is
    2072 00000300 8A52          MOVL      XAR4,*-SP[18]         ; [CPU_ALU] |757| 
    2073 00000301 2BC4          MOV       *+XAR4[0],#0          ; [CPU_ALU] |757| 
    2074                      .dwpsn  file "C:/ti/Workspace/PLC_certificate/Software/uCOS-II/Source/os_flag.c",line 758,column 5,is
    2075 00000302 9253          MOV       AL,*-SP[19]           ; [CPU_ALU] |758| 
    2076 00000303       $C$L80:    
    2077                      .dwpsn  file "C:/ti/Workspace/PLC_certificate/Software/uCOS-II/Source/os_flag.c",line 759,column 1,is
    2078 00000303 FE98          SUBB      SP,#24                ; [CPU_ARAU] 
    2079                      .dwcfi  cfa_offset, -2
    2080              $C$DW$126       .dwtag  DW_TAG_TI_branch
    2081                      .dwattr $C$DW$126, DW_AT_low_pc(0x00)
    2082                      .dwattr $C$DW$126, DW_AT_TI_return
    2083              
    2084 00000304 0006          LRETR     ; [CPU_ALU] 
    2085                      ; return occurs ; [] 
    2086                      .dwattr $C$DW$91, DW_AT_TI_end_file("C:/ti/Workspace/PLC_certificate/Software/uCOS-II/Source/os_flag.
    2087                      .dwattr $C$DW$91, DW_AT_TI_end_line(0x2f7)
    2088                      .dwattr $C$DW$91, DW_AT_TI_end_column(0x01)
    2089                      .dwendentry
    2090                      .dwendtag $C$DW$91
    2091              
TMS320C2000 Assembler PC v20.2.1 Tue Feb 16 00:15:58 2021

Copyright (c) 1996-2018 Texas Instruments Incorporated
os_flag.asm                                                          PAGE   41

    2092 00000305               .sect   ".text"
    2093                      .clink
    2094                      .global _OSFlagPendGetFlagsRdy
    2095              
    2096              $C$DW$127       .dwtag  DW_TAG_subprogram
    2097                      .dwattr $C$DW$127, DW_AT_name("OSFlagPendGetFlagsRdy")
    2098                      .dwattr $C$DW$127, DW_AT_low_pc(_OSFlagPendGetFlagsRdy)
    2099                      .dwattr $C$DW$127, DW_AT_high_pc(0x00)
    2100                      .dwattr $C$DW$127, DW_AT_TI_symbol_name("_OSFlagPendGetFlagsRdy")
    2101                      .dwattr $C$DW$127, DW_AT_external
    2102                      .dwattr $C$DW$127, DW_AT_type(*$C$DW$T$25)
    2103                      .dwattr $C$DW$127, DW_AT_TI_begin_file("C:/ti/Workspace/PLC_certificate/Software/uCOS-II/Source/os_fl
    2104                      .dwattr $C$DW$127, DW_AT_TI_begin_line(0x308)
    2105                      .dwattr $C$DW$127, DW_AT_TI_begin_column(0x0b)
    2106                      .dwattr $C$DW$127, DW_AT_TI_max_frame_size(-4)
    2107                      .dwpsn  file "C:/ti/Workspace/PLC_certificate/Software/uCOS-II/Source/os_flag.c",line 777,column 1,is
    2108              
    2109                      .dwfde $C$DW$CIE, _OSFlagPendGetFlagsRdy
    2110              
    2111              ;***************************************************************
    2112              ;* FNAME: _OSFlagPendGetFlagsRdy        FR SIZE:   2           *
    2113              ;*                                                             *
    2114              ;* FUNCTION ENVIRONMENT                                        *
    2115              ;*                                                             *
    2116              ;* FUNCTION PROPERTIES                                         *
    2117              ;*                            0 Parameter,  2 Auto,  0 SOE     *
    2118              ;***************************************************************
    2119              
    2120 00000305       _OSFlagPendGetFlagsRdy:
    2121                      .dwcfi  cfa_offset, -2
    2122                      .dwcfi  save_reg_to_mem, 26, 0
    2123 00000305 FE02          ADDB      SP,#2                 ; [CPU_ARAU] 
    2124                      .dwcfi  cfa_offset, -4
    2125              $C$DW$128       .dwtag  DW_TAG_variable
    2126                      .dwattr $C$DW$128, DW_AT_name("flags")
    2127                      .dwattr $C$DW$128, DW_AT_TI_symbol_name("_flags")
    2128                      .dwattr $C$DW$128, DW_AT_type(*$C$DW$T$25)
    2129                      .dwattr $C$DW$128, DW_AT_location[DW_OP_breg20 -1]
    2130              
    2131              $C$DW$129       .dwtag  DW_TAG_variable
    2132                      .dwattr $C$DW$129, DW_AT_name("cpu_sr")
    2133                      .dwattr $C$DW$129, DW_AT_TI_symbol_name("_cpu_sr")
    2134                      .dwattr $C$DW$129, DW_AT_type(*$C$DW$T$39)
    2135                      .dwattr $C$DW$129, DW_AT_location[DW_OP_breg20 -2]
    2136              
    2137                      .dwpsn  file "C:/ti/Workspace/PLC_certificate/Software/uCOS-II/Source/os_flag.c",line 780,column 26,i
    2138 00000306 2B42          MOV       *-SP[2],#0            ; [CPU_ALU] |780| 
    2139                      .dwpsn  file "C:/ti/Workspace/PLC_certificate/Software/uCOS-II/Source/os_flag.c",line 785,column 5,is
    2140              $C$DW$130       .dwtag  DW_TAG_TI_branch
    2141                      .dwattr $C$DW$130, DW_AT_low_pc(0x00)
    2142                      .dwattr $C$DW$130, DW_AT_name("_OS_CPU_SR_Save")
    2143                      .dwattr $C$DW$130, DW_AT_TI_call
    2144              
    2145 00000307 7640!         LCR       #_OS_CPU_SR_Save      ; [CPU_ALU] |785| 
         00000308 0000 
TMS320C2000 Assembler PC v20.2.1 Tue Feb 16 00:15:58 2021

Copyright (c) 1996-2018 Texas Instruments Incorporated
os_flag.asm                                                          PAGE   42

    2146                      ; call occurs [#_OS_CPU_SR_Save] ; [] |785| 
    2147 00000309 9642          MOV       *-SP[2],AL            ; [CPU_ALU] |785| 
    2148                      .dwpsn  file "C:/ti/Workspace/PLC_certificate/Software/uCOS-II/Source/os_flag.c",line 786,column 5,is
    2149 0000030a 761F!         MOVW      DP,#_OSTCBCur         ; [CPU_ARAU] 
         0000030b 0000 
    2150 0000030c 0216          MOVB      ACC,#22               ; [CPU_ALU] |786| 
    2151 0000030d 0700!         ADDL      ACC,@_OSTCBCur        ; [CPU_ALU] |786| 
    2152 0000030e 1EA7          MOVL      XAR7,ACC              ; [CPU_ALU] |786| 
    2153 0000030f 92C7          MOV       AL,*+XAR7[0]          ; [CPU_ALU] |786| 
    2154 00000310 9641          MOV       *-SP[1],AL            ; [CPU_ALU] |786| 
    2155                      .dwpsn  file "C:/ti/Workspace/PLC_certificate/Software/uCOS-II/Source/os_flag.c",line 787,column 5,is
    2156 00000311 9242          MOV       AL,*-SP[2]            ; [CPU_ALU] |787| 
    2157              $C$DW$131       .dwtag  DW_TAG_TI_branch
    2158                      .dwattr $C$DW$131, DW_AT_low_pc(0x00)
    2159                      .dwattr $C$DW$131, DW_AT_name("_OS_CPU_SR_Restore")
    2160                      .dwattr $C$DW$131, DW_AT_TI_call
    2161              
    2162 00000312 7640!         LCR       #_OS_CPU_SR_Restore   ; [CPU_ALU] |787| 
         00000313 0000 
    2163                      ; call occurs [#_OS_CPU_SR_Restore] ; [] |787| 
    2164                      .dwpsn  file "C:/ti/Workspace/PLC_certificate/Software/uCOS-II/Source/os_flag.c",line 788,column 5,is
    2165 00000314 9241          MOV       AL,*-SP[1]            ; [CPU_ALU] |788| 
    2166                      .dwpsn  file "C:/ti/Workspace/PLC_certificate/Software/uCOS-II/Source/os_flag.c",line 789,column 1,is
    2167 00000315 FE82          SUBB      SP,#2                 ; [CPU_ARAU] 
    2168                      .dwcfi  cfa_offset, -2
    2169              $C$DW$132       .dwtag  DW_TAG_TI_branch
    2170                      .dwattr $C$DW$132, DW_AT_low_pc(0x00)
    2171                      .dwattr $C$DW$132, DW_AT_TI_return
    2172              
    2173 00000316 0006          LRETR     ; [CPU_ALU] 
    2174                      ; return occurs ; [] 
    2175                      .dwattr $C$DW$127, DW_AT_TI_end_file("C:/ti/Workspace/PLC_certificate/Software/uCOS-II/Source/os_flag
    2176                      .dwattr $C$DW$127, DW_AT_TI_end_line(0x315)
    2177                      .dwattr $C$DW$127, DW_AT_TI_end_column(0x01)
    2178                      .dwendentry
    2179                      .dwendtag $C$DW$127
    2180              
    2181 00000317               .sect   ".text"
    2182                      .clink
    2183                      .global _OSFlagPost
    2184              
    2185              $C$DW$133       .dwtag  DW_TAG_subprogram
    2186                      .dwattr $C$DW$133, DW_AT_name("OSFlagPost")
    2187                      .dwattr $C$DW$133, DW_AT_low_pc(_OSFlagPost)
    2188                      .dwattr $C$DW$133, DW_AT_high_pc(0x00)
    2189                      .dwattr $C$DW$133, DW_AT_TI_symbol_name("_OSFlagPost")
    2190                      .dwattr $C$DW$133, DW_AT_external
    2191                      .dwattr $C$DW$133, DW_AT_type(*$C$DW$T$25)
    2192                      .dwattr $C$DW$133, DW_AT_TI_begin_file("C:/ti/Workspace/PLC_certificate/Software/uCOS-II/Source/os_fl
    2193                      .dwattr $C$DW$133, DW_AT_TI_begin_line(0x341)
    2194                      .dwattr $C$DW$133, DW_AT_TI_begin_column(0x0b)
    2195                      .dwattr $C$DW$133, DW_AT_TI_max_frame_size(-16)
    2196                      .dwpsn  file "C:/ti/Workspace/PLC_certificate/Software/uCOS-II/Source/os_flag.c",line 837,column 1,is
    2197              
    2198                      .dwfde $C$DW$CIE, _OSFlagPost
TMS320C2000 Assembler PC v20.2.1 Tue Feb 16 00:15:58 2021

Copyright (c) 1996-2018 Texas Instruments Incorporated
os_flag.asm                                                          PAGE   43

    2199              $C$DW$134       .dwtag  DW_TAG_formal_parameter
    2200                      .dwattr $C$DW$134, DW_AT_name("pgrp")
    2201                      .dwattr $C$DW$134, DW_AT_TI_symbol_name("_pgrp")
    2202                      .dwattr $C$DW$134, DW_AT_type(*$C$DW$T$47)
    2203                      .dwattr $C$DW$134, DW_AT_location[DW_OP_reg12]
    2204              
    2205              $C$DW$135       .dwtag  DW_TAG_formal_parameter
    2206                      .dwattr $C$DW$135, DW_AT_name("flags")
    2207                      .dwattr $C$DW$135, DW_AT_TI_symbol_name("_flags")
    2208                      .dwattr $C$DW$135, DW_AT_type(*$C$DW$T$25)
    2209                      .dwattr $C$DW$135, DW_AT_location[DW_OP_reg0]
    2210              
    2211              $C$DW$136       .dwtag  DW_TAG_formal_parameter
    2212                      .dwattr $C$DW$136, DW_AT_name("opt")
    2213                      .dwattr $C$DW$136, DW_AT_TI_symbol_name("_opt")
    2214                      .dwattr $C$DW$136, DW_AT_type(*$C$DW$T$19)
    2215                      .dwattr $C$DW$136, DW_AT_location[DW_OP_reg1]
    2216              
    2217              $C$DW$137       .dwtag  DW_TAG_formal_parameter
    2218                      .dwattr $C$DW$137, DW_AT_name("perr")
    2219                      .dwattr $C$DW$137, DW_AT_TI_symbol_name("_perr")
    2220                      .dwattr $C$DW$137, DW_AT_type(*$C$DW$T$23)
    2221                      .dwattr $C$DW$137, DW_AT_location[DW_OP_reg14]
    2222              
    2223              
    2224              ;***************************************************************
    2225              ;* FNAME: _OSFlagPost                   FR SIZE:  14           *
    2226              ;*                                                             *
    2227              ;* FUNCTION ENVIRONMENT                                        *
    2228              ;*                                                             *
    2229              ;* FUNCTION PROPERTIES                                         *
    2230              ;*                            0 Parameter, 13 Auto,  0 SOE     *
    2231              ;***************************************************************
    2232              
    2233 00000317       _OSFlagPost:
    2234                      .dwcfi  cfa_offset, -2
    2235                      .dwcfi  save_reg_to_mem, 26, 0
    2236 00000317 FE0E          ADDB      SP,#14                ; [CPU_ARAU] 
    2237                      .dwcfi  cfa_offset, -16
    2238              $C$DW$138       .dwtag  DW_TAG_variable
    2239                      .dwattr $C$DW$138, DW_AT_name("pgrp")
    2240                      .dwattr $C$DW$138, DW_AT_TI_symbol_name("_pgrp")
    2241                      .dwattr $C$DW$138, DW_AT_type(*$C$DW$T$47)
    2242                      .dwattr $C$DW$138, DW_AT_location[DW_OP_breg20 -2]
    2243              
    2244              $C$DW$139       .dwtag  DW_TAG_variable
    2245                      .dwattr $C$DW$139, DW_AT_name("perr")
    2246                      .dwattr $C$DW$139, DW_AT_TI_symbol_name("_perr")
    2247                      .dwattr $C$DW$139, DW_AT_type(*$C$DW$T$23)
    2248                      .dwattr $C$DW$139, DW_AT_location[DW_OP_breg20 -4]
    2249              
    2250              $C$DW$140       .dwtag  DW_TAG_variable
    2251                      .dwattr $C$DW$140, DW_AT_name("pnode")
    2252                      .dwattr $C$DW$140, DW_AT_TI_symbol_name("_pnode")
    2253                      .dwattr $C$DW$140, DW_AT_type(*$C$DW$T$36)
TMS320C2000 Assembler PC v20.2.1 Tue Feb 16 00:15:58 2021

Copyright (c) 1996-2018 Texas Instruments Incorporated
os_flag.asm                                                          PAGE   44

    2254                      .dwattr $C$DW$140, DW_AT_location[DW_OP_breg20 -6]
    2255              
    2256              $C$DW$141       .dwtag  DW_TAG_variable
    2257                      .dwattr $C$DW$141, DW_AT_name("flags")
    2258                      .dwattr $C$DW$141, DW_AT_TI_symbol_name("_flags")
    2259                      .dwattr $C$DW$141, DW_AT_type(*$C$DW$T$25)
    2260                      .dwattr $C$DW$141, DW_AT_location[DW_OP_breg20 -7]
    2261              
    2262              $C$DW$142       .dwtag  DW_TAG_variable
    2263                      .dwattr $C$DW$142, DW_AT_name("opt")
    2264                      .dwattr $C$DW$142, DW_AT_TI_symbol_name("_opt")
    2265                      .dwattr $C$DW$142, DW_AT_type(*$C$DW$T$19)
    2266                      .dwattr $C$DW$142, DW_AT_location[DW_OP_breg20 -8]
    2267              
    2268              $C$DW$143       .dwtag  DW_TAG_variable
    2269                      .dwattr $C$DW$143, DW_AT_name("sched")
    2270                      .dwattr $C$DW$143, DW_AT_TI_symbol_name("_sched")
    2271                      .dwattr $C$DW$143, DW_AT_type(*$C$DW$T$53)
    2272                      .dwattr $C$DW$143, DW_AT_location[DW_OP_breg20 -9]
    2273              
    2274              $C$DW$144       .dwtag  DW_TAG_variable
    2275                      .dwattr $C$DW$144, DW_AT_name("flags_cur")
    2276                      .dwattr $C$DW$144, DW_AT_TI_symbol_name("_flags_cur")
    2277                      .dwattr $C$DW$144, DW_AT_type(*$C$DW$T$25)
    2278                      .dwattr $C$DW$144, DW_AT_location[DW_OP_breg20 -10]
    2279              
    2280              $C$DW$145       .dwtag  DW_TAG_variable
    2281                      .dwattr $C$DW$145, DW_AT_name("flags_rdy")
    2282                      .dwattr $C$DW$145, DW_AT_TI_symbol_name("_flags_rdy")
    2283                      .dwattr $C$DW$145, DW_AT_type(*$C$DW$T$25)
    2284                      .dwattr $C$DW$145, DW_AT_location[DW_OP_breg20 -11]
    2285              
    2286              $C$DW$146       .dwtag  DW_TAG_variable
    2287                      .dwattr $C$DW$146, DW_AT_name("rdy")
    2288                      .dwattr $C$DW$146, DW_AT_TI_symbol_name("_rdy")
    2289                      .dwattr $C$DW$146, DW_AT_type(*$C$DW$T$53)
    2290                      .dwattr $C$DW$146, DW_AT_location[DW_OP_breg20 -12]
    2291              
    2292              $C$DW$147       .dwtag  DW_TAG_variable
    2293                      .dwattr $C$DW$147, DW_AT_name("cpu_sr")
    2294                      .dwattr $C$DW$147, DW_AT_TI_symbol_name("_cpu_sr")
    2295                      .dwattr $C$DW$147, DW_AT_type(*$C$DW$T$39)
    2296                      .dwattr $C$DW$147, DW_AT_location[DW_OP_breg20 -13]
    2297              
    2298 00000318 A044          MOVL      *-SP[4],XAR5          ; [CPU_ALU] |837| 
    2299 00000319 9748          MOV       *-SP[8],AH            ; [CPU_ALU] |837| 
    2300 0000031a 9647          MOV       *-SP[7],AL            ; [CPU_ALU] |837| 
    2301 0000031b A842          MOVL      *-SP[2],XAR4          ; [CPU_ALU] |837| 
    2302                      .dwpsn  file "C:/ti/Workspace/PLC_certificate/Software/uCOS-II/Source/os_flag.c",line 844,column 26,i
    2303 0000031c 2B4D          MOV       *-SP[13],#0           ; [CPU_ALU] |844| 
    2304                      .dwpsn  file "C:/ti/Workspace/PLC_certificate/Software/uCOS-II/Source/os_flag.c",line 857,column 5,is
    2305 0000031d 0642          MOVL      ACC,*-SP[2]           ; [CPU_ALU] |857| 
    2306 0000031e 6007          B         $C$L81,NEQ            ; [CPU_ALU] |857| 
    2307                      ; branchcc occurs ; [] |857| 
    2308                      .dwpsn  file "C:/ti/Workspace/PLC_certificate/Software/uCOS-II/Source/os_flag.c",line 858,column 9,is
TMS320C2000 Assembler PC v20.2.1 Tue Feb 16 00:15:58 2021

Copyright (c) 1996-2018 Texas Instruments Incorporated
os_flag.asm                                                          PAGE   45

    2309 0000031f 8A44          MOVL      XAR4,*-SP[4]          ; [CPU_ALU] |858| 
    2310 00000320 56BF          MOVB      *+XAR4[0],#110,UNC    ; [CPU_ALU] |858| 
         00000321 6EC4 
    2311                      .dwpsn  file "C:/ti/Workspace/PLC_certificate/Software/uCOS-II/Source/os_flag.c",line 859,column 9,is
    2312 00000322 9A00          MOVB      AL,#0                 ; [CPU_ALU] |859| 
    2313 00000323 FFEF          B         $C$L97,UNC            ; [CPU_ALU] |859| 
         00000324 00B2 
    2314                      ; branch occurs ; [] |859| 
    2315 00000325       $C$L81:    
    2316                      .dwpsn  file "C:/ti/Workspace/PLC_certificate/Software/uCOS-II/Source/os_flag.c",line 862,column 5,is
    2317 00000325 92C4          MOV       AL,*+XAR4[0]          ; [CPU_ALU] |862| 
    2318 00000326 5205          CMPB      AL,#5                 ; [CPU_ALU] |862| 
    2319 00000327 6107          B         $C$L82,EQ             ; [CPU_ALU] |862| 
    2320                      ; branchcc occurs ; [] |862| 
    2321                      .dwpsn  file "C:/ti/Workspace/PLC_certificate/Software/uCOS-II/Source/os_flag.c",line 863,column 9,is
    2322 00000328 8A44          MOVL      XAR4,*-SP[4]          ; [CPU_ALU] |863| 
    2323 00000329 56BF          MOVB      *+XAR4[0],#1,UNC      ; [CPU_ALU] |863| 
         0000032a 01C4 
    2324                      .dwpsn  file "C:/ti/Workspace/PLC_certificate/Software/uCOS-II/Source/os_flag.c",line 864,column 9,is
    2325 0000032b 9A00          MOVB      AL,#0                 ; [CPU_ALU] |864| 
    2326 0000032c FFEF          B         $C$L97,UNC            ; [CPU_ALU] |864| 
         0000032d 00A9 
    2327                      ; branch occurs ; [] |864| 
    2328 0000032e       $C$L82:    
    2329                      .dwpsn  file "C:/ti/Workspace/PLC_certificate/Software/uCOS-II/Source/os_flag.c",line 867,column 5,is
    2330              $C$DW$148       .dwtag  DW_TAG_TI_branch
    2331                      .dwattr $C$DW$148, DW_AT_low_pc(0x00)
    2332                      .dwattr $C$DW$148, DW_AT_name("_OS_CPU_SR_Save")
    2333                      .dwattr $C$DW$148, DW_AT_TI_call
    2334              
    2335 0000032e 7640!         LCR       #_OS_CPU_SR_Save      ; [CPU_ALU] |867| 
         0000032f 0000 
    2336                      ; call occurs [#_OS_CPU_SR_Save] ; [] |867| 
    2337 00000330 964D          MOV       *-SP[13],AL           ; [CPU_ALU] |867| 
    2338                      .dwpsn  file "C:/ti/Workspace/PLC_certificate/Software/uCOS-II/Source/os_flag.c",line 868,column 5,is
    2339 00000331 6F13          B         $C$L86,UNC            ; [CPU_ALU] |868| 
    2340                      ; branch occurs ; [] |868| 
    2341 00000332       $C$L83:    
    2342                      .dwpsn  file "C:/ti/Workspace/PLC_certificate/Software/uCOS-II/Source/os_flag.c",line 870,column 14,i
    2343 00000332 8A42          MOVL      XAR4,*-SP[2]          ; [CPU_ALU] |870| 
    2344 00000333 9247          MOV       AL,*-SP[7]            ; [CPU_ALU] |870| 
    2345 00000334 FF5E          NOT       AL                    ; [CPU_ALU] |870| 
    2346 00000335 C0E4          AND       *+XAR4[4],AL          ; [CPU_ALU] |870| 
    2347                      .dwpsn  file "C:/ti/Workspace/PLC_certificate/Software/uCOS-II/Source/os_flag.c",line 871,column 14,i
    2348 00000336 6F13          B         $C$L87,UNC            ; [CPU_ALU] |871| 
    2349                      ; branch occurs ; [] |871| 
    2350 00000337       $C$L84:    
    2351                      .dwpsn  file "C:/ti/Workspace/PLC_certificate/Software/uCOS-II/Source/os_flag.c",line 874,column 14,i
    2352 00000337 8A42          MOVL      XAR4,*-SP[2]          ; [CPU_ALU] |874| 
    2353 00000338 9247          MOV       AL,*-SP[7]            ; [CPU_ALU] |874| 
    2354 00000339 98E4          OR        *+XAR4[4],AL          ; [CPU_ALU] |874| 
    2355                      .dwpsn  file "C:/ti/Workspace/PLC_certificate/Software/uCOS-II/Source/os_flag.c",line 875,column 14,i
    2356 0000033a 6F0F          B         $C$L87,UNC            ; [CPU_ALU] |875| 
    2357                      ; branch occurs ; [] |875| 
    2358 0000033b       $C$L85:    
TMS320C2000 Assembler PC v20.2.1 Tue Feb 16 00:15:58 2021

Copyright (c) 1996-2018 Texas Instruments Incorporated
os_flag.asm                                                          PAGE   46

    2359                      .dwpsn  file "C:/ti/Workspace/PLC_certificate/Software/uCOS-II/Source/os_flag.c",line 878,column 14,i
    2360 0000033b 924D          MOV       AL,*-SP[13]           ; [CPU_ALU] |878| 
    2361              $C$DW$149       .dwtag  DW_TAG_TI_branch
    2362                      .dwattr $C$DW$149, DW_AT_low_pc(0x00)
    2363                      .dwattr $C$DW$149, DW_AT_name("_OS_CPU_SR_Restore")
    2364                      .dwattr $C$DW$149, DW_AT_TI_call
    2365              
    2366 0000033c 7640!         LCR       #_OS_CPU_SR_Restore   ; [CPU_ALU] |878| 
         0000033d 0000 
    2367                      ; call occurs [#_OS_CPU_SR_Restore] ; [] |878| 
    2368                      .dwpsn  file "C:/ti/Workspace/PLC_certificate/Software/uCOS-II/Source/os_flag.c",line 879,column 14,i
    2369 0000033e 8A44          MOVL      XAR4,*-SP[4]          ; [CPU_ALU] |879| 
    2370 0000033f 56BF          MOVB      *+XAR4[0],#113,UNC    ; [CPU_ALU] |879| 
         00000340 71C4 
    2371                      .dwpsn  file "C:/ti/Workspace/PLC_certificate/Software/uCOS-II/Source/os_flag.c",line 880,column 14,i
    2372 00000341 9A00          MOVB      AL,#0                 ; [CPU_ALU] |880| 
    2373 00000342 FFEF          B         $C$L97,UNC            ; [CPU_ALU] |880| 
         00000343 0093 
    2374                      ; branch occurs ; [] |880| 
    2375 00000344       $C$L86:    
    2376                      .dwpsn  file "C:/ti/Workspace/PLC_certificate/Software/uCOS-II/Source/os_flag.c",line 868,column 5,is
    2377 00000344 9248          MOV       AL,*-SP[8]            ; [CPU_ALU] |868| 
    2378 00000345 61ED          B         $C$L83,EQ             ; [CPU_ALU] |868| 
    2379                      ; branchcc occurs ; [] |868| 
    2380 00000346 5201          CMPB      AL,#1                 ; [CPU_ALU] |868| 
    2381 00000347 61F0          B         $C$L84,EQ             ; [CPU_ALU] |868| 
    2382                      ; branchcc occurs ; [] |868| 
    2383 00000348 6FF3          B         $C$L85,UNC            ; [CPU_ALU] |868| 
    2384                      ; branch occurs ; [] |868| 
    2385 00000349       $C$L87:    
    2386                      .dwpsn  file "C:/ti/Workspace/PLC_certificate/Software/uCOS-II/Source/os_flag.c",line 882,column 5,is
    2387 00000349 2B49          MOV       *-SP[9],#0            ; [CPU_ALU] |882| 
    2388                      .dwpsn  file "C:/ti/Workspace/PLC_certificate/Software/uCOS-II/Source/os_flag.c",line 883,column 5,is
    2389 0000034a 8A42          MOVL      XAR4,*-SP[2]          ; [CPU_ALU] |883| 
    2390 0000034b 06D4          MOVL      ACC,*+XAR4[2]         ; [CPU_ALU] |883| 
    2391 0000034c 1E46          MOVL      *-SP[6],ACC           ; [CPU_ALU] |883| 
    2392                      .dwpsn  file "C:/ti/Workspace/PLC_certificate/Software/uCOS-II/Source/os_flag.c",line 884,column 12,i
    2393 0000034d 0646          MOVL      ACC,*-SP[6]           ; [CPU_ALU] |884| 
    2394 0000034e 6173          B         $C$L95,EQ             ; [CPU_ALU] |884| 
    2395                      ; branchcc occurs ; [] |884| 
    2396                      .dwpsn  file "C:/ti/Workspace/PLC_certificate/Software/uCOS-II/Source/os_flag.c",line 885,column 9,is
    2397 0000034f 6F61          B         $C$L93,UNC            ; [CPU_ALU] |885| 
    2398                      ; branch occurs ; [] |885| 
    2399 00000350       $C$L88:    
    2400                      .dwpsn  file "C:/ti/Workspace/PLC_certificate/Software/uCOS-II/Source/os_flag.c",line 887,column 18,i
    2401 00000350 0208          MOVB      ACC,#8                ; [CPU_ALU] |887| 
    2402 00000351 0746          ADDL      ACC,*-SP[6]           ; [CPU_ALU] |887| 
    2403 00000352 8AA9          MOVL      XAR4,ACC              ; [CPU_ALU] |887| 
    2404 00000353 8342          MOVL      XAR5,*-SP[2]          ; [CPU_ALU] |887| 
    2405 00000354 92C4          MOV       AL,*+XAR4[0]          ; [CPU_ALU] |887| 
    2406 00000355 CEE5          AND       AL,*+XAR5[4]          ; [CPU_ALU] |887| 
    2407 00000356 964B          MOV       *-SP[11],AL           ; [CPU_ALU] |887| 
    2408                      .dwpsn  file "C:/ti/Workspace/PLC_certificate/Software/uCOS-II/Source/os_flag.c",line 888,column 18,i
    2409 00000357 0208          MOVB      ACC,#8                ; [CPU_ALU] |888| 
    2410 00000358 0746          ADDL      ACC,*-SP[6]           ; [CPU_ALU] |888| 
TMS320C2000 Assembler PC v20.2.1 Tue Feb 16 00:15:58 2021

Copyright (c) 1996-2018 Texas Instruments Incorporated
os_flag.asm                                                          PAGE   47

    2411 00000359 8AA9          MOVL      XAR4,ACC              ; [CPU_ALU] |888| 
    2412 0000035a 884B          MOVZ      AR6,*-SP[11]          ; [CPU_ALU] |888| 
    2413 0000035b 0EC4          MOVU      ACC,*+XAR4[0]         ; [CPU_ALU] |888| 
    2414 0000035c 0FA6          CMPL      ACC,XAR6              ; [CPU_ALU] |888| 
    2415 0000035d 605F          B         $C$L94,NEQ            ; [CPU_ALU] |888| 
    2416                      ; branchcc occurs ; [] |888| 
    2417                      .dwpsn  file "C:/ti/Workspace/PLC_certificate/Software/uCOS-II/Source/os_flag.c",line 889,column 22,i
    2418 0000035e 8A46          MOVL      XAR4,*-SP[6]          ; [CPU_ALU] |889| 
    2419 0000035f 924B          MOV       AL,*-SP[11]           ; [CPU_ALU] |889| 
    2420 00000360 9B00          MOVB      AH,#0                 ; [CPU_ALU] |889| 
    2421              $C$DW$150       .dwtag  DW_TAG_TI_branch
    2422                      .dwattr $C$DW$150, DW_AT_low_pc(0x00)
    2423                      .dwattr $C$DW$150, DW_AT_name("_OS_FlagTaskRdy")
    2424                      .dwattr $C$DW$150, DW_AT_TI_call
    2425              
    2426 00000361 7640'         LCR       #_OS_FlagTaskRdy      ; [CPU_ALU] |889| 
         00000362 0491 
    2427                      ; call occurs [#_OS_FlagTaskRdy] ; [] |889| 
    2428 00000363 964C          MOV       *-SP[12],AL           ; [CPU_ALU] |889| 
    2429                      .dwpsn  file "C:/ti/Workspace/PLC_certificate/Software/uCOS-II/Source/os_flag.c",line 890,column 22,i
    2430 00000364 5201          CMPB      AL,#1                 ; [CPU_ALU] |890| 
    2431 00000365 6057          B         $C$L94,NEQ            ; [CPU_ALU] |890| 
    2432                      ; branchcc occurs ; [] |890| 
    2433                      .dwpsn  file "C:/ti/Workspace/PLC_certificate/Software/uCOS-II/Source/os_flag.c",line 891,column 26,i
    2434 00000366 56BF          MOVB      *-SP[9],#1,UNC        ; [CPU_ALU] |891| 
         00000367 0149 
    2435                      .dwpsn  file "C:/ti/Workspace/PLC_certificate/Software/uCOS-II/Source/os_flag.c",line 894,column 18,i
    2436 00000368 6F54          B         $C$L94,UNC            ; [CPU_ALU] |894| 
    2437                      ; branch occurs ; [] |894| 
    2438 00000369       $C$L89:    
    2439                      .dwpsn  file "C:/ti/Workspace/PLC_certificate/Software/uCOS-II/Source/os_flag.c",line 897,column 18,i
    2440 00000369 0208          MOVB      ACC,#8                ; [CPU_ALU] |897| 
    2441 0000036a 0746          ADDL      ACC,*-SP[6]           ; [CPU_ALU] |897| 
    2442 0000036b 8AA9          MOVL      XAR4,ACC              ; [CPU_ALU] |897| 
    2443 0000036c 8342          MOVL      XAR5,*-SP[2]          ; [CPU_ALU] |897| 
    2444 0000036d 92C4          MOV       AL,*+XAR4[0]          ; [CPU_ALU] |897| 
    2445 0000036e CEE5          AND       AL,*+XAR5[4]          ; [CPU_ALU] |897| 
    2446 0000036f 964B          MOV       *-SP[11],AL           ; [CPU_ALU] |897| 
    2447                      .dwpsn  file "C:/ti/Workspace/PLC_certificate/Software/uCOS-II/Source/os_flag.c",line 898,column 18,i
    2448 00000370 614C          B         $C$L94,EQ             ; [CPU_ALU] |898| 
    2449                      ; branchcc occurs ; [] |898| 
    2450                      .dwpsn  file "C:/ti/Workspace/PLC_certificate/Software/uCOS-II/Source/os_flag.c",line 899,column 22,i
    2451 00000371 8A46          MOVL      XAR4,*-SP[6]          ; [CPU_ALU] |899| 
    2452 00000372 9B00          MOVB      AH,#0                 ; [CPU_ALU] |899| 
    2453              $C$DW$151       .dwtag  DW_TAG_TI_branch
    2454                      .dwattr $C$DW$151, DW_AT_low_pc(0x00)
    2455                      .dwattr $C$DW$151, DW_AT_name("_OS_FlagTaskRdy")
    2456                      .dwattr $C$DW$151, DW_AT_TI_call
    2457              
    2458 00000373 7640'         LCR       #_OS_FlagTaskRdy      ; [CPU_ALU] |899| 
         00000374 0491 
    2459                      ; call occurs [#_OS_FlagTaskRdy] ; [] |899| 
    2460 00000375 964C          MOV       *-SP[12],AL           ; [CPU_ALU] |899| 
    2461                      .dwpsn  file "C:/ti/Workspace/PLC_certificate/Software/uCOS-II/Source/os_flag.c",line 900,column 22,i
    2462 00000376 5201          CMPB      AL,#1                 ; [CPU_ALU] |900| 
TMS320C2000 Assembler PC v20.2.1 Tue Feb 16 00:15:58 2021

Copyright (c) 1996-2018 Texas Instruments Incorporated
os_flag.asm                                                          PAGE   48

    2463 00000377 6045          B         $C$L94,NEQ            ; [CPU_ALU] |900| 
    2464                      ; branchcc occurs ; [] |900| 
    2465                      .dwpsn  file "C:/ti/Workspace/PLC_certificate/Software/uCOS-II/Source/os_flag.c",line 901,column 26,i
    2466 00000378 56BF          MOVB      *-SP[9],#1,UNC        ; [CPU_ALU] |901| 
         00000379 0149 
    2467                      .dwpsn  file "C:/ti/Workspace/PLC_certificate/Software/uCOS-II/Source/os_flag.c",line 904,column 18,i
    2468 0000037a 6F42          B         $C$L94,UNC            ; [CPU_ALU] |904| 
    2469                      ; branch occurs ; [] |904| 
    2470 0000037b       $C$L90:    
    2471                      .dwpsn  file "C:/ti/Workspace/PLC_certificate/Software/uCOS-II/Source/os_flag.c",line 908,column 18,i
    2472 0000037b 8342          MOVL      XAR5,*-SP[2]          ; [CPU_ALU] |908| 
    2473 0000037c 0208          MOVB      ACC,#8                ; [CPU_ALU] |908| 
    2474 0000037d 0746          ADDL      ACC,*-SP[6]           ; [CPU_ALU] |908| 
    2475 0000037e 8AA9          MOVL      XAR4,ACC              ; [CPU_ALU] |908| 
    2476 0000037f 92E5          MOV       AL,*+XAR5[4]          ; [CPU_ALU] |908| 
    2477 00000380 FF5E          NOT       AL                    ; [CPU_ALU] |908| 
    2478 00000381 CEC4          AND       AL,*+XAR4[0]          ; [CPU_ALU] |908| 
    2479 00000382 964B          MOV       *-SP[11],AL           ; [CPU_ALU] |908| 
    2480                      .dwpsn  file "C:/ti/Workspace/PLC_certificate/Software/uCOS-II/Source/os_flag.c",line 909,column 18,i
    2481 00000383 0208          MOVB      ACC,#8                ; [CPU_ALU] |909| 
    2482 00000384 0746          ADDL      ACC,*-SP[6]           ; [CPU_ALU] |909| 
    2483 00000385 8AA9          MOVL      XAR4,ACC              ; [CPU_ALU] |909| 
    2484 00000386 884B          MOVZ      AR6,*-SP[11]          ; [CPU_ALU] |909| 
    2485 00000387 0EC4          MOVU      ACC,*+XAR4[0]         ; [CPU_ALU] |909| 
    2486 00000388 0FA6          CMPL      ACC,XAR6              ; [CPU_ALU] |909| 
    2487 00000389 6033          B         $C$L94,NEQ            ; [CPU_ALU] |909| 
    2488                      ; branchcc occurs ; [] |909| 
    2489                      .dwpsn  file "C:/ti/Workspace/PLC_certificate/Software/uCOS-II/Source/os_flag.c",line 910,column 22,i
    2490 0000038a 8A46          MOVL      XAR4,*-SP[6]          ; [CPU_ALU] |910| 
    2491 0000038b 924B          MOV       AL,*-SP[11]           ; [CPU_ALU] |910| 
    2492 0000038c 9B00          MOVB      AH,#0                 ; [CPU_ALU] |910| 
    2493              $C$DW$152       .dwtag  DW_TAG_TI_branch
    2494                      .dwattr $C$DW$152, DW_AT_low_pc(0x00)
    2495                      .dwattr $C$DW$152, DW_AT_name("_OS_FlagTaskRdy")
    2496                      .dwattr $C$DW$152, DW_AT_TI_call
    2497              
    2498 0000038d 7640'         LCR       #_OS_FlagTaskRdy      ; [CPU_ALU] |910| 
         0000038e 0491 
    2499                      ; call occurs [#_OS_FlagTaskRdy] ; [] |910| 
    2500 0000038f 964C          MOV       *-SP[12],AL           ; [CPU_ALU] |910| 
    2501                      .dwpsn  file "C:/ti/Workspace/PLC_certificate/Software/uCOS-II/Source/os_flag.c",line 911,column 22,i
    2502 00000390 5201          CMPB      AL,#1                 ; [CPU_ALU] |911| 
    2503 00000391 602B          B         $C$L94,NEQ            ; [CPU_ALU] |911| 
    2504                      ; branchcc occurs ; [] |911| 
    2505                      .dwpsn  file "C:/ti/Workspace/PLC_certificate/Software/uCOS-II/Source/os_flag.c",line 912,column 26,i
    2506 00000392 56BF          MOVB      *-SP[9],#1,UNC        ; [CPU_ALU] |912| 
         00000393 0149 
    2507                      .dwpsn  file "C:/ti/Workspace/PLC_certificate/Software/uCOS-II/Source/os_flag.c",line 915,column 18,i
    2508 00000394 6F28          B         $C$L94,UNC            ; [CPU_ALU] |915| 
    2509                      ; branch occurs ; [] |915| 
    2510 00000395       $C$L91:    
    2511                      .dwpsn  file "C:/ti/Workspace/PLC_certificate/Software/uCOS-II/Source/os_flag.c",line 918,column 18,i
    2512 00000395 8342          MOVL      XAR5,*-SP[2]          ; [CPU_ALU] |918| 
    2513 00000396 0208          MOVB      ACC,#8                ; [CPU_ALU] |918| 
    2514 00000397 0746          ADDL      ACC,*-SP[6]           ; [CPU_ALU] |918| 
TMS320C2000 Assembler PC v20.2.1 Tue Feb 16 00:15:58 2021

Copyright (c) 1996-2018 Texas Instruments Incorporated
os_flag.asm                                                          PAGE   49

    2515 00000398 8AA9          MOVL      XAR4,ACC              ; [CPU_ALU] |918| 
    2516 00000399 92E5          MOV       AL,*+XAR5[4]          ; [CPU_ALU] |918| 
    2517 0000039a FF5E          NOT       AL                    ; [CPU_ALU] |918| 
    2518 0000039b CEC4          AND       AL,*+XAR4[0]          ; [CPU_ALU] |918| 
    2519 0000039c 964B          MOV       *-SP[11],AL           ; [CPU_ALU] |918| 
    2520                      .dwpsn  file "C:/ti/Workspace/PLC_certificate/Software/uCOS-II/Source/os_flag.c",line 919,column 18,i
    2521 0000039d 611F          B         $C$L94,EQ             ; [CPU_ALU] |919| 
    2522                      ; branchcc occurs ; [] |919| 
    2523                      .dwpsn  file "C:/ti/Workspace/PLC_certificate/Software/uCOS-II/Source/os_flag.c",line 920,column 22,i
    2524 0000039e 8A46          MOVL      XAR4,*-SP[6]          ; [CPU_ALU] |920| 
    2525 0000039f 9B00          MOVB      AH,#0                 ; [CPU_ALU] |920| 
    2526              $C$DW$153       .dwtag  DW_TAG_TI_branch
    2527                      .dwattr $C$DW$153, DW_AT_low_pc(0x00)
    2528                      .dwattr $C$DW$153, DW_AT_name("_OS_FlagTaskRdy")
    2529                      .dwattr $C$DW$153, DW_AT_TI_call
    2530              
    2531 000003a0 7640'         LCR       #_OS_FlagTaskRdy      ; [CPU_ALU] |920| 
         000003a1 0491 
    2532                      ; call occurs [#_OS_FlagTaskRdy] ; [] |920| 
    2533 000003a2 964C          MOV       *-SP[12],AL           ; [CPU_ALU] |920| 
    2534                      .dwpsn  file "C:/ti/Workspace/PLC_certificate/Software/uCOS-II/Source/os_flag.c",line 921,column 22,i
    2535 000003a3 5201          CMPB      AL,#1                 ; [CPU_ALU] |921| 
    2536 000003a4 6018          B         $C$L94,NEQ            ; [CPU_ALU] |921| 
    2537                      ; branchcc occurs ; [] |921| 
    2538                      .dwpsn  file "C:/ti/Workspace/PLC_certificate/Software/uCOS-II/Source/os_flag.c",line 922,column 26,i
    2539 000003a5 56BF          MOVB      *-SP[9],#1,UNC        ; [CPU_ALU] |922| 
         000003a6 0149 
    2540                      .dwpsn  file "C:/ti/Workspace/PLC_certificate/Software/uCOS-II/Source/os_flag.c",line 925,column 18,i
    2541 000003a7 6F15          B         $C$L94,UNC            ; [CPU_ALU] |925| 
    2542                      ; branch occurs ; [] |925| 
    2543 000003a8       $C$L92:    
    2544                      .dwpsn  file "C:/ti/Workspace/PLC_certificate/Software/uCOS-II/Source/os_flag.c",line 928,column 18,i
    2545 000003a8 924D          MOV       AL,*-SP[13]           ; [CPU_ALU] |928| 
    2546              $C$DW$154       .dwtag  DW_TAG_TI_branch
    2547                      .dwattr $C$DW$154, DW_AT_low_pc(0x00)
    2548                      .dwattr $C$DW$154, DW_AT_name("_OS_CPU_SR_Restore")
    2549                      .dwattr $C$DW$154, DW_AT_TI_call
    2550              
    2551 000003a9 7640!         LCR       #_OS_CPU_SR_Restore   ; [CPU_ALU] |928| 
         000003aa 0000 
    2552                      ; call occurs [#_OS_CPU_SR_Restore] ; [] |928| 
    2553                      .dwpsn  file "C:/ti/Workspace/PLC_certificate/Software/uCOS-II/Source/os_flag.c",line 929,column 18,i
    2554 000003ab 8A44          MOVL      XAR4,*-SP[4]          ; [CPU_ALU] |929| 
    2555 000003ac 56BF          MOVB      *+XAR4[0],#111,UNC    ; [CPU_ALU] |929| 
         000003ad 6FC4 
    2556                      .dwpsn  file "C:/ti/Workspace/PLC_certificate/Software/uCOS-II/Source/os_flag.c",line 930,column 18,i
    2557 000003ae 9A00          MOVB      AL,#0                 ; [CPU_ALU] |930| 
    2558 000003af 6F26          B         $C$L97,UNC            ; [CPU_ALU] |930| 
    2559                      ; branch occurs ; [] |930| 
    2560 000003b0       $C$L93:    
    2561                      .dwpsn  file "C:/ti/Workspace/PLC_certificate/Software/uCOS-II/Source/os_flag.c",line 885,column 9,is
    2562 000003b0 0209          MOVB      ACC,#9                ; [CPU_ALU] |885| 
    2563 000003b1 0746          ADDL      ACC,*-SP[6]           ; [CPU_ALU] |885| 
    2564 000003b2 8AA9          MOVL      XAR4,ACC              ; [CPU_ALU] |885| 
    2565 000003b3 92C4          MOV       AL,*+XAR4[0]          ; [CPU_ALU] |885| 
TMS320C2000 Assembler PC v20.2.1 Tue Feb 16 00:15:58 2021

Copyright (c) 1996-2018 Texas Instruments Incorporated
os_flag.asm                                                          PAGE   50

    2566 000003b4 61C7          B         $C$L90,EQ             ; [CPU_ALU] |885| 
    2567                      ; branchcc occurs ; [] |885| 
    2568 000003b5 5201          CMPB      AL,#1                 ; [CPU_ALU] |885| 
    2569 000003b6 61DF          B         $C$L91,EQ             ; [CPU_ALU] |885| 
    2570                      ; branchcc occurs ; [] |885| 
    2571 000003b7 5202          CMPB      AL,#2                 ; [CPU_ALU] |885| 
    2572 000003b8 6198          B         $C$L88,EQ             ; [CPU_ALU] |885| 
    2573                      ; branchcc occurs ; [] |885| 
    2574 000003b9 5203          CMPB      AL,#3                 ; [CPU_ALU] |885| 
    2575 000003ba 61AF          B         $C$L89,EQ             ; [CPU_ALU] |885| 
    2576                      ; branchcc occurs ; [] |885| 
    2577 000003bb 6FED          B         $C$L92,UNC            ; [CPU_ALU] |885| 
    2578                      ; branch occurs ; [] |885| 
    2579 000003bc       $C$L94:    
    2580                      .dwpsn  file "C:/ti/Workspace/PLC_certificate/Software/uCOS-II/Source/os_flag.c",line 932,column 9,is
    2581 000003bc 8A46          MOVL      XAR4,*-SP[6]          ; [CPU_ALU] |932| 
    2582 000003bd 06C4          MOVL      ACC,*+XAR4[0]         ; [CPU_ALU] |932| 
    2583 000003be 1E46          MOVL      *-SP[6],ACC           ; [CPU_ALU] |932| 
    2584                      .dwpsn  file "C:/ti/Workspace/PLC_certificate/Software/uCOS-II/Source/os_flag.c",line 884,column 12,i
    2585 000003bf 0646          MOVL      ACC,*-SP[6]           ; [CPU_ALU] |884| 
    2586 000003c0 60F0          B         $C$L93,NEQ            ; [CPU_ALU] |884| 
    2587                      ; branchcc occurs ; [] |884| 
    2588 000003c1       $C$L95:    
    2589                      .dwpsn  file "C:/ti/Workspace/PLC_certificate/Software/uCOS-II/Source/os_flag.c",line 934,column 5,is
    2590 000003c1 924D          MOV       AL,*-SP[13]           ; [CPU_ALU] |934| 
    2591              $C$DW$155       .dwtag  DW_TAG_TI_branch
    2592                      .dwattr $C$DW$155, DW_AT_low_pc(0x00)
    2593                      .dwattr $C$DW$155, DW_AT_name("_OS_CPU_SR_Restore")
    2594                      .dwattr $C$DW$155, DW_AT_TI_call
    2595              
    2596 000003c2 7640!         LCR       #_OS_CPU_SR_Restore   ; [CPU_ALU] |934| 
         000003c3 0000 
    2597                      ; call occurs [#_OS_CPU_SR_Restore] ; [] |934| 
    2598                      .dwpsn  file "C:/ti/Workspace/PLC_certificate/Software/uCOS-II/Source/os_flag.c",line 935,column 5,is
    2599 000003c4 9249          MOV       AL,*-SP[9]            ; [CPU_ALU] |935| 
    2600 000003c5 5201          CMPB      AL,#1                 ; [CPU_ALU] |935| 
    2601 000003c6 6003          B         $C$L96,NEQ            ; [CPU_ALU] |935| 
    2602                      ; branchcc occurs ; [] |935| 
    2603                      .dwpsn  file "C:/ti/Workspace/PLC_certificate/Software/uCOS-II/Source/os_flag.c",line 936,column 9,is
    2604              $C$DW$156       .dwtag  DW_TAG_TI_branch
    2605                      .dwattr $C$DW$156, DW_AT_low_pc(0x00)
    2606                      .dwattr $C$DW$156, DW_AT_name("_OS_Sched")
    2607                      .dwattr $C$DW$156, DW_AT_TI_call
    2608              
    2609 000003c7 7640!         LCR       #_OS_Sched            ; [CPU_ALU] |936| 
         000003c8 0000 
    2610                      ; call occurs [#_OS_Sched] ; [] |936| 
    2611 000003c9       $C$L96:    
    2612                      .dwpsn  file "C:/ti/Workspace/PLC_certificate/Software/uCOS-II/Source/os_flag.c",line 938,column 5,is
    2613              $C$DW$157       .dwtag  DW_TAG_TI_branch
    2614                      .dwattr $C$DW$157, DW_AT_low_pc(0x00)
    2615                      .dwattr $C$DW$157, DW_AT_name("_OS_CPU_SR_Save")
    2616                      .dwattr $C$DW$157, DW_AT_TI_call
    2617              
    2618 000003c9 7640!         LCR       #_OS_CPU_SR_Save      ; [CPU_ALU] |938| 
TMS320C2000 Assembler PC v20.2.1 Tue Feb 16 00:15:58 2021

Copyright (c) 1996-2018 Texas Instruments Incorporated
os_flag.asm                                                          PAGE   51

         000003ca 0000 
    2619                      ; call occurs [#_OS_CPU_SR_Save] ; [] |938| 
    2620 000003cb 964D          MOV       *-SP[13],AL           ; [CPU_ALU] |938| 
    2621                      .dwpsn  file "C:/ti/Workspace/PLC_certificate/Software/uCOS-II/Source/os_flag.c",line 939,column 5,is
    2622 000003cc 8A42          MOVL      XAR4,*-SP[2]          ; [CPU_ALU] |939| 
    2623 000003cd 92E4          MOV       AL,*+XAR4[4]          ; [CPU_ALU] |939| 
    2624 000003ce 964A          MOV       *-SP[10],AL           ; [CPU_ALU] |939| 
    2625                      .dwpsn  file "C:/ti/Workspace/PLC_certificate/Software/uCOS-II/Source/os_flag.c",line 940,column 5,is
    2626 000003cf 924D          MOV       AL,*-SP[13]           ; [CPU_ALU] |940| 
    2627              $C$DW$158       .dwtag  DW_TAG_TI_branch
    2628                      .dwattr $C$DW$158, DW_AT_low_pc(0x00)
    2629                      .dwattr $C$DW$158, DW_AT_name("_OS_CPU_SR_Restore")
    2630                      .dwattr $C$DW$158, DW_AT_TI_call
    2631              
    2632 000003d0 7640!         LCR       #_OS_CPU_SR_Restore   ; [CPU_ALU] |940| 
         000003d1 0000 
    2633                      ; call occurs [#_OS_CPU_SR_Restore] ; [] |940| 
    2634                      .dwpsn  file "C:/ti/Workspace/PLC_certificate/Software/uCOS-II/Source/os_flag.c",line 941,column 5,is
    2635 000003d2 8A44          MOVL      XAR4,*-SP[4]          ; [CPU_ALU] |941| 
    2636 000003d3 2BC4          MOV       *+XAR4[0],#0          ; [CPU_ALU] |941| 
    2637                      .dwpsn  file "C:/ti/Workspace/PLC_certificate/Software/uCOS-II/Source/os_flag.c",line 942,column 5,is
    2638 000003d4 924A          MOV       AL,*-SP[10]           ; [CPU_ALU] |942| 
    2639 000003d5       $C$L97:    
    2640                      .dwpsn  file "C:/ti/Workspace/PLC_certificate/Software/uCOS-II/Source/os_flag.c",line 943,column 1,is
    2641 000003d5 FE8E          SUBB      SP,#14                ; [CPU_ARAU] 
    2642                      .dwcfi  cfa_offset, -2
    2643              $C$DW$159       .dwtag  DW_TAG_TI_branch
    2644                      .dwattr $C$DW$159, DW_AT_low_pc(0x00)
    2645                      .dwattr $C$DW$159, DW_AT_TI_return
    2646              
    2647 000003d6 0006          LRETR     ; [CPU_ALU] 
    2648                      ; return occurs ; [] 
    2649                      .dwattr $C$DW$133, DW_AT_TI_end_file("C:/ti/Workspace/PLC_certificate/Software/uCOS-II/Source/os_flag
    2650                      .dwattr $C$DW$133, DW_AT_TI_end_line(0x3af)
    2651                      .dwattr $C$DW$133, DW_AT_TI_end_column(0x01)
    2652                      .dwendentry
    2653                      .dwendtag $C$DW$133
    2654              
    2655 000003d7               .sect   ".text"
    2656                      .clink
    2657                      .global _OSFlagQuery
    2658              
    2659              $C$DW$160       .dwtag  DW_TAG_subprogram
    2660                      .dwattr $C$DW$160, DW_AT_name("OSFlagQuery")
    2661                      .dwattr $C$DW$160, DW_AT_low_pc(_OSFlagQuery)
    2662                      .dwattr $C$DW$160, DW_AT_high_pc(0x00)
    2663                      .dwattr $C$DW$160, DW_AT_TI_symbol_name("_OSFlagQuery")
    2664                      .dwattr $C$DW$160, DW_AT_external
    2665                      .dwattr $C$DW$160, DW_AT_type(*$C$DW$T$25)
    2666                      .dwattr $C$DW$160, DW_AT_TI_begin_file("C:/ti/Workspace/PLC_certificate/Software/uCOS-II/Source/os_fl
    2667                      .dwattr $C$DW$160, DW_AT_TI_begin_line(0x3c5)
    2668                      .dwattr $C$DW$160, DW_AT_TI_begin_column(0x0b)
    2669                      .dwattr $C$DW$160, DW_AT_TI_max_frame_size(-8)
    2670                      .dwpsn  file "C:/ti/Workspace/PLC_certificate/Software/uCOS-II/Source/os_flag.c",line 967,column 1,is
    2671              
TMS320C2000 Assembler PC v20.2.1 Tue Feb 16 00:15:58 2021

Copyright (c) 1996-2018 Texas Instruments Incorporated
os_flag.asm                                                          PAGE   52

    2672                      .dwfde $C$DW$CIE, _OSFlagQuery
    2673              $C$DW$161       .dwtag  DW_TAG_formal_parameter
    2674                      .dwattr $C$DW$161, DW_AT_name("pgrp")
    2675                      .dwattr $C$DW$161, DW_AT_TI_symbol_name("_pgrp")
    2676                      .dwattr $C$DW$161, DW_AT_type(*$C$DW$T$47)
    2677                      .dwattr $C$DW$161, DW_AT_location[DW_OP_reg12]
    2678              
    2679              $C$DW$162       .dwtag  DW_TAG_formal_parameter
    2680                      .dwattr $C$DW$162, DW_AT_name("perr")
    2681                      .dwattr $C$DW$162, DW_AT_TI_symbol_name("_perr")
    2682                      .dwattr $C$DW$162, DW_AT_type(*$C$DW$T$23)
    2683                      .dwattr $C$DW$162, DW_AT_location[DW_OP_reg14]
    2684              
    2685              
    2686              ;***************************************************************
    2687              ;* FNAME: _OSFlagQuery                  FR SIZE:   6           *
    2688              ;*                                                             *
    2689              ;* FUNCTION ENVIRONMENT                                        *
    2690              ;*                                                             *
    2691              ;* FUNCTION PROPERTIES                                         *
    2692              ;*                            0 Parameter,  6 Auto,  0 SOE     *
    2693              ;***************************************************************
    2694              
    2695 000003d7       _OSFlagQuery:
    2696                      .dwcfi  cfa_offset, -2
    2697                      .dwcfi  save_reg_to_mem, 26, 0
    2698 000003d7 FE06          ADDB      SP,#6                 ; [CPU_ARAU] 
    2699                      .dwcfi  cfa_offset, -8
    2700              $C$DW$163       .dwtag  DW_TAG_variable
    2701                      .dwattr $C$DW$163, DW_AT_name("pgrp")
    2702                      .dwattr $C$DW$163, DW_AT_TI_symbol_name("_pgrp")
    2703                      .dwattr $C$DW$163, DW_AT_type(*$C$DW$T$47)
    2704                      .dwattr $C$DW$163, DW_AT_location[DW_OP_breg20 -2]
    2705              
    2706              $C$DW$164       .dwtag  DW_TAG_variable
    2707                      .dwattr $C$DW$164, DW_AT_name("perr")
    2708                      .dwattr $C$DW$164, DW_AT_TI_symbol_name("_perr")
    2709                      .dwattr $C$DW$164, DW_AT_type(*$C$DW$T$23)
    2710                      .dwattr $C$DW$164, DW_AT_location[DW_OP_breg20 -4]
    2711              
    2712              $C$DW$165       .dwtag  DW_TAG_variable
    2713                      .dwattr $C$DW$165, DW_AT_name("flags")
    2714                      .dwattr $C$DW$165, DW_AT_TI_symbol_name("_flags")
    2715                      .dwattr $C$DW$165, DW_AT_type(*$C$DW$T$25)
    2716                      .dwattr $C$DW$165, DW_AT_location[DW_OP_breg20 -5]
    2717              
    2718              $C$DW$166       .dwtag  DW_TAG_variable
    2719                      .dwattr $C$DW$166, DW_AT_name("cpu_sr")
    2720                      .dwattr $C$DW$166, DW_AT_TI_symbol_name("_cpu_sr")
    2721                      .dwattr $C$DW$166, DW_AT_type(*$C$DW$T$39)
    2722                      .dwattr $C$DW$166, DW_AT_location[DW_OP_breg20 -6]
    2723              
    2724 000003d8 A044          MOVL      *-SP[4],XAR5          ; [CPU_ALU] |967| 
    2725 000003d9 A842          MOVL      *-SP[2],XAR4          ; [CPU_ALU] |967| 
    2726                      .dwpsn  file "C:/ti/Workspace/PLC_certificate/Software/uCOS-II/Source/os_flag.c",line 970,column 23,i
TMS320C2000 Assembler PC v20.2.1 Tue Feb 16 00:15:58 2021

Copyright (c) 1996-2018 Texas Instruments Incorporated
os_flag.asm                                                          PAGE   53

    2727 000003da 2B46          MOV       *-SP[6],#0            ; [CPU_ALU] |970| 
    2728                      .dwpsn  file "C:/ti/Workspace/PLC_certificate/Software/uCOS-II/Source/os_flag.c",line 983,column 5,is
    2729 000003db 0642          MOVL      ACC,*-SP[2]           ; [CPU_ALU] |983| 
    2730 000003dc 6006          B         $C$L98,NEQ            ; [CPU_ALU] |983| 
    2731                      ; branchcc occurs ; [] |983| 
    2732                      .dwpsn  file "C:/ti/Workspace/PLC_certificate/Software/uCOS-II/Source/os_flag.c",line 984,column 9,is
    2733 000003dd 8A44          MOVL      XAR4,*-SP[4]          ; [CPU_ALU] |984| 
    2734 000003de 56BF          MOVB      *+XAR4[0],#110,UNC    ; [CPU_ALU] |984| 
         000003df 6EC4 
    2735                      .dwpsn  file "C:/ti/Workspace/PLC_certificate/Software/uCOS-II/Source/os_flag.c",line 985,column 9,is
    2736 000003e0 9A00          MOVB      AL,#0                 ; [CPU_ALU] |985| 
    2737 000003e1 6F15          B         $C$L100,UNC           ; [CPU_ALU] |985| 
    2738                      ; branch occurs ; [] |985| 
    2739 000003e2       $C$L98:    
    2740                      .dwpsn  file "C:/ti/Workspace/PLC_certificate/Software/uCOS-II/Source/os_flag.c",line 988,column 5,is
    2741 000003e2 92C4          MOV       AL,*+XAR4[0]          ; [CPU_ALU] |988| 
    2742 000003e3 5205          CMPB      AL,#5                 ; [CPU_ALU] |988| 
    2743 000003e4 6106          B         $C$L99,EQ             ; [CPU_ALU] |988| 
    2744                      ; branchcc occurs ; [] |988| 
    2745                      .dwpsn  file "C:/ti/Workspace/PLC_certificate/Software/uCOS-II/Source/os_flag.c",line 989,column 9,is
    2746 000003e5 8A44          MOVL      XAR4,*-SP[4]          ; [CPU_ALU] |989| 
    2747 000003e6 56BF          MOVB      *+XAR4[0],#1,UNC      ; [CPU_ALU] |989| 
         000003e7 01C4 
    2748                      .dwpsn  file "C:/ti/Workspace/PLC_certificate/Software/uCOS-II/Source/os_flag.c",line 990,column 9,is
    2749 000003e8 9A00          MOVB      AL,#0                 ; [CPU_ALU] |990| 
    2750 000003e9 6F0D          B         $C$L100,UNC           ; [CPU_ALU] |990| 
    2751                      ; branch occurs ; [] |990| 
    2752 000003ea       $C$L99:    
    2753                      .dwpsn  file "C:/ti/Workspace/PLC_certificate/Software/uCOS-II/Source/os_flag.c",line 992,column 5,is
    2754              $C$DW$167       .dwtag  DW_TAG_TI_branch
    2755                      .dwattr $C$DW$167, DW_AT_low_pc(0x00)
    2756                      .dwattr $C$DW$167, DW_AT_name("_OS_CPU_SR_Save")
    2757                      .dwattr $C$DW$167, DW_AT_TI_call
    2758              
    2759 000003ea 7640!         LCR       #_OS_CPU_SR_Save      ; [CPU_ALU] |992| 
         000003eb 0000 
    2760                      ; call occurs [#_OS_CPU_SR_Save] ; [] |992| 
    2761 000003ec 9646          MOV       *-SP[6],AL            ; [CPU_ALU] |992| 
    2762                      .dwpsn  file "C:/ti/Workspace/PLC_certificate/Software/uCOS-II/Source/os_flag.c",line 993,column 5,is
    2763 000003ed 8A42          MOVL      XAR4,*-SP[2]          ; [CPU_ALU] |993| 
    2764 000003ee 92E4          MOV       AL,*+XAR4[4]          ; [CPU_ALU] |993| 
    2765 000003ef 9645          MOV       *-SP[5],AL            ; [CPU_ALU] |993| 
    2766                      .dwpsn  file "C:/ti/Workspace/PLC_certificate/Software/uCOS-II/Source/os_flag.c",line 994,column 5,is
    2767 000003f0 9246          MOV       AL,*-SP[6]            ; [CPU_ALU] |994| 
    2768              $C$DW$168       .dwtag  DW_TAG_TI_branch
    2769                      .dwattr $C$DW$168, DW_AT_low_pc(0x00)
    2770                      .dwattr $C$DW$168, DW_AT_name("_OS_CPU_SR_Restore")
    2771                      .dwattr $C$DW$168, DW_AT_TI_call
    2772              
    2773 000003f1 7640!         LCR       #_OS_CPU_SR_Restore   ; [CPU_ALU] |994| 
         000003f2 0000 
    2774                      ; call occurs [#_OS_CPU_SR_Restore] ; [] |994| 
    2775                      .dwpsn  file "C:/ti/Workspace/PLC_certificate/Software/uCOS-II/Source/os_flag.c",line 995,column 5,is
    2776 000003f3 8A44          MOVL      XAR4,*-SP[4]          ; [CPU_ALU] |995| 
    2777 000003f4 2BC4          MOV       *+XAR4[0],#0          ; [CPU_ALU] |995| 
TMS320C2000 Assembler PC v20.2.1 Tue Feb 16 00:15:58 2021

Copyright (c) 1996-2018 Texas Instruments Incorporated
os_flag.asm                                                          PAGE   54

    2778                      .dwpsn  file "C:/ti/Workspace/PLC_certificate/Software/uCOS-II/Source/os_flag.c",line 996,column 5,is
    2779 000003f5 9245          MOV       AL,*-SP[5]            ; [CPU_ALU] |996| 
    2780 000003f6       $C$L100:    
    2781                      .dwpsn  file "C:/ti/Workspace/PLC_certificate/Software/uCOS-II/Source/os_flag.c",line 997,column 1,is
    2782 000003f6 FE86          SUBB      SP,#6                 ; [CPU_ARAU] 
    2783                      .dwcfi  cfa_offset, -2
    2784              $C$DW$169       .dwtag  DW_TAG_TI_branch
    2785                      .dwattr $C$DW$169, DW_AT_low_pc(0x00)
    2786                      .dwattr $C$DW$169, DW_AT_TI_return
    2787              
    2788 000003f7 0006          LRETR     ; [CPU_ALU] 
    2789                      ; return occurs ; [] 
    2790                      .dwattr $C$DW$160, DW_AT_TI_end_file("C:/ti/Workspace/PLC_certificate/Software/uCOS-II/Source/os_flag
    2791                      .dwattr $C$DW$160, DW_AT_TI_end_line(0x3e5)
    2792                      .dwattr $C$DW$160, DW_AT_TI_end_column(0x01)
    2793                      .dwendentry
    2794                      .dwendtag $C$DW$160
    2795              
    2796 000003f8               .sect   ".text"
    2797                      .clink
    2798              
    2799              $C$DW$170       .dwtag  DW_TAG_subprogram
    2800                      .dwattr $C$DW$170, DW_AT_name("OS_FlagBlock")
    2801                      .dwattr $C$DW$170, DW_AT_low_pc(_OS_FlagBlock)
    2802                      .dwattr $C$DW$170, DW_AT_high_pc(0x00)
    2803                      .dwattr $C$DW$170, DW_AT_TI_symbol_name("_OS_FlagBlock")
    2804                      .dwattr $C$DW$170, DW_AT_TI_begin_file("C:/ti/Workspace/PLC_certificate/Software/uCOS-II/Source/os_fl
    2805                      .dwattr $C$DW$170, DW_AT_TI_begin_line(0x40e)
    2806                      .dwattr $C$DW$170, DW_AT_TI_begin_column(0x0f)
    2807                      .dwattr $C$DW$170, DW_AT_TI_max_frame_size(-12)
    2808                      .dwpsn  file "C:/ti/Workspace/PLC_certificate/Software/uCOS-II/Source/os_flag.c",line 1043,column 1,i
    2809              
    2810                      .dwfde $C$DW$CIE, _OS_FlagBlock
    2811              $C$DW$171       .dwtag  DW_TAG_formal_parameter
    2812                      .dwattr $C$DW$171, DW_AT_name("pgrp")
    2813                      .dwattr $C$DW$171, DW_AT_TI_symbol_name("_pgrp")
    2814                      .dwattr $C$DW$171, DW_AT_type(*$C$DW$T$47)
    2815                      .dwattr $C$DW$171, DW_AT_location[DW_OP_reg12]
    2816              
    2817              $C$DW$172       .dwtag  DW_TAG_formal_parameter
    2818                      .dwattr $C$DW$172, DW_AT_name("pnode")
    2819                      .dwattr $C$DW$172, DW_AT_TI_symbol_name("_pnode")
    2820                      .dwattr $C$DW$172, DW_AT_type(*$C$DW$T$36)
    2821                      .dwattr $C$DW$172, DW_AT_location[DW_OP_reg14]
    2822              
    2823              $C$DW$173       .dwtag  DW_TAG_formal_parameter
    2824                      .dwattr $C$DW$173, DW_AT_name("flags")
    2825                      .dwattr $C$DW$173, DW_AT_TI_symbol_name("_flags")
    2826                      .dwattr $C$DW$173, DW_AT_type(*$C$DW$T$25)
    2827                      .dwattr $C$DW$173, DW_AT_location[DW_OP_breg20 -13]
    2828              
    2829              $C$DW$174       .dwtag  DW_TAG_formal_parameter
    2830                      .dwattr $C$DW$174, DW_AT_name("wait_type")
    2831                      .dwattr $C$DW$174, DW_AT_TI_symbol_name("_wait_type")
    2832                      .dwattr $C$DW$174, DW_AT_type(*$C$DW$T$19)
TMS320C2000 Assembler PC v20.2.1 Tue Feb 16 00:15:58 2021

Copyright (c) 1996-2018 Texas Instruments Incorporated
os_flag.asm                                                          PAGE   55

    2833                      .dwattr $C$DW$174, DW_AT_location[DW_OP_breg20 -14]
    2834              
    2835              $C$DW$175       .dwtag  DW_TAG_formal_parameter
    2836                      .dwattr $C$DW$175, DW_AT_name("timeout")
    2837                      .dwattr $C$DW$175, DW_AT_TI_symbol_name("_timeout")
    2838                      .dwattr $C$DW$175, DW_AT_type(*$C$DW$T$30)
    2839                      .dwattr $C$DW$175, DW_AT_location[DW_OP_reg0]
    2840              
    2841              
    2842              ;***************************************************************
    2843              ;* FNAME: _OS_FlagBlock                 FR SIZE:  10           *
    2844              ;*                                                             *
    2845              ;* FUNCTION ENVIRONMENT                                        *
    2846              ;*                                                             *
    2847              ;* FUNCTION PROPERTIES                                         *
    2848              ;*                            0 Parameter,  9 Auto,  0 SOE     *
    2849              ;***************************************************************
    2850              
    2851 000003f8       _OS_FlagBlock:
    2852                      .dwcfi  cfa_offset, -2
    2853                      .dwcfi  save_reg_to_mem, 26, 0
    2854 000003f8 FE0A          ADDB      SP,#10                ; [CPU_ARAU] 
    2855                      .dwcfi  cfa_offset, -12
    2856              $C$DW$176       .dwtag  DW_TAG_variable
    2857                      .dwattr $C$DW$176, DW_AT_name("pgrp")
    2858                      .dwattr $C$DW$176, DW_AT_TI_symbol_name("_pgrp")
    2859                      .dwattr $C$DW$176, DW_AT_type(*$C$DW$T$47)
    2860                      .dwattr $C$DW$176, DW_AT_location[DW_OP_breg20 -2]
    2861              
    2862              $C$DW$177       .dwtag  DW_TAG_variable
    2863                      .dwattr $C$DW$177, DW_AT_name("pnode")
    2864                      .dwattr $C$DW$177, DW_AT_TI_symbol_name("_pnode")
    2865                      .dwattr $C$DW$177, DW_AT_type(*$C$DW$T$36)
    2866                      .dwattr $C$DW$177, DW_AT_location[DW_OP_breg20 -4]
    2867              
    2868              $C$DW$178       .dwtag  DW_TAG_variable
    2869                      .dwattr $C$DW$178, DW_AT_name("timeout")
    2870                      .dwattr $C$DW$178, DW_AT_TI_symbol_name("_timeout")
    2871                      .dwattr $C$DW$178, DW_AT_type(*$C$DW$T$30)
    2872                      .dwattr $C$DW$178, DW_AT_location[DW_OP_breg20 -6]
    2873              
    2874              $C$DW$179       .dwtag  DW_TAG_variable
    2875                      .dwattr $C$DW$179, DW_AT_name("pnode_next")
    2876                      .dwattr $C$DW$179, DW_AT_TI_symbol_name("_pnode_next")
    2877                      .dwattr $C$DW$179, DW_AT_type(*$C$DW$T$36)
    2878                      .dwattr $C$DW$179, DW_AT_location[DW_OP_breg20 -8]
    2879              
    2880              $C$DW$180       .dwtag  DW_TAG_variable
    2881                      .dwattr $C$DW$180, DW_AT_name("y")
    2882                      .dwattr $C$DW$180, DW_AT_TI_symbol_name("_y")
    2883                      .dwattr $C$DW$180, DW_AT_type(*$C$DW$T$19)
    2884                      .dwattr $C$DW$180, DW_AT_location[DW_OP_breg20 -9]
    2885              
    2886 000003f9 1E46          MOVL      *-SP[6],ACC           ; [CPU_ALU] |1043| 
    2887 000003fa A044          MOVL      *-SP[4],XAR5          ; [CPU_ALU] |1043| 
TMS320C2000 Assembler PC v20.2.1 Tue Feb 16 00:15:58 2021

Copyright (c) 1996-2018 Texas Instruments Incorporated
os_flag.asm                                                          PAGE   56

    2888 000003fb A842          MOVL      *-SP[2],XAR4          ; [CPU_ALU] |1043| 
    2889                      .dwpsn  file "C:/ti/Workspace/PLC_certificate/Software/uCOS-II/Source/os_flag.c",line 1048,column 5,i
    2890 000003fc 761F!         MOVW      DP,#_OSTCBCur         ; [CPU_ARAU] 
         000003fd 0000 
    2891 000003fe 021A          MOVB      ACC,#26               ; [CPU_ALU] |1048| 
    2892 000003ff 0700!         ADDL      ACC,@_OSTCBCur        ; [CPU_ALU] |1048| 
    2893 00000400 8AA9          MOVL      XAR4,ACC              ; [CPU_ALU] |1048| 
    2894 00000401 1AC4          OR        *+XAR4[0],#0x0020     ; [CPU_ALU] |1048| 
         00000402 0020 
    2895                      .dwpsn  file "C:/ti/Workspace/PLC_certificate/Software/uCOS-II/Source/os_flag.c",line 1049,column 5,i
    2896 00000403 021B          MOVB      ACC,#27               ; [CPU_ALU] |1049| 
    2897 00000404 0700!         ADDL      ACC,@_OSTCBCur        ; [CPU_ALU] |1049| 
    2898 00000405 8AA9          MOVL      XAR4,ACC              ; [CPU_ALU] |1049| 
    2899 00000406 2BC4          MOV       *+XAR4[0],#0          ; [CPU_ALU] |1049| 
    2900                      .dwpsn  file "C:/ti/Workspace/PLC_certificate/Software/uCOS-II/Source/os_flag.c",line 1050,column 5,i
    2901 00000407 C446          MOVL      XAR6,*-SP[6]          ; [CPU_ALU] |1050| 
    2902 00000408 0218          MOVB      ACC,#24               ; [CPU_ALU] |1050| 
    2903 00000409 0700!         ADDL      ACC,@_OSTCBCur        ; [CPU_ALU] |1050| 
    2904 0000040a 8AA9          MOVL      XAR4,ACC              ; [CPU_ALU] |1050| 
    2905 0000040b C2C4          MOVL      *+XAR4[0],XAR6        ; [CPU_ALU] |1050| 
    2906                      .dwpsn  file "C:/ti/Workspace/PLC_certificate/Software/uCOS-II/Source/os_flag.c",line 1052,column 5,i
    2907 0000040c C444          MOVL      XAR6,*-SP[4]          ; [CPU_ALU] |1052| 
    2908 0000040d 0214          MOVB      ACC,#20               ; [CPU_ALU] |1052| 
    2909 0000040e 0700!         ADDL      ACC,@_OSTCBCur        ; [CPU_ALU] |1052| 
    2910 0000040f 8AA9          MOVL      XAR4,ACC              ; [CPU_ALU] |1052| 
    2911 00000410 C2C4          MOVL      *+XAR4[0],XAR6        ; [CPU_ALU] |1052| 
    2912                      .dwpsn  file "C:/ti/Workspace/PLC_certificate/Software/uCOS-II/Source/os_flag.c",line 1054,column 5,i
    2913 00000411 0208          MOVB      ACC,#8                ; [CPU_ALU] |1054| 
    2914 00000412 0744          ADDL      ACC,*-SP[4]           ; [CPU_ALU] |1054| 
    2915 00000413 1EA7          MOVL      XAR7,ACC              ; [CPU_ALU] |1054| 
    2916 00000414 924D          MOV       AL,*-SP[13]           ; [CPU_ALU] |1054| 
    2917 00000415 96C7          MOV       *+XAR7[0],AL          ; [CPU_ALU] |1054| 
    2918                      .dwpsn  file "C:/ti/Workspace/PLC_certificate/Software/uCOS-II/Source/os_flag.c",line 1055,column 5,i
    2919 00000416 0209          MOVB      ACC,#9                ; [CPU_ALU] |1055| 
    2920 00000417 0744          ADDL      ACC,*-SP[4]           ; [CPU_ALU] |1055| 
    2921 00000418 1EA7          MOVL      XAR7,ACC              ; [CPU_ALU] |1055| 
    2922 00000419 924E          MOV       AL,*-SP[14]           ; [CPU_ALU] |1055| 
    2923 0000041a 96C7          MOV       *+XAR7[0],AL          ; [CPU_ALU] |1055| 
    2924                      .dwpsn  file "C:/ti/Workspace/PLC_certificate/Software/uCOS-II/Source/os_flag.c",line 1056,column 5,i
    2925 0000041b 8A44          MOVL      XAR4,*-SP[4]          ; [CPU_ALU] |1056| 
    2926 0000041c 0600!         MOVL      ACC,@_OSTCBCur        ; [CPU_ALU] |1056| 
    2927 0000041d 1EE4          MOVL      *+XAR4[4],ACC         ; [CPU_ALU] |1056| 
    2928                      .dwpsn  file "C:/ti/Workspace/PLC_certificate/Software/uCOS-II/Source/os_flag.c",line 1057,column 5,i
    2929 0000041e 8A42          MOVL      XAR4,*-SP[2]          ; [CPU_ALU] |1057| 
    2930 0000041f 06D4          MOVL      ACC,*+XAR4[2]         ; [CPU_ALU] |1057| 
    2931 00000420 8A44          MOVL      XAR4,*-SP[4]          ; [CPU_ALU] |1057| 
    2932 00000421 1EC4          MOVL      *+XAR4[0],ACC         ; [CPU_ALU] |1057| 
    2933                      .dwpsn  file "C:/ti/Workspace/PLC_certificate/Software/uCOS-II/Source/os_flag.c",line 1058,column 5,i
    2934 00000422 8A44          MOVL      XAR4,*-SP[4]          ; [CPU_ALU] |1058| 
    2935 00000423 0200          MOVB      ACC,#0                ; [CPU_ALU] |1058| 
    2936 00000424 1ED4          MOVL      *+XAR4[2],ACC         ; [CPU_ALU] |1058| 
    2937                      .dwpsn  file "C:/ti/Workspace/PLC_certificate/Software/uCOS-II/Source/os_flag.c",line 1059,column 5,i
    2938 00000425 8A44          MOVL      XAR4,*-SP[4]          ; [CPU_ALU] |1059| 
    2939 00000426 0642          MOVL      ACC,*-SP[2]           ; [CPU_ALU] |1059| 
    2940 00000427 1EF4          MOVL      *+XAR4[6],ACC         ; [CPU_ALU] |1059| 
TMS320C2000 Assembler PC v20.2.1 Tue Feb 16 00:15:58 2021

Copyright (c) 1996-2018 Texas Instruments Incorporated
os_flag.asm                                                          PAGE   57

    2941                      .dwpsn  file "C:/ti/Workspace/PLC_certificate/Software/uCOS-II/Source/os_flag.c",line 1060,column 5,i
    2942 00000428 8A42          MOVL      XAR4,*-SP[2]          ; [CPU_ALU] |1060| 
    2943 00000429 06D4          MOVL      ACC,*+XAR4[2]         ; [CPU_ALU] |1060| 
    2944 0000042a 1E48          MOVL      *-SP[8],ACC           ; [CPU_ALU] |1060| 
    2945                      .dwpsn  file "C:/ti/Workspace/PLC_certificate/Software/uCOS-II/Source/os_flag.c",line 1061,column 5,i
    2946 0000042b 0648          MOVL      ACC,*-SP[8]           ; [CPU_ALU] |1061| 
    2947 0000042c 6104          B         $C$L101,EQ            ; [CPU_ALU] |1061| 
    2948                      ; branchcc occurs ; [] |1061| 
    2949                      .dwpsn  file "C:/ti/Workspace/PLC_certificate/Software/uCOS-II/Source/os_flag.c",line 1062,column 9,i
    2950 0000042d 8A48          MOVL      XAR4,*-SP[8]          ; [CPU_ALU] |1062| 
    2951 0000042e 0644          MOVL      ACC,*-SP[4]           ; [CPU_ALU] |1062| 
    2952 0000042f 1ED4          MOVL      *+XAR4[2],ACC         ; [CPU_ALU] |1062| 
    2953 00000430       $C$L101:    
    2954                      .dwpsn  file "C:/ti/Workspace/PLC_certificate/Software/uCOS-II/Source/os_flag.c",line 1064,column 5,i
    2955 00000430 8A42          MOVL      XAR4,*-SP[2]          ; [CPU_ALU] |1064| 
    2956 00000431 0644          MOVL      ACC,*-SP[4]           ; [CPU_ALU] |1064| 
    2957 00000432 1ED4          MOVL      *+XAR4[2],ACC         ; [CPU_ALU] |1064| 
    2958                      .dwpsn  file "C:/ti/Workspace/PLC_certificate/Software/uCOS-II/Source/os_flag.c",line 1066,column 5,i
    2959 00000433 021E          MOVB      ACC,#30               ; [CPU_ALU] |1066| 
    2960 00000434 0700!         ADDL      ACC,@_OSTCBCur        ; [CPU_ALU] |1066| 
    2961 00000435 1EA7          MOVL      XAR7,ACC              ; [CPU_ALU] |1066| 
    2962 00000436 92C7          MOV       AL,*+XAR7[0]          ; [CPU_ALU] |1066| 
    2963 00000437 9649          MOV       *-SP[9],AL            ; [CPU_ALU] |1066| 
    2964                      .dwpsn  file "C:/ti/Workspace/PLC_certificate/Software/uCOS-II/Source/os_flag.c",line 1067,column 5,i
    2965 00000438 8F00!         MOVL      XAR4,#_OSRdyTbl       ; [CPU_ARAU] |1067| 
         00000439 0000 
    2966 0000043a A8A9          MOVL      ACC,XAR4              ; [CPU_ALU] |1067| 
    2967 0000043b 0D49          ADDU      ACC,*-SP[9]           ; [CPU_ALU] |1067| 
    2968 0000043c 83A9          MOVL      XAR5,ACC              ; [CPU_ALU] |1067| 
    2969 0000043d 021F          MOVB      ACC,#31               ; [CPU_ALU] |1067| 
    2970 0000043e 0700!         ADDL      ACC,@_OSTCBCur        ; [CPU_ALU] |1067| 
    2971 0000043f 8AA9          MOVL      XAR4,ACC              ; [CPU_ALU] |1067| 
    2972 00000440 92C4          MOV       AL,*+XAR4[0]          ; [CPU_ALU] |1067| 
    2973 00000441 FF5E          NOT       AL                    ; [CPU_ALU] |1067| 
    2974 00000442 C0C5          AND       *+XAR5[0],AL          ; [CPU_ALU] |1067| 
    2975                      .dwpsn  file "C:/ti/Workspace/PLC_certificate/Software/uCOS-II/Source/os_flag.c",line 1068,column 5,i
    2976 00000443 5849          MOVZ      AR0,*-SP[9]           ; [CPU_ALU] |1068| 
    2977 00000444 8F00!         MOVL      XAR4,#_OSRdyTbl       ; [CPU_ARAU] |1068| 
         00000445 0000 
    2978 00000446 9294          MOV       AL,*+XAR4[AR0]        ; [CPU_ALU] |1068| 
    2979 00000447 6009          B         $C$L102,NEQ           ; [CPU_ALU] |1068| 
    2980                      ; branchcc occurs ; [] |1068| 
    2981                      .dwpsn  file "C:/ti/Workspace/PLC_certificate/Software/uCOS-II/Source/os_flag.c",line 1069,column 9,i
    2982 00000448 0220          MOVB      ACC,#32               ; [CPU_ALU] |1069| 
    2983 00000449 0700!         ADDL      ACC,@_OSTCBCur        ; [CPU_ALU] |1069| 
    2984 0000044a 8AA9          MOVL      XAR4,ACC              ; [CPU_ALU] |1069| 
    2985 0000044b 761F!         MOVW      DP,#_OSRdyGrp         ; [CPU_ARAU] 
         0000044c 0000 
    2986 0000044d 92C4          MOV       AL,*+XAR4[0]          ; [CPU_ALU] |1069| 
    2987 0000044e FF5E          NOT       AL                    ; [CPU_ALU] |1069| 
    2988 0000044f C000!         AND       @_OSRdyGrp,AL         ; [CPU_ALU] |1069| 
    2989                      .dwpsn  file "C:/ti/Workspace/PLC_certificate/Software/uCOS-II/Source/os_flag.c",line 1071,column 1,i
    2990 00000450       $C$L102:    
    2991 00000450 FE8A          SUBB      SP,#10                ; [CPU_ARAU] 
    2992                      .dwcfi  cfa_offset, -2
TMS320C2000 Assembler PC v20.2.1 Tue Feb 16 00:15:58 2021

Copyright (c) 1996-2018 Texas Instruments Incorporated
os_flag.asm                                                          PAGE   58

    2993              $C$DW$181       .dwtag  DW_TAG_TI_branch
    2994                      .dwattr $C$DW$181, DW_AT_low_pc(0x00)
    2995                      .dwattr $C$DW$181, DW_AT_TI_return
    2996              
    2997 00000451 0006          LRETR     ; [CPU_ALU] 
    2998                      ; return occurs ; [] 
    2999                      .dwattr $C$DW$170, DW_AT_TI_end_file("C:/ti/Workspace/PLC_certificate/Software/uCOS-II/Source/os_flag
    3000                      .dwattr $C$DW$170, DW_AT_TI_end_line(0x42f)
    3001                      .dwattr $C$DW$170, DW_AT_TI_end_column(0x01)
    3002                      .dwendentry
    3003                      .dwendtag $C$DW$170
    3004              
    3005 00000452               .sect   ".text"
    3006                      .clink
    3007                      .global _OS_FlagInit
    3008              
    3009              $C$DW$182       .dwtag  DW_TAG_subprogram
    3010                      .dwattr $C$DW$182, DW_AT_name("OS_FlagInit")
    3011                      .dwattr $C$DW$182, DW_AT_low_pc(_OS_FlagInit)
    3012                      .dwattr $C$DW$182, DW_AT_high_pc(0x00)
    3013                      .dwattr $C$DW$182, DW_AT_TI_symbol_name("_OS_FlagInit")
    3014                      .dwattr $C$DW$182, DW_AT_external
    3015                      .dwattr $C$DW$182, DW_AT_TI_begin_file("C:/ti/Workspace/PLC_certificate/Software/uCOS-II/Source/os_fl
    3016                      .dwattr $C$DW$182, DW_AT_TI_begin_line(0x441)
    3017                      .dwattr $C$DW$182, DW_AT_TI_begin_column(0x07)
    3018                      .dwattr $C$DW$182, DW_AT_TI_max_frame_size(-8)
    3019                      .dwpsn  file "C:/ti/Workspace/PLC_certificate/Software/uCOS-II/Source/os_flag.c",line 1090,column 1,i
    3020              
    3021                      .dwfde $C$DW$CIE, _OS_FlagInit
    3022              
    3023              ;***************************************************************
    3024              ;* FNAME: _OS_FlagInit                  FR SIZE:   6           *
    3025              ;*                                                             *
    3026              ;* FUNCTION ENVIRONMENT                                        *
    3027              ;*                                                             *
    3028              ;* FUNCTION PROPERTIES                                         *
    3029              ;*                            0 Parameter,  6 Auto,  0 SOE     *
    3030              ;***************************************************************
    3031              
    3032 00000452       _OS_FlagInit:
    3033                      .dwcfi  cfa_offset, -2
    3034                      .dwcfi  save_reg_to_mem, 26, 0
    3035 00000452 FE06          ADDB      SP,#6                 ; [CPU_ARAU] 
    3036                      .dwcfi  cfa_offset, -8
    3037              $C$DW$183       .dwtag  DW_TAG_variable
    3038                      .dwattr $C$DW$183, DW_AT_name("pgrp1")
    3039                      .dwattr $C$DW$183, DW_AT_TI_symbol_name("_pgrp1")
    3040                      .dwattr $C$DW$183, DW_AT_type(*$C$DW$T$47)
    3041                      .dwattr $C$DW$183, DW_AT_location[DW_OP_breg20 -2]
    3042              
    3043              $C$DW$184       .dwtag  DW_TAG_variable
    3044                      .dwattr $C$DW$184, DW_AT_name("pgrp2")
    3045                      .dwattr $C$DW$184, DW_AT_TI_symbol_name("_pgrp2")
    3046                      .dwattr $C$DW$184, DW_AT_type(*$C$DW$T$47)
    3047                      .dwattr $C$DW$184, DW_AT_location[DW_OP_breg20 -4]
TMS320C2000 Assembler PC v20.2.1 Tue Feb 16 00:15:58 2021

Copyright (c) 1996-2018 Texas Instruments Incorporated
os_flag.asm                                                          PAGE   59

    3048              
    3049              $C$DW$185       .dwtag  DW_TAG_variable
    3050                      .dwattr $C$DW$185, DW_AT_name("ix")
    3051                      .dwattr $C$DW$185, DW_AT_TI_symbol_name("_ix")
    3052                      .dwattr $C$DW$185, DW_AT_type(*$C$DW$T$20)
    3053                      .dwattr $C$DW$185, DW_AT_location[DW_OP_breg20 -5]
    3054              
    3055              $C$DW$186       .dwtag  DW_TAG_variable
    3056                      .dwattr $C$DW$186, DW_AT_name("ix_next")
    3057                      .dwattr $C$DW$186, DW_AT_TI_symbol_name("_ix_next")
    3058                      .dwattr $C$DW$186, DW_AT_type(*$C$DW$T$20)
    3059                      .dwattr $C$DW$186, DW_AT_location[DW_OP_breg20 -6]
    3060              
    3061                      .dwpsn  file "C:/ti/Workspace/PLC_certificate/Software/uCOS-II/Source/os_flag.c",line 1108,column 5,i
    3062 00000453 8F00!         MOVL      XAR4,#_OSFlagTbl      ; [CPU_ARAU] |1108| 
         00000454 0000 
    3063 00000455 9A28          MOVB      AL,#40                ; [CPU_ALU] |1108| 
    3064              $C$DW$187       .dwtag  DW_TAG_TI_branch
    3065                      .dwattr $C$DW$187, DW_AT_low_pc(0x00)
    3066                      .dwattr $C$DW$187, DW_AT_name("_OS_MemClr")
    3067                      .dwattr $C$DW$187, DW_AT_TI_call
    3068              
    3069 00000456 7640!         LCR       #_OS_MemClr           ; [CPU_ALU] |1108| 
         00000457 0000 
    3070                      ; call occurs [#_OS_MemClr] ; [] |1108| 
    3071                      .dwpsn  file "C:/ti/Workspace/PLC_certificate/Software/uCOS-II/Source/os_flag.c",line 1109,column 10,
    3072 00000458 2B45          MOV       *-SP[5],#0            ; [CPU_ALU] |1109| 
    3073                      .dwpsn  file "C:/ti/Workspace/PLC_certificate/Software/uCOS-II/Source/os_flag.c",line 1109,column 19,
    3074 00000459 9245          MOV       AL,*-SP[5]            ; [CPU_ALU] |1109| 
    3075 0000045a 5204          CMPB      AL,#4                 ; [CPU_ALU] |1109| 
    3076 0000045b 671F          B         $C$L104,HIS           ; [CPU_ALU] |1109| 
    3077                      ; branchcc occurs ; [] |1109| 
    3078 0000045c 2901          CLRC      SXM                   ; [CPU_ALU] 
    3079 0000045d       $C$L103:    
    3080                      .dwpsn  file "C:/ti/Workspace/PLC_certificate/Software/uCOS-II/Source/os_flag.c",line 1110,column 9,i
    3081 0000045d 9C01          ADDB      AL,#1                 ; [CPU_ALU] |1110| 
    3082 0000045e 9646          MOV       *-SP[6],AL            ; [CPU_ALU] |1110| 
    3083                      .dwpsn  file "C:/ti/Workspace/PLC_certificate/Software/uCOS-II/Source/os_flag.c",line 1111,column 9,i
    3084 0000045f 8F00!         MOVL      XAR4,#_OSFlagTbl      ; [CPU_ARAU] |1111| 
         00000460 0000 
    3085 00000461 5603          MOV       ACC,*-SP[5] << 3      ; [CPU_ALU] |1111| 
         00000462 0345 
    3086 00000463 5601          ADDL      XAR4,ACC              ; [CPU_ALU] |1111| 
         00000464 00A4 
    3087 00000465 A842          MOVL      *-SP[2],XAR4          ; [CPU_ALU] |1111| 
    3088                      .dwpsn  file "C:/ti/Workspace/PLC_certificate/Software/uCOS-II/Source/os_flag.c",line 1112,column 9,i
    3089 00000466 5603          MOV       ACC,*-SP[6] << 3      ; [CPU_ALU] |1112| 
         00000467 0346 
    3090 00000468 8F00!         MOVL      XAR4,#_OSFlagTbl      ; [CPU_ARAU] |1112| 
         00000469 0000 
    3091 0000046a 5601          ADDL      XAR4,ACC              ; [CPU_ALU] |1112| 
         0000046b 00A4 
    3092 0000046c A844          MOVL      *-SP[4],XAR4          ; [CPU_ALU] |1112| 
    3093                      .dwpsn  file "C:/ti/Workspace/PLC_certificate/Software/uCOS-II/Source/os_flag.c",line 1113,column 9,i
    3094 0000046d 8A42          MOVL      XAR4,*-SP[2]          ; [CPU_ALU] |1113| 
TMS320C2000 Assembler PC v20.2.1 Tue Feb 16 00:15:58 2021

Copyright (c) 1996-2018 Texas Instruments Incorporated
os_flag.asm                                                          PAGE   60

    3095 0000046e 2BC4          MOV       *+XAR4[0],#0          ; [CPU_ALU] |1113| 
    3096                      .dwpsn  file "C:/ti/Workspace/PLC_certificate/Software/uCOS-II/Source/os_flag.c",line 1114,column 9,i
    3097 0000046f 8A42          MOVL      XAR4,*-SP[2]          ; [CPU_ALU] |1114| 
    3098 00000470 0644          MOVL      ACC,*-SP[4]           ; [CPU_ALU] |1114| 
    3099 00000471 1ED4          MOVL      *+XAR4[2],ACC         ; [CPU_ALU] |1114| 
    3100                      .dwpsn  file "C:/ti/Workspace/PLC_certificate/Software/uCOS-II/Source/os_flag.c",line 1116,column 9,i
    3101 00000472 8342          MOVL      XAR5,*-SP[2]          ; [CPU_ALU] |1116| 
    3102 00000473 8F00+         MOVL      XAR4,#$C$FSL1         ; [CPU_ARAU] |1116| 
         00000474 0000 
    3103 00000475 A8F5          MOVL      *+XAR5[6],XAR4        ; [CPU_ALU] |1116| 
    3104                      .dwpsn  file "C:/ti/Workspace/PLC_certificate/Software/uCOS-II/Source/os_flag.c",line 1109,column 45,
    3105 00000476 0A45          INC       *-SP[5]               ; [CPU_ALU] |1109| 
    3106                      .dwpsn  file "C:/ti/Workspace/PLC_certificate/Software/uCOS-II/Source/os_flag.c",line 1109,column 19,
    3107 00000477 9245          MOV       AL,*-SP[5]            ; [CPU_ALU] |1109| 
    3108 00000478 5204          CMPB      AL,#4                 ; [CPU_ALU] |1109| 
    3109 00000479 68E4          B         $C$L103,LO            ; [CPU_ALU] |1109| 
    3110                      ; branchcc occurs ; [] |1109| 
    3111 0000047a       $C$L104:    
    3112                      .dwpsn  file "C:/ti/Workspace/PLC_certificate/Software/uCOS-II/Source/os_flag.c",line 1119,column 5,i
    3113 0000047a 2901          CLRC      SXM                   ; [CPU_ALU] 
    3114 0000047b 8F00!         MOVL      XAR4,#_OSFlagTbl      ; [CPU_ARAU] |1119| 
         0000047c 0000 
    3115 0000047d 5603          MOV       ACC,*-SP[5] << 3      ; [CPU_ALU] |1119| 
         0000047e 0345 
    3116 0000047f 5601          ADDL      XAR4,ACC              ; [CPU_ALU] |1119| 
         00000480 00A4 
    3117 00000481 A842          MOVL      *-SP[2],XAR4          ; [CPU_ALU] |1119| 
    3118                      .dwpsn  file "C:/ti/Workspace/PLC_certificate/Software/uCOS-II/Source/os_flag.c",line 1120,column 5,i
    3119 00000482 2BC4          MOV       *+XAR4[0],#0          ; [CPU_ALU] |1120| 
    3120                      .dwpsn  file "C:/ti/Workspace/PLC_certificate/Software/uCOS-II/Source/os_flag.c",line 1121,column 5,i
    3121 00000483 8A42          MOVL      XAR4,*-SP[2]          ; [CPU_ALU] |1121| 
    3122 00000484 0200          MOVB      ACC,#0                ; [CPU_ALU] |1121| 
    3123 00000485 1ED4          MOVL      *+XAR4[2],ACC         ; [CPU_ALU] |1121| 
    3124                      .dwpsn  file "C:/ti/Workspace/PLC_certificate/Software/uCOS-II/Source/os_flag.c",line 1123,column 5,i
    3125 00000486 8342          MOVL      XAR5,*-SP[2]          ; [CPU_ALU] |1123| 
    3126 00000487 8F00+         MOVL      XAR4,#$C$FSL1         ; [CPU_ARAU] |1123| 
         00000488 0000 
    3127 00000489 A8F5          MOVL      *+XAR5[6],XAR4        ; [CPU_ALU] |1123| 
    3128                      .dwpsn  file "C:/ti/Workspace/PLC_certificate/Software/uCOS-II/Source/os_flag.c",line 1125,column 5,i
    3129 0000048a 761F!         MOVW      DP,#_OSFlagFreeList   ; [CPU_ARAU] 
         0000048b 0000 
    3130 0000048c 8F00!         MOVL      XAR4,#_OSFlagTbl      ; [CPU_ARAU] |1125| 
         0000048d 0000 
    3131 0000048e A800!         MOVL      @_OSFlagFreeList,XAR4 ; [CPU_ALU] |1125| 
    3132                      .dwpsn  file "C:/ti/Workspace/PLC_certificate/Software/uCOS-II/Source/os_flag.c",line 1127,column 1,i
    3133 0000048f FE86          SUBB      SP,#6                 ; [CPU_ARAU] 
    3134                      .dwcfi  cfa_offset, -2
    3135              $C$DW$188       .dwtag  DW_TAG_TI_branch
    3136                      .dwattr $C$DW$188, DW_AT_low_pc(0x00)
    3137                      .dwattr $C$DW$188, DW_AT_TI_return
    3138              
    3139 00000490 0006          LRETR     ; [CPU_ALU] 
    3140                      ; return occurs ; [] 
    3141                      .dwattr $C$DW$182, DW_AT_TI_end_file("C:/ti/Workspace/PLC_certificate/Software/uCOS-II/Source/os_flag
    3142                      .dwattr $C$DW$182, DW_AT_TI_end_line(0x467)
TMS320C2000 Assembler PC v20.2.1 Tue Feb 16 00:15:58 2021

Copyright (c) 1996-2018 Texas Instruments Incorporated
os_flag.asm                                                          PAGE   61

    3143                      .dwattr $C$DW$182, DW_AT_TI_end_column(0x01)
    3144                      .dwendentry
    3145                      .dwendtag $C$DW$182
    3146              
    3147 00000491               .sect   ".text"
    3148                      .clink
    3149              
    3150              $C$DW$189       .dwtag  DW_TAG_subprogram
    3151                      .dwattr $C$DW$189, DW_AT_name("OS_FlagTaskRdy")
    3152                      .dwattr $C$DW$189, DW_AT_low_pc(_OS_FlagTaskRdy)
    3153                      .dwattr $C$DW$189, DW_AT_high_pc(0x00)
    3154                      .dwattr $C$DW$189, DW_AT_TI_symbol_name("_OS_FlagTaskRdy")
    3155                      .dwattr $C$DW$189, DW_AT_type(*$C$DW$T$53)
    3156                      .dwattr $C$DW$189, DW_AT_TI_begin_file("C:/ti/Workspace/PLC_certificate/Software/uCOS-II/Source/os_fl
    3157                      .dwattr $C$DW$189, DW_AT_TI_begin_line(0x484)
    3158                      .dwattr $C$DW$189, DW_AT_TI_begin_column(0x12)
    3159                      .dwattr $C$DW$189, DW_AT_TI_max_frame_size(-10)
    3160                      .dwpsn  file "C:/ti/Workspace/PLC_certificate/Software/uCOS-II/Source/os_flag.c",line 1159,column 1,i
    3161              
    3162                      .dwfde $C$DW$CIE, _OS_FlagTaskRdy
    3163              $C$DW$190       .dwtag  DW_TAG_formal_parameter
    3164                      .dwattr $C$DW$190, DW_AT_name("pnode")
    3165                      .dwattr $C$DW$190, DW_AT_TI_symbol_name("_pnode")
    3166                      .dwattr $C$DW$190, DW_AT_type(*$C$DW$T$36)
    3167                      .dwattr $C$DW$190, DW_AT_location[DW_OP_reg12]
    3168              
    3169              $C$DW$191       .dwtag  DW_TAG_formal_parameter
    3170                      .dwattr $C$DW$191, DW_AT_name("flags_rdy")
    3171                      .dwattr $C$DW$191, DW_AT_TI_symbol_name("_flags_rdy")
    3172                      .dwattr $C$DW$191, DW_AT_type(*$C$DW$T$25)
    3173                      .dwattr $C$DW$191, DW_AT_location[DW_OP_reg0]
    3174              
    3175              $C$DW$192       .dwtag  DW_TAG_formal_parameter
    3176                      .dwattr $C$DW$192, DW_AT_name("pend_stat")
    3177                      .dwattr $C$DW$192, DW_AT_TI_symbol_name("_pend_stat")
    3178                      .dwattr $C$DW$192, DW_AT_type(*$C$DW$T$19)
    3179                      .dwattr $C$DW$192, DW_AT_location[DW_OP_reg1]
    3180              
    3181              
    3182              ;***************************************************************
    3183              ;* FNAME: _OS_FlagTaskRdy               FR SIZE:   8           *
    3184              ;*                                                             *
    3185              ;* FUNCTION ENVIRONMENT                                        *
    3186              ;*                                                             *
    3187              ;* FUNCTION PROPERTIES                                         *
    3188              ;*                            0 Parameter,  7 Auto,  0 SOE     *
    3189              ;***************************************************************
    3190              
    3191 00000491       _OS_FlagTaskRdy:
    3192                      .dwcfi  cfa_offset, -2
    3193                      .dwcfi  save_reg_to_mem, 26, 0
    3194 00000491 FE08          ADDB      SP,#8                 ; [CPU_ARAU] 
    3195                      .dwcfi  cfa_offset, -10
    3196              $C$DW$193       .dwtag  DW_TAG_variable
    3197                      .dwattr $C$DW$193, DW_AT_name("pnode")
TMS320C2000 Assembler PC v20.2.1 Tue Feb 16 00:15:58 2021

Copyright (c) 1996-2018 Texas Instruments Incorporated
os_flag.asm                                                          PAGE   62

    3198                      .dwattr $C$DW$193, DW_AT_TI_symbol_name("_pnode")
    3199                      .dwattr $C$DW$193, DW_AT_type(*$C$DW$T$36)
    3200                      .dwattr $C$DW$193, DW_AT_location[DW_OP_breg20 -2]
    3201              
    3202              $C$DW$194       .dwtag  DW_TAG_variable
    3203                      .dwattr $C$DW$194, DW_AT_name("ptcb")
    3204                      .dwattr $C$DW$194, DW_AT_TI_symbol_name("_ptcb")
    3205                      .dwattr $C$DW$194, DW_AT_type(*$C$DW$T$73)
    3206                      .dwattr $C$DW$194, DW_AT_location[DW_OP_breg20 -4]
    3207              
    3208              $C$DW$195       .dwtag  DW_TAG_variable
    3209                      .dwattr $C$DW$195, DW_AT_name("flags_rdy")
    3210                      .dwattr $C$DW$195, DW_AT_TI_symbol_name("_flags_rdy")
    3211                      .dwattr $C$DW$195, DW_AT_type(*$C$DW$T$25)
    3212                      .dwattr $C$DW$195, DW_AT_location[DW_OP_breg20 -5]
    3213              
    3214              $C$DW$196       .dwtag  DW_TAG_variable
    3215                      .dwattr $C$DW$196, DW_AT_name("pend_stat")
    3216                      .dwattr $C$DW$196, DW_AT_TI_symbol_name("_pend_stat")
    3217                      .dwattr $C$DW$196, DW_AT_type(*$C$DW$T$19)
    3218                      .dwattr $C$DW$196, DW_AT_location[DW_OP_breg20 -6]
    3219              
    3220              $C$DW$197       .dwtag  DW_TAG_variable
    3221                      .dwattr $C$DW$197, DW_AT_name("sched")
    3222                      .dwattr $C$DW$197, DW_AT_TI_symbol_name("_sched")
    3223                      .dwattr $C$DW$197, DW_AT_type(*$C$DW$T$53)
    3224                      .dwattr $C$DW$197, DW_AT_location[DW_OP_breg20 -7]
    3225              
    3226 00000492 9746          MOV       *-SP[6],AH            ; [CPU_ALU] |1159| 
    3227 00000493 9645          MOV       *-SP[5],AL            ; [CPU_ALU] |1159| 
    3228 00000494 A842          MOVL      *-SP[2],XAR4          ; [CPU_ALU] |1159| 
    3229                      .dwpsn  file "C:/ti/Workspace/PLC_certificate/Software/uCOS-II/Source/os_flag.c",line 1164,column 5,i
    3230 00000495 06E4          MOVL      ACC,*+XAR4[4]         ; [CPU_ALU] |1164| 
    3231 00000496 1E44          MOVL      *-SP[4],ACC           ; [CPU_ALU] |1164| 
    3232                      .dwpsn  file "C:/ti/Workspace/PLC_certificate/Software/uCOS-II/Source/os_flag.c",line 1165,column 5,i
    3233 00000497 BE00          MOVB      XAR6,#0               ; [CPU_ALU] |1165| 
    3234 00000498 0218          MOVB      ACC,#24               ; [CPU_ALU] |1165| 
    3235 00000499 0744          ADDL      ACC,*-SP[4]           ; [CPU_ALU] |1165| 
    3236 0000049a 8AA9          MOVL      XAR4,ACC              ; [CPU_ALU] |1165| 
    3237 0000049b C2C4          MOVL      *+XAR4[0],XAR6        ; [CPU_ALU] |1165| 
    3238                      .dwpsn  file "C:/ti/Workspace/PLC_certificate/Software/uCOS-II/Source/os_flag.c",line 1166,column 5,i
    3239 0000049c 0216          MOVB      ACC,#22               ; [CPU_ALU] |1166| 
    3240 0000049d 0744          ADDL      ACC,*-SP[4]           ; [CPU_ALU] |1166| 
    3241 0000049e 1EA7          MOVL      XAR7,ACC              ; [CPU_ALU] |1166| 
    3242 0000049f 9245          MOV       AL,*-SP[5]            ; [CPU_ALU] |1166| 
    3243 000004a0 96C7          MOV       *+XAR7[0],AL          ; [CPU_ALU] |1166| 
    3244                      .dwpsn  file "C:/ti/Workspace/PLC_certificate/Software/uCOS-II/Source/os_flag.c",line 1167,column 5,i
    3245 000004a1 021A          MOVB      ACC,#26               ; [CPU_ALU] |1167| 
    3246 000004a2 0744          ADDL      ACC,*-SP[4]           ; [CPU_ALU] |1167| 
    3247 000004a3 8AA9          MOVL      XAR4,ACC              ; [CPU_ALU] |1167| 
    3248 000004a4 18C4          AND       *+XAR4[0],#0xffdf     ; [CPU_ALU] |1167| 
         000004a5 FFDF 
    3249                      .dwpsn  file "C:/ti/Workspace/PLC_certificate/Software/uCOS-II/Source/os_flag.c",line 1168,column 5,i
    3250 000004a6 021B          MOVB      ACC,#27               ; [CPU_ALU] |1168| 
    3251 000004a7 0744          ADDL      ACC,*-SP[4]           ; [CPU_ALU] |1168| 
TMS320C2000 Assembler PC v20.2.1 Tue Feb 16 00:15:58 2021

Copyright (c) 1996-2018 Texas Instruments Incorporated
os_flag.asm                                                          PAGE   63

    3252 000004a8 1EA7          MOVL      XAR7,ACC              ; [CPU_ALU] |1168| 
    3253 000004a9 9246          MOV       AL,*-SP[6]            ; [CPU_ALU] |1168| 
    3254 000004aa 96C7          MOV       *+XAR7[0],AL          ; [CPU_ALU] |1168| 
    3255                      .dwpsn  file "C:/ti/Workspace/PLC_certificate/Software/uCOS-II/Source/os_flag.c",line 1169,column 5,i
    3256 000004ab 021A          MOVB      ACC,#26               ; [CPU_ALU] |1169| 
    3257 000004ac 0744          ADDL      ACC,*-SP[4]           ; [CPU_ALU] |1169| 
    3258 000004ad 8AA9          MOVL      XAR4,ACC              ; [CPU_ALU] |1169| 
    3259 000004ae 92C4          MOV       AL,*+XAR4[0]          ; [CPU_ALU] |1169| 
    3260 000004af 6018          B         $C$L105,NEQ           ; [CPU_ALU] |1169| 
    3261                      ; branchcc occurs ; [] |1169| 
    3262                      .dwpsn  file "C:/ti/Workspace/PLC_certificate/Software/uCOS-II/Source/os_flag.c",line 1170,column 9,i
    3263 000004b0 0220          MOVB      ACC,#32               ; [CPU_ALU] |1170| 
    3264 000004b1 0744          ADDL      ACC,*-SP[4]           ; [CPU_ALU] |1170| 
    3265 000004b2 8AA9          MOVL      XAR4,ACC              ; [CPU_ALU] |1170| 
    3266 000004b3 761F!         MOVW      DP,#_OSRdyGrp         ; [CPU_ARAU] 
         000004b4 0000 
    3267 000004b5 92C4          MOV       AL,*+XAR4[0]          ; [CPU_ALU] |1170| 
    3268 000004b6 9800!         OR        @_OSRdyGrp,AL         ; [CPU_ALU] |1170| 
    3269                      .dwpsn  file "C:/ti/Workspace/PLC_certificate/Software/uCOS-II/Source/os_flag.c",line 1171,column 9,i
    3270 000004b7 021E          MOVB      ACC,#30               ; [CPU_ALU] |1171| 
    3271 000004b8 0744          ADDL      ACC,*-SP[4]           ; [CPU_ALU] |1171| 
    3272 000004b9 1EA6          MOVL      XAR6,ACC              ; [CPU_ALU] |1171| 
    3273 000004ba 8F00!         MOVL      XAR4,#_OSRdyTbl       ; [CPU_ARAU] |1171| 
         000004bb 0000 
    3274 000004bc A8A9          MOVL      ACC,XAR4              ; [CPU_ALU] |1171| 
    3275 000004bd 0DC6          ADDU      ACC,*+XAR6[0]         ; [CPU_ALU] |1171| 
    3276 000004be 83A9          MOVL      XAR5,ACC              ; [CPU_ALU] |1171| 
    3277 000004bf 021F          MOVB      ACC,#31               ; [CPU_ALU] |1171| 
    3278 000004c0 0744          ADDL      ACC,*-SP[4]           ; [CPU_ALU] |1171| 
    3279 000004c1 8AA9          MOVL      XAR4,ACC              ; [CPU_ALU] |1171| 
    3280 000004c2 92C4          MOV       AL,*+XAR4[0]          ; [CPU_ALU] |1171| 
    3281 000004c3 98C5          OR        *+XAR5[0],AL          ; [CPU_ALU] |1171| 
    3282                      .dwpsn  file "C:/ti/Workspace/PLC_certificate/Software/uCOS-II/Source/os_flag.c",line 1172,column 9,i
    3283 000004c4 56BF          MOVB      *-SP[7],#1,UNC        ; [CPU_ALU] |1172| 
         000004c5 0147 
    3284 000004c6 6F02          B         $C$L106,UNC           ; [CPU_ALU] 
    3285                      ; branch occurs ; [] 
    3286 000004c7       $C$L105:    
    3287                      .dwpsn  file "C:/ti/Workspace/PLC_certificate/Software/uCOS-II/Source/os_flag.c",line 1174,column 9,i
    3288 000004c7 2B47          MOV       *-SP[7],#0            ; [CPU_ALU] |1174| 
    3289 000004c8       $C$L106:    
    3290                      .dwpsn  file "C:/ti/Workspace/PLC_certificate/Software/uCOS-II/Source/os_flag.c",line 1176,column 5,i
    3291 000004c8 8A42          MOVL      XAR4,*-SP[2]          ; [CPU_ALU] |1176| 
    3292              $C$DW$198       .dwtag  DW_TAG_TI_branch
    3293                      .dwattr $C$DW$198, DW_AT_low_pc(0x00)
    3294                      .dwattr $C$DW$198, DW_AT_name("_OS_FlagUnlink")
    3295                      .dwattr $C$DW$198, DW_AT_TI_call
    3296              
    3297 000004c9 7640'         LCR       #_OS_FlagUnlink       ; [CPU_ALU] |1176| 
         000004ca 04CE 
    3298                      ; call occurs [#_OS_FlagUnlink] ; [] |1176| 
    3299                      .dwpsn  file "C:/ti/Workspace/PLC_certificate/Software/uCOS-II/Source/os_flag.c",line 1177,column 5,i
    3300 000004cb 9247          MOV       AL,*-SP[7]            ; [CPU_ALU] |1177| 
    3301                      .dwpsn  file "C:/ti/Workspace/PLC_certificate/Software/uCOS-II/Source/os_flag.c",line 1178,column 1,i
    3302 000004cc FE88          SUBB      SP,#8                 ; [CPU_ARAU] 
TMS320C2000 Assembler PC v20.2.1 Tue Feb 16 00:15:58 2021

Copyright (c) 1996-2018 Texas Instruments Incorporated
os_flag.asm                                                          PAGE   64

    3303                      .dwcfi  cfa_offset, -2
    3304              $C$DW$199       .dwtag  DW_TAG_TI_branch
    3305                      .dwattr $C$DW$199, DW_AT_low_pc(0x00)
    3306                      .dwattr $C$DW$199, DW_AT_TI_return
    3307              
    3308 000004cd 0006          LRETR     ; [CPU_ALU] 
    3309                      ; return occurs ; [] 
    3310                      .dwattr $C$DW$189, DW_AT_TI_end_file("C:/ti/Workspace/PLC_certificate/Software/uCOS-II/Source/os_flag
    3311                      .dwattr $C$DW$189, DW_AT_TI_end_line(0x49a)
    3312                      .dwattr $C$DW$189, DW_AT_TI_end_column(0x01)
    3313                      .dwendentry
    3314                      .dwendtag $C$DW$189
    3315              
    3316 000004ce               .sect   ".text"
    3317                      .clink
    3318                      .global _OS_FlagUnlink
    3319              
    3320              $C$DW$200       .dwtag  DW_TAG_subprogram
    3321                      .dwattr $C$DW$200, DW_AT_name("OS_FlagUnlink")
    3322                      .dwattr $C$DW$200, DW_AT_low_pc(_OS_FlagUnlink)
    3323                      .dwattr $C$DW$200, DW_AT_high_pc(0x00)
    3324                      .dwattr $C$DW$200, DW_AT_TI_symbol_name("_OS_FlagUnlink")
    3325                      .dwattr $C$DW$200, DW_AT_external
    3326                      .dwattr $C$DW$200, DW_AT_TI_begin_file("C:/ti/Workspace/PLC_certificate/Software/uCOS-II/Source/os_fl
    3327                      .dwattr $C$DW$200, DW_AT_TI_begin_line(0x4b2)
    3328                      .dwattr $C$DW$200, DW_AT_TI_begin_column(0x07)
    3329                      .dwattr $C$DW$200, DW_AT_TI_max_frame_size(-12)
    3330                      .dwpsn  file "C:/ti/Workspace/PLC_certificate/Software/uCOS-II/Source/os_flag.c",line 1203,column 1,i
    3331              
    3332                      .dwfde $C$DW$CIE, _OS_FlagUnlink
    3333              $C$DW$201       .dwtag  DW_TAG_formal_parameter
    3334                      .dwattr $C$DW$201, DW_AT_name("pnode")
    3335                      .dwattr $C$DW$201, DW_AT_TI_symbol_name("_pnode")
    3336                      .dwattr $C$DW$201, DW_AT_type(*$C$DW$T$36)
    3337                      .dwattr $C$DW$201, DW_AT_location[DW_OP_reg12]
    3338              
    3339              
    3340              ;***************************************************************
    3341              ;* FNAME: _OS_FlagUnlink                FR SIZE:  10           *
    3342              ;*                                                             *
    3343              ;* FUNCTION ENVIRONMENT                                        *
    3344              ;*                                                             *
    3345              ;* FUNCTION PROPERTIES                                         *
    3346              ;*                            0 Parameter, 10 Auto,  0 SOE     *
    3347              ;***************************************************************
    3348              
    3349 000004ce       _OS_FlagUnlink:
    3350                      .dwcfi  cfa_offset, -2
    3351                      .dwcfi  save_reg_to_mem, 26, 0
    3352 000004ce FE0A          ADDB      SP,#10                ; [CPU_ARAU] 
    3353                      .dwcfi  cfa_offset, -12
    3354              $C$DW$202       .dwtag  DW_TAG_variable
    3355                      .dwattr $C$DW$202, DW_AT_name("pnode")
    3356                      .dwattr $C$DW$202, DW_AT_TI_symbol_name("_pnode")
    3357                      .dwattr $C$DW$202, DW_AT_type(*$C$DW$T$36)
TMS320C2000 Assembler PC v20.2.1 Tue Feb 16 00:15:58 2021

Copyright (c) 1996-2018 Texas Instruments Incorporated
os_flag.asm                                                          PAGE   65

    3358                      .dwattr $C$DW$202, DW_AT_location[DW_OP_breg20 -2]
    3359              
    3360              $C$DW$203       .dwtag  DW_TAG_variable
    3361                      .dwattr $C$DW$203, DW_AT_name("ptcb")
    3362                      .dwattr $C$DW$203, DW_AT_TI_symbol_name("_ptcb")
    3363                      .dwattr $C$DW$203, DW_AT_type(*$C$DW$T$73)
    3364                      .dwattr $C$DW$203, DW_AT_location[DW_OP_breg20 -4]
    3365              
    3366              $C$DW$204       .dwtag  DW_TAG_variable
    3367                      .dwattr $C$DW$204, DW_AT_name("pgrp")
    3368                      .dwattr $C$DW$204, DW_AT_TI_symbol_name("_pgrp")
    3369                      .dwattr $C$DW$204, DW_AT_type(*$C$DW$T$47)
    3370                      .dwattr $C$DW$204, DW_AT_location[DW_OP_breg20 -6]
    3371              
    3372              $C$DW$205       .dwtag  DW_TAG_variable
    3373                      .dwattr $C$DW$205, DW_AT_name("pnode_prev")
    3374                      .dwattr $C$DW$205, DW_AT_TI_symbol_name("_pnode_prev")
    3375                      .dwattr $C$DW$205, DW_AT_type(*$C$DW$T$36)
    3376                      .dwattr $C$DW$205, DW_AT_location[DW_OP_breg20 -8]
    3377              
    3378              $C$DW$206       .dwtag  DW_TAG_variable
    3379                      .dwattr $C$DW$206, DW_AT_name("pnode_next")
    3380                      .dwattr $C$DW$206, DW_AT_TI_symbol_name("_pnode_next")
    3381                      .dwattr $C$DW$206, DW_AT_type(*$C$DW$T$36)
    3382                      .dwattr $C$DW$206, DW_AT_location[DW_OP_breg20 -10]
    3383              
    3384 000004cf A842          MOVL      *-SP[2],XAR4          ; [CPU_ALU] |1203| 
    3385                      .dwpsn  file "C:/ti/Workspace/PLC_certificate/Software/uCOS-II/Source/os_flag.c",line 1212,column 5,i
    3386 000004d0 06D4          MOVL      ACC,*+XAR4[2]         ; [CPU_ALU] |1212| 
    3387 000004d1 1E48          MOVL      *-SP[8],ACC           ; [CPU_ALU] |1212| 
    3388                      .dwpsn  file "C:/ti/Workspace/PLC_certificate/Software/uCOS-II/Source/os_flag.c",line 1213,column 5,i
    3389 000004d2 06C4          MOVL      ACC,*+XAR4[0]         ; [CPU_ALU] |1213| 
    3390 000004d3 1E4A          MOVL      *-SP[10],ACC          ; [CPU_ALU] |1213| 
    3391                      .dwpsn  file "C:/ti/Workspace/PLC_certificate/Software/uCOS-II/Source/os_flag.c",line 1214,column 5,i
    3392 000004d4 0648          MOVL      ACC,*-SP[8]           ; [CPU_ALU] |1214| 
    3393 000004d5 600C          B         $C$L107,NEQ           ; [CPU_ALU] |1214| 
    3394                      ; branchcc occurs ; [] |1214| 
    3395                      .dwpsn  file "C:/ti/Workspace/PLC_certificate/Software/uCOS-II/Source/os_flag.c",line 1215,column 9,i
    3396 000004d6 06F4          MOVL      ACC,*+XAR4[6]         ; [CPU_ALU] |1215| 
    3397 000004d7 1E46          MOVL      *-SP[6],ACC           ; [CPU_ALU] |1215| 
    3398                      .dwpsn  file "C:/ti/Workspace/PLC_certificate/Software/uCOS-II/Source/os_flag.c",line 1216,column 9,i
    3399 000004d8 8A46          MOVL      XAR4,*-SP[6]          ; [CPU_ALU] |1216| 
    3400 000004d9 064A          MOVL      ACC,*-SP[10]          ; [CPU_ALU] |1216| 
    3401 000004da 1ED4          MOVL      *+XAR4[2],ACC         ; [CPU_ALU] |1216| 
    3402                      .dwpsn  file "C:/ti/Workspace/PLC_certificate/Software/uCOS-II/Source/os_flag.c",line 1217,column 9,i
    3403 000004db 064A          MOVL      ACC,*-SP[10]          ; [CPU_ALU] |1217| 
    3404 000004dc 610D          B         $C$L108,EQ            ; [CPU_ALU] |1217| 
    3405                      ; branchcc occurs ; [] |1217| 
    3406                      .dwpsn  file "C:/ti/Workspace/PLC_certificate/Software/uCOS-II/Source/os_flag.c",line 1218,column 13,
    3407 000004dd 8A4A          MOVL      XAR4,*-SP[10]         ; [CPU_ALU] |1218| 
    3408 000004de 0200          MOVB      ACC,#0                ; [CPU_ALU] |1218| 
    3409 000004df 1ED4          MOVL      *+XAR4[2],ACC         ; [CPU_ALU] |1218| 
    3410 000004e0 6F09          B         $C$L108,UNC           ; [CPU_ALU] 
    3411                      ; branch occurs ; [] 
    3412 000004e1       $C$L107:    
TMS320C2000 Assembler PC v20.2.1 Tue Feb 16 00:15:58 2021

Copyright (c) 1996-2018 Texas Instruments Incorporated
os_flag.asm                                                          PAGE   66

    3413                      .dwpsn  file "C:/ti/Workspace/PLC_certificate/Software/uCOS-II/Source/os_flag.c",line 1221,column 9,i
    3414 000004e1 8A48          MOVL      XAR4,*-SP[8]          ; [CPU_ALU] |1221| 
    3415 000004e2 064A          MOVL      ACC,*-SP[10]          ; [CPU_ALU] |1221| 
    3416 000004e3 1EC4          MOVL      *+XAR4[0],ACC         ; [CPU_ALU] |1221| 
    3417                      .dwpsn  file "C:/ti/Workspace/PLC_certificate/Software/uCOS-II/Source/os_flag.c",line 1222,column 9,i
    3418 000004e4 064A          MOVL      ACC,*-SP[10]          ; [CPU_ALU] |1222| 
    3419 000004e5 6104          B         $C$L108,EQ            ; [CPU_ALU] |1222| 
    3420                      ; branchcc occurs ; [] |1222| 
    3421                      .dwpsn  file "C:/ti/Workspace/PLC_certificate/Software/uCOS-II/Source/os_flag.c",line 1223,column 13,
    3422 000004e6 8A4A          MOVL      XAR4,*-SP[10]         ; [CPU_ALU] |1223| 
    3423 000004e7 0648          MOVL      ACC,*-SP[8]           ; [CPU_ALU] |1223| 
    3424 000004e8 1ED4          MOVL      *+XAR4[2],ACC         ; [CPU_ALU] |1223| 
    3425 000004e9       $C$L108:    
    3426                      .dwpsn  file "C:/ti/Workspace/PLC_certificate/Software/uCOS-II/Source/os_flag.c",line 1227,column 5,i
    3427 000004e9 8A42          MOVL      XAR4,*-SP[2]          ; [CPU_ALU] |1227| 
    3428 000004ea 06E4          MOVL      ACC,*+XAR4[4]         ; [CPU_ALU] |1227| 
    3429 000004eb 1E44          MOVL      *-SP[4],ACC           ; [CPU_ALU] |1227| 
    3430                      .dwpsn  file "C:/ti/Workspace/PLC_certificate/Software/uCOS-II/Source/os_flag.c",line 1228,column 5,i
    3431 000004ec BE00          MOVB      XAR6,#0               ; [CPU_ALU] |1228| 
    3432 000004ed 0214          MOVB      ACC,#20               ; [CPU_ALU] |1228| 
    3433 000004ee 0744          ADDL      ACC,*-SP[4]           ; [CPU_ALU] |1228| 
    3434 000004ef 8AA9          MOVL      XAR4,ACC              ; [CPU_ALU] |1228| 
    3435 000004f0 C2C4          MOVL      *+XAR4[0],XAR6        ; [CPU_ALU] |1228| 
    3436                      .dwpsn  file "C:/ti/Workspace/PLC_certificate/Software/uCOS-II/Source/os_flag.c",line 1230,column 1,i
    3437 000004f1 FE8A          SUBB      SP,#10                ; [CPU_ARAU] 
    3438                      .dwcfi  cfa_offset, -2
    3439              $C$DW$207       .dwtag  DW_TAG_TI_branch
    3440                      .dwattr $C$DW$207, DW_AT_low_pc(0x00)
    3441                      .dwattr $C$DW$207, DW_AT_TI_return
    3442              
    3443 000004f2 0006          LRETR     ; [CPU_ALU] 
    3444                      ; return occurs ; [] 
    3445                      .dwattr $C$DW$200, DW_AT_TI_end_file("C:/ti/Workspace/PLC_certificate/Software/uCOS-II/Source/os_flag
    3446                      .dwattr $C$DW$200, DW_AT_TI_end_line(0x4ce)
    3447                      .dwattr $C$DW$200, DW_AT_TI_end_column(0x01)
    3448                      .dwendentry
    3449                      .dwendtag $C$DW$200
    3450              
    3451              ;***************************************************************
    3452              ;* FAR STRINGS                                                 *
    3453              ;***************************************************************
    3454 00000000               .sect   ".econst:.string"
    3455                      .align  2
    3456 00000000 003F  $C$FSL1:        .string "?",0
         00000001 0000 
    3457              ;**************************************************************
    3458              ;* UNDEFINED EXTERNAL REFERENCES                              *
    3459              ;**************************************************************
    3460                      .global _OS_CPU_SR_Restore
    3461                      .global _OS_Sched
    3462                      .global _OS_MemClr
    3463                      .global _OSIntNesting
    3464                      .global _OSLockNesting
    3465                      .global _OSRdyGrp
    3466                      .global _OS_CPU_SR_Save
TMS320C2000 Assembler PC v20.2.1 Tue Feb 16 00:15:58 2021

Copyright (c) 1996-2018 Texas Instruments Incorporated
os_flag.asm                                                          PAGE   67

    3467                      .global _OS_StrLen
    3468                      .global _OSFlagFreeList
    3469                      .global _OSTCBCur
    3470                      .global _OSRdyTbl
    3471                      .global _OSFlagTbl
    3472              
    3473              ;***************************************************************
    3474              ;* TYPE INFORMATION                                            *
    3475              ;***************************************************************
    3476              $C$DW$T$2       .dwtag  DW_TAG_unspecified_type
    3477                      .dwattr $C$DW$T$2, DW_AT_name("void")
    3478              
    3479              $C$DW$T$3       .dwtag  DW_TAG_pointer_type
    3480                      .dwattr $C$DW$T$3, DW_AT_type(*$C$DW$T$2)
    3481                      .dwattr $C$DW$T$3, DW_AT_address_class(0x20)
    3482              
    3483              $C$DW$T$4       .dwtag  DW_TAG_base_type
    3484                      .dwattr $C$DW$T$4, DW_AT_encoding(DW_ATE_boolean)
    3485                      .dwattr $C$DW$T$4, DW_AT_name("bool")
    3486                      .dwattr $C$DW$T$4, DW_AT_byte_size(0x01)
    3487              
    3488              $C$DW$T$5       .dwtag  DW_TAG_base_type
    3489                      .dwattr $C$DW$T$5, DW_AT_encoding(DW_ATE_signed_char)
    3490                      .dwattr $C$DW$T$5, DW_AT_name("signed char")
    3491                      .dwattr $C$DW$T$5, DW_AT_byte_size(0x01)
    3492              
    3493              $C$DW$T$6       .dwtag  DW_TAG_base_type
    3494                      .dwattr $C$DW$T$6, DW_AT_encoding(DW_ATE_unsigned_char)
    3495                      .dwattr $C$DW$T$6, DW_AT_name("unsigned char")
    3496                      .dwattr $C$DW$T$6, DW_AT_byte_size(0x01)
    3497              
    3498              $C$DW$T$53      .dwtag  DW_TAG_typedef
    3499                      .dwattr $C$DW$T$53, DW_AT_name("BOOLEAN")
    3500                      .dwattr $C$DW$T$53, DW_AT_type(*$C$DW$T$6)
    3501                      .dwattr $C$DW$T$53, DW_AT_language(DW_LANG_C)
    3502              
    3503              $C$DW$T$19      .dwtag  DW_TAG_typedef
    3504                      .dwattr $C$DW$T$19, DW_AT_name("INT8U")
    3505                      .dwattr $C$DW$T$19, DW_AT_type(*$C$DW$T$6)
    3506                      .dwattr $C$DW$T$19, DW_AT_language(DW_LANG_C)
    3507              
    3508              $C$DW$T$21      .dwtag  DW_TAG_typedef
    3509                      .dwattr $C$DW$T$21, DW_AT_name("OS_PRIO")
    3510                      .dwattr $C$DW$T$21, DW_AT_type(*$C$DW$T$19)
    3511                      .dwattr $C$DW$T$21, DW_AT_language(DW_LANG_C)
    3512              
    3513              
    3514              $C$DW$T$22      .dwtag  DW_TAG_array_type
    3515                      .dwattr $C$DW$T$22, DW_AT_type(*$C$DW$T$21)
    3516                      .dwattr $C$DW$T$22, DW_AT_language(DW_LANG_C)
    3517                      .dwattr $C$DW$T$22, DW_AT_byte_size(0x08)
    3518              $C$DW$208       .dwtag  DW_TAG_subrange_type
    3519                      .dwattr $C$DW$208, DW_AT_upper_bound(0x07)
    3520              
    3521                      .dwendtag $C$DW$T$22
TMS320C2000 Assembler PC v20.2.1 Tue Feb 16 00:15:58 2021

Copyright (c) 1996-2018 Texas Instruments Incorporated
os_flag.asm                                                          PAGE   68

    3522              
    3523              $C$DW$T$23      .dwtag  DW_TAG_pointer_type
    3524                      .dwattr $C$DW$T$23, DW_AT_type(*$C$DW$T$19)
    3525                      .dwattr $C$DW$T$23, DW_AT_address_class(0x20)
    3526              
    3527              $C$DW$T$57      .dwtag  DW_TAG_pointer_type
    3528                      .dwattr $C$DW$T$57, DW_AT_type(*$C$DW$T$23)
    3529                      .dwattr $C$DW$T$57, DW_AT_address_class(0x20)
    3530              
    3531              $C$DW$T$7       .dwtag  DW_TAG_base_type
    3532                      .dwattr $C$DW$T$7, DW_AT_encoding(DW_ATE_signed_char)
    3533                      .dwattr $C$DW$T$7, DW_AT_name("wchar_t")
    3534                      .dwattr $C$DW$T$7, DW_AT_byte_size(0x01)
    3535              
    3536              $C$DW$T$8       .dwtag  DW_TAG_base_type
    3537                      .dwattr $C$DW$T$8, DW_AT_encoding(DW_ATE_signed)
    3538                      .dwattr $C$DW$T$8, DW_AT_name("short")
    3539                      .dwattr $C$DW$T$8, DW_AT_byte_size(0x01)
    3540              
    3541              $C$DW$T$9       .dwtag  DW_TAG_base_type
    3542                      .dwattr $C$DW$T$9, DW_AT_encoding(DW_ATE_unsigned)
    3543                      .dwattr $C$DW$T$9, DW_AT_name("unsigned short")
    3544                      .dwattr $C$DW$T$9, DW_AT_byte_size(0x01)
    3545              
    3546              $C$DW$T$20      .dwtag  DW_TAG_typedef
    3547                      .dwattr $C$DW$T$20, DW_AT_name("INT16U")
    3548                      .dwattr $C$DW$T$20, DW_AT_type(*$C$DW$T$9)
    3549                      .dwattr $C$DW$T$20, DW_AT_language(DW_LANG_C)
    3550              
    3551              $C$DW$T$25      .dwtag  DW_TAG_typedef
    3552                      .dwattr $C$DW$T$25, DW_AT_name("OS_FLAGS")
    3553                      .dwattr $C$DW$T$25, DW_AT_type(*$C$DW$T$20)
    3554                      .dwattr $C$DW$T$25, DW_AT_language(DW_LANG_C)
    3555              
    3556              $C$DW$T$39      .dwtag  DW_TAG_typedef
    3557                      .dwattr $C$DW$T$39, DW_AT_name("OS_CPU_SR")
    3558                      .dwattr $C$DW$T$39, DW_AT_type(*$C$DW$T$9)
    3559                      .dwattr $C$DW$T$39, DW_AT_language(DW_LANG_C)
    3560              
    3561              $C$DW$T$28      .dwtag  DW_TAG_typedef
    3562                      .dwattr $C$DW$T$28, DW_AT_name("OS_STK")
    3563                      .dwattr $C$DW$T$28, DW_AT_type(*$C$DW$T$9)
    3564                      .dwattr $C$DW$T$28, DW_AT_language(DW_LANG_C)
    3565              
    3566              $C$DW$T$29      .dwtag  DW_TAG_pointer_type
    3567                      .dwattr $C$DW$T$29, DW_AT_type(*$C$DW$T$28)
    3568                      .dwattr $C$DW$T$29, DW_AT_address_class(0x20)
    3569              
    3570              $C$DW$T$10      .dwtag  DW_TAG_base_type
    3571                      .dwattr $C$DW$T$10, DW_AT_encoding(DW_ATE_signed)
    3572                      .dwattr $C$DW$T$10, DW_AT_name("int")
    3573                      .dwattr $C$DW$T$10, DW_AT_byte_size(0x01)
    3574              
    3575              $C$DW$T$11      .dwtag  DW_TAG_base_type
    3576                      .dwattr $C$DW$T$11, DW_AT_encoding(DW_ATE_unsigned)
TMS320C2000 Assembler PC v20.2.1 Tue Feb 16 00:15:58 2021

Copyright (c) 1996-2018 Texas Instruments Incorporated
os_flag.asm                                                          PAGE   69

    3577                      .dwattr $C$DW$T$11, DW_AT_name("unsigned int")
    3578                      .dwattr $C$DW$T$11, DW_AT_byte_size(0x01)
    3579              
    3580              $C$DW$T$12      .dwtag  DW_TAG_base_type
    3581                      .dwattr $C$DW$T$12, DW_AT_encoding(DW_ATE_signed)
    3582                      .dwattr $C$DW$T$12, DW_AT_name("long")
    3583                      .dwattr $C$DW$T$12, DW_AT_byte_size(0x02)
    3584              
    3585              $C$DW$T$13      .dwtag  DW_TAG_base_type
    3586                      .dwattr $C$DW$T$13, DW_AT_encoding(DW_ATE_unsigned)
    3587                      .dwattr $C$DW$T$13, DW_AT_name("unsigned long")
    3588                      .dwattr $C$DW$T$13, DW_AT_byte_size(0x02)
    3589              
    3590              $C$DW$T$30      .dwtag  DW_TAG_typedef
    3591                      .dwattr $C$DW$T$30, DW_AT_name("INT32U")
    3592                      .dwattr $C$DW$T$30, DW_AT_type(*$C$DW$T$13)
    3593                      .dwattr $C$DW$T$30, DW_AT_language(DW_LANG_C)
    3594              
    3595              
    3596              $C$DW$T$37      .dwtag  DW_TAG_array_type
    3597                      .dwattr $C$DW$T$37, DW_AT_type(*$C$DW$T$30)
    3598                      .dwattr $C$DW$T$37, DW_AT_language(DW_LANG_C)
    3599                      .dwattr $C$DW$T$37, DW_AT_byte_size(0x02)
    3600              $C$DW$209       .dwtag  DW_TAG_subrange_type
    3601                      .dwattr $C$DW$209, DW_AT_upper_bound(0x00)
    3602              
    3603                      .dwendtag $C$DW$T$37
    3604              
    3605              $C$DW$T$14      .dwtag  DW_TAG_base_type
    3606                      .dwattr $C$DW$T$14, DW_AT_encoding(DW_ATE_signed)
    3607                      .dwattr $C$DW$T$14, DW_AT_name("long long")
    3608                      .dwattr $C$DW$T$14, DW_AT_byte_size(0x04)
    3609              
    3610              $C$DW$T$15      .dwtag  DW_TAG_base_type
    3611                      .dwattr $C$DW$T$15, DW_AT_encoding(DW_ATE_unsigned)
    3612                      .dwattr $C$DW$T$15, DW_AT_name("unsigned long long")
    3613                      .dwattr $C$DW$T$15, DW_AT_byte_size(0x04)
    3614              
    3615              $C$DW$T$16      .dwtag  DW_TAG_base_type
    3616                      .dwattr $C$DW$T$16, DW_AT_encoding(DW_ATE_float)
    3617                      .dwattr $C$DW$T$16, DW_AT_name("float")
    3618                      .dwattr $C$DW$T$16, DW_AT_byte_size(0x02)
    3619              
    3620              $C$DW$T$17      .dwtag  DW_TAG_base_type
    3621                      .dwattr $C$DW$T$17, DW_AT_encoding(DW_ATE_float)
    3622                      .dwattr $C$DW$T$17, DW_AT_name("double")
    3623                      .dwattr $C$DW$T$17, DW_AT_byte_size(0x02)
    3624              
    3625              $C$DW$T$18      .dwtag  DW_TAG_base_type
    3626                      .dwattr $C$DW$T$18, DW_AT_encoding(DW_ATE_float)
    3627                      .dwattr $C$DW$T$18, DW_AT_name("long double")
    3628                      .dwattr $C$DW$T$18, DW_AT_byte_size(0x04)
    3629              
    3630              
    3631              $C$DW$T$24      .dwtag  DW_TAG_structure_type
TMS320C2000 Assembler PC v20.2.1 Tue Feb 16 00:15:58 2021

Copyright (c) 1996-2018 Texas Instruments Incorporated
os_flag.asm                                                          PAGE   70

    3632                      .dwattr $C$DW$T$24, DW_AT_name("os_event")
    3633                      .dwattr $C$DW$T$24, DW_AT_byte_size(0x10)
    3634              $C$DW$210       .dwtag  DW_TAG_member
    3635                      .dwattr $C$DW$210, DW_AT_type(*$C$DW$T$19)
    3636                      .dwattr $C$DW$210, DW_AT_name("OSEventType")
    3637                      .dwattr $C$DW$210, DW_AT_TI_symbol_name("_OSEventType")
    3638                      .dwattr $C$DW$210, DW_AT_data_member_location[DW_OP_plus_uconst 0x0]
    3639                      .dwattr $C$DW$210, DW_AT_accessibility(DW_ACCESS_public)
    3640              
    3641              $C$DW$211       .dwtag  DW_TAG_member
    3642                      .dwattr $C$DW$211, DW_AT_type(*$C$DW$T$3)
    3643                      .dwattr $C$DW$211, DW_AT_name("OSEventPtr")
    3644                      .dwattr $C$DW$211, DW_AT_TI_symbol_name("_OSEventPtr")
    3645                      .dwattr $C$DW$211, DW_AT_data_member_location[DW_OP_plus_uconst 0x2]
    3646                      .dwattr $C$DW$211, DW_AT_accessibility(DW_ACCESS_public)
    3647              
    3648              $C$DW$212       .dwtag  DW_TAG_member
    3649                      .dwattr $C$DW$212, DW_AT_type(*$C$DW$T$20)
    3650                      .dwattr $C$DW$212, DW_AT_name("OSEventCnt")
    3651                      .dwattr $C$DW$212, DW_AT_TI_symbol_name("_OSEventCnt")
    3652                      .dwattr $C$DW$212, DW_AT_data_member_location[DW_OP_plus_uconst 0x4]
    3653                      .dwattr $C$DW$212, DW_AT_accessibility(DW_ACCESS_public)
    3654              
    3655              $C$DW$213       .dwtag  DW_TAG_member
    3656                      .dwattr $C$DW$213, DW_AT_type(*$C$DW$T$21)
    3657                      .dwattr $C$DW$213, DW_AT_name("OSEventGrp")
    3658                      .dwattr $C$DW$213, DW_AT_TI_symbol_name("_OSEventGrp")
    3659                      .dwattr $C$DW$213, DW_AT_data_member_location[DW_OP_plus_uconst 0x5]
    3660                      .dwattr $C$DW$213, DW_AT_accessibility(DW_ACCESS_public)
    3661              
    3662              $C$DW$214       .dwtag  DW_TAG_member
    3663                      .dwattr $C$DW$214, DW_AT_type(*$C$DW$T$22)
    3664                      .dwattr $C$DW$214, DW_AT_name("OSEventTbl")
    3665                      .dwattr $C$DW$214, DW_AT_TI_symbol_name("_OSEventTbl")
    3666                      .dwattr $C$DW$214, DW_AT_data_member_location[DW_OP_plus_uconst 0x6]
    3667                      .dwattr $C$DW$214, DW_AT_accessibility(DW_ACCESS_public)
    3668              
    3669              $C$DW$215       .dwtag  DW_TAG_member
    3670                      .dwattr $C$DW$215, DW_AT_type(*$C$DW$T$23)
    3671                      .dwattr $C$DW$215, DW_AT_name("OSEventName")
    3672                      .dwattr $C$DW$215, DW_AT_TI_symbol_name("_OSEventName")
    3673                      .dwattr $C$DW$215, DW_AT_data_member_location[DW_OP_plus_uconst 0xe]
    3674                      .dwattr $C$DW$215, DW_AT_accessibility(DW_ACCESS_public)
    3675              
    3676                      .dwendtag $C$DW$T$24
    3677              
    3678              $C$DW$T$32      .dwtag  DW_TAG_typedef
    3679                      .dwattr $C$DW$T$32, DW_AT_name("OS_EVENT")
    3680                      .dwattr $C$DW$T$32, DW_AT_type(*$C$DW$T$24)
    3681                      .dwattr $C$DW$T$32, DW_AT_language(DW_LANG_C)
    3682              
    3683              $C$DW$T$33      .dwtag  DW_TAG_pointer_type
    3684                      .dwattr $C$DW$T$33, DW_AT_type(*$C$DW$T$32)
    3685                      .dwattr $C$DW$T$33, DW_AT_address_class(0x20)
    3686              
TMS320C2000 Assembler PC v20.2.1 Tue Feb 16 00:15:58 2021

Copyright (c) 1996-2018 Texas Instruments Incorporated
os_flag.asm                                                          PAGE   71

    3687              $C$DW$T$34      .dwtag  DW_TAG_pointer_type
    3688                      .dwattr $C$DW$T$34, DW_AT_type(*$C$DW$T$33)
    3689                      .dwattr $C$DW$T$34, DW_AT_address_class(0x20)
    3690              
    3691              
    3692              $C$DW$T$26      .dwtag  DW_TAG_structure_type
    3693                      .dwattr $C$DW$T$26, DW_AT_name("os_flag_grp")
    3694                      .dwattr $C$DW$T$26, DW_AT_byte_size(0x08)
    3695              $C$DW$216       .dwtag  DW_TAG_member
    3696                      .dwattr $C$DW$216, DW_AT_type(*$C$DW$T$19)
    3697                      .dwattr $C$DW$216, DW_AT_name("OSFlagType")
    3698                      .dwattr $C$DW$216, DW_AT_TI_symbol_name("_OSFlagType")
    3699                      .dwattr $C$DW$216, DW_AT_data_member_location[DW_OP_plus_uconst 0x0]
    3700                      .dwattr $C$DW$216, DW_AT_accessibility(DW_ACCESS_public)
    3701              
    3702              $C$DW$217       .dwtag  DW_TAG_member
    3703                      .dwattr $C$DW$217, DW_AT_type(*$C$DW$T$3)
    3704                      .dwattr $C$DW$217, DW_AT_name("OSFlagWaitList")
    3705                      .dwattr $C$DW$217, DW_AT_TI_symbol_name("_OSFlagWaitList")
    3706                      .dwattr $C$DW$217, DW_AT_data_member_location[DW_OP_plus_uconst 0x2]
    3707                      .dwattr $C$DW$217, DW_AT_accessibility(DW_ACCESS_public)
    3708              
    3709              $C$DW$218       .dwtag  DW_TAG_member
    3710                      .dwattr $C$DW$218, DW_AT_type(*$C$DW$T$25)
    3711                      .dwattr $C$DW$218, DW_AT_name("OSFlagFlags")
    3712                      .dwattr $C$DW$218, DW_AT_TI_symbol_name("_OSFlagFlags")
    3713                      .dwattr $C$DW$218, DW_AT_data_member_location[DW_OP_plus_uconst 0x4]
    3714                      .dwattr $C$DW$218, DW_AT_accessibility(DW_ACCESS_public)
    3715              
    3716              $C$DW$219       .dwtag  DW_TAG_member
    3717                      .dwattr $C$DW$219, DW_AT_type(*$C$DW$T$23)
    3718                      .dwattr $C$DW$219, DW_AT_name("OSFlagName")
    3719                      .dwattr $C$DW$219, DW_AT_TI_symbol_name("_OSFlagName")
    3720                      .dwattr $C$DW$219, DW_AT_data_member_location[DW_OP_plus_uconst 0x6]
    3721                      .dwattr $C$DW$219, DW_AT_accessibility(DW_ACCESS_public)
    3722              
    3723                      .dwendtag $C$DW$T$26
    3724              
    3725              $C$DW$T$46      .dwtag  DW_TAG_typedef
    3726                      .dwattr $C$DW$T$46, DW_AT_name("OS_FLAG_GRP")
    3727                      .dwattr $C$DW$T$46, DW_AT_type(*$C$DW$T$26)
    3728                      .dwattr $C$DW$T$46, DW_AT_language(DW_LANG_C)
    3729              
    3730              $C$DW$T$47      .dwtag  DW_TAG_pointer_type
    3731                      .dwattr $C$DW$T$47, DW_AT_type(*$C$DW$T$46)
    3732                      .dwattr $C$DW$T$47, DW_AT_address_class(0x20)
    3733              
    3734              
    3735              $C$DW$T$71      .dwtag  DW_TAG_array_type
    3736                      .dwattr $C$DW$T$71, DW_AT_type(*$C$DW$T$46)
    3737                      .dwattr $C$DW$T$71, DW_AT_language(DW_LANG_C)
    3738                      .dwattr $C$DW$T$71, DW_AT_byte_size(0x28)
    3739              $C$DW$220       .dwtag  DW_TAG_subrange_type
    3740                      .dwattr $C$DW$220, DW_AT_upper_bound(0x04)
    3741              
TMS320C2000 Assembler PC v20.2.1 Tue Feb 16 00:15:58 2021

Copyright (c) 1996-2018 Texas Instruments Incorporated
os_flag.asm                                                          PAGE   72

    3742                      .dwendtag $C$DW$T$71
    3743              
    3744              
    3745              $C$DW$T$27      .dwtag  DW_TAG_structure_type
    3746                      .dwattr $C$DW$T$27, DW_AT_name("os_flag_node")
    3747                      .dwattr $C$DW$T$27, DW_AT_byte_size(0x0a)
    3748              $C$DW$221       .dwtag  DW_TAG_member
    3749                      .dwattr $C$DW$221, DW_AT_type(*$C$DW$T$3)
    3750                      .dwattr $C$DW$221, DW_AT_name("OSFlagNodeNext")
    3751                      .dwattr $C$DW$221, DW_AT_TI_symbol_name("_OSFlagNodeNext")
    3752                      .dwattr $C$DW$221, DW_AT_data_member_location[DW_OP_plus_uconst 0x0]
    3753                      .dwattr $C$DW$221, DW_AT_accessibility(DW_ACCESS_public)
    3754              
    3755              $C$DW$222       .dwtag  DW_TAG_member
    3756                      .dwattr $C$DW$222, DW_AT_type(*$C$DW$T$3)
    3757                      .dwattr $C$DW$222, DW_AT_name("OSFlagNodePrev")
    3758                      .dwattr $C$DW$222, DW_AT_TI_symbol_name("_OSFlagNodePrev")
    3759                      .dwattr $C$DW$222, DW_AT_data_member_location[DW_OP_plus_uconst 0x2]
    3760                      .dwattr $C$DW$222, DW_AT_accessibility(DW_ACCESS_public)
    3761              
    3762              $C$DW$223       .dwtag  DW_TAG_member
    3763                      .dwattr $C$DW$223, DW_AT_type(*$C$DW$T$3)
    3764                      .dwattr $C$DW$223, DW_AT_name("OSFlagNodeTCB")
    3765                      .dwattr $C$DW$223, DW_AT_TI_symbol_name("_OSFlagNodeTCB")
    3766                      .dwattr $C$DW$223, DW_AT_data_member_location[DW_OP_plus_uconst 0x4]
    3767                      .dwattr $C$DW$223, DW_AT_accessibility(DW_ACCESS_public)
    3768              
    3769              $C$DW$224       .dwtag  DW_TAG_member
    3770                      .dwattr $C$DW$224, DW_AT_type(*$C$DW$T$3)
    3771                      .dwattr $C$DW$224, DW_AT_name("OSFlagNodeFlagGrp")
    3772                      .dwattr $C$DW$224, DW_AT_TI_symbol_name("_OSFlagNodeFlagGrp")
    3773                      .dwattr $C$DW$224, DW_AT_data_member_location[DW_OP_plus_uconst 0x6]
    3774                      .dwattr $C$DW$224, DW_AT_accessibility(DW_ACCESS_public)
    3775              
    3776              $C$DW$225       .dwtag  DW_TAG_member
    3777                      .dwattr $C$DW$225, DW_AT_type(*$C$DW$T$25)
    3778                      .dwattr $C$DW$225, DW_AT_name("OSFlagNodeFlags")
    3779                      .dwattr $C$DW$225, DW_AT_TI_symbol_name("_OSFlagNodeFlags")
    3780                      .dwattr $C$DW$225, DW_AT_data_member_location[DW_OP_plus_uconst 0x8]
    3781                      .dwattr $C$DW$225, DW_AT_accessibility(DW_ACCESS_public)
    3782              
    3783              $C$DW$226       .dwtag  DW_TAG_member
    3784                      .dwattr $C$DW$226, DW_AT_type(*$C$DW$T$19)
    3785                      .dwattr $C$DW$226, DW_AT_name("OSFlagNodeWaitType")
    3786                      .dwattr $C$DW$226, DW_AT_TI_symbol_name("_OSFlagNodeWaitType")
    3787                      .dwattr $C$DW$226, DW_AT_data_member_location[DW_OP_plus_uconst 0x9]
    3788                      .dwattr $C$DW$226, DW_AT_accessibility(DW_ACCESS_public)
    3789              
    3790                      .dwendtag $C$DW$T$27
    3791              
    3792              $C$DW$T$35      .dwtag  DW_TAG_typedef
    3793                      .dwattr $C$DW$T$35, DW_AT_name("OS_FLAG_NODE")
    3794                      .dwattr $C$DW$T$35, DW_AT_type(*$C$DW$T$27)
    3795                      .dwattr $C$DW$T$35, DW_AT_language(DW_LANG_C)
    3796              
TMS320C2000 Assembler PC v20.2.1 Tue Feb 16 00:15:58 2021

Copyright (c) 1996-2018 Texas Instruments Incorporated
os_flag.asm                                                          PAGE   73

    3797              $C$DW$T$36      .dwtag  DW_TAG_pointer_type
    3798                      .dwattr $C$DW$T$36, DW_AT_type(*$C$DW$T$35)
    3799                      .dwattr $C$DW$T$36, DW_AT_address_class(0x20)
    3800              
    3801              
    3802              $C$DW$T$38      .dwtag  DW_TAG_structure_type
    3803                      .dwattr $C$DW$T$38, DW_AT_name("os_tcb")
    3804                      .dwattr $C$DW$T$38, DW_AT_byte_size(0x30)
    3805              $C$DW$227       .dwtag  DW_TAG_member
    3806                      .dwattr $C$DW$227, DW_AT_type(*$C$DW$T$29)
    3807                      .dwattr $C$DW$227, DW_AT_name("OSTCBStkPtr")
    3808                      .dwattr $C$DW$227, DW_AT_TI_symbol_name("_OSTCBStkPtr")
    3809                      .dwattr $C$DW$227, DW_AT_data_member_location[DW_OP_plus_uconst 0x0]
    3810                      .dwattr $C$DW$227, DW_AT_accessibility(DW_ACCESS_public)
    3811              
    3812              $C$DW$228       .dwtag  DW_TAG_member
    3813                      .dwattr $C$DW$228, DW_AT_type(*$C$DW$T$3)
    3814                      .dwattr $C$DW$228, DW_AT_name("OSTCBExtPtr")
    3815                      .dwattr $C$DW$228, DW_AT_TI_symbol_name("_OSTCBExtPtr")
    3816                      .dwattr $C$DW$228, DW_AT_data_member_location[DW_OP_plus_uconst 0x2]
    3817                      .dwattr $C$DW$228, DW_AT_accessibility(DW_ACCESS_public)
    3818              
    3819              $C$DW$229       .dwtag  DW_TAG_member
    3820                      .dwattr $C$DW$229, DW_AT_type(*$C$DW$T$29)
    3821                      .dwattr $C$DW$229, DW_AT_name("OSTCBStkBottom")
    3822                      .dwattr $C$DW$229, DW_AT_TI_symbol_name("_OSTCBStkBottom")
    3823                      .dwattr $C$DW$229, DW_AT_data_member_location[DW_OP_plus_uconst 0x4]
    3824                      .dwattr $C$DW$229, DW_AT_accessibility(DW_ACCESS_public)
    3825              
    3826              $C$DW$230       .dwtag  DW_TAG_member
    3827                      .dwattr $C$DW$230, DW_AT_type(*$C$DW$T$30)
    3828                      .dwattr $C$DW$230, DW_AT_name("OSTCBStkSize")
    3829                      .dwattr $C$DW$230, DW_AT_TI_symbol_name("_OSTCBStkSize")
    3830                      .dwattr $C$DW$230, DW_AT_data_member_location[DW_OP_plus_uconst 0x6]
    3831                      .dwattr $C$DW$230, DW_AT_accessibility(DW_ACCESS_public)
    3832              
    3833              $C$DW$231       .dwtag  DW_TAG_member
    3834                      .dwattr $C$DW$231, DW_AT_type(*$C$DW$T$20)
    3835                      .dwattr $C$DW$231, DW_AT_name("OSTCBOpt")
    3836                      .dwattr $C$DW$231, DW_AT_TI_symbol_name("_OSTCBOpt")
    3837                      .dwattr $C$DW$231, DW_AT_data_member_location[DW_OP_plus_uconst 0x8]
    3838                      .dwattr $C$DW$231, DW_AT_accessibility(DW_ACCESS_public)
    3839              
    3840              $C$DW$232       .dwtag  DW_TAG_member
    3841                      .dwattr $C$DW$232, DW_AT_type(*$C$DW$T$20)
    3842                      .dwattr $C$DW$232, DW_AT_name("OSTCBId")
    3843                      .dwattr $C$DW$232, DW_AT_TI_symbol_name("_OSTCBId")
    3844                      .dwattr $C$DW$232, DW_AT_data_member_location[DW_OP_plus_uconst 0x9]
    3845                      .dwattr $C$DW$232, DW_AT_accessibility(DW_ACCESS_public)
    3846              
    3847              $C$DW$233       .dwtag  DW_TAG_member
    3848                      .dwattr $C$DW$233, DW_AT_type(*$C$DW$T$31)
    3849                      .dwattr $C$DW$233, DW_AT_name("OSTCBNext")
    3850                      .dwattr $C$DW$233, DW_AT_TI_symbol_name("_OSTCBNext")
    3851                      .dwattr $C$DW$233, DW_AT_data_member_location[DW_OP_plus_uconst 0xa]
TMS320C2000 Assembler PC v20.2.1 Tue Feb 16 00:15:58 2021

Copyright (c) 1996-2018 Texas Instruments Incorporated
os_flag.asm                                                          PAGE   74

    3852                      .dwattr $C$DW$233, DW_AT_accessibility(DW_ACCESS_public)
    3853              
    3854              $C$DW$234       .dwtag  DW_TAG_member
    3855                      .dwattr $C$DW$234, DW_AT_type(*$C$DW$T$31)
    3856                      .dwattr $C$DW$234, DW_AT_name("OSTCBPrev")
    3857                      .dwattr $C$DW$234, DW_AT_TI_symbol_name("_OSTCBPrev")
    3858                      .dwattr $C$DW$234, DW_AT_data_member_location[DW_OP_plus_uconst 0xc]
    3859                      .dwattr $C$DW$234, DW_AT_accessibility(DW_ACCESS_public)
    3860              
    3861              $C$DW$235       .dwtag  DW_TAG_member
    3862                      .dwattr $C$DW$235, DW_AT_type(*$C$DW$T$33)
    3863                      .dwattr $C$DW$235, DW_AT_name("OSTCBEventPtr")
    3864                      .dwattr $C$DW$235, DW_AT_TI_symbol_name("_OSTCBEventPtr")
    3865                      .dwattr $C$DW$235, DW_AT_data_member_location[DW_OP_plus_uconst 0xe]
    3866                      .dwattr $C$DW$235, DW_AT_accessibility(DW_ACCESS_public)
    3867              
    3868              $C$DW$236       .dwtag  DW_TAG_member
    3869                      .dwattr $C$DW$236, DW_AT_type(*$C$DW$T$34)
    3870                      .dwattr $C$DW$236, DW_AT_name("OSTCBEventMultiPtr")
    3871                      .dwattr $C$DW$236, DW_AT_TI_symbol_name("_OSTCBEventMultiPtr")
    3872                      .dwattr $C$DW$236, DW_AT_data_member_location[DW_OP_plus_uconst 0x10]
    3873                      .dwattr $C$DW$236, DW_AT_accessibility(DW_ACCESS_public)
    3874              
    3875              $C$DW$237       .dwtag  DW_TAG_member
    3876                      .dwattr $C$DW$237, DW_AT_type(*$C$DW$T$3)
    3877                      .dwattr $C$DW$237, DW_AT_name("OSTCBMsg")
    3878                      .dwattr $C$DW$237, DW_AT_TI_symbol_name("_OSTCBMsg")
    3879                      .dwattr $C$DW$237, DW_AT_data_member_location[DW_OP_plus_uconst 0x12]
    3880                      .dwattr $C$DW$237, DW_AT_accessibility(DW_ACCESS_public)
    3881              
    3882              $C$DW$238       .dwtag  DW_TAG_member
    3883                      .dwattr $C$DW$238, DW_AT_type(*$C$DW$T$36)
    3884                      .dwattr $C$DW$238, DW_AT_name("OSTCBFlagNode")
    3885                      .dwattr $C$DW$238, DW_AT_TI_symbol_name("_OSTCBFlagNode")
    3886                      .dwattr $C$DW$238, DW_AT_data_member_location[DW_OP_plus_uconst 0x14]
    3887                      .dwattr $C$DW$238, DW_AT_accessibility(DW_ACCESS_public)
    3888              
    3889              $C$DW$239       .dwtag  DW_TAG_member
    3890                      .dwattr $C$DW$239, DW_AT_type(*$C$DW$T$25)
    3891                      .dwattr $C$DW$239, DW_AT_name("OSTCBFlagsRdy")
    3892                      .dwattr $C$DW$239, DW_AT_TI_symbol_name("_OSTCBFlagsRdy")
    3893                      .dwattr $C$DW$239, DW_AT_data_member_location[DW_OP_plus_uconst 0x16]
    3894                      .dwattr $C$DW$239, DW_AT_accessibility(DW_ACCESS_public)
    3895              
    3896              $C$DW$240       .dwtag  DW_TAG_member
    3897                      .dwattr $C$DW$240, DW_AT_type(*$C$DW$T$30)
    3898                      .dwattr $C$DW$240, DW_AT_name("OSTCBDly")
    3899                      .dwattr $C$DW$240, DW_AT_TI_symbol_name("_OSTCBDly")
    3900                      .dwattr $C$DW$240, DW_AT_data_member_location[DW_OP_plus_uconst 0x18]
    3901                      .dwattr $C$DW$240, DW_AT_accessibility(DW_ACCESS_public)
    3902              
    3903              $C$DW$241       .dwtag  DW_TAG_member
    3904                      .dwattr $C$DW$241, DW_AT_type(*$C$DW$T$19)
    3905                      .dwattr $C$DW$241, DW_AT_name("OSTCBStat")
    3906                      .dwattr $C$DW$241, DW_AT_TI_symbol_name("_OSTCBStat")
TMS320C2000 Assembler PC v20.2.1 Tue Feb 16 00:15:58 2021

Copyright (c) 1996-2018 Texas Instruments Incorporated
os_flag.asm                                                          PAGE   75

    3907                      .dwattr $C$DW$241, DW_AT_data_member_location[DW_OP_plus_uconst 0x1a]
    3908                      .dwattr $C$DW$241, DW_AT_accessibility(DW_ACCESS_public)
    3909              
    3910              $C$DW$242       .dwtag  DW_TAG_member
    3911                      .dwattr $C$DW$242, DW_AT_type(*$C$DW$T$19)
    3912                      .dwattr $C$DW$242, DW_AT_name("OSTCBStatPend")
    3913                      .dwattr $C$DW$242, DW_AT_TI_symbol_name("_OSTCBStatPend")
    3914                      .dwattr $C$DW$242, DW_AT_data_member_location[DW_OP_plus_uconst 0x1b]
    3915                      .dwattr $C$DW$242, DW_AT_accessibility(DW_ACCESS_public)
    3916              
    3917              $C$DW$243       .dwtag  DW_TAG_member
    3918                      .dwattr $C$DW$243, DW_AT_type(*$C$DW$T$19)
    3919                      .dwattr $C$DW$243, DW_AT_name("OSTCBPrio")
    3920                      .dwattr $C$DW$243, DW_AT_TI_symbol_name("_OSTCBPrio")
    3921                      .dwattr $C$DW$243, DW_AT_data_member_location[DW_OP_plus_uconst 0x1c]
    3922                      .dwattr $C$DW$243, DW_AT_accessibility(DW_ACCESS_public)
    3923              
    3924              $C$DW$244       .dwtag  DW_TAG_member
    3925                      .dwattr $C$DW$244, DW_AT_type(*$C$DW$T$19)
    3926                      .dwattr $C$DW$244, DW_AT_name("OSTCBX")
    3927                      .dwattr $C$DW$244, DW_AT_TI_symbol_name("_OSTCBX")
    3928                      .dwattr $C$DW$244, DW_AT_data_member_location[DW_OP_plus_uconst 0x1d]
    3929                      .dwattr $C$DW$244, DW_AT_accessibility(DW_ACCESS_public)
    3930              
    3931              $C$DW$245       .dwtag  DW_TAG_member
    3932                      .dwattr $C$DW$245, DW_AT_type(*$C$DW$T$19)
    3933                      .dwattr $C$DW$245, DW_AT_name("OSTCBY")
    3934                      .dwattr $C$DW$245, DW_AT_TI_symbol_name("_OSTCBY")
    3935                      .dwattr $C$DW$245, DW_AT_data_member_location[DW_OP_plus_uconst 0x1e]
    3936                      .dwattr $C$DW$245, DW_AT_accessibility(DW_ACCESS_public)
    3937              
    3938              $C$DW$246       .dwtag  DW_TAG_member
    3939                      .dwattr $C$DW$246, DW_AT_type(*$C$DW$T$21)
    3940                      .dwattr $C$DW$246, DW_AT_name("OSTCBBitX")
    3941                      .dwattr $C$DW$246, DW_AT_TI_symbol_name("_OSTCBBitX")
    3942                      .dwattr $C$DW$246, DW_AT_data_member_location[DW_OP_plus_uconst 0x1f]
    3943                      .dwattr $C$DW$246, DW_AT_accessibility(DW_ACCESS_public)
    3944              
    3945              $C$DW$247       .dwtag  DW_TAG_member
    3946                      .dwattr $C$DW$247, DW_AT_type(*$C$DW$T$21)
    3947                      .dwattr $C$DW$247, DW_AT_name("OSTCBBitY")
    3948                      .dwattr $C$DW$247, DW_AT_TI_symbol_name("_OSTCBBitY")
    3949                      .dwattr $C$DW$247, DW_AT_data_member_location[DW_OP_plus_uconst 0x20]
    3950                      .dwattr $C$DW$247, DW_AT_accessibility(DW_ACCESS_public)
    3951              
    3952              $C$DW$248       .dwtag  DW_TAG_member
    3953                      .dwattr $C$DW$248, DW_AT_type(*$C$DW$T$19)
    3954                      .dwattr $C$DW$248, DW_AT_name("OSTCBDelReq")
    3955                      .dwattr $C$DW$248, DW_AT_TI_symbol_name("_OSTCBDelReq")
    3956                      .dwattr $C$DW$248, DW_AT_data_member_location[DW_OP_plus_uconst 0x21]
    3957                      .dwattr $C$DW$248, DW_AT_accessibility(DW_ACCESS_public)
    3958              
    3959              $C$DW$249       .dwtag  DW_TAG_member
    3960                      .dwattr $C$DW$249, DW_AT_type(*$C$DW$T$30)
    3961                      .dwattr $C$DW$249, DW_AT_name("OSTCBCtxSwCtr")
TMS320C2000 Assembler PC v20.2.1 Tue Feb 16 00:15:58 2021

Copyright (c) 1996-2018 Texas Instruments Incorporated
os_flag.asm                                                          PAGE   76

    3962                      .dwattr $C$DW$249, DW_AT_TI_symbol_name("_OSTCBCtxSwCtr")
    3963                      .dwattr $C$DW$249, DW_AT_data_member_location[DW_OP_plus_uconst 0x22]
    3964                      .dwattr $C$DW$249, DW_AT_accessibility(DW_ACCESS_public)
    3965              
    3966              $C$DW$250       .dwtag  DW_TAG_member
    3967                      .dwattr $C$DW$250, DW_AT_type(*$C$DW$T$30)
    3968                      .dwattr $C$DW$250, DW_AT_name("OSTCBCyclesTot")
    3969                      .dwattr $C$DW$250, DW_AT_TI_symbol_name("_OSTCBCyclesTot")
    3970                      .dwattr $C$DW$250, DW_AT_data_member_location[DW_OP_plus_uconst 0x24]
    3971                      .dwattr $C$DW$250, DW_AT_accessibility(DW_ACCESS_public)
    3972              
    3973              $C$DW$251       .dwtag  DW_TAG_member
    3974                      .dwattr $C$DW$251, DW_AT_type(*$C$DW$T$30)
    3975                      .dwattr $C$DW$251, DW_AT_name("OSTCBCyclesStart")
    3976                      .dwattr $C$DW$251, DW_AT_TI_symbol_name("_OSTCBCyclesStart")
    3977                      .dwattr $C$DW$251, DW_AT_data_member_location[DW_OP_plus_uconst 0x26]
    3978                      .dwattr $C$DW$251, DW_AT_accessibility(DW_ACCESS_public)
    3979              
    3980              $C$DW$252       .dwtag  DW_TAG_member
    3981                      .dwattr $C$DW$252, DW_AT_type(*$C$DW$T$29)
    3982                      .dwattr $C$DW$252, DW_AT_name("OSTCBStkBase")
    3983                      .dwattr $C$DW$252, DW_AT_TI_symbol_name("_OSTCBStkBase")
    3984                      .dwattr $C$DW$252, DW_AT_data_member_location[DW_OP_plus_uconst 0x28]
    3985                      .dwattr $C$DW$252, DW_AT_accessibility(DW_ACCESS_public)
    3986              
    3987              $C$DW$253       .dwtag  DW_TAG_member
    3988                      .dwattr $C$DW$253, DW_AT_type(*$C$DW$T$30)
    3989                      .dwattr $C$DW$253, DW_AT_name("OSTCBStkUsed")
    3990                      .dwattr $C$DW$253, DW_AT_TI_symbol_name("_OSTCBStkUsed")
    3991                      .dwattr $C$DW$253, DW_AT_data_member_location[DW_OP_plus_uconst 0x2a]
    3992                      .dwattr $C$DW$253, DW_AT_accessibility(DW_ACCESS_public)
    3993              
    3994              $C$DW$254       .dwtag  DW_TAG_member
    3995                      .dwattr $C$DW$254, DW_AT_type(*$C$DW$T$23)
    3996                      .dwattr $C$DW$254, DW_AT_name("OSTCBTaskName")
    3997                      .dwattr $C$DW$254, DW_AT_TI_symbol_name("_OSTCBTaskName")
    3998                      .dwattr $C$DW$254, DW_AT_data_member_location[DW_OP_plus_uconst 0x2c]
    3999                      .dwattr $C$DW$254, DW_AT_accessibility(DW_ACCESS_public)
    4000              
    4001              $C$DW$255       .dwtag  DW_TAG_member
    4002                      .dwattr $C$DW$255, DW_AT_type(*$C$DW$T$37)
    4003                      .dwattr $C$DW$255, DW_AT_name("OSTCBRegTbl")
    4004                      .dwattr $C$DW$255, DW_AT_TI_symbol_name("_OSTCBRegTbl")
    4005                      .dwattr $C$DW$255, DW_AT_data_member_location[DW_OP_plus_uconst 0x2e]
    4006                      .dwattr $C$DW$255, DW_AT_accessibility(DW_ACCESS_public)
    4007              
    4008                      .dwendtag $C$DW$T$38
    4009              
    4010              $C$DW$T$72      .dwtag  DW_TAG_typedef
    4011                      .dwattr $C$DW$T$72, DW_AT_name("OS_TCB")
    4012                      .dwattr $C$DW$T$72, DW_AT_type(*$C$DW$T$38)
    4013                      .dwattr $C$DW$T$72, DW_AT_language(DW_LANG_C)
    4014              
    4015              $C$DW$T$73      .dwtag  DW_TAG_pointer_type
    4016                      .dwattr $C$DW$T$73, DW_AT_type(*$C$DW$T$72)
TMS320C2000 Assembler PC v20.2.1 Tue Feb 16 00:15:58 2021

Copyright (c) 1996-2018 Texas Instruments Incorporated
os_flag.asm                                                          PAGE   77

    4017                      .dwattr $C$DW$T$73, DW_AT_address_class(0x20)
    4018              
    4019              $C$DW$T$31      .dwtag  DW_TAG_pointer_type
    4020                      .dwattr $C$DW$T$31, DW_AT_type(*$C$DW$T$38)
    4021                      .dwattr $C$DW$T$31, DW_AT_address_class(0x20)
    4022              
    4023                      .dwattr $C$DW$CU, DW_AT_language(DW_LANG_C)
    4024              
    4025              ;***************************************************************
    4026              ;* DWARF CIE ENTRIES                                           *
    4027              ;***************************************************************
    4028              
    4029              $C$DW$CIE       .dwcie 26
    4030                      .dwcfi  cfa_register, 20
    4031                      .dwcfi  cfa_offset, 0
    4032                      .dwcfi  same_value, 28
    4033                      .dwcfi  same_value, 6
    4034                      .dwcfi  same_value, 7
    4035                      .dwcfi  same_value, 8
    4036                      .dwcfi  same_value, 9
    4037                      .dwcfi  same_value, 10
    4038                      .dwcfi  same_value, 11
    4039                      .dwendentry
    4040              
    4041              ;***************************************************************
    4042              ;* DWARF REGISTER MAP                                          *
    4043              ;***************************************************************
    4044              
    4045              $C$DW$256       .dwtag  DW_TAG_TI_assign_register
    4046                      .dwattr $C$DW$256, DW_AT_name("AL")
    4047                      .dwattr $C$DW$256, DW_AT_location[DW_OP_reg0]
    4048              
    4049              $C$DW$257       .dwtag  DW_TAG_TI_assign_register
    4050                      .dwattr $C$DW$257, DW_AT_name("AH")
    4051                      .dwattr $C$DW$257, DW_AT_location[DW_OP_reg1]
    4052              
    4053              $C$DW$258       .dwtag  DW_TAG_TI_assign_register
    4054                      .dwattr $C$DW$258, DW_AT_name("PL")
    4055                      .dwattr $C$DW$258, DW_AT_location[DW_OP_reg2]
    4056              
    4057              $C$DW$259       .dwtag  DW_TAG_TI_assign_register
    4058                      .dwattr $C$DW$259, DW_AT_name("PH")
    4059                      .dwattr $C$DW$259, DW_AT_location[DW_OP_reg3]
    4060              
    4061              $C$DW$260       .dwtag  DW_TAG_TI_assign_register
    4062                      .dwattr $C$DW$260, DW_AT_name("SP")
    4063                      .dwattr $C$DW$260, DW_AT_location[DW_OP_reg20]
    4064              
    4065              $C$DW$261       .dwtag  DW_TAG_TI_assign_register
    4066                      .dwattr $C$DW$261, DW_AT_name("XT")
    4067                      .dwattr $C$DW$261, DW_AT_location[DW_OP_reg21]
    4068              
    4069              $C$DW$262       .dwtag  DW_TAG_TI_assign_register
    4070                      .dwattr $C$DW$262, DW_AT_name("T")
    4071                      .dwattr $C$DW$262, DW_AT_location[DW_OP_reg22]
TMS320C2000 Assembler PC v20.2.1 Tue Feb 16 00:15:58 2021

Copyright (c) 1996-2018 Texas Instruments Incorporated
os_flag.asm                                                          PAGE   78

    4072              
    4073              $C$DW$263       .dwtag  DW_TAG_TI_assign_register
    4074                      .dwattr $C$DW$263, DW_AT_name("ST0")
    4075                      .dwattr $C$DW$263, DW_AT_location[DW_OP_reg23]
    4076              
    4077              $C$DW$264       .dwtag  DW_TAG_TI_assign_register
    4078                      .dwattr $C$DW$264, DW_AT_name("ST1")
    4079                      .dwattr $C$DW$264, DW_AT_location[DW_OP_reg24]
    4080              
    4081              $C$DW$265       .dwtag  DW_TAG_TI_assign_register
    4082                      .dwattr $C$DW$265, DW_AT_name("PC")
    4083                      .dwattr $C$DW$265, DW_AT_location[DW_OP_reg25]
    4084              
    4085              $C$DW$266       .dwtag  DW_TAG_TI_assign_register
    4086                      .dwattr $C$DW$266, DW_AT_name("RPC")
    4087                      .dwattr $C$DW$266, DW_AT_location[DW_OP_reg26]
    4088              
    4089              $C$DW$267       .dwtag  DW_TAG_TI_assign_register
    4090                      .dwattr $C$DW$267, DW_AT_name("FP")
    4091                      .dwattr $C$DW$267, DW_AT_location[DW_OP_reg28]
    4092              
    4093              $C$DW$268       .dwtag  DW_TAG_TI_assign_register
    4094                      .dwattr $C$DW$268, DW_AT_name("DP")
    4095                      .dwattr $C$DW$268, DW_AT_location[DW_OP_reg29]
    4096              
    4097              $C$DW$269       .dwtag  DW_TAG_TI_assign_register
    4098                      .dwattr $C$DW$269, DW_AT_name("SXM")
    4099                      .dwattr $C$DW$269, DW_AT_location[DW_OP_reg30]
    4100              
    4101              $C$DW$270       .dwtag  DW_TAG_TI_assign_register
    4102                      .dwattr $C$DW$270, DW_AT_name("PM")
    4103                      .dwattr $C$DW$270, DW_AT_location[DW_OP_reg31]
    4104              
    4105              $C$DW$271       .dwtag  DW_TAG_TI_assign_register
    4106                      .dwattr $C$DW$271, DW_AT_name("OVM")
    4107                      .dwattr $C$DW$271, DW_AT_location[DW_OP_regx 0x20]
    4108              
    4109              $C$DW$272       .dwtag  DW_TAG_TI_assign_register
    4110                      .dwattr $C$DW$272, DW_AT_name("PAGE0")
    4111                      .dwattr $C$DW$272, DW_AT_location[DW_OP_regx 0x21]
    4112              
    4113              $C$DW$273       .dwtag  DW_TAG_TI_assign_register
    4114                      .dwattr $C$DW$273, DW_AT_name("AMODE")
    4115                      .dwattr $C$DW$273, DW_AT_location[DW_OP_regx 0x22]
    4116              
    4117              $C$DW$274       .dwtag  DW_TAG_TI_assign_register
    4118                      .dwattr $C$DW$274, DW_AT_name("EALLOW")
    4119                      .dwattr $C$DW$274, DW_AT_location[DW_OP_regx 0x4e]
    4120              
    4121              $C$DW$275       .dwtag  DW_TAG_TI_assign_register
    4122                      .dwattr $C$DW$275, DW_AT_name("INTM")
    4123                      .dwattr $C$DW$275, DW_AT_location[DW_OP_regx 0x23]
    4124              
    4125              $C$DW$276       .dwtag  DW_TAG_TI_assign_register
    4126                      .dwattr $C$DW$276, DW_AT_name("IFR")
TMS320C2000 Assembler PC v20.2.1 Tue Feb 16 00:15:58 2021

Copyright (c) 1996-2018 Texas Instruments Incorporated
os_flag.asm                                                          PAGE   79

    4127                      .dwattr $C$DW$276, DW_AT_location[DW_OP_regx 0x24]
    4128              
    4129              $C$DW$277       .dwtag  DW_TAG_TI_assign_register
    4130                      .dwattr $C$DW$277, DW_AT_name("IER")
    4131                      .dwattr $C$DW$277, DW_AT_location[DW_OP_regx 0x25]
    4132              
    4133              $C$DW$278       .dwtag  DW_TAG_TI_assign_register
    4134                      .dwattr $C$DW$278, DW_AT_name("V")
    4135                      .dwattr $C$DW$278, DW_AT_location[DW_OP_regx 0x26]
    4136              
    4137              $C$DW$279       .dwtag  DW_TAG_TI_assign_register
    4138                      .dwattr $C$DW$279, DW_AT_name("PSEUDOH")
    4139                      .dwattr $C$DW$279, DW_AT_location[DW_OP_regx 0x4c]
    4140              
    4141              $C$DW$280       .dwtag  DW_TAG_TI_assign_register
    4142                      .dwattr $C$DW$280, DW_AT_name("VOL")
    4143                      .dwattr $C$DW$280, DW_AT_location[DW_OP_regx 0x4d]
    4144              
    4145              $C$DW$281       .dwtag  DW_TAG_TI_assign_register
    4146                      .dwattr $C$DW$281, DW_AT_name("AR0")
    4147                      .dwattr $C$DW$281, DW_AT_location[DW_OP_reg4]
    4148              
    4149              $C$DW$282       .dwtag  DW_TAG_TI_assign_register
    4150                      .dwattr $C$DW$282, DW_AT_name("XAR0")
    4151                      .dwattr $C$DW$282, DW_AT_location[DW_OP_reg5]
    4152              
    4153              $C$DW$283       .dwtag  DW_TAG_TI_assign_register
    4154                      .dwattr $C$DW$283, DW_AT_name("AR1")
    4155                      .dwattr $C$DW$283, DW_AT_location[DW_OP_reg6]
    4156              
    4157              $C$DW$284       .dwtag  DW_TAG_TI_assign_register
    4158                      .dwattr $C$DW$284, DW_AT_name("XAR1")
    4159                      .dwattr $C$DW$284, DW_AT_location[DW_OP_reg7]
    4160              
    4161              $C$DW$285       .dwtag  DW_TAG_TI_assign_register
    4162                      .dwattr $C$DW$285, DW_AT_name("AR2")
    4163                      .dwattr $C$DW$285, DW_AT_location[DW_OP_reg8]
    4164              
    4165              $C$DW$286       .dwtag  DW_TAG_TI_assign_register
    4166                      .dwattr $C$DW$286, DW_AT_name("XAR2")
    4167                      .dwattr $C$DW$286, DW_AT_location[DW_OP_reg9]
    4168              
    4169              $C$DW$287       .dwtag  DW_TAG_TI_assign_register
    4170                      .dwattr $C$DW$287, DW_AT_name("AR3")
    4171                      .dwattr $C$DW$287, DW_AT_location[DW_OP_reg10]
    4172              
    4173              $C$DW$288       .dwtag  DW_TAG_TI_assign_register
    4174                      .dwattr $C$DW$288, DW_AT_name("XAR3")
    4175                      .dwattr $C$DW$288, DW_AT_location[DW_OP_reg11]
    4176              
    4177              $C$DW$289       .dwtag  DW_TAG_TI_assign_register
    4178                      .dwattr $C$DW$289, DW_AT_name("AR4")
    4179                      .dwattr $C$DW$289, DW_AT_location[DW_OP_reg12]
    4180              
    4181              $C$DW$290       .dwtag  DW_TAG_TI_assign_register
TMS320C2000 Assembler PC v20.2.1 Tue Feb 16 00:15:58 2021

Copyright (c) 1996-2018 Texas Instruments Incorporated
os_flag.asm                                                          PAGE   80

    4182                      .dwattr $C$DW$290, DW_AT_name("XAR4")
    4183                      .dwattr $C$DW$290, DW_AT_location[DW_OP_reg13]
    4184              
    4185              $C$DW$291       .dwtag  DW_TAG_TI_assign_register
    4186                      .dwattr $C$DW$291, DW_AT_name("AR5")
    4187                      .dwattr $C$DW$291, DW_AT_location[DW_OP_reg14]
    4188              
    4189              $C$DW$292       .dwtag  DW_TAG_TI_assign_register
    4190                      .dwattr $C$DW$292, DW_AT_name("XAR5")
    4191                      .dwattr $C$DW$292, DW_AT_location[DW_OP_reg15]
    4192              
    4193              $C$DW$293       .dwtag  DW_TAG_TI_assign_register
    4194                      .dwattr $C$DW$293, DW_AT_name("AR6")
    4195                      .dwattr $C$DW$293, DW_AT_location[DW_OP_reg16]
    4196              
    4197              $C$DW$294       .dwtag  DW_TAG_TI_assign_register
    4198                      .dwattr $C$DW$294, DW_AT_name("XAR6")
    4199                      .dwattr $C$DW$294, DW_AT_location[DW_OP_reg17]
    4200              
    4201              $C$DW$295       .dwtag  DW_TAG_TI_assign_register
    4202                      .dwattr $C$DW$295, DW_AT_name("AR7")
    4203                      .dwattr $C$DW$295, DW_AT_location[DW_OP_reg18]
    4204              
    4205              $C$DW$296       .dwtag  DW_TAG_TI_assign_register
    4206                      .dwattr $C$DW$296, DW_AT_name("XAR7")
    4207                      .dwattr $C$DW$296, DW_AT_location[DW_OP_reg19]
    4208              
    4209                      .dwendtag $C$DW$CU
    4210              

No Assembly Errors, No Assembly Warnings
