TMS320C2000 Assembler PC v20.2.1 Tue Feb 16 00:15:59 2021

Copyright (c) 1996-2018 Texas Instruments Incorporated
os_mutex.asm                                                         PAGE    1

       1              ;***************************************************************
       2              ;* TMS320C2000 G3 C/C++ Codegen                               PC v20.2.1.LTS *
       3              ;* Date/Time created: Tue Feb 16 00:15:59 2021                 *
       4              ;***************************************************************
       5                      .compiler_opts --abi=coffabi --diag_wrap=off --float_support=softlib --hll_source=on --mem_model:code
       6                      .asg    XAR2, FP
       7              
       8              $C$DW$CU        .dwtag  DW_TAG_compile_unit
       9                      .dwattr $C$DW$CU, DW_AT_name("C:/ti/Workspace/PLC_certificate/Software/uCOS-II/Source/os_mutex.c")
      10                      .dwattr $C$DW$CU, DW_AT_producer("TI TMS320C2000 G3 C/C++ Codegen PC v20.2.1.LTS Copyright (c) 1996-2
      11                      .dwattr $C$DW$CU, DW_AT_TI_version(0x01)
      12                      .dwattr $C$DW$CU, DW_AT_comp_dir("C:\ti\Workspace\PLC_certificate\Examples\TI\TMDSDOCK28335\OS2\CCS\D
      13              
      14              $C$DW$1 .dwtag  DW_TAG_subprogram
      15                      .dwattr $C$DW$1, DW_AT_name("OS_CPU_SR_Restore")
      16                      .dwattr $C$DW$1, DW_AT_TI_symbol_name("_OS_CPU_SR_Restore")
      17                      .dwattr $C$DW$1, DW_AT_declaration
      18                      .dwattr $C$DW$1, DW_AT_external
      19              $C$DW$2 .dwtag  DW_TAG_formal_parameter
      20                      .dwattr $C$DW$2, DW_AT_type(*$C$DW$T$40)
      21              
      22                      .dwendtag $C$DW$1
      23              
      24              
      25              $C$DW$3 .dwtag  DW_TAG_subprogram
      26                      .dwattr $C$DW$3, DW_AT_name("OS_EventWaitListInit")
      27                      .dwattr $C$DW$3, DW_AT_TI_symbol_name("_OS_EventWaitListInit")
      28                      .dwattr $C$DW$3, DW_AT_declaration
      29                      .dwattr $C$DW$3, DW_AT_external
      30              $C$DW$4 .dwtag  DW_TAG_formal_parameter
      31                      .dwattr $C$DW$4, DW_AT_type(*$C$DW$T$34)
      32              
      33                      .dwendtag $C$DW$3
      34              
      35              
      36              $C$DW$5 .dwtag  DW_TAG_subprogram
      37                      .dwattr $C$DW$5, DW_AT_name("OS_Sched")
      38                      .dwattr $C$DW$5, DW_AT_TI_symbol_name("_OS_Sched")
      39                      .dwattr $C$DW$5, DW_AT_declaration
      40                      .dwattr $C$DW$5, DW_AT_external
      41                      .dwendtag $C$DW$5
      42              
      43              
      44              $C$DW$6 .dwtag  DW_TAG_subprogram
      45                      .dwattr $C$DW$6, DW_AT_name("OS_EventTaskWait")
      46                      .dwattr $C$DW$6, DW_AT_TI_symbol_name("_OS_EventTaskWait")
      47                      .dwattr $C$DW$6, DW_AT_declaration
      48                      .dwattr $C$DW$6, DW_AT_external
      49              $C$DW$7 .dwtag  DW_TAG_formal_parameter
      50                      .dwattr $C$DW$7, DW_AT_type(*$C$DW$T$34)
      51              
      52                      .dwendtag $C$DW$6
      53              
      54              
      55              $C$DW$8 .dwtag  DW_TAG_subprogram
TMS320C2000 Assembler PC v20.2.1 Tue Feb 16 00:15:59 2021

Copyright (c) 1996-2018 Texas Instruments Incorporated
os_mutex.asm                                                         PAGE    2

      56                      .dwattr $C$DW$8, DW_AT_name("OS_EventTaskRemove")
      57                      .dwattr $C$DW$8, DW_AT_TI_symbol_name("_OS_EventTaskRemove")
      58                      .dwattr $C$DW$8, DW_AT_declaration
      59                      .dwattr $C$DW$8, DW_AT_external
      60              $C$DW$9 .dwtag  DW_TAG_formal_parameter
      61                      .dwattr $C$DW$9, DW_AT_type(*$C$DW$T$46)
      62              
      63              $C$DW$10        .dwtag  DW_TAG_formal_parameter
      64                      .dwattr $C$DW$10, DW_AT_type(*$C$DW$T$34)
      65              
      66                      .dwendtag $C$DW$8
      67              
      68              $C$DW$11        .dwtag  DW_TAG_variable
      69                      .dwattr $C$DW$11, DW_AT_name("OSIntNesting")
      70                      .dwattr $C$DW$11, DW_AT_TI_symbol_name("_OSIntNesting")
      71                      .dwattr $C$DW$11, DW_AT_type(*$C$DW$T$19)
      72                      .dwattr $C$DW$11, DW_AT_declaration
      73                      .dwattr $C$DW$11, DW_AT_external
      74              
      75              $C$DW$12        .dwtag  DW_TAG_variable
      76                      .dwattr $C$DW$12, DW_AT_name("OSLockNesting")
      77                      .dwattr $C$DW$12, DW_AT_TI_symbol_name("_OSLockNesting")
      78                      .dwattr $C$DW$12, DW_AT_type(*$C$DW$T$19)
      79                      .dwattr $C$DW$12, DW_AT_declaration
      80                      .dwattr $C$DW$12, DW_AT_external
      81              
      82              $C$DW$13        .dwtag  DW_TAG_variable
      83                      .dwattr $C$DW$13, DW_AT_name("OSPrioCur")
      84                      .dwattr $C$DW$13, DW_AT_TI_symbol_name("_OSPrioCur")
      85                      .dwattr $C$DW$13, DW_AT_type(*$C$DW$T$19)
      86                      .dwattr $C$DW$13, DW_AT_declaration
      87                      .dwattr $C$DW$13, DW_AT_external
      88              
      89              $C$DW$14        .dwtag  DW_TAG_variable
      90                      .dwattr $C$DW$14, DW_AT_name("OSRdyGrp")
      91                      .dwattr $C$DW$14, DW_AT_TI_symbol_name("_OSRdyGrp")
      92                      .dwattr $C$DW$14, DW_AT_type(*$C$DW$T$21)
      93                      .dwattr $C$DW$14, DW_AT_declaration
      94                      .dwattr $C$DW$14, DW_AT_external
      95              
      96              
      97              $C$DW$15        .dwtag  DW_TAG_subprogram
      98                      .dwattr $C$DW$15, DW_AT_name("OS_CPU_SR_Save")
      99                      .dwattr $C$DW$15, DW_AT_TI_symbol_name("_OS_CPU_SR_Save")
     100                      .dwattr $C$DW$15, DW_AT_type(*$C$DW$T$40)
     101                      .dwattr $C$DW$15, DW_AT_declaration
     102                      .dwattr $C$DW$15, DW_AT_external
     103                      .dwendtag $C$DW$15
     104              
     105              
     106              $C$DW$16        .dwtag  DW_TAG_subprogram
     107                      .dwattr $C$DW$16, DW_AT_name("OS_EventTaskRdy")
     108                      .dwattr $C$DW$16, DW_AT_TI_symbol_name("_OS_EventTaskRdy")
     109                      .dwattr $C$DW$16, DW_AT_type(*$C$DW$T$19)
     110                      .dwattr $C$DW$16, DW_AT_declaration
TMS320C2000 Assembler PC v20.2.1 Tue Feb 16 00:15:59 2021

Copyright (c) 1996-2018 Texas Instruments Incorporated
os_mutex.asm                                                         PAGE    3

     111                      .dwattr $C$DW$16, DW_AT_external
     112              $C$DW$17        .dwtag  DW_TAG_formal_parameter
     113                      .dwattr $C$DW$17, DW_AT_type(*$C$DW$T$34)
     114              
     115              $C$DW$18        .dwtag  DW_TAG_formal_parameter
     116                      .dwattr $C$DW$18, DW_AT_type(*$C$DW$T$3)
     117              
     118              $C$DW$19        .dwtag  DW_TAG_formal_parameter
     119                      .dwattr $C$DW$19, DW_AT_type(*$C$DW$T$19)
     120              
     121              $C$DW$20        .dwtag  DW_TAG_formal_parameter
     122                      .dwattr $C$DW$20, DW_AT_type(*$C$DW$T$19)
     123              
     124                      .dwendtag $C$DW$16
     125              
     126              $C$DW$21        .dwtag  DW_TAG_variable
     127                      .dwattr $C$DW$21, DW_AT_name("OSEventFreeList")
     128                      .dwattr $C$DW$21, DW_AT_TI_symbol_name("_OSEventFreeList")
     129                      .dwattr $C$DW$21, DW_AT_type(*$C$DW$T$34)
     130                      .dwattr $C$DW$21, DW_AT_declaration
     131                      .dwattr $C$DW$21, DW_AT_external
     132              
     133              $C$DW$22        .dwtag  DW_TAG_variable
     134                      .dwattr $C$DW$22, DW_AT_name("OSTCBCur")
     135                      .dwattr $C$DW$22, DW_AT_TI_symbol_name("_OSTCBCur")
     136                      .dwattr $C$DW$22, DW_AT_type(*$C$DW$T$46)
     137                      .dwattr $C$DW$22, DW_AT_declaration
     138                      .dwattr $C$DW$22, DW_AT_external
     139              
     140              $C$DW$23        .dwtag  DW_TAG_variable
     141                      .dwattr $C$DW$23, DW_AT_name("OSRdyTbl")
     142                      .dwattr $C$DW$23, DW_AT_TI_symbol_name("_OSRdyTbl")
     143                      .dwattr $C$DW$23, DW_AT_type(*$C$DW$T$22)
     144                      .dwattr $C$DW$23, DW_AT_declaration
     145                      .dwattr $C$DW$23, DW_AT_external
     146              
     147              $C$DW$24        .dwtag  DW_TAG_variable
     148                      .dwattr $C$DW$24, DW_AT_name("OSTCBPrioTbl")
     149                      .dwattr $C$DW$24, DW_AT_TI_symbol_name("_OSTCBPrioTbl")
     150                      .dwattr $C$DW$24, DW_AT_type(*$C$DW$T$68)
     151                      .dwattr $C$DW$24, DW_AT_declaration
     152                      .dwattr $C$DW$24, DW_AT_external
     153              
     154              ;       C:\ti\ccs1011\ccs\tools\compiler\ti-cgt-c2000_20.2.1.LTS\bin\ac2000.exe -@C:\\Users\\LEEKEO~1\\AppDat
     155 00000000               .sect   ".text"
     156                      .clink
     157                      .global _OSMutexAccept
     158              
     159              $C$DW$25        .dwtag  DW_TAG_subprogram
     160                      .dwattr $C$DW$25, DW_AT_name("OSMutexAccept")
     161                      .dwattr $C$DW$25, DW_AT_low_pc(_OSMutexAccept)
     162                      .dwattr $C$DW$25, DW_AT_high_pc(0x00)
     163                      .dwattr $C$DW$25, DW_AT_TI_symbol_name("_OSMutexAccept")
     164                      .dwattr $C$DW$25, DW_AT_external
     165                      .dwattr $C$DW$25, DW_AT_type(*$C$DW$T$27)
TMS320C2000 Assembler PC v20.2.1 Tue Feb 16 00:15:59 2021

Copyright (c) 1996-2018 Texas Instruments Incorporated
os_mutex.asm                                                         PAGE    4

     166                      .dwattr $C$DW$25, DW_AT_TI_begin_file("C:/ti/Workspace/PLC_certificate/Software/uCOS-II/Source/os_mut
     167                      .dwattr $C$DW$25, DW_AT_TI_begin_line(0x56)
     168                      .dwattr $C$DW$25, DW_AT_TI_begin_column(0x0a)
     169                      .dwattr $C$DW$25, DW_AT_TI_max_frame_size(-8)
     170                      .dwpsn  file "C:/ti/Workspace/PLC_certificate/Software/uCOS-II/Source/os_mutex.c",line 88,column 1,is
     171              
     172                      .dwfde $C$DW$CIE, _OSMutexAccept
     173              $C$DW$26        .dwtag  DW_TAG_formal_parameter
     174                      .dwattr $C$DW$26, DW_AT_name("pevent")
     175                      .dwattr $C$DW$26, DW_AT_TI_symbol_name("_pevent")
     176                      .dwattr $C$DW$26, DW_AT_type(*$C$DW$T$34)
     177                      .dwattr $C$DW$26, DW_AT_location[DW_OP_reg12]
     178              
     179              $C$DW$27        .dwtag  DW_TAG_formal_parameter
     180                      .dwattr $C$DW$27, DW_AT_name("perr")
     181                      .dwattr $C$DW$27, DW_AT_TI_symbol_name("_perr")
     182                      .dwattr $C$DW$27, DW_AT_type(*$C$DW$T$23)
     183                      .dwattr $C$DW$27, DW_AT_location[DW_OP_reg14]
     184              
     185              
     186              ;***************************************************************
     187              ;* FNAME: _OSMutexAccept                FR SIZE:   6           *
     188              ;*                                                             *
     189              ;* FUNCTION ENVIRONMENT                                        *
     190              ;*                                                             *
     191              ;* FUNCTION PROPERTIES                                         *
     192              ;*                            0 Parameter,  6 Auto,  0 SOE     *
     193              ;***************************************************************
     194              
     195 00000000       _OSMutexAccept:
     196                      .dwcfi  cfa_offset, -2
     197                      .dwcfi  save_reg_to_mem, 26, 0
     198 00000000 FE06          ADDB      SP,#6                 ; [CPU_ARAU] 
     199                      .dwcfi  cfa_offset, -8
     200              $C$DW$28        .dwtag  DW_TAG_variable
     201                      .dwattr $C$DW$28, DW_AT_name("pevent")
     202                      .dwattr $C$DW$28, DW_AT_TI_symbol_name("_pevent")
     203                      .dwattr $C$DW$28, DW_AT_type(*$C$DW$T$34)
     204                      .dwattr $C$DW$28, DW_AT_location[DW_OP_breg20 -2]
     205              
     206              $C$DW$29        .dwtag  DW_TAG_variable
     207                      .dwattr $C$DW$29, DW_AT_name("perr")
     208                      .dwattr $C$DW$29, DW_AT_TI_symbol_name("_perr")
     209                      .dwattr $C$DW$29, DW_AT_type(*$C$DW$T$23)
     210                      .dwattr $C$DW$29, DW_AT_location[DW_OP_breg20 -4]
     211              
     212              $C$DW$30        .dwtag  DW_TAG_variable
     213                      .dwattr $C$DW$30, DW_AT_name("pcp")
     214                      .dwattr $C$DW$30, DW_AT_TI_symbol_name("_pcp")
     215                      .dwattr $C$DW$30, DW_AT_type(*$C$DW$T$19)
     216                      .dwattr $C$DW$30, DW_AT_location[DW_OP_breg20 -5]
     217              
     218              $C$DW$31        .dwtag  DW_TAG_variable
     219                      .dwattr $C$DW$31, DW_AT_name("cpu_sr")
     220                      .dwattr $C$DW$31, DW_AT_TI_symbol_name("_cpu_sr")
TMS320C2000 Assembler PC v20.2.1 Tue Feb 16 00:15:59 2021

Copyright (c) 1996-2018 Texas Instruments Incorporated
os_mutex.asm                                                         PAGE    5

     221                      .dwattr $C$DW$31, DW_AT_type(*$C$DW$T$40)
     222                      .dwattr $C$DW$31, DW_AT_location[DW_OP_breg20 -6]
     223              
     224 00000001 A044          MOVL      *-SP[4],XAR5          ; [CPU_ALU] |88| 
     225 00000002 A842          MOVL      *-SP[2],XAR4          ; [CPU_ALU] |88| 
     226                      .dwpsn  file "C:/ti/Workspace/PLC_certificate/Software/uCOS-II/Source/os_mutex.c",line 91,column 23,i
     227 00000003 2B46          MOV       *-SP[6],#0            ; [CPU_ALU] |91| 
     228                      .dwpsn  file "C:/ti/Workspace/PLC_certificate/Software/uCOS-II/Source/os_mutex.c",line 104,column 5,i
     229 00000004 0642          MOVL      ACC,*-SP[2]           ; [CPU_ALU] |104| 
     230 00000005 6006          B         $C$L1,NEQ             ; [CPU_ALU] |104| 
     231                      ; branchcc occurs ; [] |104| 
     232                      .dwpsn  file "C:/ti/Workspace/PLC_certificate/Software/uCOS-II/Source/os_mutex.c",line 105,column 9,i
     233 00000006 8A44          MOVL      XAR4,*-SP[4]          ; [CPU_ALU] |105| 
     234 00000007 56BF          MOVB      *+XAR4[0],#4,UNC      ; [CPU_ALU] |105| 
         00000008 04C4 
     235                      .dwpsn  file "C:/ti/Workspace/PLC_certificate/Software/uCOS-II/Source/os_mutex.c",line 106,column 9,i
     236 00000009 9A00          MOVB      AL,#0                 ; [CPU_ALU] |106| 
     237 0000000a 6F47          B         $C$L7,UNC             ; [CPU_ALU] |106| 
     238                      ; branch occurs ; [] |106| 
     239 0000000b       $C$L1:    
     240                      .dwpsn  file "C:/ti/Workspace/PLC_certificate/Software/uCOS-II/Source/os_mutex.c",line 109,column 5,i
     241 0000000b 92C4          MOV       AL,*+XAR4[0]          ; [CPU_ALU] |109| 
     242 0000000c 5204          CMPB      AL,#4                 ; [CPU_ALU] |109| 
     243 0000000d 6106          B         $C$L2,EQ              ; [CPU_ALU] |109| 
     244                      ; branchcc occurs ; [] |109| 
     245                      .dwpsn  file "C:/ti/Workspace/PLC_certificate/Software/uCOS-II/Source/os_mutex.c",line 110,column 9,i
     246 0000000e 8A44          MOVL      XAR4,*-SP[4]          ; [CPU_ALU] |110| 
     247 0000000f 56BF          MOVB      *+XAR4[0],#1,UNC      ; [CPU_ALU] |110| 
         00000010 01C4 
     248                      .dwpsn  file "C:/ti/Workspace/PLC_certificate/Software/uCOS-II/Source/os_mutex.c",line 111,column 9,i
     249 00000011 9A00          MOVB      AL,#0                 ; [CPU_ALU] |111| 
     250 00000012 6F3F          B         $C$L7,UNC             ; [CPU_ALU] |111| 
     251                      ; branch occurs ; [] |111| 
     252 00000013       $C$L2:    
     253                      .dwpsn  file "C:/ti/Workspace/PLC_certificate/Software/uCOS-II/Source/os_mutex.c",line 113,column 5,i
     254 00000013 761F!         MOVW      DP,#_OSIntNesting     ; [CPU_ARAU] 
         00000014 0000 
     255 00000015 9200!         MOV       AL,@_OSIntNesting     ; [CPU_ALU] |113| 
     256 00000016 6106          B         $C$L3,EQ              ; [CPU_ALU] |113| 
     257                      ; branchcc occurs ; [] |113| 
     258                      .dwpsn  file "C:/ti/Workspace/PLC_certificate/Software/uCOS-II/Source/os_mutex.c",line 114,column 9,i
     259 00000017 8A44          MOVL      XAR4,*-SP[4]          ; [CPU_ALU] |114| 
     260 00000018 56BF          MOVB      *+XAR4[0],#2,UNC      ; [CPU_ALU] |114| 
         00000019 02C4 
     261                      .dwpsn  file "C:/ti/Workspace/PLC_certificate/Software/uCOS-II/Source/os_mutex.c",line 115,column 9,i
     262 0000001a 9A00          MOVB      AL,#0                 ; [CPU_ALU] |115| 
     263 0000001b 6F36          B         $C$L7,UNC             ; [CPU_ALU] |115| 
     264                      ; branch occurs ; [] |115| 
     265 0000001c       $C$L3:    
     266                      .dwpsn  file "C:/ti/Workspace/PLC_certificate/Software/uCOS-II/Source/os_mutex.c",line 117,column 5,i
     267              $C$DW$32        .dwtag  DW_TAG_TI_branch
     268                      .dwattr $C$DW$32, DW_AT_low_pc(0x00)
     269                      .dwattr $C$DW$32, DW_AT_name("_OS_CPU_SR_Save")
     270                      .dwattr $C$DW$32, DW_AT_TI_call
     271              
TMS320C2000 Assembler PC v20.2.1 Tue Feb 16 00:15:59 2021

Copyright (c) 1996-2018 Texas Instruments Incorporated
os_mutex.asm                                                         PAGE    6

     272 0000001c 7640!         LCR       #_OS_CPU_SR_Save      ; [CPU_ALU] |117| 
         0000001d 0000 
     273                      ; call occurs [#_OS_CPU_SR_Save] ; [] |117| 
     274 0000001e 9646          MOV       *-SP[6],AL            ; [CPU_ALU] |117| 
     275                      .dwpsn  file "C:/ti/Workspace/PLC_certificate/Software/uCOS-II/Source/os_mutex.c",line 118,column 5,i
     276 0000001f 8A42          MOVL      XAR4,*-SP[2]          ; [CPU_ALU] |118| 
     277 00000020 92E4          MOV       AL,*+XAR4[4]          ; [CPU_ALU] |118| 
     278 00000021 FFC7          LSR       AL,8                  ; [CPU_ALU] |118| 
     279 00000022 9645          MOV       *-SP[5],AL            ; [CPU_ALU] |118| 
     280                      .dwpsn  file "C:/ti/Workspace/PLC_certificate/Software/uCOS-II/Source/os_mutex.c",line 119,column 5,i
     281 00000023 92E4          MOV       AL,*+XAR4[4]          ; [CPU_ALU] |119| 
     282 00000024 90FF          ANDB      AL,#0xff              ; [CPU_ALU] |119| 
     283 00000025 52FF          CMPB      AL,#255               ; [CPU_ALU] |119| 
     284 00000026 6025          B         $C$L6,NEQ             ; [CPU_ALU] |119| 
     285                      ; branchcc occurs ; [] |119| 
     286                      .dwpsn  file "C:/ti/Workspace/PLC_certificate/Software/uCOS-II/Source/os_mutex.c",line 120,column 9,i
     287 00000027 18E4          AND       *+XAR4[4],#0xff00     ; [CPU_ALU] |120| 
         00000028 FF00 
     288                      .dwpsn  file "C:/ti/Workspace/PLC_certificate/Software/uCOS-II/Source/os_mutex.c",line 121,column 9,i
     289 00000029 021C          MOVB      ACC,#28               ; [CPU_ALU] |121| 
     290 0000002a 761F!         MOVW      DP,#_OSTCBCur         ; [CPU_ARAU] 
         0000002b 0000 
     291 0000002c 0700!         ADDL      ACC,@_OSTCBCur        ; [CPU_ALU] |121| 
     292 0000002d 8AA9          MOVL      XAR4,ACC              ; [CPU_ALU] |121| 
     293 0000002e 8342          MOVL      XAR5,*-SP[2]          ; [CPU_ALU] |121| 
     294 0000002f 92C4          MOV       AL,*+XAR4[0]          ; [CPU_ALU] |121| 
     295 00000030 98E5          OR        *+XAR5[4],AL          ; [CPU_ALU] |121| 
     296                      .dwpsn  file "C:/ti/Workspace/PLC_certificate/Software/uCOS-II/Source/os_mutex.c",line 122,column 9,i
     297 00000031 8A42          MOVL      XAR4,*-SP[2]          ; [CPU_ALU] |122| 
     298 00000032 0600!         MOVL      ACC,@_OSTCBCur        ; [CPU_ALU] |122| 
     299 00000033 1ED4          MOVL      *+XAR4[2],ACC         ; [CPU_ALU] |122| 
     300                      .dwpsn  file "C:/ti/Workspace/PLC_certificate/Software/uCOS-II/Source/os_mutex.c",line 123,column 9,i
     301 00000034 9245          MOV       AL,*-SP[5]            ; [CPU_ALU] |123| 
     302 00000035 52FF          CMPB      AL,#255               ; [CPU_ALU] |123| 
     303 00000036 610E          B         $C$L4,EQ              ; [CPU_ALU] |123| 
     304                      ; branchcc occurs ; [] |123| 
     305 00000037 021C          MOVB      ACC,#28               ; [CPU_ALU] |123| 
     306 00000038 0700!         ADDL      ACC,@_OSTCBCur        ; [CPU_ALU] |123| 
     307 00000039 8AA9          MOVL      XAR4,ACC              ; [CPU_ALU] |123| 
     308 0000003a 9245          MOV       AL,*-SP[5]            ; [CPU_ALU] |123| 
     309 0000003b 54C4          CMP       AL,*+XAR4[0]          ; [CPU_ALU] |123| 
     310 0000003c 6808          B         $C$L4,LO              ; [CPU_ALU] |123| 
     311                      ; branchcc occurs ; [] |123| 
     312                      .dwpsn  file "C:/ti/Workspace/PLC_certificate/Software/uCOS-II/Source/os_mutex.c",line 125,column 14,
     313 0000003d 9246          MOV       AL,*-SP[6]            ; [CPU_ALU] |125| 
     314              $C$DW$33        .dwtag  DW_TAG_TI_branch
     315                      .dwattr $C$DW$33, DW_AT_low_pc(0x00)
     316                      .dwattr $C$DW$33, DW_AT_name("_OS_CPU_SR_Restore")
     317                      .dwattr $C$DW$33, DW_AT_TI_call
     318              
     319 0000003e 7640!         LCR       #_OS_CPU_SR_Restore   ; [CPU_ALU] |125| 
         0000003f 0000 
     320                      ; call occurs [#_OS_CPU_SR_Restore] ; [] |125| 
     321                      .dwpsn  file "C:/ti/Workspace/PLC_certificate/Software/uCOS-II/Source/os_mutex.c",line 126,column 13,
     322 00000040 8A44          MOVL      XAR4,*-SP[4]          ; [CPU_ALU] |126| 
TMS320C2000 Assembler PC v20.2.1 Tue Feb 16 00:15:59 2021

Copyright (c) 1996-2018 Texas Instruments Incorporated
os_mutex.asm                                                         PAGE    7

     323 00000041 56BF          MOVB      *+XAR4[0],#120,UNC    ; [CPU_ALU] |126| 
         00000042 78C4 
     324 00000043 6F06          B         $C$L5,UNC             ; [CPU_ALU] 
     325                      ; branch occurs ; [] 
     326 00000044       $C$L4:    
     327                      .dwpsn  file "C:/ti/Workspace/PLC_certificate/Software/uCOS-II/Source/os_mutex.c",line 128,column 14,
     328 00000044 9246          MOV       AL,*-SP[6]            ; [CPU_ALU] |128| 
     329              $C$DW$34        .dwtag  DW_TAG_TI_branch
     330                      .dwattr $C$DW$34, DW_AT_low_pc(0x00)
     331                      .dwattr $C$DW$34, DW_AT_name("_OS_CPU_SR_Restore")
     332                      .dwattr $C$DW$34, DW_AT_TI_call
     333              
     334 00000045 7640!         LCR       #_OS_CPU_SR_Restore   ; [CPU_ALU] |128| 
         00000046 0000 
     335                      ; call occurs [#_OS_CPU_SR_Restore] ; [] |128| 
     336                      .dwpsn  file "C:/ti/Workspace/PLC_certificate/Software/uCOS-II/Source/os_mutex.c",line 129,column 13,
     337 00000047 8A44          MOVL      XAR4,*-SP[4]          ; [CPU_ALU] |129| 
     338 00000048 2BC4          MOV       *+XAR4[0],#0          ; [CPU_ALU] |129| 
     339 00000049       $C$L5:    
     340                      .dwpsn  file "C:/ti/Workspace/PLC_certificate/Software/uCOS-II/Source/os_mutex.c",line 131,column 9,i
     341 00000049 9A01          MOVB      AL,#1                 ; [CPU_ALU] |131| 
     342 0000004a 6F07          B         $C$L7,UNC             ; [CPU_ALU] |131| 
     343                      ; branch occurs ; [] |131| 
     344 0000004b       $C$L6:    
     345                      .dwpsn  file "C:/ti/Workspace/PLC_certificate/Software/uCOS-II/Source/os_mutex.c",line 133,column 5,i
     346 0000004b 9246          MOV       AL,*-SP[6]            ; [CPU_ALU] |133| 
     347              $C$DW$35        .dwtag  DW_TAG_TI_branch
     348                      .dwattr $C$DW$35, DW_AT_low_pc(0x00)
     349                      .dwattr $C$DW$35, DW_AT_name("_OS_CPU_SR_Restore")
     350                      .dwattr $C$DW$35, DW_AT_TI_call
     351              
     352 0000004c 7640!         LCR       #_OS_CPU_SR_Restore   ; [CPU_ALU] |133| 
         0000004d 0000 
     353                      ; call occurs [#_OS_CPU_SR_Restore] ; [] |133| 
     354                      .dwpsn  file "C:/ti/Workspace/PLC_certificate/Software/uCOS-II/Source/os_mutex.c",line 134,column 5,i
     355 0000004e 8A44          MOVL      XAR4,*-SP[4]          ; [CPU_ALU] |134| 
     356 0000004f 2BC4          MOV       *+XAR4[0],#0          ; [CPU_ALU] |134| 
     357                      .dwpsn  file "C:/ti/Workspace/PLC_certificate/Software/uCOS-II/Source/os_mutex.c",line 135,column 5,i
     358 00000050 9A00          MOVB      AL,#0                 ; [CPU_ALU] |135| 
     359 00000051       $C$L7:    
     360                      .dwpsn  file "C:/ti/Workspace/PLC_certificate/Software/uCOS-II/Source/os_mutex.c",line 136,column 1,i
     361 00000051 FE86          SUBB      SP,#6                 ; [CPU_ARAU] 
     362                      .dwcfi  cfa_offset, -2
     363              $C$DW$36        .dwtag  DW_TAG_TI_branch
     364                      .dwattr $C$DW$36, DW_AT_low_pc(0x00)
     365                      .dwattr $C$DW$36, DW_AT_TI_return
     366              
     367 00000052 0006          LRETR     ; [CPU_ALU] 
     368                      ; return occurs ; [] 
     369                      .dwattr $C$DW$25, DW_AT_TI_end_file("C:/ti/Workspace/PLC_certificate/Software/uCOS-II/Source/os_mutex
     370                      .dwattr $C$DW$25, DW_AT_TI_end_line(0x88)
     371                      .dwattr $C$DW$25, DW_AT_TI_end_column(0x01)
     372                      .dwendentry
     373                      .dwendtag $C$DW$25
     374              
TMS320C2000 Assembler PC v20.2.1 Tue Feb 16 00:15:59 2021

Copyright (c) 1996-2018 Texas Instruments Incorporated
os_mutex.asm                                                         PAGE    8

     375 00000053               .sect   ".text"
     376                      .clink
     377                      .global _OSMutexCreate
     378              
     379              $C$DW$37        .dwtag  DW_TAG_subprogram
     380                      .dwattr $C$DW$37, DW_AT_name("OSMutexCreate")
     381                      .dwattr $C$DW$37, DW_AT_low_pc(_OSMutexCreate)
     382                      .dwattr $C$DW$37, DW_AT_high_pc(0x00)
     383                      .dwattr $C$DW$37, DW_AT_TI_symbol_name("_OSMutexCreate")
     384                      .dwattr $C$DW$37, DW_AT_external
     385                      .dwattr $C$DW$37, DW_AT_type(*$C$DW$T$34)
     386                      .dwattr $C$DW$37, DW_AT_TI_begin_file("C:/ti/Workspace/PLC_certificate/Software/uCOS-II/Source/os_mut
     387                      .dwattr $C$DW$37, DW_AT_TI_begin_line(0xb1)
     388                      .dwattr $C$DW$37, DW_AT_TI_begin_column(0x0c)
     389                      .dwattr $C$DW$37, DW_AT_TI_max_frame_size(-8)
     390                      .dwpsn  file "C:/ti/Workspace/PLC_certificate/Software/uCOS-II/Source/os_mutex.c",line 179,column 1,i
     391              
     392                      .dwfde $C$DW$CIE, _OSMutexCreate
     393              $C$DW$38        .dwtag  DW_TAG_formal_parameter
     394                      .dwattr $C$DW$38, DW_AT_name("prio")
     395                      .dwattr $C$DW$38, DW_AT_TI_symbol_name("_prio")
     396                      .dwattr $C$DW$38, DW_AT_type(*$C$DW$T$19)
     397                      .dwattr $C$DW$38, DW_AT_location[DW_OP_reg0]
     398              
     399              $C$DW$39        .dwtag  DW_TAG_formal_parameter
     400                      .dwattr $C$DW$39, DW_AT_name("perr")
     401                      .dwattr $C$DW$39, DW_AT_TI_symbol_name("_perr")
     402                      .dwattr $C$DW$39, DW_AT_type(*$C$DW$T$23)
     403                      .dwattr $C$DW$39, DW_AT_location[DW_OP_reg12]
     404              
     405              
     406              ;***************************************************************
     407              ;* FNAME: _OSMutexCreate                FR SIZE:   6           *
     408              ;*                                                             *
     409              ;* FUNCTION ENVIRONMENT                                        *
     410              ;*                                                             *
     411              ;* FUNCTION PROPERTIES                                         *
     412              ;*                            0 Parameter,  6 Auto,  0 SOE     *
     413              ;***************************************************************
     414              
     415 00000053       _OSMutexCreate:
     416                      .dwcfi  cfa_offset, -2
     417                      .dwcfi  save_reg_to_mem, 26, 0
     418 00000053 FE06          ADDB      SP,#6                 ; [CPU_ARAU] 
     419                      .dwcfi  cfa_offset, -8
     420              $C$DW$40        .dwtag  DW_TAG_variable
     421                      .dwattr $C$DW$40, DW_AT_name("perr")
     422                      .dwattr $C$DW$40, DW_AT_TI_symbol_name("_perr")
     423                      .dwattr $C$DW$40, DW_AT_type(*$C$DW$T$23)
     424                      .dwattr $C$DW$40, DW_AT_location[DW_OP_breg20 -2]
     425              
     426              $C$DW$41        .dwtag  DW_TAG_variable
     427                      .dwattr $C$DW$41, DW_AT_name("pevent")
     428                      .dwattr $C$DW$41, DW_AT_TI_symbol_name("_pevent")
     429                      .dwattr $C$DW$41, DW_AT_type(*$C$DW$T$34)
TMS320C2000 Assembler PC v20.2.1 Tue Feb 16 00:15:59 2021

Copyright (c) 1996-2018 Texas Instruments Incorporated
os_mutex.asm                                                         PAGE    9

     430                      .dwattr $C$DW$41, DW_AT_location[DW_OP_breg20 -4]
     431              
     432              $C$DW$42        .dwtag  DW_TAG_variable
     433                      .dwattr $C$DW$42, DW_AT_name("prio")
     434                      .dwattr $C$DW$42, DW_AT_TI_symbol_name("_prio")
     435                      .dwattr $C$DW$42, DW_AT_type(*$C$DW$T$19)
     436                      .dwattr $C$DW$42, DW_AT_location[DW_OP_breg20 -5]
     437              
     438              $C$DW$43        .dwtag  DW_TAG_variable
     439                      .dwattr $C$DW$43, DW_AT_name("cpu_sr")
     440                      .dwattr $C$DW$43, DW_AT_TI_symbol_name("_cpu_sr")
     441                      .dwattr $C$DW$43, DW_AT_type(*$C$DW$T$40)
     442                      .dwattr $C$DW$43, DW_AT_location[DW_OP_breg20 -6]
     443              
     444 00000054 A842          MOVL      *-SP[2],XAR4          ; [CPU_ALU] |179| 
     445 00000055 9645          MOV       *-SP[5],AL            ; [CPU_ALU] |179| 
     446                      .dwpsn  file "C:/ti/Workspace/PLC_certificate/Software/uCOS-II/Source/os_mutex.c",line 182,column 23,
     447 00000056 2B46          MOV       *-SP[6],#0            ; [CPU_ALU] |182| 
     448                      .dwpsn  file "C:/ti/Workspace/PLC_certificate/Software/uCOS-II/Source/os_mutex.c",line 202,column 5,i
     449 00000057 52FF          CMPB      AL,#255               ; [CPU_ALU] |202| 
     450 00000058 6107          B         $C$L8,EQ              ; [CPU_ALU] |202| 
     451                      ; branchcc occurs ; [] |202| 
     452                      .dwpsn  file "C:/ti/Workspace/PLC_certificate/Software/uCOS-II/Source/os_mutex.c",line 203,column 9,i
     453 00000059 523F          CMPB      AL,#63                ; [CPU_ALU] |203| 
     454 0000005a 6805          B         $C$L8,LO              ; [CPU_ALU] |203| 
     455                      ; branchcc occurs ; [] |203| 
     456                      .dwpsn  file "C:/ti/Workspace/PLC_certificate/Software/uCOS-II/Source/os_mutex.c",line 204,column 12,
     457 0000005b 56BF          MOVB      *+XAR4[0],#42,UNC     ; [CPU_ALU] |204| 
         0000005c 2AC4 
     458                      .dwpsn  file "C:/ti/Workspace/PLC_certificate/Software/uCOS-II/Source/os_mutex.c",line 205,column 13,
     459 0000005d D400          MOVB      XAR4,#0               ; [CPU_ALU] |205| 
     460 0000005e 6F5F          B         $C$L14,UNC            ; [CPU_ALU] |205| 
     461                      ; branch occurs ; [] |205| 
     462 0000005f       $C$L8:    
     463                      .dwpsn  file "C:/ti/Workspace/PLC_certificate/Software/uCOS-II/Source/os_mutex.c",line 209,column 5,i
     464 0000005f 761F!         MOVW      DP,#_OSIntNesting     ; [CPU_ARAU] 
         00000060 0000 
     465 00000061 9200!         MOV       AL,@_OSIntNesting     ; [CPU_ALU] |209| 
     466 00000062 6105          B         $C$L9,EQ              ; [CPU_ALU] |209| 
     467                      ; branchcc occurs ; [] |209| 
     468                      .dwpsn  file "C:/ti/Workspace/PLC_certificate/Software/uCOS-II/Source/os_mutex.c",line 210,column 9,i
     469 00000063 56BF          MOVB      *+XAR4[0],#16,UNC     ; [CPU_ALU] |210| 
         00000064 10C4 
     470                      .dwpsn  file "C:/ti/Workspace/PLC_certificate/Software/uCOS-II/Source/os_mutex.c",line 211,column 9,i
     471 00000065 D400          MOVB      XAR4,#0               ; [CPU_ALU] |211| 
     472 00000066 6F57          B         $C$L14,UNC            ; [CPU_ALU] |211| 
     473                      ; branch occurs ; [] |211| 
     474 00000067       $C$L9:    
     475                      .dwpsn  file "C:/ti/Workspace/PLC_certificate/Software/uCOS-II/Source/os_mutex.c",line 213,column 5,i
     476              $C$DW$44        .dwtag  DW_TAG_TI_branch
     477                      .dwattr $C$DW$44, DW_AT_low_pc(0x00)
     478                      .dwattr $C$DW$44, DW_AT_name("_OS_CPU_SR_Save")
     479                      .dwattr $C$DW$44, DW_AT_TI_call
     480              
     481 00000067 7640!         LCR       #_OS_CPU_SR_Save      ; [CPU_ALU] |213| 
TMS320C2000 Assembler PC v20.2.1 Tue Feb 16 00:15:59 2021

Copyright (c) 1996-2018 Texas Instruments Incorporated
os_mutex.asm                                                         PAGE   10

         00000068 0000 
     482                      ; call occurs [#_OS_CPU_SR_Save] ; [] |213| 
     483 00000069 9646          MOV       *-SP[6],AL            ; [CPU_ALU] |213| 
     484                      .dwpsn  file "C:/ti/Workspace/PLC_certificate/Software/uCOS-II/Source/os_mutex.c",line 214,column 5,i
     485 0000006a 9245          MOV       AL,*-SP[5]            ; [CPU_ALU] |214| 
     486 0000006b 52FF          CMPB      AL,#255               ; [CPU_ALU] |214| 
     487 0000006c 611A          B         $C$L11,EQ             ; [CPU_ALU] |214| 
     488                      ; branchcc occurs ; [] |214| 
     489                      .dwpsn  file "C:/ti/Workspace/PLC_certificate/Software/uCOS-II/Source/os_mutex.c",line 215,column 9,i
     490 0000006d 2901          CLRC      SXM                   ; [CPU_ALU] 
     491 0000006e 8F00!         MOVL      XAR4,#_OSTCBPrioTbl   ; [CPU_ARAU] |215| 
         0000006f 0000 
     492 00000070 5603          MOV       ACC,*-SP[5] << 1      ; [CPU_ALU] |215| 
         00000071 0145 
     493 00000072 5601          ADDL      XAR4,ACC              ; [CPU_ALU] |215| 
         00000073 00A4 
     494 00000074 06C4          MOVL      ACC,*+XAR4[0]         ; [CPU_ALU] |215| 
     495 00000075 6109          B         $C$L10,EQ             ; [CPU_ALU] |215| 
     496                      ; branchcc occurs ; [] |215| 
     497                      .dwpsn  file "C:/ti/Workspace/PLC_certificate/Software/uCOS-II/Source/os_mutex.c",line 216,column 13,
     498 00000076 9246          MOV       AL,*-SP[6]            ; [CPU_ALU] |216| 
     499              $C$DW$45        .dwtag  DW_TAG_TI_branch
     500                      .dwattr $C$DW$45, DW_AT_low_pc(0x00)
     501                      .dwattr $C$DW$45, DW_AT_name("_OS_CPU_SR_Restore")
     502                      .dwattr $C$DW$45, DW_AT_TI_call
     503              
     504 00000077 7640!         LCR       #_OS_CPU_SR_Restore   ; [CPU_ALU] |216| 
         00000078 0000 
     505                      ; call occurs [#_OS_CPU_SR_Restore] ; [] |216| 
     506                      .dwpsn  file "C:/ti/Workspace/PLC_certificate/Software/uCOS-II/Source/os_mutex.c",line 217,column 12,
     507 00000079 8A42          MOVL      XAR4,*-SP[2]          ; [CPU_ALU] |217| 
     508 0000007a 56BF          MOVB      *+XAR4[0],#40,UNC     ; [CPU_ALU] |217| 
         0000007b 28C4 
     509                      .dwpsn  file "C:/ti/Workspace/PLC_certificate/Software/uCOS-II/Source/os_mutex.c",line 218,column 13,
     510 0000007c D400          MOVB      XAR4,#0               ; [CPU_ALU] |218| 
     511 0000007d 6F40          B         $C$L14,UNC            ; [CPU_ALU] |218| 
     512                      ; branch occurs ; [] |218| 
     513 0000007e       $C$L10:    
     514                      .dwpsn  file "C:/ti/Workspace/PLC_certificate/Software/uCOS-II/Source/os_mutex.c",line 220,column 9,i
     515 0000007e 5603          MOV       ACC,*-SP[5] << 1      ; [CPU_ALU] |220| 
         0000007f 0145 
     516 00000080 8F00!         MOVL      XAR4,#_OSTCBPrioTbl   ; [CPU_ARAU] |220| 
         00000081 0000 
     517 00000082 5601          ADDL      XAR4,ACC              ; [CPU_ALU] |220| 
         00000083 00A4 
     518 00000084 0201          MOVB      ACC,#1                ; [CPU_ALU] |220| 
     519 00000085 1EC4          MOVL      *+XAR4[0],ACC         ; [CPU_ALU] |220| 
     520 00000086       $C$L11:    
     521                      .dwpsn  file "C:/ti/Workspace/PLC_certificate/Software/uCOS-II/Source/os_mutex.c",line 223,column 5,i
     522 00000086 761F!         MOVW      DP,#_OSEventFreeList  ; [CPU_ARAU] 
         00000087 0000 
     523 00000088 0600!         MOVL      ACC,@_OSEventFreeList ; [CPU_ALU] |223| 
     524 00000089 1E44          MOVL      *-SP[4],ACC           ; [CPU_ALU] |223| 
     525                      .dwpsn  file "C:/ti/Workspace/PLC_certificate/Software/uCOS-II/Source/os_mutex.c",line 224,column 5,i
     526 0000008a 0644          MOVL      ACC,*-SP[4]           ; [CPU_ALU] |224| 
TMS320C2000 Assembler PC v20.2.1 Tue Feb 16 00:15:59 2021

Copyright (c) 1996-2018 Texas Instruments Incorporated
os_mutex.asm                                                         PAGE   11

     527 0000008b 6015          B         $C$L13,NEQ            ; [CPU_ALU] |224| 
     528                      ; branchcc occurs ; [] |224| 
     529                      .dwpsn  file "C:/ti/Workspace/PLC_certificate/Software/uCOS-II/Source/os_mutex.c",line 225,column 9,i
     530 0000008c 9245          MOV       AL,*-SP[5]            ; [CPU_ALU] |225| 
     531 0000008d 52FF          CMPB      AL,#255               ; [CPU_ALU] |225| 
     532 0000008e 610A          B         $C$L12,EQ             ; [CPU_ALU] |225| 
     533                      ; branchcc occurs ; [] |225| 
     534                      .dwpsn  file "C:/ti/Workspace/PLC_certificate/Software/uCOS-II/Source/os_mutex.c",line 226,column 13,
     535 0000008f 2901          CLRC      SXM                   ; [CPU_ALU] 
     536 00000090 8F00!         MOVL      XAR4,#_OSTCBPrioTbl   ; [CPU_ARAU] |226| 
         00000091 0000 
     537 00000092 5603          MOV       ACC,*-SP[5] << 1      ; [CPU_ALU] |226| 
         00000093 0145 
     538 00000094 5601          ADDL      XAR4,ACC              ; [CPU_ALU] |226| 
         00000095 00A4 
     539 00000096 0200          MOVB      ACC,#0                ; [CPU_ALU] |226| 
     540 00000097 1EC4          MOVL      *+XAR4[0],ACC         ; [CPU_ALU] |226| 
     541 00000098       $C$L12:    
     542                      .dwpsn  file "C:/ti/Workspace/PLC_certificate/Software/uCOS-II/Source/os_mutex.c",line 228,column 9,i
     543 00000098 9246          MOV       AL,*-SP[6]            ; [CPU_ALU] |228| 
     544              $C$DW$46        .dwtag  DW_TAG_TI_branch
     545                      .dwattr $C$DW$46, DW_AT_low_pc(0x00)
     546                      .dwattr $C$DW$46, DW_AT_name("_OS_CPU_SR_Restore")
     547                      .dwattr $C$DW$46, DW_AT_TI_call
     548              
     549 00000099 7640!         LCR       #_OS_CPU_SR_Restore   ; [CPU_ALU] |228| 
         0000009a 0000 
     550                      ; call occurs [#_OS_CPU_SR_Restore] ; [] |228| 
     551                      .dwpsn  file "C:/ti/Workspace/PLC_certificate/Software/uCOS-II/Source/os_mutex.c",line 229,column 8,i
     552 0000009b 8A42          MOVL      XAR4,*-SP[2]          ; [CPU_ALU] |229| 
     553 0000009c 56BF          MOVB      *+XAR4[0],#4,UNC      ; [CPU_ALU] |229| 
         0000009d 04C4 
     554                      .dwpsn  file "C:/ti/Workspace/PLC_certificate/Software/uCOS-II/Source/os_mutex.c",line 230,column 9,i
     555 0000009e 8A44          MOVL      XAR4,*-SP[4]          ; [CPU_ALU] |230| 
     556 0000009f 6F1E          B         $C$L14,UNC            ; [CPU_ALU] |230| 
     557                      ; branch occurs ; [] |230| 
     558 000000a0       $C$L13:    
     559                      .dwpsn  file "C:/ti/Workspace/PLC_certificate/Software/uCOS-II/Source/os_mutex.c",line 232,column 5,i
     560 000000a0 8A00!         MOVL      XAR4,@_OSEventFreeList ; [CPU_ALU] |232| 
     561 000000a1 06D4          MOVL      ACC,*+XAR4[2]         ; [CPU_ALU] |232| 
     562 000000a2 1E00!         MOVL      @_OSEventFreeList,ACC ; [CPU_ALU] |232| 
     563                      .dwpsn  file "C:/ti/Workspace/PLC_certificate/Software/uCOS-II/Source/os_mutex.c",line 233,column 5,i
     564 000000a3 9246          MOV       AL,*-SP[6]            ; [CPU_ALU] |233| 
     565              $C$DW$47        .dwtag  DW_TAG_TI_branch
     566                      .dwattr $C$DW$47, DW_AT_low_pc(0x00)
     567                      .dwattr $C$DW$47, DW_AT_name("_OS_CPU_SR_Restore")
     568                      .dwattr $C$DW$47, DW_AT_TI_call
     569              
     570 000000a4 7640!         LCR       #_OS_CPU_SR_Restore   ; [CPU_ALU] |233| 
         000000a5 0000 
     571                      ; call occurs [#_OS_CPU_SR_Restore] ; [] |233| 
     572                      .dwpsn  file "C:/ti/Workspace/PLC_certificate/Software/uCOS-II/Source/os_mutex.c",line 234,column 5,i
     573 000000a6 8A44          MOVL      XAR4,*-SP[4]          ; [CPU_ALU] |234| 
     574 000000a7 56BF          MOVB      *+XAR4[0],#4,UNC      ; [CPU_ALU] |234| 
         000000a8 04C4 
TMS320C2000 Assembler PC v20.2.1 Tue Feb 16 00:15:59 2021

Copyright (c) 1996-2018 Texas Instruments Incorporated
os_mutex.asm                                                         PAGE   12

     575                      .dwpsn  file "C:/ti/Workspace/PLC_certificate/Software/uCOS-II/Source/os_mutex.c",line 235,column 5,i
     576 000000a9 8A44          MOVL      XAR4,*-SP[4]          ; [CPU_ALU] |235| 
     577 000000aa 5603          MOV       ACC,*-SP[5] << #8     ; [CPU_ALU] |235| 
         000000ab 0845 
     578 000000ac 50FF          ORB       AL,#0xff              ; [CPU_ALU] |235| 
     579 000000ad 96E4          MOV       *+XAR4[4],AL          ; [CPU_ALU] |235| 
     580                      .dwpsn  file "C:/ti/Workspace/PLC_certificate/Software/uCOS-II/Source/os_mutex.c",line 236,column 5,i
     581 000000ae 8A44          MOVL      XAR4,*-SP[4]          ; [CPU_ALU] |236| 
     582 000000af 0200          MOVB      ACC,#0                ; [CPU_ALU] |236| 
     583 000000b0 1ED4          MOVL      *+XAR4[2],ACC         ; [CPU_ALU] |236| 
     584                      .dwpsn  file "C:/ti/Workspace/PLC_certificate/Software/uCOS-II/Source/os_mutex.c",line 238,column 5,i
     585 000000b1 020E          MOVB      ACC,#14               ; [CPU_ALU] |238| 
     586 000000b2 0744          ADDL      ACC,*-SP[4]           ; [CPU_ALU] |238| 
     587 000000b3 8AA9          MOVL      XAR4,ACC              ; [CPU_ALU] |238| 
     588 000000b4 8F40+         MOVL      XAR5,#$C$FSL1         ; [CPU_ARAU] |238| 
         000000b5 0000 
     589 000000b6 A0C4          MOVL      *+XAR4[0],XAR5        ; [CPU_ALU] |238| 
     590                      .dwpsn  file "C:/ti/Workspace/PLC_certificate/Software/uCOS-II/Source/os_mutex.c",line 240,column 5,i
     591 000000b7 8A44          MOVL      XAR4,*-SP[4]          ; [CPU_ALU] |240| 
     592              $C$DW$48        .dwtag  DW_TAG_TI_branch
     593                      .dwattr $C$DW$48, DW_AT_low_pc(0x00)
     594                      .dwattr $C$DW$48, DW_AT_name("_OS_EventWaitListInit")
     595                      .dwattr $C$DW$48, DW_AT_TI_call
     596              
     597 000000b8 7640!         LCR       #_OS_EventWaitListInit ; [CPU_ALU] |240| 
         000000b9 0000 
     598                      ; call occurs [#_OS_EventWaitListInit] ; [] |240| 
     599                      .dwpsn  file "C:/ti/Workspace/PLC_certificate/Software/uCOS-II/Source/os_mutex.c",line 241,column 4,i
     600 000000ba 8A42          MOVL      XAR4,*-SP[2]          ; [CPU_ALU] |241| 
     601 000000bb 2BC4          MOV       *+XAR4[0],#0          ; [CPU_ALU] |241| 
     602                      .dwpsn  file "C:/ti/Workspace/PLC_certificate/Software/uCOS-II/Source/os_mutex.c",line 242,column 5,i
     603 000000bc 8A44          MOVL      XAR4,*-SP[4]          ; [CPU_ALU] |242| 
     604 000000bd       $C$L14:    
     605                      .dwpsn  file "C:/ti/Workspace/PLC_certificate/Software/uCOS-II/Source/os_mutex.c",line 243,column 1,i
     606 000000bd FE86          SUBB      SP,#6                 ; [CPU_ARAU] 
     607                      .dwcfi  cfa_offset, -2
     608              $C$DW$49        .dwtag  DW_TAG_TI_branch
     609                      .dwattr $C$DW$49, DW_AT_low_pc(0x00)
     610                      .dwattr $C$DW$49, DW_AT_TI_return
     611              
     612 000000be 0006          LRETR     ; [CPU_ALU] 
     613                      ; return occurs ; [] 
     614                      .dwattr $C$DW$37, DW_AT_TI_end_file("C:/ti/Workspace/PLC_certificate/Software/uCOS-II/Source/os_mutex
     615                      .dwattr $C$DW$37, DW_AT_TI_end_line(0xf3)
     616                      .dwattr $C$DW$37, DW_AT_TI_end_column(0x01)
     617                      .dwendentry
     618                      .dwendtag $C$DW$37
     619              
     620 000000bf               .sect   ".text"
     621                      .clink
     622                      .global _OSMutexDel
     623              
     624              $C$DW$50        .dwtag  DW_TAG_subprogram
     625                      .dwattr $C$DW$50, DW_AT_name("OSMutexDel")
     626                      .dwattr $C$DW$50, DW_AT_low_pc(_OSMutexDel)
TMS320C2000 Assembler PC v20.2.1 Tue Feb 16 00:15:59 2021

Copyright (c) 1996-2018 Texas Instruments Incorporated
os_mutex.asm                                                         PAGE   13

     627                      .dwattr $C$DW$50, DW_AT_high_pc(0x00)
     628                      .dwattr $C$DW$50, DW_AT_TI_symbol_name("_OSMutexDel")
     629                      .dwattr $C$DW$50, DW_AT_external
     630                      .dwattr $C$DW$50, DW_AT_type(*$C$DW$T$34)
     631                      .dwattr $C$DW$50, DW_AT_TI_begin_file("C:/ti/Workspace/PLC_certificate/Software/uCOS-II/Source/os_mut
     632                      .dwattr $C$DW$50, DW_AT_TI_begin_line(0x11f)
     633                      .dwattr $C$DW$50, DW_AT_TI_begin_column(0x0c)
     634                      .dwattr $C$DW$50, DW_AT_TI_max_frame_size(-16)
     635                      .dwpsn  file "C:/ti/Workspace/PLC_certificate/Software/uCOS-II/Source/os_mutex.c",line 290,column 1,i
     636              
     637                      .dwfde $C$DW$CIE, _OSMutexDel
     638              $C$DW$51        .dwtag  DW_TAG_formal_parameter
     639                      .dwattr $C$DW$51, DW_AT_name("pevent")
     640                      .dwattr $C$DW$51, DW_AT_TI_symbol_name("_pevent")
     641                      .dwattr $C$DW$51, DW_AT_type(*$C$DW$T$34)
     642                      .dwattr $C$DW$51, DW_AT_location[DW_OP_reg12]
     643              
     644              $C$DW$52        .dwtag  DW_TAG_formal_parameter
     645                      .dwattr $C$DW$52, DW_AT_name("opt")
     646                      .dwattr $C$DW$52, DW_AT_TI_symbol_name("_opt")
     647                      .dwattr $C$DW$52, DW_AT_type(*$C$DW$T$19)
     648                      .dwattr $C$DW$52, DW_AT_location[DW_OP_reg0]
     649              
     650              $C$DW$53        .dwtag  DW_TAG_formal_parameter
     651                      .dwattr $C$DW$53, DW_AT_name("perr")
     652                      .dwattr $C$DW$53, DW_AT_TI_symbol_name("_perr")
     653                      .dwattr $C$DW$53, DW_AT_type(*$C$DW$T$23)
     654                      .dwattr $C$DW$53, DW_AT_location[DW_OP_reg14]
     655              
     656              
     657              ;***************************************************************
     658              ;* FNAME: _OSMutexDel                   FR SIZE:  14           *
     659              ;*                                                             *
     660              ;* FUNCTION ENVIRONMENT                                        *
     661              ;*                                                             *
     662              ;* FUNCTION PROPERTIES                                         *
     663              ;*                            0 Parameter, 13 Auto,  0 SOE     *
     664              ;***************************************************************
     665              
     666 000000bf       _OSMutexDel:
     667                      .dwcfi  cfa_offset, -2
     668                      .dwcfi  save_reg_to_mem, 26, 0
     669 000000bf FE0E          ADDB      SP,#14                ; [CPU_ARAU] 
     670                      .dwcfi  cfa_offset, -16
     671              $C$DW$54        .dwtag  DW_TAG_variable
     672                      .dwattr $C$DW$54, DW_AT_name("pevent")
     673                      .dwattr $C$DW$54, DW_AT_TI_symbol_name("_pevent")
     674                      .dwattr $C$DW$54, DW_AT_type(*$C$DW$T$34)
     675                      .dwattr $C$DW$54, DW_AT_location[DW_OP_breg20 -2]
     676              
     677              $C$DW$55        .dwtag  DW_TAG_variable
     678                      .dwattr $C$DW$55, DW_AT_name("perr")
     679                      .dwattr $C$DW$55, DW_AT_TI_symbol_name("_perr")
     680                      .dwattr $C$DW$55, DW_AT_type(*$C$DW$T$23)
     681                      .dwattr $C$DW$55, DW_AT_location[DW_OP_breg20 -4]
TMS320C2000 Assembler PC v20.2.1 Tue Feb 16 00:15:59 2021

Copyright (c) 1996-2018 Texas Instruments Incorporated
os_mutex.asm                                                         PAGE   14

     682              
     683              $C$DW$56        .dwtag  DW_TAG_variable
     684                      .dwattr $C$DW$56, DW_AT_name("pevent_return")
     685                      .dwattr $C$DW$56, DW_AT_TI_symbol_name("_pevent_return")
     686                      .dwattr $C$DW$56, DW_AT_type(*$C$DW$T$34)
     687                      .dwattr $C$DW$56, DW_AT_location[DW_OP_breg20 -6]
     688              
     689              $C$DW$57        .dwtag  DW_TAG_variable
     690                      .dwattr $C$DW$57, DW_AT_name("ptcb")
     691                      .dwattr $C$DW$57, DW_AT_TI_symbol_name("_ptcb")
     692                      .dwattr $C$DW$57, DW_AT_type(*$C$DW$T$46)
     693                      .dwattr $C$DW$57, DW_AT_location[DW_OP_breg20 -8]
     694              
     695              $C$DW$58        .dwtag  DW_TAG_variable
     696                      .dwattr $C$DW$58, DW_AT_name("opt")
     697                      .dwattr $C$DW$58, DW_AT_TI_symbol_name("_opt")
     698                      .dwattr $C$DW$58, DW_AT_type(*$C$DW$T$19)
     699                      .dwattr $C$DW$58, DW_AT_location[DW_OP_breg20 -9]
     700              
     701              $C$DW$59        .dwtag  DW_TAG_variable
     702                      .dwattr $C$DW$59, DW_AT_name("tasks_waiting")
     703                      .dwattr $C$DW$59, DW_AT_TI_symbol_name("_tasks_waiting")
     704                      .dwattr $C$DW$59, DW_AT_type(*$C$DW$T$27)
     705                      .dwattr $C$DW$59, DW_AT_location[DW_OP_breg20 -10]
     706              
     707              $C$DW$60        .dwtag  DW_TAG_variable
     708                      .dwattr $C$DW$60, DW_AT_name("pcp")
     709                      .dwattr $C$DW$60, DW_AT_TI_symbol_name("_pcp")
     710                      .dwattr $C$DW$60, DW_AT_type(*$C$DW$T$19)
     711                      .dwattr $C$DW$60, DW_AT_location[DW_OP_breg20 -11]
     712              
     713              $C$DW$61        .dwtag  DW_TAG_variable
     714                      .dwattr $C$DW$61, DW_AT_name("prio")
     715                      .dwattr $C$DW$61, DW_AT_TI_symbol_name("_prio")
     716                      .dwattr $C$DW$61, DW_AT_type(*$C$DW$T$19)
     717                      .dwattr $C$DW$61, DW_AT_location[DW_OP_breg20 -12]
     718              
     719              $C$DW$62        .dwtag  DW_TAG_variable
     720                      .dwattr $C$DW$62, DW_AT_name("cpu_sr")
     721                      .dwattr $C$DW$62, DW_AT_TI_symbol_name("_cpu_sr")
     722                      .dwattr $C$DW$62, DW_AT_type(*$C$DW$T$40)
     723                      .dwattr $C$DW$62, DW_AT_location[DW_OP_breg20 -13]
     724              
     725 000000c0 A044          MOVL      *-SP[4],XAR5          ; [CPU_ALU] |290| 
     726 000000c1 9649          MOV       *-SP[9],AL            ; [CPU_ALU] |290| 
     727 000000c2 A842          MOVL      *-SP[2],XAR4          ; [CPU_ALU] |290| 
     728                      .dwpsn  file "C:/ti/Workspace/PLC_certificate/Software/uCOS-II/Source/os_mutex.c",line 297,column 23,
     729 000000c3 2B4D          MOV       *-SP[13],#0           ; [CPU_ALU] |297| 
     730                      .dwpsn  file "C:/ti/Workspace/PLC_certificate/Software/uCOS-II/Source/os_mutex.c",line 310,column 5,i
     731 000000c4 0642          MOVL      ACC,*-SP[2]           ; [CPU_ALU] |310| 
     732 000000c5 6007          B         $C$L15,NEQ            ; [CPU_ALU] |310| 
     733                      ; branchcc occurs ; [] |310| 
     734                      .dwpsn  file "C:/ti/Workspace/PLC_certificate/Software/uCOS-II/Source/os_mutex.c",line 311,column 9,i
     735 000000c6 8A44          MOVL      XAR4,*-SP[4]          ; [CPU_ALU] |311| 
     736 000000c7 56BF          MOVB      *+XAR4[0],#4,UNC      ; [CPU_ALU] |311| 
TMS320C2000 Assembler PC v20.2.1 Tue Feb 16 00:15:59 2021

Copyright (c) 1996-2018 Texas Instruments Incorporated
os_mutex.asm                                                         PAGE   15

         000000c8 04C4 
     737                      .dwpsn  file "C:/ti/Workspace/PLC_certificate/Software/uCOS-II/Source/os_mutex.c",line 312,column 9,i
     738 000000c9 8A42          MOVL      XAR4,*-SP[2]          ; [CPU_ALU] |312| 
     739 000000ca FFEF          B         $C$L30,UNC            ; [CPU_ALU] |312| 
         000000cb 00B3 
     740                      ; branch occurs ; [] |312| 
     741 000000cc       $C$L15:    
     742                      .dwpsn  file "C:/ti/Workspace/PLC_certificate/Software/uCOS-II/Source/os_mutex.c",line 315,column 5,i
     743 000000cc 92C4          MOV       AL,*+XAR4[0]          ; [CPU_ALU] |315| 
     744 000000cd 5204          CMPB      AL,#4                 ; [CPU_ALU] |315| 
     745 000000ce 6107          B         $C$L16,EQ             ; [CPU_ALU] |315| 
     746                      ; branchcc occurs ; [] |315| 
     747                      .dwpsn  file "C:/ti/Workspace/PLC_certificate/Software/uCOS-II/Source/os_mutex.c",line 316,column 9,i
     748 000000cf 8A44          MOVL      XAR4,*-SP[4]          ; [CPU_ALU] |316| 
     749 000000d0 56BF          MOVB      *+XAR4[0],#1,UNC      ; [CPU_ALU] |316| 
         000000d1 01C4 
     750                      .dwpsn  file "C:/ti/Workspace/PLC_certificate/Software/uCOS-II/Source/os_mutex.c",line 317,column 9,i
     751 000000d2 8A42          MOVL      XAR4,*-SP[2]          ; [CPU_ALU] |317| 
     752 000000d3 FFEF          B         $C$L30,UNC            ; [CPU_ALU] |317| 
         000000d4 00AA 
     753                      ; branch occurs ; [] |317| 
     754 000000d5       $C$L16:    
     755                      .dwpsn  file "C:/ti/Workspace/PLC_certificate/Software/uCOS-II/Source/os_mutex.c",line 319,column 5,i
     756 000000d5 761F!         MOVW      DP,#_OSIntNesting     ; [CPU_ARAU] 
         000000d6 0000 
     757 000000d7 9200!         MOV       AL,@_OSIntNesting     ; [CPU_ALU] |319| 
     758 000000d8 6107          B         $C$L17,EQ             ; [CPU_ALU] |319| 
     759                      ; branchcc occurs ; [] |319| 
     760                      .dwpsn  file "C:/ti/Workspace/PLC_certificate/Software/uCOS-II/Source/os_mutex.c",line 320,column 9,i
     761 000000d9 8A44          MOVL      XAR4,*-SP[4]          ; [CPU_ALU] |320| 
     762 000000da 56BF          MOVB      *+XAR4[0],#15,UNC     ; [CPU_ALU] |320| 
         000000db 0FC4 
     763                      .dwpsn  file "C:/ti/Workspace/PLC_certificate/Software/uCOS-II/Source/os_mutex.c",line 321,column 9,i
     764 000000dc 8A42          MOVL      XAR4,*-SP[2]          ; [CPU_ALU] |321| 
     765 000000dd FFEF          B         $C$L30,UNC            ; [CPU_ALU] |321| 
         000000de 00A0 
     766                      ; branch occurs ; [] |321| 
     767 000000df       $C$L17:    
     768                      .dwpsn  file "C:/ti/Workspace/PLC_certificate/Software/uCOS-II/Source/os_mutex.c",line 323,column 5,i
     769              $C$DW$63        .dwtag  DW_TAG_TI_branch
     770                      .dwattr $C$DW$63, DW_AT_low_pc(0x00)
     771                      .dwattr $C$DW$63, DW_AT_name("_OS_CPU_SR_Save")
     772                      .dwattr $C$DW$63, DW_AT_TI_call
     773              
     774 000000df 7640!         LCR       #_OS_CPU_SR_Save      ; [CPU_ALU] |323| 
         000000e0 0000 
     775                      ; call occurs [#_OS_CPU_SR_Save] ; [] |323| 
     776 000000e1 964D          MOV       *-SP[13],AL           ; [CPU_ALU] |323| 
     777                      .dwpsn  file "C:/ti/Workspace/PLC_certificate/Software/uCOS-II/Source/os_mutex.c",line 324,column 5,i
     778 000000e2 8A42          MOVL      XAR4,*-SP[2]          ; [CPU_ALU] |324| 
     779 000000e3 92EC          MOV       AL,*+XAR4[5]          ; [CPU_ALU] |324| 
     780 000000e4 6105          B         $C$L18,EQ             ; [CPU_ALU] |324| 
     781                      ; branchcc occurs ; [] |324| 
     782                      .dwpsn  file "C:/ti/Workspace/PLC_certificate/Software/uCOS-II/Source/os_mutex.c",line 325,column 9,i
     783 000000e5 56BF          MOVB      *-SP[10],#1,UNC       ; [CPU_ALU] |325| 
TMS320C2000 Assembler PC v20.2.1 Tue Feb 16 00:15:59 2021

Copyright (c) 1996-2018 Texas Instruments Incorporated
os_mutex.asm                                                         PAGE   16

         000000e6 014A 
     784 000000e7 FFEF          B         $C$L28,UNC            ; [CPU_ALU] 
         000000e8 008F 
     785                      ; branch occurs ; [] 
     786 000000e9       $C$L18:    
     787                      .dwpsn  file "C:/ti/Workspace/PLC_certificate/Software/uCOS-II/Source/os_mutex.c",line 327,column 9,i
     788 000000e9 2B4A          MOV       *-SP[10],#0           ; [CPU_ALU] |327| 
     789                      .dwpsn  file "C:/ti/Workspace/PLC_certificate/Software/uCOS-II/Source/os_mutex.c",line 329,column 5,i
     790 000000ea FFEF          B         $C$L28,UNC            ; [CPU_ALU] |329| 
         000000eb 008C 
     791                      ; branch occurs ; [] |329| 
     792 000000ec       $C$L19:    
     793                      .dwpsn  file "C:/ti/Workspace/PLC_certificate/Software/uCOS-II/Source/os_mutex.c",line 331,column 14,
     794 000000ec 924A          MOV       AL,*-SP[10]           ; [CPU_ALU] |331| 
     795 000000ed 6029          B         $C$L21,NEQ            ; [CPU_ALU] |331| 
     796                      ; branchcc occurs ; [] |331| 
     797                      .dwpsn  file "C:/ti/Workspace/PLC_certificate/Software/uCOS-II/Source/os_mutex.c",line 333,column 18,
     798 000000ee 020E          MOVB      ACC,#14               ; [CPU_ALU] |333| 
     799 000000ef 0742          ADDL      ACC,*-SP[2]           ; [CPU_ALU] |333| 
     800 000000f0 8AA9          MOVL      XAR4,ACC              ; [CPU_ALU] |333| 
     801 000000f1 8F40+         MOVL      XAR5,#$C$FSL1         ; [CPU_ARAU] |333| 
         000000f2 0000 
     802 000000f3 A0C4          MOVL      *+XAR4[0],XAR5        ; [CPU_ALU] |333| 
     803                      .dwpsn  file "C:/ti/Workspace/PLC_certificate/Software/uCOS-II/Source/os_mutex.c",line 335,column 18,
     804 000000f4 8A42          MOVL      XAR4,*-SP[2]          ; [CPU_ALU] |335| 
     805 000000f5 92E4          MOV       AL,*+XAR4[4]          ; [CPU_ALU] |335| 
     806 000000f6 FFC7          LSR       AL,8                  ; [CPU_ALU] |335| 
     807 000000f7 964B          MOV       *-SP[11],AL           ; [CPU_ALU] |335| 
     808                      .dwpsn  file "C:/ti/Workspace/PLC_certificate/Software/uCOS-II/Source/os_mutex.c",line 336,column 18,
     809 000000f8 52FF          CMPB      AL,#255               ; [CPU_ALU] |336| 
     810 000000f9 610A          B         $C$L20,EQ             ; [CPU_ALU] |336| 
     811                      ; branchcc occurs ; [] |336| 
     812                      .dwpsn  file "C:/ti/Workspace/PLC_certificate/Software/uCOS-II/Source/os_mutex.c",line 337,column 22,
     813 000000fa 2901          CLRC      SXM                   ; [CPU_ALU] 
     814 000000fb 8F00!         MOVL      XAR4,#_OSTCBPrioTbl   ; [CPU_ARAU] |337| 
         000000fc 0000 
     815 000000fd 5603          MOV       ACC,*-SP[11] << 1     ; [CPU_ALU] |337| 
         000000fe 014B 
     816 000000ff 5601          ADDL      XAR4,ACC              ; [CPU_ALU] |337| 
         00000100 00A4 
     817 00000101 0200          MOVB      ACC,#0                ; [CPU_ALU] |337| 
     818 00000102 1EC4          MOVL      *+XAR4[0],ACC         ; [CPU_ALU] |337| 
     819 00000103       $C$L20:    
     820                      .dwpsn  file "C:/ti/Workspace/PLC_certificate/Software/uCOS-II/Source/os_mutex.c",line 339,column 18,
     821 00000103 8A42          MOVL      XAR4,*-SP[2]          ; [CPU_ALU] |339| 
     822 00000104 2BC4          MOV       *+XAR4[0],#0          ; [CPU_ALU] |339| 
     823                      .dwpsn  file "C:/ti/Workspace/PLC_certificate/Software/uCOS-II/Source/os_mutex.c",line 340,column 18,
     824 00000105 8A42          MOVL      XAR4,*-SP[2]          ; [CPU_ALU] |340| 
     825 00000106 761F!         MOVW      DP,#_OSEventFreeList  ; [CPU_ARAU] 
         00000107 0000 
     826 00000108 0600!         MOVL      ACC,@_OSEventFreeList ; [CPU_ALU] |340| 
     827 00000109 1ED4          MOVL      *+XAR4[2],ACC         ; [CPU_ALU] |340| 
     828                      .dwpsn  file "C:/ti/Workspace/PLC_certificate/Software/uCOS-II/Source/os_mutex.c",line 341,column 18,
     829 0000010a 8A42          MOVL      XAR4,*-SP[2]          ; [CPU_ALU] |341| 
     830 0000010b 2BE4          MOV       *+XAR4[4],#0          ; [CPU_ALU] |341| 
TMS320C2000 Assembler PC v20.2.1 Tue Feb 16 00:15:59 2021

Copyright (c) 1996-2018 Texas Instruments Incorporated
os_mutex.asm                                                         PAGE   17

     831                      .dwpsn  file "C:/ti/Workspace/PLC_certificate/Software/uCOS-II/Source/os_mutex.c",line 342,column 18,
     832 0000010c 0642          MOVL      ACC,*-SP[2]           ; [CPU_ALU] |342| 
     833 0000010d 1E00!         MOVL      @_OSEventFreeList,ACC ; [CPU_ALU] |342| 
     834                      .dwpsn  file "C:/ti/Workspace/PLC_certificate/Software/uCOS-II/Source/os_mutex.c",line 343,column 18,
     835 0000010e 924D          MOV       AL,*-SP[13]           ; [CPU_ALU] |343| 
     836              $C$DW$64        .dwtag  DW_TAG_TI_branch
     837                      .dwattr $C$DW$64, DW_AT_low_pc(0x00)
     838                      .dwattr $C$DW$64, DW_AT_name("_OS_CPU_SR_Restore")
     839                      .dwattr $C$DW$64, DW_AT_TI_call
     840              
     841 0000010f 7640!         LCR       #_OS_CPU_SR_Restore   ; [CPU_ALU] |343| 
         00000110 0000 
     842                      ; call occurs [#_OS_CPU_SR_Restore] ; [] |343| 
     843                      .dwpsn  file "C:/ti/Workspace/PLC_certificate/Software/uCOS-II/Source/os_mutex.c",line 344,column 18,
     844 00000111 8A44          MOVL      XAR4,*-SP[4]          ; [CPU_ALU] |344| 
     845 00000112 2BC4          MOV       *+XAR4[0],#0          ; [CPU_ALU] |344| 
     846                      .dwpsn  file "C:/ti/Workspace/PLC_certificate/Software/uCOS-II/Source/os_mutex.c",line 345,column 18,
     847 00000113 0200          MOVB      ACC,#0                ; [CPU_ALU] |345| 
     848 00000114 1E46          MOVL      *-SP[6],ACC           ; [CPU_ALU] |345| 
     849 00000115 6F67          B         $C$L29,UNC            ; [CPU_ALU] 
     850                      ; branch occurs ; [] 
     851 00000116       $C$L21:    
     852                      .dwpsn  file "C:/ti/Workspace/PLC_certificate/Software/uCOS-II/Source/os_mutex.c",line 347,column 18,
     853 00000116 924D          MOV       AL,*-SP[13]           ; [CPU_ALU] |347| 
     854              $C$DW$65        .dwtag  DW_TAG_TI_branch
     855                      .dwattr $C$DW$65, DW_AT_low_pc(0x00)
     856                      .dwattr $C$DW$65, DW_AT_name("_OS_CPU_SR_Restore")
     857                      .dwattr $C$DW$65, DW_AT_TI_call
     858              
     859 00000117 7640!         LCR       #_OS_CPU_SR_Restore   ; [CPU_ALU] |347| 
         00000118 0000 
     860                      ; call occurs [#_OS_CPU_SR_Restore] ; [] |347| 
     861                      .dwpsn  file "C:/ti/Workspace/PLC_certificate/Software/uCOS-II/Source/os_mutex.c",line 348,column 18,
     862 00000119 8A44          MOVL      XAR4,*-SP[4]          ; [CPU_ALU] |348| 
     863 0000011a 56BF          MOVB      *+XAR4[0],#73,UNC     ; [CPU_ALU] |348| 
         0000011b 49C4 
     864                      .dwpsn  file "C:/ti/Workspace/PLC_certificate/Software/uCOS-II/Source/os_mutex.c",line 349,column 18,
     865 0000011c 0642          MOVL      ACC,*-SP[2]           ; [CPU_ALU] |349| 
     866 0000011d 1E46          MOVL      *-SP[6],ACC           ; [CPU_ALU] |349| 
     867                      .dwpsn  file "C:/ti/Workspace/PLC_certificate/Software/uCOS-II/Source/os_mutex.c",line 351,column 14,
     868 0000011e 6F5E          B         $C$L29,UNC            ; [CPU_ALU] |351| 
     869                      ; branch occurs ; [] |351| 
     870 0000011f       $C$L22:    
     871                      .dwpsn  file "C:/ti/Workspace/PLC_certificate/Software/uCOS-II/Source/os_mutex.c",line 354,column 14,
     872 0000011f 92E4          MOV       AL,*+XAR4[4]          ; [CPU_ALU] |354| 
     873 00000120 FFC7          LSR       AL,8                  ; [CPU_ALU] |354| 
     874 00000121 964B          MOV       *-SP[11],AL           ; [CPU_ALU] |354| 
     875                      .dwpsn  file "C:/ti/Workspace/PLC_certificate/Software/uCOS-II/Source/os_mutex.c",line 355,column 14,
     876 00000122 52FF          CMPB      AL,#255               ; [CPU_ALU] |355| 
     877 00000123 611A          B         $C$L24,EQ             ; [CPU_ALU] |355| 
     878                      ; branchcc occurs ; [] |355| 
     879                      .dwpsn  file "C:/ti/Workspace/PLC_certificate/Software/uCOS-II/Source/os_mutex.c",line 356,column 18,
     880 00000124 92E4          MOV       AL,*+XAR4[4]          ; [CPU_ALU] |356| 
     881 00000125 90FF          ANDB      AL,#0xff              ; [CPU_ALU] |356| 
     882 00000126 964C          MOV       *-SP[12],AL           ; [CPU_ALU] |356| 
TMS320C2000 Assembler PC v20.2.1 Tue Feb 16 00:15:59 2021

Copyright (c) 1996-2018 Texas Instruments Incorporated
os_mutex.asm                                                         PAGE   18

     883                      .dwpsn  file "C:/ti/Workspace/PLC_certificate/Software/uCOS-II/Source/os_mutex.c",line 357,column 18,
     884 00000127 06D4          MOVL      ACC,*+XAR4[2]         ; [CPU_ALU] |357| 
     885 00000128 1E48          MOVL      *-SP[8],ACC           ; [CPU_ALU] |357| 
     886                      .dwpsn  file "C:/ti/Workspace/PLC_certificate/Software/uCOS-II/Source/os_mutex.c",line 358,column 18,
     887 00000129 0648          MOVL      ACC,*-SP[8]           ; [CPU_ALU] |358| 
     888 0000012a 6113          B         $C$L24,EQ             ; [CPU_ALU] |358| 
     889                      ; branchcc occurs ; [] |358| 
     890                      .dwpsn  file "C:/ti/Workspace/PLC_certificate/Software/uCOS-II/Source/os_mutex.c",line 359,column 22,
     891 0000012b 021C          MOVB      ACC,#28               ; [CPU_ALU] |359| 
     892 0000012c 0748          ADDL      ACC,*-SP[8]           ; [CPU_ALU] |359| 
     893 0000012d 8AA9          MOVL      XAR4,ACC              ; [CPU_ALU] |359| 
     894 0000012e 884B          MOVZ      AR6,*-SP[11]          ; [CPU_ALU] |359| 
     895 0000012f 80C4          MOVZ      AR7,*+XAR4[0]         ; [CPU_ALU] |359| 
     896 00000130 06A6          MOVL      ACC,XAR6              ; [CPU_ALU] |359| 
     897 00000131 0FA7          CMPL      ACC,XAR7              ; [CPU_ALU] |359| 
     898 00000132 600B          B         $C$L24,NEQ            ; [CPU_ALU] |359| 
     899                      ; branchcc occurs ; [] |359| 
     900                      .dwpsn  file "C:/ti/Workspace/PLC_certificate/Software/uCOS-II/Source/os_mutex.c",line 360,column 26,
     901 00000133 8A48          MOVL      XAR4,*-SP[8]          ; [CPU_ALU] |360| 
     902 00000134 924C          MOV       AL,*-SP[12]           ; [CPU_ALU] |360| 
     903              $C$DW$66        .dwtag  DW_TAG_TI_branch
     904                      .dwattr $C$DW$66, DW_AT_low_pc(0x00)
     905                      .dwattr $C$DW$66, DW_AT_name("_OSMutex_RdyAtPrio")
     906                      .dwattr $C$DW$66, DW_AT_TI_call
     907              
     908 00000135 7640'         LCR       #_OSMutex_RdyAtPrio   ; [CPU_ALU] |360| 
         00000136 03C3 
     909                      ; call occurs [#_OSMutex_RdyAtPrio] ; [] |360| 
     910                      .dwpsn  file "C:/ti/Workspace/PLC_certificate/Software/uCOS-II/Source/os_mutex.c",line 364,column 14,
     911 00000137 6F06          B         $C$L24,UNC            ; [CPU_ALU] |364| 
     912                      ; branch occurs ; [] |364| 
     913 00000138       $C$L23:    
     914                      .dwpsn  file "C:/ti/Workspace/PLC_certificate/Software/uCOS-II/Source/os_mutex.c",line 365,column 18,
     915 00000138 D500          MOVB      XAR5,#0               ; [CPU_ALU] |365| 
     916 00000139 9A10          MOVB      AL,#16                ; [CPU_ALU] |365| 
     917 0000013a 9B02          MOVB      AH,#2                 ; [CPU_ALU] |365| 
     918              $C$DW$67        .dwtag  DW_TAG_TI_branch
     919                      .dwattr $C$DW$67, DW_AT_low_pc(0x00)
     920                      .dwattr $C$DW$67, DW_AT_name("_OS_EventTaskRdy")
     921                      .dwattr $C$DW$67, DW_AT_TI_call
     922              
     923 0000013b 7640!         LCR       #_OS_EventTaskRdy     ; [CPU_ALU] |365| 
         0000013c 0000 
     924                      ; call occurs [#_OS_EventTaskRdy] ; [] |365| 
     925 0000013d       $C$L24:    
     926                      .dwpsn  file "C:/ti/Workspace/PLC_certificate/Software/uCOS-II/Source/os_mutex.c",line 364,column 21,
     927 0000013d 8A42          MOVL      XAR4,*-SP[2]          ; [CPU_ALU] |364| 
     928 0000013e 92EC          MOV       AL,*+XAR4[5]          ; [CPU_ALU] |364| 
     929 0000013f 60F9          B         $C$L23,NEQ            ; [CPU_ALU] |364| 
     930                      ; branchcc occurs ; [] |364| 
     931                      .dwpsn  file "C:/ti/Workspace/PLC_certificate/Software/uCOS-II/Source/os_mutex.c",line 368,column 14,
     932 00000140 020E          MOVB      ACC,#14               ; [CPU_ALU] |368| 
     933 00000141 0742          ADDL      ACC,*-SP[2]           ; [CPU_ALU] |368| 
     934 00000142 8AA9          MOVL      XAR4,ACC              ; [CPU_ALU] |368| 
     935 00000143 8F40+         MOVL      XAR5,#$C$FSL1         ; [CPU_ARAU] |368| 
TMS320C2000 Assembler PC v20.2.1 Tue Feb 16 00:15:59 2021

Copyright (c) 1996-2018 Texas Instruments Incorporated
os_mutex.asm                                                         PAGE   19

         00000144 0000 
     936 00000145 A0C4          MOVL      *+XAR4[0],XAR5        ; [CPU_ALU] |368| 
     937                      .dwpsn  file "C:/ti/Workspace/PLC_certificate/Software/uCOS-II/Source/os_mutex.c",line 370,column 14,
     938 00000146 8A42          MOVL      XAR4,*-SP[2]          ; [CPU_ALU] |370| 
     939 00000147 92E4          MOV       AL,*+XAR4[4]          ; [CPU_ALU] |370| 
     940 00000148 FFC7          LSR       AL,8                  ; [CPU_ALU] |370| 
     941 00000149 964B          MOV       *-SP[11],AL           ; [CPU_ALU] |370| 
     942                      .dwpsn  file "C:/ti/Workspace/PLC_certificate/Software/uCOS-II/Source/os_mutex.c",line 371,column 14,
     943 0000014a 52FF          CMPB      AL,#255               ; [CPU_ALU] |371| 
     944 0000014b 610A          B         $C$L25,EQ             ; [CPU_ALU] |371| 
     945                      ; branchcc occurs ; [] |371| 
     946                      .dwpsn  file "C:/ti/Workspace/PLC_certificate/Software/uCOS-II/Source/os_mutex.c",line 372,column 18,
     947 0000014c 2901          CLRC      SXM                   ; [CPU_ALU] 
     948 0000014d 8F00!         MOVL      XAR4,#_OSTCBPrioTbl   ; [CPU_ARAU] |372| 
         0000014e 0000 
     949 0000014f 5603          MOV       ACC,*-SP[11] << 1     ; [CPU_ALU] |372| 
         00000150 014B 
     950 00000151 5601          ADDL      XAR4,ACC              ; [CPU_ALU] |372| 
         00000152 00A4 
     951 00000153 0200          MOVB      ACC,#0                ; [CPU_ALU] |372| 
     952 00000154 1EC4          MOVL      *+XAR4[0],ACC         ; [CPU_ALU] |372| 
     953 00000155       $C$L25:    
     954                      .dwpsn  file "C:/ti/Workspace/PLC_certificate/Software/uCOS-II/Source/os_mutex.c",line 374,column 14,
     955 00000155 8A42          MOVL      XAR4,*-SP[2]          ; [CPU_ALU] |374| 
     956 00000156 2BC4          MOV       *+XAR4[0],#0          ; [CPU_ALU] |374| 
     957                      .dwpsn  file "C:/ti/Workspace/PLC_certificate/Software/uCOS-II/Source/os_mutex.c",line 375,column 14,
     958 00000157 8A42          MOVL      XAR4,*-SP[2]          ; [CPU_ALU] |375| 
     959 00000158 761F!         MOVW      DP,#_OSEventFreeList  ; [CPU_ARAU] 
         00000159 0000 
     960 0000015a 0600!         MOVL      ACC,@_OSEventFreeList ; [CPU_ALU] |375| 
     961 0000015b 1ED4          MOVL      *+XAR4[2],ACC         ; [CPU_ALU] |375| 
     962                      .dwpsn  file "C:/ti/Workspace/PLC_certificate/Software/uCOS-II/Source/os_mutex.c",line 376,column 14,
     963 0000015c 8A42          MOVL      XAR4,*-SP[2]          ; [CPU_ALU] |376| 
     964 0000015d 2BE4          MOV       *+XAR4[4],#0          ; [CPU_ALU] |376| 
     965                      .dwpsn  file "C:/ti/Workspace/PLC_certificate/Software/uCOS-II/Source/os_mutex.c",line 377,column 14,
     966 0000015e 0642          MOVL      ACC,*-SP[2]           ; [CPU_ALU] |377| 
     967 0000015f 1E00!         MOVL      @_OSEventFreeList,ACC ; [CPU_ALU] |377| 
     968                      .dwpsn  file "C:/ti/Workspace/PLC_certificate/Software/uCOS-II/Source/os_mutex.c",line 378,column 14,
     969 00000160 924D          MOV       AL,*-SP[13]           ; [CPU_ALU] |378| 
     970              $C$DW$68        .dwtag  DW_TAG_TI_branch
     971                      .dwattr $C$DW$68, DW_AT_low_pc(0x00)
     972                      .dwattr $C$DW$68, DW_AT_name("_OS_CPU_SR_Restore")
     973                      .dwattr $C$DW$68, DW_AT_TI_call
     974              
     975 00000161 7640!         LCR       #_OS_CPU_SR_Restore   ; [CPU_ALU] |378| 
         00000162 0000 
     976                      ; call occurs [#_OS_CPU_SR_Restore] ; [] |378| 
     977                      .dwpsn  file "C:/ti/Workspace/PLC_certificate/Software/uCOS-II/Source/os_mutex.c",line 379,column 14,
     978 00000163 924A          MOV       AL,*-SP[10]           ; [CPU_ALU] |379| 
     979 00000164 5201          CMPB      AL,#1                 ; [CPU_ALU] |379| 
     980 00000165 6003          B         $C$L26,NEQ            ; [CPU_ALU] |379| 
     981                      ; branchcc occurs ; [] |379| 
     982                      .dwpsn  file "C:/ti/Workspace/PLC_certificate/Software/uCOS-II/Source/os_mutex.c",line 380,column 18,
     983              $C$DW$69        .dwtag  DW_TAG_TI_branch
     984                      .dwattr $C$DW$69, DW_AT_low_pc(0x00)
TMS320C2000 Assembler PC v20.2.1 Tue Feb 16 00:15:59 2021

Copyright (c) 1996-2018 Texas Instruments Incorporated
os_mutex.asm                                                         PAGE   20

     985                      .dwattr $C$DW$69, DW_AT_name("_OS_Sched")
     986                      .dwattr $C$DW$69, DW_AT_TI_call
     987              
     988 00000166 7640!         LCR       #_OS_Sched            ; [CPU_ALU] |380| 
         00000167 0000 
     989                      ; call occurs [#_OS_Sched] ; [] |380| 
     990 00000168       $C$L26:    
     991                      .dwpsn  file "C:/ti/Workspace/PLC_certificate/Software/uCOS-II/Source/os_mutex.c",line 382,column 14,
     992 00000168 8A44          MOVL      XAR4,*-SP[4]          ; [CPU_ALU] |382| 
     993 00000169 2BC4          MOV       *+XAR4[0],#0          ; [CPU_ALU] |382| 
     994                      .dwpsn  file "C:/ti/Workspace/PLC_certificate/Software/uCOS-II/Source/os_mutex.c",line 383,column 14,
     995 0000016a 0200          MOVB      ACC,#0                ; [CPU_ALU] |383| 
     996 0000016b 1E46          MOVL      *-SP[6],ACC           ; [CPU_ALU] |383| 
     997                      .dwpsn  file "C:/ti/Workspace/PLC_certificate/Software/uCOS-II/Source/os_mutex.c",line 384,column 14,
     998 0000016c 6F10          B         $C$L29,UNC            ; [CPU_ALU] |384| 
     999                      ; branch occurs ; [] |384| 
    1000 0000016d       $C$L27:    
    1001                      .dwpsn  file "C:/ti/Workspace/PLC_certificate/Software/uCOS-II/Source/os_mutex.c",line 387,column 14,
    1002 0000016d 924D          MOV       AL,*-SP[13]           ; [CPU_ALU] |387| 
    1003              $C$DW$70        .dwtag  DW_TAG_TI_branch
    1004                      .dwattr $C$DW$70, DW_AT_low_pc(0x00)
    1005                      .dwattr $C$DW$70, DW_AT_name("_OS_CPU_SR_Restore")
    1006                      .dwattr $C$DW$70, DW_AT_TI_call
    1007              
    1008 0000016e 7640!         LCR       #_OS_CPU_SR_Restore   ; [CPU_ALU] |387| 
         0000016f 0000 
    1009                      ; call occurs [#_OS_CPU_SR_Restore] ; [] |387| 
    1010                      .dwpsn  file "C:/ti/Workspace/PLC_certificate/Software/uCOS-II/Source/os_mutex.c",line 388,column 14,
    1011 00000170 8A44          MOVL      XAR4,*-SP[4]          ; [CPU_ALU] |388| 
    1012 00000171 56BF          MOVB      *+XAR4[0],#7,UNC      ; [CPU_ALU] |388| 
         00000172 07C4 
    1013                      .dwpsn  file "C:/ti/Workspace/PLC_certificate/Software/uCOS-II/Source/os_mutex.c",line 389,column 14,
    1014 00000173 0642          MOVL      ACC,*-SP[2]           ; [CPU_ALU] |389| 
    1015 00000174 1E46          MOVL      *-SP[6],ACC           ; [CPU_ALU] |389| 
    1016                      .dwpsn  file "C:/ti/Workspace/PLC_certificate/Software/uCOS-II/Source/os_mutex.c",line 390,column 14,
    1017 00000175 6F07          B         $C$L29,UNC            ; [CPU_ALU] |390| 
    1018                      ; branch occurs ; [] |390| 
    1019 00000176       $C$L28:    
    1020                      .dwpsn  file "C:/ti/Workspace/PLC_certificate/Software/uCOS-II/Source/os_mutex.c",line 329,column 5,i
    1021 00000176 9249          MOV       AL,*-SP[9]            ; [CPU_ALU] |329| 
    1022 00000177 FFE1          B         $C$L19,EQ             ; [CPU_ALU] |329| 
         00000178 FF75 
    1023                      ; branchcc occurs ; [] |329| 
    1024 00000179 5201          CMPB      AL,#1                 ; [CPU_ALU] |329| 
    1025 0000017a 61A5          B         $C$L22,EQ             ; [CPU_ALU] |329| 
    1026                      ; branchcc occurs ; [] |329| 
    1027 0000017b 6FF2          B         $C$L27,UNC            ; [CPU_ALU] |329| 
    1028                      ; branch occurs ; [] |329| 
    1029 0000017c       $C$L29:    
    1030                      .dwpsn  file "C:/ti/Workspace/PLC_certificate/Software/uCOS-II/Source/os_mutex.c",line 392,column 5,i
    1031 0000017c 8A46          MOVL      XAR4,*-SP[6]          ; [CPU_ALU] |392| 
    1032 0000017d       $C$L30:    
    1033                      .dwpsn  file "C:/ti/Workspace/PLC_certificate/Software/uCOS-II/Source/os_mutex.c",line 393,column 1,i
    1034 0000017d FE8E          SUBB      SP,#14                ; [CPU_ARAU] 
    1035                      .dwcfi  cfa_offset, -2
TMS320C2000 Assembler PC v20.2.1 Tue Feb 16 00:15:59 2021

Copyright (c) 1996-2018 Texas Instruments Incorporated
os_mutex.asm                                                         PAGE   21

    1036              $C$DW$71        .dwtag  DW_TAG_TI_branch
    1037                      .dwattr $C$DW$71, DW_AT_low_pc(0x00)
    1038                      .dwattr $C$DW$71, DW_AT_TI_return
    1039              
    1040 0000017e 0006          LRETR     ; [CPU_ALU] 
    1041                      ; return occurs ; [] 
    1042                      .dwattr $C$DW$50, DW_AT_TI_end_file("C:/ti/Workspace/PLC_certificate/Software/uCOS-II/Source/os_mutex
    1043                      .dwattr $C$DW$50, DW_AT_TI_end_line(0x189)
    1044                      .dwattr $C$DW$50, DW_AT_TI_end_column(0x01)
    1045                      .dwendentry
    1046                      .dwendtag $C$DW$50
    1047              
    1048 0000017f               .sect   ".text"
    1049                      .clink
    1050                      .global _OSMutexPend
    1051              
    1052              $C$DW$72        .dwtag  DW_TAG_subprogram
    1053                      .dwattr $C$DW$72, DW_AT_name("OSMutexPend")
    1054                      .dwattr $C$DW$72, DW_AT_low_pc(_OSMutexPend)
    1055                      .dwattr $C$DW$72, DW_AT_high_pc(0x00)
    1056                      .dwattr $C$DW$72, DW_AT_TI_symbol_name("_OSMutexPend")
    1057                      .dwattr $C$DW$72, DW_AT_external
    1058                      .dwattr $C$DW$72, DW_AT_TI_begin_file("C:/ti/Workspace/PLC_certificate/Software/uCOS-II/Source/os_mut
    1059                      .dwattr $C$DW$72, DW_AT_TI_begin_line(0x1b5)
    1060                      .dwattr $C$DW$72, DW_AT_TI_begin_column(0x07)
    1061                      .dwattr $C$DW$72, DW_AT_TI_max_frame_size(-18)
    1062                      .dwpsn  file "C:/ti/Workspace/PLC_certificate/Software/uCOS-II/Source/os_mutex.c",line 440,column 1,i
    1063              
    1064                      .dwfde $C$DW$CIE, _OSMutexPend
    1065              $C$DW$73        .dwtag  DW_TAG_formal_parameter
    1066                      .dwattr $C$DW$73, DW_AT_name("pevent")
    1067                      .dwattr $C$DW$73, DW_AT_TI_symbol_name("_pevent")
    1068                      .dwattr $C$DW$73, DW_AT_type(*$C$DW$T$34)
    1069                      .dwattr $C$DW$73, DW_AT_location[DW_OP_reg12]
    1070              
    1071              $C$DW$74        .dwtag  DW_TAG_formal_parameter
    1072                      .dwattr $C$DW$74, DW_AT_name("timeout")
    1073                      .dwattr $C$DW$74, DW_AT_TI_symbol_name("_timeout")
    1074                      .dwattr $C$DW$74, DW_AT_type(*$C$DW$T$31)
    1075                      .dwattr $C$DW$74, DW_AT_location[DW_OP_reg0]
    1076              
    1077              $C$DW$75        .dwtag  DW_TAG_formal_parameter
    1078                      .dwattr $C$DW$75, DW_AT_name("perr")
    1079                      .dwattr $C$DW$75, DW_AT_TI_symbol_name("_perr")
    1080                      .dwattr $C$DW$75, DW_AT_type(*$C$DW$T$23)
    1081                      .dwattr $C$DW$75, DW_AT_location[DW_OP_reg14]
    1082              
    1083              
    1084              ;***************************************************************
    1085              ;* FNAME: _OSMutexPend                  FR SIZE:  16           *
    1086              ;*                                                             *
    1087              ;* FUNCTION ENVIRONMENT                                        *
    1088              ;*                                                             *
    1089              ;* FUNCTION PROPERTIES                                         *
    1090              ;*                            0 Parameter, 15 Auto,  0 SOE     *
TMS320C2000 Assembler PC v20.2.1 Tue Feb 16 00:15:59 2021

Copyright (c) 1996-2018 Texas Instruments Incorporated
os_mutex.asm                                                         PAGE   22

    1091              ;***************************************************************
    1092              
    1093 0000017f       _OSMutexPend:
    1094                      .dwcfi  cfa_offset, -2
    1095                      .dwcfi  save_reg_to_mem, 26, 0
    1096 0000017f FE10          ADDB      SP,#16                ; [CPU_ARAU] 
    1097                      .dwcfi  cfa_offset, -18
    1098              $C$DW$76        .dwtag  DW_TAG_variable
    1099                      .dwattr $C$DW$76, DW_AT_name("pevent")
    1100                      .dwattr $C$DW$76, DW_AT_TI_symbol_name("_pevent")
    1101                      .dwattr $C$DW$76, DW_AT_type(*$C$DW$T$34)
    1102                      .dwattr $C$DW$76, DW_AT_location[DW_OP_breg20 -2]
    1103              
    1104              $C$DW$77        .dwtag  DW_TAG_variable
    1105                      .dwattr $C$DW$77, DW_AT_name("timeout")
    1106                      .dwattr $C$DW$77, DW_AT_TI_symbol_name("_timeout")
    1107                      .dwattr $C$DW$77, DW_AT_type(*$C$DW$T$31)
    1108                      .dwattr $C$DW$77, DW_AT_location[DW_OP_breg20 -4]
    1109              
    1110              $C$DW$78        .dwtag  DW_TAG_variable
    1111                      .dwattr $C$DW$78, DW_AT_name("perr")
    1112                      .dwattr $C$DW$78, DW_AT_TI_symbol_name("_perr")
    1113                      .dwattr $C$DW$78, DW_AT_type(*$C$DW$T$23)
    1114                      .dwattr $C$DW$78, DW_AT_location[DW_OP_breg20 -6]
    1115              
    1116              $C$DW$79        .dwtag  DW_TAG_variable
    1117                      .dwattr $C$DW$79, DW_AT_name("ptcb")
    1118                      .dwattr $C$DW$79, DW_AT_TI_symbol_name("_ptcb")
    1119                      .dwattr $C$DW$79, DW_AT_type(*$C$DW$T$46)
    1120                      .dwattr $C$DW$79, DW_AT_location[DW_OP_breg20 -8]
    1121              
    1122              $C$DW$80        .dwtag  DW_TAG_variable
    1123                      .dwattr $C$DW$80, DW_AT_name("pevent2")
    1124                      .dwattr $C$DW$80, DW_AT_TI_symbol_name("_pevent2")
    1125                      .dwattr $C$DW$80, DW_AT_type(*$C$DW$T$34)
    1126                      .dwattr $C$DW$80, DW_AT_location[DW_OP_breg20 -10]
    1127              
    1128              $C$DW$81        .dwtag  DW_TAG_variable
    1129                      .dwattr $C$DW$81, DW_AT_name("pcp")
    1130                      .dwattr $C$DW$81, DW_AT_TI_symbol_name("_pcp")
    1131                      .dwattr $C$DW$81, DW_AT_type(*$C$DW$T$19)
    1132                      .dwattr $C$DW$81, DW_AT_location[DW_OP_breg20 -11]
    1133              
    1134              $C$DW$82        .dwtag  DW_TAG_variable
    1135                      .dwattr $C$DW$82, DW_AT_name("mprio")
    1136                      .dwattr $C$DW$82, DW_AT_TI_symbol_name("_mprio")
    1137                      .dwattr $C$DW$82, DW_AT_type(*$C$DW$T$19)
    1138                      .dwattr $C$DW$82, DW_AT_location[DW_OP_breg20 -12]
    1139              
    1140              $C$DW$83        .dwtag  DW_TAG_variable
    1141                      .dwattr $C$DW$83, DW_AT_name("rdy")
    1142                      .dwattr $C$DW$83, DW_AT_TI_symbol_name("_rdy")
    1143                      .dwattr $C$DW$83, DW_AT_type(*$C$DW$T$27)
    1144                      .dwattr $C$DW$83, DW_AT_location[DW_OP_breg20 -13]
    1145              
TMS320C2000 Assembler PC v20.2.1 Tue Feb 16 00:15:59 2021

Copyright (c) 1996-2018 Texas Instruments Incorporated
os_mutex.asm                                                         PAGE   23

    1146              $C$DW$84        .dwtag  DW_TAG_variable
    1147                      .dwattr $C$DW$84, DW_AT_name("y")
    1148                      .dwattr $C$DW$84, DW_AT_TI_symbol_name("_y")
    1149                      .dwattr $C$DW$84, DW_AT_type(*$C$DW$T$19)
    1150                      .dwattr $C$DW$84, DW_AT_location[DW_OP_breg20 -14]
    1151              
    1152              $C$DW$85        .dwtag  DW_TAG_variable
    1153                      .dwattr $C$DW$85, DW_AT_name("cpu_sr")
    1154                      .dwattr $C$DW$85, DW_AT_TI_symbol_name("_cpu_sr")
    1155                      .dwattr $C$DW$85, DW_AT_type(*$C$DW$T$40)
    1156                      .dwattr $C$DW$85, DW_AT_location[DW_OP_breg20 -15]
    1157              
    1158 00000180 A046          MOVL      *-SP[6],XAR5          ; [CPU_ALU] |440| 
    1159 00000181 1E44          MOVL      *-SP[4],ACC           ; [CPU_ALU] |440| 
    1160 00000182 A842          MOVL      *-SP[2],XAR4          ; [CPU_ALU] |440| 
    1161                      .dwpsn  file "C:/ti/Workspace/PLC_certificate/Software/uCOS-II/Source/os_mutex.c",line 448,column 23,
    1162 00000183 2B4F          MOV       *-SP[15],#0           ; [CPU_ALU] |448| 
    1163                      .dwpsn  file "C:/ti/Workspace/PLC_certificate/Software/uCOS-II/Source/os_mutex.c",line 461,column 5,i
    1164 00000184 0642          MOVL      ACC,*-SP[2]           ; [CPU_ALU] |461| 
    1165 00000185 6006          B         $C$L31,NEQ            ; [CPU_ALU] |461| 
    1166                      ; branchcc occurs ; [] |461| 
    1167                      .dwpsn  file "C:/ti/Workspace/PLC_certificate/Software/uCOS-II/Source/os_mutex.c",line 462,column 9,i
    1168 00000186 8A46          MOVL      XAR4,*-SP[6]          ; [CPU_ALU] |462| 
    1169 00000187 56BF          MOVB      *+XAR4[0],#4,UNC      ; [CPU_ALU] |462| 
         00000188 04C4 
    1170                      .dwpsn  file "C:/ti/Workspace/PLC_certificate/Software/uCOS-II/Source/os_mutex.c",line 463,column 9,i
    1171 00000189 FFEF          B         $C$L49,UNC            ; [CPU_ALU] |463| 
         0000018a 0168 
    1172                      ; branch occurs ; [] |463| 
    1173 0000018b       $C$L31:    
    1174                      .dwpsn  file "C:/ti/Workspace/PLC_certificate/Software/uCOS-II/Source/os_mutex.c",line 466,column 5,i
    1175 0000018b 92C4          MOV       AL,*+XAR4[0]          ; [CPU_ALU] |466| 
    1176 0000018c 5204          CMPB      AL,#4                 ; [CPU_ALU] |466| 
    1177 0000018d 6106          B         $C$L32,EQ             ; [CPU_ALU] |466| 
    1178                      ; branchcc occurs ; [] |466| 
    1179                      .dwpsn  file "C:/ti/Workspace/PLC_certificate/Software/uCOS-II/Source/os_mutex.c",line 467,column 9,i
    1180 0000018e 8A46          MOVL      XAR4,*-SP[6]          ; [CPU_ALU] |467| 
    1181 0000018f 56BF          MOVB      *+XAR4[0],#1,UNC      ; [CPU_ALU] |467| 
         00000190 01C4 
    1182                      .dwpsn  file "C:/ti/Workspace/PLC_certificate/Software/uCOS-II/Source/os_mutex.c",line 468,column 9,i
    1183 00000191 FFEF          B         $C$L49,UNC            ; [CPU_ALU] |468| 
         00000192 0160 
    1184                      ; branch occurs ; [] |468| 
    1185 00000193       $C$L32:    
    1186                      .dwpsn  file "C:/ti/Workspace/PLC_certificate/Software/uCOS-II/Source/os_mutex.c",line 470,column 5,i
    1187 00000193 761F!         MOVW      DP,#_OSIntNesting     ; [CPU_ARAU] 
         00000194 0000 
    1188 00000195 9200!         MOV       AL,@_OSIntNesting     ; [CPU_ALU] |470| 
    1189 00000196 6106          B         $C$L33,EQ             ; [CPU_ALU] |470| 
    1190                      ; branchcc occurs ; [] |470| 
    1191                      .dwpsn  file "C:/ti/Workspace/PLC_certificate/Software/uCOS-II/Source/os_mutex.c",line 471,column 9,i
    1192 00000197 8A46          MOVL      XAR4,*-SP[6]          ; [CPU_ALU] |471| 
    1193 00000198 56BF          MOVB      *+XAR4[0],#2,UNC      ; [CPU_ALU] |471| 
         00000199 02C4 
    1194                      .dwpsn  file "C:/ti/Workspace/PLC_certificate/Software/uCOS-II/Source/os_mutex.c",line 472,column 9,i
TMS320C2000 Assembler PC v20.2.1 Tue Feb 16 00:15:59 2021

Copyright (c) 1996-2018 Texas Instruments Incorporated
os_mutex.asm                                                         PAGE   24

    1195 0000019a FFEF          B         $C$L49,UNC            ; [CPU_ALU] |472| 
         0000019b 0157 
    1196                      ; branch occurs ; [] |472| 
    1197 0000019c       $C$L33:    
    1198                      .dwpsn  file "C:/ti/Workspace/PLC_certificate/Software/uCOS-II/Source/os_mutex.c",line 474,column 5,i
    1199 0000019c 761F!         MOVW      DP,#_OSLockNesting    ; [CPU_ARAU] 
         0000019d 0000 
    1200 0000019e 9200!         MOV       AL,@_OSLockNesting    ; [CPU_ALU] |474| 
    1201 0000019f 6106          B         $C$L34,EQ             ; [CPU_ALU] |474| 
    1202                      ; branchcc occurs ; [] |474| 
    1203                      .dwpsn  file "C:/ti/Workspace/PLC_certificate/Software/uCOS-II/Source/os_mutex.c",line 475,column 9,i
    1204 000001a0 8A46          MOVL      XAR4,*-SP[6]          ; [CPU_ALU] |475| 
    1205 000001a1 56BF          MOVB      *+XAR4[0],#13,UNC     ; [CPU_ALU] |475| 
         000001a2 0DC4 
    1206                      .dwpsn  file "C:/ti/Workspace/PLC_certificate/Software/uCOS-II/Source/os_mutex.c",line 476,column 9,i
    1207 000001a3 FFEF          B         $C$L49,UNC            ; [CPU_ALU] |476| 
         000001a4 014E 
    1208                      ; branch occurs ; [] |476| 
    1209 000001a5       $C$L34:    
    1210                      .dwpsn  file "C:/ti/Workspace/PLC_certificate/Software/uCOS-II/Source/os_mutex.c",line 479,column 5,i
    1211              $C$DW$86        .dwtag  DW_TAG_TI_branch
    1212                      .dwattr $C$DW$86, DW_AT_low_pc(0x00)
    1213                      .dwattr $C$DW$86, DW_AT_name("_OS_CPU_SR_Save")
    1214                      .dwattr $C$DW$86, DW_AT_TI_call
    1215              
    1216 000001a5 7640!         LCR       #_OS_CPU_SR_Save      ; [CPU_ALU] |479| 
         000001a6 0000 
    1217                      ; call occurs [#_OS_CPU_SR_Save] ; [] |479| 
    1218 000001a7 964F          MOV       *-SP[15],AL           ; [CPU_ALU] |479| 
    1219                      .dwpsn  file "C:/ti/Workspace/PLC_certificate/Software/uCOS-II/Source/os_mutex.c",line 480,column 5,i
    1220 000001a8 8A42          MOVL      XAR4,*-SP[2]          ; [CPU_ALU] |480| 
    1221 000001a9 92E4          MOV       AL,*+XAR4[4]          ; [CPU_ALU] |480| 
    1222 000001aa FFC7          LSR       AL,8                  ; [CPU_ALU] |480| 
    1223 000001ab 964B          MOV       *-SP[11],AL           ; [CPU_ALU] |480| 
    1224                      .dwpsn  file "C:/ti/Workspace/PLC_certificate/Software/uCOS-II/Source/os_mutex.c",line 482,column 5,i
    1225 000001ac 92E4          MOV       AL,*+XAR4[4]          ; [CPU_ALU] |482| 
    1226 000001ad 90FF          ANDB      AL,#0xff              ; [CPU_ALU] |482| 
    1227 000001ae 52FF          CMPB      AL,#255               ; [CPU_ALU] |482| 
    1228 000001af 6026          B         $C$L36,NEQ            ; [CPU_ALU] |482| 
    1229                      ; branchcc occurs ; [] |482| 
    1230                      .dwpsn  file "C:/ti/Workspace/PLC_certificate/Software/uCOS-II/Source/os_mutex.c",line 483,column 9,i
    1231 000001b0 18E4          AND       *+XAR4[4],#0xff00     ; [CPU_ALU] |483| 
         000001b1 FF00 
    1232                      .dwpsn  file "C:/ti/Workspace/PLC_certificate/Software/uCOS-II/Source/os_mutex.c",line 484,column 9,i
    1233 000001b2 021C          MOVB      ACC,#28               ; [CPU_ALU] |484| 
    1234 000001b3 761F!         MOVW      DP,#_OSTCBCur         ; [CPU_ARAU] 
         000001b4 0000 
    1235 000001b5 0700!         ADDL      ACC,@_OSTCBCur        ; [CPU_ALU] |484| 
    1236 000001b6 8AA9          MOVL      XAR4,ACC              ; [CPU_ALU] |484| 
    1237 000001b7 8342          MOVL      XAR5,*-SP[2]          ; [CPU_ALU] |484| 
    1238 000001b8 92C4          MOV       AL,*+XAR4[0]          ; [CPU_ALU] |484| 
    1239 000001b9 98E5          OR        *+XAR5[4],AL          ; [CPU_ALU] |484| 
    1240                      .dwpsn  file "C:/ti/Workspace/PLC_certificate/Software/uCOS-II/Source/os_mutex.c",line 485,column 9,i
    1241 000001ba 8A42          MOVL      XAR4,*-SP[2]          ; [CPU_ALU] |485| 
    1242 000001bb 0600!         MOVL      ACC,@_OSTCBCur        ; [CPU_ALU] |485| 
TMS320C2000 Assembler PC v20.2.1 Tue Feb 16 00:15:59 2021

Copyright (c) 1996-2018 Texas Instruments Incorporated
os_mutex.asm                                                         PAGE   25

    1243 000001bc 1ED4          MOVL      *+XAR4[2],ACC         ; [CPU_ALU] |485| 
    1244                      .dwpsn  file "C:/ti/Workspace/PLC_certificate/Software/uCOS-II/Source/os_mutex.c",line 486,column 9,i
    1245 000001bd 924B          MOV       AL,*-SP[11]           ; [CPU_ALU] |486| 
    1246 000001be 52FF          CMPB      AL,#255               ; [CPU_ALU] |486| 
    1247 000001bf 610F          B         $C$L35,EQ             ; [CPU_ALU] |486| 
    1248                      ; branchcc occurs ; [] |486| 
    1249 000001c0 021C          MOVB      ACC,#28               ; [CPU_ALU] |486| 
    1250 000001c1 0700!         ADDL      ACC,@_OSTCBCur        ; [CPU_ALU] |486| 
    1251 000001c2 8AA9          MOVL      XAR4,ACC              ; [CPU_ALU] |486| 
    1252 000001c3 924B          MOV       AL,*-SP[11]           ; [CPU_ALU] |486| 
    1253 000001c4 54C4          CMP       AL,*+XAR4[0]          ; [CPU_ALU] |486| 
    1254 000001c5 6809          B         $C$L35,LO             ; [CPU_ALU] |486| 
    1255                      ; branchcc occurs ; [] |486| 
    1256                      .dwpsn  file "C:/ti/Workspace/PLC_certificate/Software/uCOS-II/Source/os_mutex.c",line 488,column 14,
    1257 000001c6 924F          MOV       AL,*-SP[15]           ; [CPU_ALU] |488| 
    1258              $C$DW$87        .dwtag  DW_TAG_TI_branch
    1259                      .dwattr $C$DW$87, DW_AT_low_pc(0x00)
    1260                      .dwattr $C$DW$87, DW_AT_name("_OS_CPU_SR_Restore")
    1261                      .dwattr $C$DW$87, DW_AT_TI_call
    1262              
    1263 000001c7 7640!         LCR       #_OS_CPU_SR_Restore   ; [CPU_ALU] |488| 
         000001c8 0000 
    1264                      ; call occurs [#_OS_CPU_SR_Restore] ; [] |488| 
    1265                      .dwpsn  file "C:/ti/Workspace/PLC_certificate/Software/uCOS-II/Source/os_mutex.c",line 489,column 13,
    1266 000001c9 8A46          MOVL      XAR4,*-SP[6]          ; [CPU_ALU] |489| 
    1267 000001ca 56BF          MOVB      *+XAR4[0],#120,UNC    ; [CPU_ALU] |489| 
         000001cb 78C4 
    1268 000001cc FFEF          B         $C$L49,UNC            ; [CPU_ALU] 
         000001cd 0125 
    1269                      ; branch occurs ; [] 
    1270 000001ce       $C$L35:    
    1271                      .dwpsn  file "C:/ti/Workspace/PLC_certificate/Software/uCOS-II/Source/os_mutex.c",line 491,column 14,
    1272 000001ce 924F          MOV       AL,*-SP[15]           ; [CPU_ALU] |491| 
    1273              $C$DW$88        .dwtag  DW_TAG_TI_branch
    1274                      .dwattr $C$DW$88, DW_AT_low_pc(0x00)
    1275                      .dwattr $C$DW$88, DW_AT_name("_OS_CPU_SR_Restore")
    1276                      .dwattr $C$DW$88, DW_AT_TI_call
    1277              
    1278 000001cf 7640!         LCR       #_OS_CPU_SR_Restore   ; [CPU_ALU] |491| 
         000001d0 0000 
    1279                      ; call occurs [#_OS_CPU_SR_Restore] ; [] |491| 
    1280                      .dwpsn  file "C:/ti/Workspace/PLC_certificate/Software/uCOS-II/Source/os_mutex.c",line 492,column 13,
    1281 000001d1 8A46          MOVL      XAR4,*-SP[6]          ; [CPU_ALU] |492| 
    1282 000001d2 2BC4          MOV       *+XAR4[0],#0          ; [CPU_ALU] |492| 
    1283                      .dwpsn  file "C:/ti/Workspace/PLC_certificate/Software/uCOS-II/Source/os_mutex.c",line 494,column 9,i
    1284 000001d3 FFEF          B         $C$L49,UNC            ; [CPU_ALU] |494| 
         000001d4 011E 
    1285                      ; branch occurs ; [] |494| 
    1286 000001d5       $C$L36:    
    1287                      .dwpsn  file "C:/ti/Workspace/PLC_certificate/Software/uCOS-II/Source/os_mutex.c",line 496,column 5,i
    1288 000001d5 924B          MOV       AL,*-SP[11]           ; [CPU_ALU] |496| 
    1289 000001d6 52FF          CMPB      AL,#255               ; [CPU_ALU] |496| 
    1290 000001d7 FFE1          B         $C$L43,EQ             ; [CPU_ALU] |496| 
         000001d8 00CD 
    1291                      ; branchcc occurs ; [] |496| 
TMS320C2000 Assembler PC v20.2.1 Tue Feb 16 00:15:59 2021

Copyright (c) 1996-2018 Texas Instruments Incorporated
os_mutex.asm                                                         PAGE   26

    1292                      .dwpsn  file "C:/ti/Workspace/PLC_certificate/Software/uCOS-II/Source/os_mutex.c",line 497,column 9,i
    1293 000001d9 92E4          MOV       AL,*+XAR4[4]          ; [CPU_ALU] |497| 
    1294 000001da 90FF          ANDB      AL,#0xff              ; [CPU_ALU] |497| 
    1295 000001db 964C          MOV       *-SP[12],AL           ; [CPU_ALU] |497| 
    1296                      .dwpsn  file "C:/ti/Workspace/PLC_certificate/Software/uCOS-II/Source/os_mutex.c",line 498,column 9,i
    1297 000001dc 06D4          MOVL      ACC,*+XAR4[2]         ; [CPU_ALU] |498| 
    1298 000001dd 1E48          MOVL      *-SP[8],ACC           ; [CPU_ALU] |498| 
    1299                      .dwpsn  file "C:/ti/Workspace/PLC_certificate/Software/uCOS-II/Source/os_mutex.c",line 499,column 9,i
    1300 000001de 021C          MOVB      ACC,#28               ; [CPU_ALU] |499| 
    1301 000001df 0748          ADDL      ACC,*-SP[8]           ; [CPU_ALU] |499| 
    1302 000001e0 8AA9          MOVL      XAR4,ACC              ; [CPU_ALU] |499| 
    1303 000001e1 924B          MOV       AL,*-SP[11]           ; [CPU_ALU] |499| 
    1304 000001e2 54C4          CMP       AL,*+XAR4[0]          ; [CPU_ALU] |499| 
    1305 000001e3 FFE7          B         $C$L43,HIS            ; [CPU_ALU] |499| 
         000001e4 00C1 
    1306                      ; branchcc occurs ; [] |499| 
    1307                      .dwpsn  file "C:/ti/Workspace/PLC_certificate/Software/uCOS-II/Source/os_mutex.c",line 500,column 13,
    1308 000001e5 021C          MOVB      ACC,#28               ; [CPU_ALU] |500| 
    1309 000001e6 761F!         MOVW      DP,#_OSTCBCur         ; [CPU_ARAU] 
         000001e7 0000 
    1310 000001e8 0700!         ADDL      ACC,@_OSTCBCur        ; [CPU_ALU] |500| 
    1311 000001e9 8AA9          MOVL      XAR4,ACC              ; [CPU_ALU] |500| 
    1312 000001ea 92C4          MOV       AL,*+XAR4[0]          ; [CPU_ALU] |500| 
    1313 000001eb 544C          CMP       AL,*-SP[12]           ; [CPU_ALU] |500| 
    1314 000001ec FFE7          B         $C$L43,HIS            ; [CPU_ALU] |500| 
         000001ed 00B8 
    1315                      ; branchcc occurs ; [] |500| 
    1316                      .dwpsn  file "C:/ti/Workspace/PLC_certificate/Software/uCOS-II/Source/os_mutex.c",line 501,column 17,
    1317 000001ee 021E          MOVB      ACC,#30               ; [CPU_ALU] |501| 
    1318 000001ef 0748          ADDL      ACC,*-SP[8]           ; [CPU_ALU] |501| 
    1319 000001f0 1EA7          MOVL      XAR7,ACC              ; [CPU_ALU] |501| 
    1320 000001f1 92C7          MOV       AL,*+XAR7[0]          ; [CPU_ALU] |501| 
    1321 000001f2 964E          MOV       *-SP[14],AL           ; [CPU_ALU] |501| 
    1322                      .dwpsn  file "C:/ti/Workspace/PLC_certificate/Software/uCOS-II/Source/os_mutex.c",line 502,column 17,
    1323 000001f3 021F          MOVB      ACC,#31               ; [CPU_ALU] |502| 
    1324 000001f4 0748          ADDL      ACC,*-SP[8]           ; [CPU_ALU] |502| 
    1325 000001f5 8AA9          MOVL      XAR4,ACC              ; [CPU_ALU] |502| 
    1326 000001f6 584E          MOVZ      AR0,*-SP[14]          ; [CPU_ALU] |502| 
    1327 000001f7 8F40!         MOVL      XAR5,#_OSRdyTbl       ; [CPU_ARAU] |502| 
         000001f8 0000 
    1328 000001f9 92C4          MOV       AL,*+XAR4[0]          ; [CPU_ALU] |502| 
    1329 000001fa CE95          AND       AL,*+XAR5[AR0]        ; [CPU_ALU] |502| 
    1330 000001fb 611C          B         $C$L38,EQ             ; [CPU_ALU] |502| 
    1331                      ; branchcc occurs ; [] |502| 
    1332                      .dwpsn  file "C:/ti/Workspace/PLC_certificate/Software/uCOS-II/Source/os_mutex.c",line 503,column 21,
    1333 000001fc 8F00!         MOVL      XAR4,#_OSRdyTbl       ; [CPU_ARAU] |503| 
         000001fd 0000 
    1334 000001fe A8A9          MOVL      ACC,XAR4              ; [CPU_ALU] |503| 
    1335 000001ff 0D4E          ADDU      ACC,*-SP[14]          ; [CPU_ALU] |503| 
    1336 00000200 83A9          MOVL      XAR5,ACC              ; [CPU_ALU] |503| 
    1337 00000201 021F          MOVB      ACC,#31               ; [CPU_ALU] |503| 
    1338 00000202 0748          ADDL      ACC,*-SP[8]           ; [CPU_ALU] |503| 
    1339 00000203 8AA9          MOVL      XAR4,ACC              ; [CPU_ALU] |503| 
    1340 00000204 92C4          MOV       AL,*+XAR4[0]          ; [CPU_ALU] |503| 
    1341 00000205 FF5E          NOT       AL                    ; [CPU_ALU] |503| 
TMS320C2000 Assembler PC v20.2.1 Tue Feb 16 00:15:59 2021

Copyright (c) 1996-2018 Texas Instruments Incorporated
os_mutex.asm                                                         PAGE   27

    1342 00000206 C0C5          AND       *+XAR5[0],AL          ; [CPU_ALU] |503| 
    1343                      .dwpsn  file "C:/ti/Workspace/PLC_certificate/Software/uCOS-II/Source/os_mutex.c",line 504,column 21,
    1344 00000207 584E          MOVZ      AR0,*-SP[14]          ; [CPU_ALU] |504| 
    1345 00000208 8F00!         MOVL      XAR4,#_OSRdyTbl       ; [CPU_ARAU] |504| 
         00000209 0000 
    1346 0000020a 9294          MOV       AL,*+XAR4[AR0]        ; [CPU_ALU] |504| 
    1347 0000020b 6009          B         $C$L37,NEQ            ; [CPU_ALU] |504| 
    1348                      ; branchcc occurs ; [] |504| 
    1349                      .dwpsn  file "C:/ti/Workspace/PLC_certificate/Software/uCOS-II/Source/os_mutex.c",line 505,column 25,
    1350 0000020c 0220          MOVB      ACC,#32               ; [CPU_ALU] |505| 
    1351 0000020d 0748          ADDL      ACC,*-SP[8]           ; [CPU_ALU] |505| 
    1352 0000020e 8AA9          MOVL      XAR4,ACC              ; [CPU_ALU] |505| 
    1353 0000020f 761F!         MOVW      DP,#_OSRdyGrp         ; [CPU_ARAU] 
         00000210 0000 
    1354 00000211 92C4          MOV       AL,*+XAR4[0]          ; [CPU_ALU] |505| 
    1355 00000212 FF5E          NOT       AL                    ; [CPU_ALU] |505| 
    1356 00000213 C000!         AND       @_OSRdyGrp,AL         ; [CPU_ALU] |505| 
    1357 00000214       $C$L37:    
    1358                      .dwpsn  file "C:/ti/Workspace/PLC_certificate/Software/uCOS-II/Source/os_mutex.c",line 507,column 21,
    1359 00000214 56BF          MOVB      *-SP[13],#1,UNC       ; [CPU_ALU] |507| 
         00000215 014D 
    1360 00000216 6F25          B         $C$L40,UNC            ; [CPU_ALU] 
    1361                      ; branch occurs ; [] 
    1362 00000217       $C$L38:    
    1363                      .dwpsn  file "C:/ti/Workspace/PLC_certificate/Software/uCOS-II/Source/os_mutex.c",line 509,column 21,
    1364 00000217 020E          MOVB      ACC,#14               ; [CPU_ALU] |509| 
    1365 00000218 0748          ADDL      ACC,*-SP[8]           ; [CPU_ALU] |509| 
    1366 00000219 8AA9          MOVL      XAR4,ACC              ; [CPU_ALU] |509| 
    1367 0000021a 06C4          MOVL      ACC,*+XAR4[0]         ; [CPU_ALU] |509| 
    1368 0000021b 1E4A          MOVL      *-SP[10],ACC          ; [CPU_ALU] |509| 
    1369                      .dwpsn  file "C:/ti/Workspace/PLC_certificate/Software/uCOS-II/Source/os_mutex.c",line 510,column 21,
    1370 0000021c 064A          MOVL      ACC,*-SP[10]          ; [CPU_ALU] |510| 
    1371 0000021d 611D          B         $C$L39,EQ             ; [CPU_ALU] |510| 
    1372                      ; branchcc occurs ; [] |510| 
    1373                      .dwpsn  file "C:/ti/Workspace/PLC_certificate/Software/uCOS-II/Source/os_mutex.c",line 511,column 25,
    1374 0000021e 021E          MOVB      ACC,#30               ; [CPU_ALU] |511| 
    1375 0000021f 0748          ADDL      ACC,*-SP[8]           ; [CPU_ALU] |511| 
    1376 00000220 1EA7          MOVL      XAR7,ACC              ; [CPU_ALU] |511| 
    1377 00000221 92C7          MOV       AL,*+XAR7[0]          ; [CPU_ALU] |511| 
    1378 00000222 964E          MOV       *-SP[14],AL           ; [CPU_ALU] |511| 
    1379                      .dwpsn  file "C:/ti/Workspace/PLC_certificate/Software/uCOS-II/Source/os_mutex.c",line 512,column 25,
    1380 00000223 0E4E          MOVU      ACC,*-SP[14]          ; [CPU_ALU] |512| 
    1381 00000224 074A          ADDL      ACC,*-SP[10]          ; [CPU_ALU] |512| 
    1382 00000225 0906          ADDB      ACC,#6                ; [CPU_ALU] |512| 
    1383 00000226 83A9          MOVL      XAR5,ACC              ; [CPU_ALU] |512| 
    1384 00000227 021F          MOVB      ACC,#31               ; [CPU_ALU] |512| 
    1385 00000228 0748          ADDL      ACC,*-SP[8]           ; [CPU_ALU] |512| 
    1386 00000229 8AA9          MOVL      XAR4,ACC              ; [CPU_ALU] |512| 
    1387 0000022a 92C4          MOV       AL,*+XAR4[0]          ; [CPU_ALU] |512| 
    1388 0000022b FF5E          NOT       AL                    ; [CPU_ALU] |512| 
    1389 0000022c C0C5          AND       *+XAR5[0],AL          ; [CPU_ALU] |512| 
    1390                      .dwpsn  file "C:/ti/Workspace/PLC_certificate/Software/uCOS-II/Source/os_mutex.c",line 513,column 25,
    1391 0000022d 5C4E          MOVZ      AR4,*-SP[14]          ; [CPU_ALU] |513| 
    1392 0000022e A8A9          MOVL      ACC,XAR4              ; [CPU_ALU] |513| 
    1393 0000022f 074A          ADDL      ACC,*-SP[10]          ; [CPU_ALU] |513| 
TMS320C2000 Assembler PC v20.2.1 Tue Feb 16 00:15:59 2021

Copyright (c) 1996-2018 Texas Instruments Incorporated
os_mutex.asm                                                         PAGE   28

    1394 00000230 8AA9          MOVL      XAR4,ACC              ; [CPU_ALU] |513| 
    1395 00000231 92F4          MOV       AL,*+XAR4[6]          ; [CPU_ALU] |513| 
    1396 00000232 6008          B         $C$L39,NEQ            ; [CPU_ALU] |513| 
    1397                      ; branchcc occurs ; [] |513| 
    1398                      .dwpsn  file "C:/ti/Workspace/PLC_certificate/Software/uCOS-II/Source/os_mutex.c",line 514,column 29,
    1399 00000233 0220          MOVB      ACC,#32               ; [CPU_ALU] |514| 
    1400 00000234 0748          ADDL      ACC,*-SP[8]           ; [CPU_ALU] |514| 
    1401 00000235 8AA9          MOVL      XAR4,ACC              ; [CPU_ALU] |514| 
    1402 00000236 834A          MOVL      XAR5,*-SP[10]         ; [CPU_ALU] |514| 
    1403 00000237 92C4          MOV       AL,*+XAR4[0]          ; [CPU_ALU] |514| 
    1404 00000238 FF5E          NOT       AL                    ; [CPU_ALU] |514| 
    1405 00000239 C0ED          AND       *+XAR5[5],AL          ; [CPU_ALU] |514| 
    1406 0000023a       $C$L39:    
    1407                      .dwpsn  file "C:/ti/Workspace/PLC_certificate/Software/uCOS-II/Source/os_mutex.c",line 517,column 21,
    1408 0000023a 2B4D          MOV       *-SP[13],#0           ; [CPU_ALU] |517| 
    1409 0000023b       $C$L40:    
    1410                      .dwpsn  file "C:/ti/Workspace/PLC_certificate/Software/uCOS-II/Source/os_mutex.c",line 519,column 17,
    1411 0000023b 021C          MOVB      ACC,#28               ; [CPU_ALU] |519| 
    1412 0000023c 0748          ADDL      ACC,*-SP[8]           ; [CPU_ALU] |519| 
    1413 0000023d 1EA7          MOVL      XAR7,ACC              ; [CPU_ALU] |519| 
    1414 0000023e 924B          MOV       AL,*-SP[11]           ; [CPU_ALU] |519| 
    1415 0000023f 96C7          MOV       *+XAR7[0],AL          ; [CPU_ALU] |519| 
    1416                      .dwpsn  file "C:/ti/Workspace/PLC_certificate/Software/uCOS-II/Source/os_mutex.c",line 521,column 17,
    1417 00000240 021C          MOVB      ACC,#28               ; [CPU_ALU] |521| 
    1418 00000241 0748          ADDL      ACC,*-SP[8]           ; [CPU_ALU] |521| 
    1419 00000242 8AA9          MOVL      XAR4,ACC              ; [CPU_ALU] |521| 
    1420 00000243 92C4          MOV       AL,*+XAR4[0]          ; [CPU_ALU] |521| 
    1421 00000244 FFC2          LSR       AL,3                  ; [CPU_ALU] |521| 
    1422 00000245 88A9          MOVZ      AR6,AL                ; [CPU_ALU] |521| 
    1423 00000246 021E          MOVB      ACC,#30               ; [CPU_ALU] |521| 
    1424 00000247 0748          ADDL      ACC,*-SP[8]           ; [CPU_ALU] |521| 
    1425 00000248 8AA9          MOVL      XAR4,ACC              ; [CPU_ALU] |521| 
    1426 00000249 7EC4          MOV       *+XAR4[0],AR6         ; [CPU_ALU] |521| 
    1427                      .dwpsn  file "C:/ti/Workspace/PLC_certificate/Software/uCOS-II/Source/os_mutex.c",line 522,column 17,
    1428 0000024a 021C          MOVB      ACC,#28               ; [CPU_ALU] |522| 
    1429 0000024b 0748          ADDL      ACC,*-SP[8]           ; [CPU_ALU] |522| 
    1430 0000024c 8AA9          MOVL      XAR4,ACC              ; [CPU_ALU] |522| 
    1431 0000024d 92C4          MOV       AL,*+XAR4[0]          ; [CPU_ALU] |522| 
    1432 0000024e 9007          ANDB      AL,#0x07              ; [CPU_ALU] |522| 
    1433 0000024f 88A9          MOVZ      AR6,AL                ; [CPU_ALU] |522| 
    1434 00000250 021D          MOVB      ACC,#29               ; [CPU_ALU] |522| 
    1435 00000251 0748          ADDL      ACC,*-SP[8]           ; [CPU_ALU] |522| 
    1436 00000252 8AA9          MOVL      XAR4,ACC              ; [CPU_ALU] |522| 
    1437 00000253 7EC4          MOV       *+XAR4[0],AR6         ; [CPU_ALU] |522| 
    1438                      .dwpsn  file "C:/ti/Workspace/PLC_certificate/Software/uCOS-II/Source/os_mutex.c",line 527,column 17,
    1439 00000254 021E          MOVB      ACC,#30               ; [CPU_ALU] |527| 
    1440 00000255 0748          ADDL      ACC,*-SP[8]           ; [CPU_ALU] |527| 
    1441 00000256 8AA9          MOVL      XAR4,ACC              ; [CPU_ALU] |527| 
    1442 00000257 0201          MOVB      ACC,#1                ; [CPU_ALU] |527| 
    1443 00000258 2DC4          MOV       T,*+XAR4[0]           ; [CPU_ALU] |527| 
    1444 00000259 563B          LSLL      ACC,T                 ; [CPU_ALU] |527| 
    1445 0000025a 1EA6          MOVL      XAR6,ACC              ; [CPU_ALU] |527| 
    1446 0000025b 0220          MOVB      ACC,#32               ; [CPU_ALU] |527| 
    1447 0000025c 0748          ADDL      ACC,*-SP[8]           ; [CPU_ALU] |527| 
    1448 0000025d 8AA9          MOVL      XAR4,ACC              ; [CPU_ALU] |527| 
TMS320C2000 Assembler PC v20.2.1 Tue Feb 16 00:15:59 2021

Copyright (c) 1996-2018 Texas Instruments Incorporated
os_mutex.asm                                                         PAGE   29

    1449 0000025e 7EC4          MOV       *+XAR4[0],AR6         ; [CPU_ALU] |527| 
    1450                      .dwpsn  file "C:/ti/Workspace/PLC_certificate/Software/uCOS-II/Source/os_mutex.c",line 528,column 17,
    1451 0000025f 021D          MOVB      ACC,#29               ; [CPU_ALU] |528| 
    1452 00000260 0748          ADDL      ACC,*-SP[8]           ; [CPU_ALU] |528| 
    1453 00000261 8AA9          MOVL      XAR4,ACC              ; [CPU_ALU] |528| 
    1454 00000262 0201          MOVB      ACC,#1                ; [CPU_ALU] |528| 
    1455 00000263 2DC4          MOV       T,*+XAR4[0]           ; [CPU_ALU] |528| 
    1456 00000264 563B          LSLL      ACC,T                 ; [CPU_ALU] |528| 
    1457 00000265 1EA6          MOVL      XAR6,ACC              ; [CPU_ALU] |528| 
    1458 00000266 021F          MOVB      ACC,#31               ; [CPU_ALU] |528| 
    1459 00000267 0748          ADDL      ACC,*-SP[8]           ; [CPU_ALU] |528| 
    1460 00000268 8AA9          MOVL      XAR4,ACC              ; [CPU_ALU] |528| 
    1461 00000269 7EC4          MOV       *+XAR4[0],AR6         ; [CPU_ALU] |528| 
    1462                      .dwpsn  file "C:/ti/Workspace/PLC_certificate/Software/uCOS-II/Source/os_mutex.c",line 530,column 17,
    1463 0000026a 924D          MOV       AL,*-SP[13]           ; [CPU_ALU] |530| 
    1464 0000026b 5201          CMPB      AL,#1                 ; [CPU_ALU] |530| 
    1465 0000026c 6016          B         $C$L41,NEQ            ; [CPU_ALU] |530| 
    1466                      ; branchcc occurs ; [] |530| 
    1467                      .dwpsn  file "C:/ti/Workspace/PLC_certificate/Software/uCOS-II/Source/os_mutex.c",line 531,column 21,
    1468 0000026d 0220          MOVB      ACC,#32               ; [CPU_ALU] |531| 
    1469 0000026e 0748          ADDL      ACC,*-SP[8]           ; [CPU_ALU] |531| 
    1470 0000026f 8AA9          MOVL      XAR4,ACC              ; [CPU_ALU] |531| 
    1471 00000270 761F!         MOVW      DP,#_OSRdyGrp         ; [CPU_ARAU] 
         00000271 0000 
    1472 00000272 92C4          MOV       AL,*+XAR4[0]          ; [CPU_ALU] |531| 
    1473 00000273 9800!         OR        @_OSRdyGrp,AL         ; [CPU_ALU] |531| 
    1474                      .dwpsn  file "C:/ti/Workspace/PLC_certificate/Software/uCOS-II/Source/os_mutex.c",line 532,column 21,
    1475 00000274 021E          MOVB      ACC,#30               ; [CPU_ALU] |532| 
    1476 00000275 0748          ADDL      ACC,*-SP[8]           ; [CPU_ALU] |532| 
    1477 00000276 1EA6          MOVL      XAR6,ACC              ; [CPU_ALU] |532| 
    1478 00000277 8F00!         MOVL      XAR4,#_OSRdyTbl       ; [CPU_ARAU] |532| 
         00000278 0000 
    1479 00000279 A8A9          MOVL      ACC,XAR4              ; [CPU_ALU] |532| 
    1480 0000027a 0DC6          ADDU      ACC,*+XAR6[0]         ; [CPU_ALU] |532| 
    1481 0000027b 83A9          MOVL      XAR5,ACC              ; [CPU_ALU] |532| 
    1482 0000027c 021F          MOVB      ACC,#31               ; [CPU_ALU] |532| 
    1483 0000027d 0748          ADDL      ACC,*-SP[8]           ; [CPU_ALU] |532| 
    1484 0000027e 8AA9          MOVL      XAR4,ACC              ; [CPU_ALU] |532| 
    1485 0000027f 92C4          MOV       AL,*+XAR4[0]          ; [CPU_ALU] |532| 
    1486 00000280 98C5          OR        *+XAR5[0],AL          ; [CPU_ALU] |532| 
    1487 00000281 6F1A          B         $C$L42,UNC            ; [CPU_ALU] 
    1488                      ; branch occurs ; [] 
    1489 00000282       $C$L41:    
    1490                      .dwpsn  file "C:/ti/Workspace/PLC_certificate/Software/uCOS-II/Source/os_mutex.c",line 534,column 21,
    1491 00000282 020E          MOVB      ACC,#14               ; [CPU_ALU] |534| 
    1492 00000283 0748          ADDL      ACC,*-SP[8]           ; [CPU_ALU] |534| 
    1493 00000284 8AA9          MOVL      XAR4,ACC              ; [CPU_ALU] |534| 
    1494 00000285 06C4          MOVL      ACC,*+XAR4[0]         ; [CPU_ALU] |534| 
    1495 00000286 1E4A          MOVL      *-SP[10],ACC          ; [CPU_ALU] |534| 
    1496                      .dwpsn  file "C:/ti/Workspace/PLC_certificate/Software/uCOS-II/Source/os_mutex.c",line 535,column 21,
    1497 00000287 064A          MOVL      ACC,*-SP[10]          ; [CPU_ALU] |535| 
    1498 00000288 6113          B         $C$L42,EQ             ; [CPU_ALU] |535| 
    1499                      ; branchcc occurs ; [] |535| 
    1500                      .dwpsn  file "C:/ti/Workspace/PLC_certificate/Software/uCOS-II/Source/os_mutex.c",line 536,column 25,
    1501 00000289 0220          MOVB      ACC,#32               ; [CPU_ALU] |536| 
TMS320C2000 Assembler PC v20.2.1 Tue Feb 16 00:15:59 2021

Copyright (c) 1996-2018 Texas Instruments Incorporated
os_mutex.asm                                                         PAGE   30

    1502 0000028a 0748          ADDL      ACC,*-SP[8]           ; [CPU_ALU] |536| 
    1503 0000028b 8AA9          MOVL      XAR4,ACC              ; [CPU_ALU] |536| 
    1504 0000028c 834A          MOVL      XAR5,*-SP[10]         ; [CPU_ALU] |536| 
    1505 0000028d 92C4          MOV       AL,*+XAR4[0]          ; [CPU_ALU] |536| 
    1506 0000028e 98ED          OR        *+XAR5[5],AL          ; [CPU_ALU] |536| 
    1507                      .dwpsn  file "C:/ti/Workspace/PLC_certificate/Software/uCOS-II/Source/os_mutex.c",line 537,column 25,
    1508 0000028f 021E          MOVB      ACC,#30               ; [CPU_ALU] |537| 
    1509 00000290 0748          ADDL      ACC,*-SP[8]           ; [CPU_ALU] |537| 
    1510 00000291 8AA9          MOVL      XAR4,ACC              ; [CPU_ALU] |537| 
    1511 00000292 0EC4          MOVU      ACC,*+XAR4[0]         ; [CPU_ALU] |537| 
    1512 00000293 074A          ADDL      ACC,*-SP[10]          ; [CPU_ALU] |537| 
    1513 00000294 0906          ADDB      ACC,#6                ; [CPU_ALU] |537| 
    1514 00000295 83A9          MOVL      XAR5,ACC              ; [CPU_ALU] |537| 
    1515 00000296 021F          MOVB      ACC,#31               ; [CPU_ALU] |537| 
    1516 00000297 0748          ADDL      ACC,*-SP[8]           ; [CPU_ALU] |537| 
    1517 00000298 8AA9          MOVL      XAR4,ACC              ; [CPU_ALU] |537| 
    1518 00000299 92C4          MOV       AL,*+XAR4[0]          ; [CPU_ALU] |537| 
    1519 0000029a 98C5          OR        *+XAR5[0],AL          ; [CPU_ALU] |537| 
    1520 0000029b       $C$L42:    
    1521                      .dwpsn  file "C:/ti/Workspace/PLC_certificate/Software/uCOS-II/Source/os_mutex.c",line 540,column 17,
    1522 0000029b 2901          CLRC      SXM                   ; [CPU_ALU] 
    1523 0000029c 8F00!         MOVL      XAR4,#_OSTCBPrioTbl   ; [CPU_ARAU] |540| 
         0000029d 0000 
    1524 0000029e 5603          MOV       ACC,*-SP[11] << 1     ; [CPU_ALU] |540| 
         0000029f 014B 
    1525 000002a0 5601          ADDL      XAR4,ACC              ; [CPU_ALU] |540| 
         000002a1 00A4 
    1526 000002a2 0648          MOVL      ACC,*-SP[8]           ; [CPU_ALU] |540| 
    1527 000002a3 1EC4          MOVL      *+XAR4[0],ACC         ; [CPU_ALU] |540| 
    1528 000002a4       $C$L43:    
    1529                      .dwpsn  file "C:/ti/Workspace/PLC_certificate/Software/uCOS-II/Source/os_mutex.c",line 544,column 5,i
    1530 000002a4 021A          MOVB      ACC,#26               ; [CPU_ALU] |544| 
    1531 000002a5 761F!         MOVW      DP,#_OSTCBCur         ; [CPU_ARAU] 
         000002a6 0000 
    1532 000002a7 0700!         ADDL      ACC,@_OSTCBCur        ; [CPU_ALU] |544| 
    1533 000002a8 8AA9          MOVL      XAR4,ACC              ; [CPU_ALU] |544| 
    1534 000002a9 1AC4          OR        *+XAR4[0],#0x0010     ; [CPU_ALU] |544| 
         000002aa 0010 
    1535                      .dwpsn  file "C:/ti/Workspace/PLC_certificate/Software/uCOS-II/Source/os_mutex.c",line 545,column 5,i
    1536 000002ab 021B          MOVB      ACC,#27               ; [CPU_ALU] |545| 
    1537 000002ac 0700!         ADDL      ACC,@_OSTCBCur        ; [CPU_ALU] |545| 
    1538 000002ad 8AA9          MOVL      XAR4,ACC              ; [CPU_ALU] |545| 
    1539 000002ae 2BC4          MOV       *+XAR4[0],#0          ; [CPU_ALU] |545| 
    1540                      .dwpsn  file "C:/ti/Workspace/PLC_certificate/Software/uCOS-II/Source/os_mutex.c",line 546,column 5,i
    1541 000002af C444          MOVL      XAR6,*-SP[4]          ; [CPU_ALU] |546| 
    1542 000002b0 0218          MOVB      ACC,#24               ; [CPU_ALU] |546| 
    1543 000002b1 0700!         ADDL      ACC,@_OSTCBCur        ; [CPU_ALU] |546| 
    1544 000002b2 8AA9          MOVL      XAR4,ACC              ; [CPU_ALU] |546| 
    1545 000002b3 C2C4          MOVL      *+XAR4[0],XAR6        ; [CPU_ALU] |546| 
    1546                      .dwpsn  file "C:/ti/Workspace/PLC_certificate/Software/uCOS-II/Source/os_mutex.c",line 547,column 5,i
    1547 000002b4 8A42          MOVL      XAR4,*-SP[2]          ; [CPU_ALU] |547| 
    1548              $C$DW$89        .dwtag  DW_TAG_TI_branch
    1549                      .dwattr $C$DW$89, DW_AT_low_pc(0x00)
    1550                      .dwattr $C$DW$89, DW_AT_name("_OS_EventTaskWait")
    1551                      .dwattr $C$DW$89, DW_AT_TI_call
TMS320C2000 Assembler PC v20.2.1 Tue Feb 16 00:15:59 2021

Copyright (c) 1996-2018 Texas Instruments Incorporated
os_mutex.asm                                                         PAGE   31

    1552              
    1553 000002b5 7640!         LCR       #_OS_EventTaskWait    ; [CPU_ALU] |547| 
         000002b6 0000 
    1554                      ; call occurs [#_OS_EventTaskWait] ; [] |547| 
    1555                      .dwpsn  file "C:/ti/Workspace/PLC_certificate/Software/uCOS-II/Source/os_mutex.c",line 548,column 5,i
    1556 000002b7 924F          MOV       AL,*-SP[15]           ; [CPU_ALU] |548| 
    1557              $C$DW$90        .dwtag  DW_TAG_TI_branch
    1558                      .dwattr $C$DW$90, DW_AT_low_pc(0x00)
    1559                      .dwattr $C$DW$90, DW_AT_name("_OS_CPU_SR_Restore")
    1560                      .dwattr $C$DW$90, DW_AT_TI_call
    1561              
    1562 000002b8 7640!         LCR       #_OS_CPU_SR_Restore   ; [CPU_ALU] |548| 
         000002b9 0000 
    1563                      ; call occurs [#_OS_CPU_SR_Restore] ; [] |548| 
    1564                      .dwpsn  file "C:/ti/Workspace/PLC_certificate/Software/uCOS-II/Source/os_mutex.c",line 549,column 5,i
    1565              $C$DW$91        .dwtag  DW_TAG_TI_branch
    1566                      .dwattr $C$DW$91, DW_AT_low_pc(0x00)
    1567                      .dwattr $C$DW$91, DW_AT_name("_OS_Sched")
    1568                      .dwattr $C$DW$91, DW_AT_TI_call
    1569              
    1570 000002ba 7640!         LCR       #_OS_Sched            ; [CPU_ALU] |549| 
         000002bb 0000 
    1571                      ; call occurs [#_OS_Sched] ; [] |549| 
    1572                      .dwpsn  file "C:/ti/Workspace/PLC_certificate/Software/uCOS-II/Source/os_mutex.c",line 550,column 5,i
    1573              $C$DW$92        .dwtag  DW_TAG_TI_branch
    1574                      .dwattr $C$DW$92, DW_AT_low_pc(0x00)
    1575                      .dwattr $C$DW$92, DW_AT_name("_OS_CPU_SR_Save")
    1576                      .dwattr $C$DW$92, DW_AT_TI_call
    1577              
    1578 000002bc 7640!         LCR       #_OS_CPU_SR_Save      ; [CPU_ALU] |550| 
         000002bd 0000 
    1579                      ; call occurs [#_OS_CPU_SR_Save] ; [] |550| 
    1580 000002be 964F          MOV       *-SP[15],AL           ; [CPU_ALU] |550| 
    1581                      .dwpsn  file "C:/ti/Workspace/PLC_certificate/Software/uCOS-II/Source/os_mutex.c",line 551,column 5,i
    1582 000002bf 6F10          B         $C$L47,UNC            ; [CPU_ALU] |551| 
    1583                      ; branch occurs ; [] |551| 
    1584 000002c0       $C$L44:    
    1585                      .dwpsn  file "C:/ti/Workspace/PLC_certificate/Software/uCOS-II/Source/os_mutex.c",line 553,column 14,
    1586 000002c0 8A46          MOVL      XAR4,*-SP[6]          ; [CPU_ALU] |553| 
    1587 000002c1 2BC4          MOV       *+XAR4[0],#0          ; [CPU_ALU] |553| 
    1588                      .dwpsn  file "C:/ti/Workspace/PLC_certificate/Software/uCOS-II/Source/os_mutex.c",line 554,column 14,
    1589 000002c2 6F19          B         $C$L48,UNC            ; [CPU_ALU] |554| 
    1590                      ; branch occurs ; [] |554| 
    1591 000002c3       $C$L45:    
    1592                      .dwpsn  file "C:/ti/Workspace/PLC_certificate/Software/uCOS-II/Source/os_mutex.c",line 557,column 14,
    1593 000002c3 8A46          MOVL      XAR4,*-SP[6]          ; [CPU_ALU] |557| 
    1594 000002c4 56BF          MOVB      *+XAR4[0],#14,UNC     ; [CPU_ALU] |557| 
         000002c5 0EC4 
    1595                      .dwpsn  file "C:/ti/Workspace/PLC_certificate/Software/uCOS-II/Source/os_mutex.c",line 558,column 14,
    1596 000002c6 6F15          B         $C$L48,UNC            ; [CPU_ALU] |558| 
    1597                      ; branch occurs ; [] |558| 
    1598 000002c7       $C$L46:    
    1599                      .dwpsn  file "C:/ti/Workspace/PLC_certificate/Software/uCOS-II/Source/os_mutex.c",line 562,column 14,
    1600 000002c7 8A00!         MOVL      XAR4,@_OSTCBCur       ; [CPU_ALU] |562| 
    1601 000002c8 8342          MOVL      XAR5,*-SP[2]          ; [CPU_ALU] |562| 
TMS320C2000 Assembler PC v20.2.1 Tue Feb 16 00:15:59 2021

Copyright (c) 1996-2018 Texas Instruments Incorporated
os_mutex.asm                                                         PAGE   32

    1602              $C$DW$93        .dwtag  DW_TAG_TI_branch
    1603                      .dwattr $C$DW$93, DW_AT_low_pc(0x00)
    1604                      .dwattr $C$DW$93, DW_AT_name("_OS_EventTaskRemove")
    1605                      .dwattr $C$DW$93, DW_AT_TI_call
    1606              
    1607 000002c9 7640!         LCR       #_OS_EventTaskRemove  ; [CPU_ALU] |562| 
         000002ca 0000 
    1608                      ; call occurs [#_OS_EventTaskRemove] ; [] |562| 
    1609                      .dwpsn  file "C:/ti/Workspace/PLC_certificate/Software/uCOS-II/Source/os_mutex.c",line 563,column 14,
    1610 000002cb 8A46          MOVL      XAR4,*-SP[6]          ; [CPU_ALU] |563| 
    1611 000002cc 56BF          MOVB      *+XAR4[0],#10,UNC     ; [CPU_ALU] |563| 
         000002cd 0AC4 
    1612                      .dwpsn  file "C:/ti/Workspace/PLC_certificate/Software/uCOS-II/Source/os_mutex.c",line 564,column 14,
    1613 000002ce 6F0D          B         $C$L48,UNC            ; [CPU_ALU] |564| 
    1614                      ; branch occurs ; [] |564| 
    1615 000002cf       $C$L47:    
    1616                      .dwpsn  file "C:/ti/Workspace/PLC_certificate/Software/uCOS-II/Source/os_mutex.c",line 551,column 5,i
    1617 000002cf 021B          MOVB      ACC,#27               ; [CPU_ALU] |551| 
    1618 000002d0 761F!         MOVW      DP,#_OSTCBCur         ; [CPU_ARAU] 
         000002d1 0000 
    1619 000002d2 0700!         ADDL      ACC,@_OSTCBCur        ; [CPU_ALU] |551| 
    1620 000002d3 8AA9          MOVL      XAR4,ACC              ; [CPU_ALU] |551| 
    1621 000002d4 92C4          MOV       AL,*+XAR4[0]          ; [CPU_ALU] |551| 
    1622 000002d5 61EB          B         $C$L44,EQ             ; [CPU_ALU] |551| 
    1623                      ; branchcc occurs ; [] |551| 
    1624 000002d6 5201          CMPB      AL,#1                 ; [CPU_ALU] |551| 
    1625 000002d7 61F0          B         $C$L46,EQ             ; [CPU_ALU] |551| 
    1626                      ; branchcc occurs ; [] |551| 
    1627 000002d8 5202          CMPB      AL,#2                 ; [CPU_ALU] |551| 
    1628 000002d9 61EA          B         $C$L45,EQ             ; [CPU_ALU] |551| 
    1629                      ; branchcc occurs ; [] |551| 
    1630 000002da 6FED          B         $C$L46,UNC            ; [CPU_ALU] |551| 
    1631                      ; branch occurs ; [] |551| 
    1632 000002db       $C$L48:    
    1633                      .dwpsn  file "C:/ti/Workspace/PLC_certificate/Software/uCOS-II/Source/os_mutex.c",line 566,column 5,i
    1634 000002db 021A          MOVB      ACC,#26               ; [CPU_ALU] |566| 
    1635 000002dc 761F!         MOVW      DP,#_OSTCBCur         ; [CPU_ARAU] 
         000002dd 0000 
    1636 000002de 0700!         ADDL      ACC,@_OSTCBCur        ; [CPU_ALU] |566| 
    1637 000002df 8AA9          MOVL      XAR4,ACC              ; [CPU_ALU] |566| 
    1638 000002e0 2BC4          MOV       *+XAR4[0],#0          ; [CPU_ALU] |566| 
    1639                      .dwpsn  file "C:/ti/Workspace/PLC_certificate/Software/uCOS-II/Source/os_mutex.c",line 567,column 5,i
    1640 000002e1 021B          MOVB      ACC,#27               ; [CPU_ALU] |567| 
    1641 000002e2 0700!         ADDL      ACC,@_OSTCBCur        ; [CPU_ALU] |567| 
    1642 000002e3 8AA9          MOVL      XAR4,ACC              ; [CPU_ALU] |567| 
    1643 000002e4 2BC4          MOV       *+XAR4[0],#0          ; [CPU_ALU] |567| 
    1644                      .dwpsn  file "C:/ti/Workspace/PLC_certificate/Software/uCOS-II/Source/os_mutex.c",line 568,column 5,i
    1645 000002e5 BE00          MOVB      XAR6,#0               ; [CPU_ALU] |568| 
    1646 000002e6 020E          MOVB      ACC,#14               ; [CPU_ALU] |568| 
    1647 000002e7 0700!         ADDL      ACC,@_OSTCBCur        ; [CPU_ALU] |568| 
    1648 000002e8 8AA9          MOVL      XAR4,ACC              ; [CPU_ALU] |568| 
    1649 000002e9 C2C4          MOVL      *+XAR4[0],XAR6        ; [CPU_ALU] |568| 
    1650                      .dwpsn  file "C:/ti/Workspace/PLC_certificate/Software/uCOS-II/Source/os_mutex.c",line 570,column 5,i
    1651 000002ea 0210          MOVB      ACC,#16               ; [CPU_ALU] |570| 
    1652 000002eb 0700!         ADDL      ACC,@_OSTCBCur        ; [CPU_ALU] |570| 
TMS320C2000 Assembler PC v20.2.1 Tue Feb 16 00:15:59 2021

Copyright (c) 1996-2018 Texas Instruments Incorporated
os_mutex.asm                                                         PAGE   33

    1653 000002ec 8AA9          MOVL      XAR4,ACC              ; [CPU_ALU] |570| 
    1654 000002ed C2C4          MOVL      *+XAR4[0],XAR6        ; [CPU_ALU] |570| 
    1655                      .dwpsn  file "C:/ti/Workspace/PLC_certificate/Software/uCOS-II/Source/os_mutex.c",line 572,column 5,i
    1656 000002ee 924F          MOV       AL,*-SP[15]           ; [CPU_ALU] |572| 
    1657              $C$DW$94        .dwtag  DW_TAG_TI_branch
    1658                      .dwattr $C$DW$94, DW_AT_low_pc(0x00)
    1659                      .dwattr $C$DW$94, DW_AT_name("_OS_CPU_SR_Restore")
    1660                      .dwattr $C$DW$94, DW_AT_TI_call
    1661              
    1662 000002ef 7640!         LCR       #_OS_CPU_SR_Restore   ; [CPU_ALU] |572| 
         000002f0 0000 
    1663                      ; call occurs [#_OS_CPU_SR_Restore] ; [] |572| 
    1664                      .dwpsn  file "C:/ti/Workspace/PLC_certificate/Software/uCOS-II/Source/os_mutex.c",line 573,column 1,i
    1665 000002f1       $C$L49:    
    1666 000002f1 FE90          SUBB      SP,#16                ; [CPU_ARAU] 
    1667                      .dwcfi  cfa_offset, -2
    1668              $C$DW$95        .dwtag  DW_TAG_TI_branch
    1669                      .dwattr $C$DW$95, DW_AT_low_pc(0x00)
    1670                      .dwattr $C$DW$95, DW_AT_TI_return
    1671              
    1672 000002f2 0006          LRETR     ; [CPU_ALU] 
    1673                      ; return occurs ; [] 
    1674                      .dwattr $C$DW$72, DW_AT_TI_end_file("C:/ti/Workspace/PLC_certificate/Software/uCOS-II/Source/os_mutex
    1675                      .dwattr $C$DW$72, DW_AT_TI_end_line(0x23d)
    1676                      .dwattr $C$DW$72, DW_AT_TI_end_column(0x01)
    1677                      .dwendentry
    1678                      .dwendtag $C$DW$72
    1679              
    1680 000002f3               .sect   ".text"
    1681                      .clink
    1682                      .global _OSMutexPost
    1683              
    1684              $C$DW$96        .dwtag  DW_TAG_subprogram
    1685                      .dwattr $C$DW$96, DW_AT_name("OSMutexPost")
    1686                      .dwattr $C$DW$96, DW_AT_low_pc(_OSMutexPost)
    1687                      .dwattr $C$DW$96, DW_AT_high_pc(0x00)
    1688                      .dwattr $C$DW$96, DW_AT_TI_symbol_name("_OSMutexPost")
    1689                      .dwattr $C$DW$96, DW_AT_external
    1690                      .dwattr $C$DW$96, DW_AT_type(*$C$DW$T$19)
    1691                      .dwattr $C$DW$96, DW_AT_TI_begin_file("C:/ti/Workspace/PLC_certificate/Software/uCOS-II/Source/os_mut
    1692                      .dwattr $C$DW$96, DW_AT_TI_begin_line(0x257)
    1693                      .dwattr $C$DW$96, DW_AT_TI_begin_column(0x08)
    1694                      .dwattr $C$DW$96, DW_AT_TI_max_frame_size(-8)
    1695                      .dwpsn  file "C:/ti/Workspace/PLC_certificate/Software/uCOS-II/Source/os_mutex.c",line 600,column 1,i
    1696              
    1697                      .dwfde $C$DW$CIE, _OSMutexPost
    1698              $C$DW$97        .dwtag  DW_TAG_formal_parameter
    1699                      .dwattr $C$DW$97, DW_AT_name("pevent")
    1700                      .dwattr $C$DW$97, DW_AT_TI_symbol_name("_pevent")
    1701                      .dwattr $C$DW$97, DW_AT_type(*$C$DW$T$34)
    1702                      .dwattr $C$DW$97, DW_AT_location[DW_OP_reg12]
    1703              
    1704              
    1705              ;***************************************************************
    1706              ;* FNAME: _OSMutexPost                  FR SIZE:   6           *
TMS320C2000 Assembler PC v20.2.1 Tue Feb 16 00:15:59 2021

Copyright (c) 1996-2018 Texas Instruments Incorporated
os_mutex.asm                                                         PAGE   34

    1707              ;*                                                             *
    1708              ;* FUNCTION ENVIRONMENT                                        *
    1709              ;*                                                             *
    1710              ;* FUNCTION PROPERTIES                                         *
    1711              ;*                            0 Parameter,  5 Auto,  0 SOE     *
    1712              ;***************************************************************
    1713              
    1714 000002f3       _OSMutexPost:
    1715                      .dwcfi  cfa_offset, -2
    1716                      .dwcfi  save_reg_to_mem, 26, 0
    1717 000002f3 FE06          ADDB      SP,#6                 ; [CPU_ARAU] 
    1718                      .dwcfi  cfa_offset, -8
    1719              $C$DW$98        .dwtag  DW_TAG_variable
    1720                      .dwattr $C$DW$98, DW_AT_name("pevent")
    1721                      .dwattr $C$DW$98, DW_AT_TI_symbol_name("_pevent")
    1722                      .dwattr $C$DW$98, DW_AT_type(*$C$DW$T$34)
    1723                      .dwattr $C$DW$98, DW_AT_location[DW_OP_breg20 -2]
    1724              
    1725              $C$DW$99        .dwtag  DW_TAG_variable
    1726                      .dwattr $C$DW$99, DW_AT_name("pcp")
    1727                      .dwattr $C$DW$99, DW_AT_TI_symbol_name("_pcp")
    1728                      .dwattr $C$DW$99, DW_AT_type(*$C$DW$T$19)
    1729                      .dwattr $C$DW$99, DW_AT_location[DW_OP_breg20 -3]
    1730              
    1731              $C$DW$100       .dwtag  DW_TAG_variable
    1732                      .dwattr $C$DW$100, DW_AT_name("prio")
    1733                      .dwattr $C$DW$100, DW_AT_TI_symbol_name("_prio")
    1734                      .dwattr $C$DW$100, DW_AT_type(*$C$DW$T$19)
    1735                      .dwattr $C$DW$100, DW_AT_location[DW_OP_breg20 -4]
    1736              
    1737              $C$DW$101       .dwtag  DW_TAG_variable
    1738                      .dwattr $C$DW$101, DW_AT_name("cpu_sr")
    1739                      .dwattr $C$DW$101, DW_AT_TI_symbol_name("_cpu_sr")
    1740                      .dwattr $C$DW$101, DW_AT_type(*$C$DW$T$40)
    1741                      .dwattr $C$DW$101, DW_AT_location[DW_OP_breg20 -5]
    1742              
    1743 000002f4 A842          MOVL      *-SP[2],XAR4          ; [CPU_ALU] |600| 
    1744                      .dwpsn  file "C:/ti/Workspace/PLC_certificate/Software/uCOS-II/Source/os_mutex.c",line 604,column 23,
    1745 000002f5 2B45          MOV       *-SP[5],#0            ; [CPU_ALU] |604| 
    1746                      .dwpsn  file "C:/ti/Workspace/PLC_certificate/Software/uCOS-II/Source/os_mutex.c",line 609,column 5,i
    1747 000002f6 761F!         MOVW      DP,#_OSIntNesting     ; [CPU_ARAU] 
         000002f7 0000 
    1748 000002f8 9200!         MOV       AL,@_OSIntNesting     ; [CPU_ALU] |609| 
    1749 000002f9 6103          B         $C$L50,EQ             ; [CPU_ALU] |609| 
    1750                      ; branchcc occurs ; [] |609| 
    1751                      .dwpsn  file "C:/ti/Workspace/PLC_certificate/Software/uCOS-II/Source/os_mutex.c",line 610,column 9,i
    1752 000002fa 9A05          MOVB      AL,#5                 ; [CPU_ALU] |610| 
    1753 000002fb 6F6B          B         $C$L58,UNC            ; [CPU_ALU] |610| 
    1754                      ; branch occurs ; [] |610| 
    1755 000002fc       $C$L50:    
    1756                      .dwpsn  file "C:/ti/Workspace/PLC_certificate/Software/uCOS-II/Source/os_mutex.c",line 613,column 5,i
    1757 000002fc 0642          MOVL      ACC,*-SP[2]           ; [CPU_ALU] |613| 
    1758 000002fd 6003          B         $C$L51,NEQ            ; [CPU_ALU] |613| 
    1759                      ; branchcc occurs ; [] |613| 
    1760                      .dwpsn  file "C:/ti/Workspace/PLC_certificate/Software/uCOS-II/Source/os_mutex.c",line 614,column 9,i
TMS320C2000 Assembler PC v20.2.1 Tue Feb 16 00:15:59 2021

Copyright (c) 1996-2018 Texas Instruments Incorporated
os_mutex.asm                                                         PAGE   35

    1761 000002fe 9A04          MOVB      AL,#4                 ; [CPU_ALU] |614| 
    1762 000002ff 6F67          B         $C$L58,UNC            ; [CPU_ALU] |614| 
    1763                      ; branch occurs ; [] |614| 
    1764 00000300       $C$L51:    
    1765                      .dwpsn  file "C:/ti/Workspace/PLC_certificate/Software/uCOS-II/Source/os_mutex.c",line 617,column 5,i
    1766 00000300 92C4          MOV       AL,*+XAR4[0]          ; [CPU_ALU] |617| 
    1767 00000301 5204          CMPB      AL,#4                 ; [CPU_ALU] |617| 
    1768 00000302 6103          B         $C$L52,EQ             ; [CPU_ALU] |617| 
    1769                      ; branchcc occurs ; [] |617| 
    1770                      .dwpsn  file "C:/ti/Workspace/PLC_certificate/Software/uCOS-II/Source/os_mutex.c",line 618,column 9,i
    1771 00000303 9A01          MOVB      AL,#1                 ; [CPU_ALU] |618| 
    1772 00000304 6F62          B         $C$L58,UNC            ; [CPU_ALU] |618| 
    1773                      ; branch occurs ; [] |618| 
    1774 00000305       $C$L52:    
    1775                      .dwpsn  file "C:/ti/Workspace/PLC_certificate/Software/uCOS-II/Source/os_mutex.c",line 620,column 5,i
    1776              $C$DW$102       .dwtag  DW_TAG_TI_branch
    1777                      .dwattr $C$DW$102, DW_AT_low_pc(0x00)
    1778                      .dwattr $C$DW$102, DW_AT_name("_OS_CPU_SR_Save")
    1779                      .dwattr $C$DW$102, DW_AT_TI_call
    1780              
    1781 00000305 7640!         LCR       #_OS_CPU_SR_Save      ; [CPU_ALU] |620| 
         00000306 0000 
    1782                      ; call occurs [#_OS_CPU_SR_Save] ; [] |620| 
    1783 00000307 9645          MOV       *-SP[5],AL            ; [CPU_ALU] |620| 
    1784                      .dwpsn  file "C:/ti/Workspace/PLC_certificate/Software/uCOS-II/Source/os_mutex.c",line 621,column 5,i
    1785 00000308 8A42          MOVL      XAR4,*-SP[2]          ; [CPU_ALU] |621| 
    1786 00000309 92E4          MOV       AL,*+XAR4[4]          ; [CPU_ALU] |621| 
    1787 0000030a FFC7          LSR       AL,8                  ; [CPU_ALU] |621| 
    1788 0000030b 9643          MOV       *-SP[3],AL            ; [CPU_ALU] |621| 
    1789                      .dwpsn  file "C:/ti/Workspace/PLC_certificate/Software/uCOS-II/Source/os_mutex.c",line 622,column 5,i
    1790 0000030c 92E4          MOV       AL,*+XAR4[4]          ; [CPU_ALU] |622| 
    1791 0000030d 90FF          ANDB      AL,#0xff              ; [CPU_ALU] |622| 
    1792 0000030e 9644          MOV       *-SP[4],AL            ; [CPU_ALU] |622| 
    1793                      .dwpsn  file "C:/ti/Workspace/PLC_certificate/Software/uCOS-II/Source/os_mutex.c",line 623,column 5,i
    1794 0000030f 761F!         MOVW      DP,#_OSTCBCur         ; [CPU_ARAU] 
         00000310 0000 
    1795 00000311 06D4          MOVL      ACC,*+XAR4[2]         ; [CPU_ALU] |623| 
    1796 00000312 0F00!         CMPL      ACC,@_OSTCBCur        ; [CPU_ALU] |623| 
    1797 00000313 6106          B         $C$L53,EQ             ; [CPU_ALU] |623| 
    1798                      ; branchcc occurs ; [] |623| 
    1799                      .dwpsn  file "C:/ti/Workspace/PLC_certificate/Software/uCOS-II/Source/os_mutex.c",line 624,column 9,i
    1800 00000314 9245          MOV       AL,*-SP[5]            ; [CPU_ALU] |624| 
    1801              $C$DW$103       .dwtag  DW_TAG_TI_branch
    1802                      .dwattr $C$DW$103, DW_AT_low_pc(0x00)
    1803                      .dwattr $C$DW$103, DW_AT_name("_OS_CPU_SR_Restore")
    1804                      .dwattr $C$DW$103, DW_AT_TI_call
    1805              
    1806 00000315 7640!         LCR       #_OS_CPU_SR_Restore   ; [CPU_ALU] |624| 
         00000316 0000 
    1807                      ; call occurs [#_OS_CPU_SR_Restore] ; [] |624| 
    1808                      .dwpsn  file "C:/ti/Workspace/PLC_certificate/Software/uCOS-II/Source/os_mutex.c",line 625,column 9,i
    1809 00000317 9A64          MOVB      AL,#100               ; [CPU_ALU] |625| 
    1810 00000318 6F4E          B         $C$L58,UNC            ; [CPU_ALU] |625| 
    1811                      ; branch occurs ; [] |625| 
    1812 00000319       $C$L53:    
TMS320C2000 Assembler PC v20.2.1 Tue Feb 16 00:15:59 2021

Copyright (c) 1996-2018 Texas Instruments Incorporated
os_mutex.asm                                                         PAGE   36

    1813                      .dwpsn  file "C:/ti/Workspace/PLC_certificate/Software/uCOS-II/Source/os_mutex.c",line 627,column 5,i
    1814 00000319 9243          MOV       AL,*-SP[3]            ; [CPU_ALU] |627| 
    1815 0000031a 52FF          CMPB      AL,#255               ; [CPU_ALU] |627| 
    1816 0000031b 6116          B         $C$L55,EQ             ; [CPU_ALU] |627| 
    1817                      ; branchcc occurs ; [] |627| 
    1818                      .dwpsn  file "C:/ti/Workspace/PLC_certificate/Software/uCOS-II/Source/os_mutex.c",line 628,column 9,i
    1819 0000031c 021C          MOVB      ACC,#28               ; [CPU_ALU] |628| 
    1820 0000031d 0700!         ADDL      ACC,@_OSTCBCur        ; [CPU_ALU] |628| 
    1821 0000031e 8AA9          MOVL      XAR4,ACC              ; [CPU_ALU] |628| 
    1822 0000031f 8843          MOVZ      AR6,*-SP[3]           ; [CPU_ALU] |628| 
    1823 00000320 80C4          MOVZ      AR7,*+XAR4[0]         ; [CPU_ALU] |628| 
    1824 00000321 06A6          MOVL      ACC,XAR6              ; [CPU_ALU] |628| 
    1825 00000322 0FA7          CMPL      ACC,XAR7              ; [CPU_ALU] |628| 
    1826 00000323 6005          B         $C$L54,NEQ            ; [CPU_ALU] |628| 
    1827                      ; branchcc occurs ; [] |628| 
    1828                      .dwpsn  file "C:/ti/Workspace/PLC_certificate/Software/uCOS-II/Source/os_mutex.c",line 629,column 13,
    1829 00000324 8A00!         MOVL      XAR4,@_OSTCBCur       ; [CPU_ALU] |629| 
    1830 00000325 9244          MOV       AL,*-SP[4]            ; [CPU_ALU] |629| 
    1831              $C$DW$104       .dwtag  DW_TAG_TI_branch
    1832                      .dwattr $C$DW$104, DW_AT_low_pc(0x00)
    1833                      .dwattr $C$DW$104, DW_AT_name("_OSMutex_RdyAtPrio")
    1834                      .dwattr $C$DW$104, DW_AT_TI_call
    1835              
    1836 00000326 7640'         LCR       #_OSMutex_RdyAtPrio   ; [CPU_ALU] |629| 
         00000327 03C3 
    1837                      ; call occurs [#_OSMutex_RdyAtPrio] ; [] |629| 
    1838 00000328       $C$L54:    
    1839                      .dwpsn  file "C:/ti/Workspace/PLC_certificate/Software/uCOS-II/Source/os_mutex.c",line 631,column 9,i
    1840 00000328 2901          CLRC      SXM                   ; [CPU_ALU] 
    1841 00000329 8F00!         MOVL      XAR4,#_OSTCBPrioTbl   ; [CPU_ARAU] |631| 
         0000032a 0000 
    1842 0000032b 5603          MOV       ACC,*-SP[3] << 1      ; [CPU_ALU] |631| 
         0000032c 0143 
    1843 0000032d 5601          ADDL      XAR4,ACC              ; [CPU_ALU] |631| 
         0000032e 00A4 
    1844 0000032f 0201          MOVB      ACC,#1                ; [CPU_ALU] |631| 
    1845 00000330 1EC4          MOVL      *+XAR4[0],ACC         ; [CPU_ALU] |631| 
    1846 00000331       $C$L55:    
    1847                      .dwpsn  file "C:/ti/Workspace/PLC_certificate/Software/uCOS-II/Source/os_mutex.c",line 633,column 5,i
    1848 00000331 8A42          MOVL      XAR4,*-SP[2]          ; [CPU_ALU] |633| 
    1849 00000332 92EC          MOV       AL,*+XAR4[5]          ; [CPU_ALU] |633| 
    1850 00000333 612A          B         $C$L57,EQ             ; [CPU_ALU] |633| 
    1851                      ; branchcc occurs ; [] |633| 
    1852                      .dwpsn  file "C:/ti/Workspace/PLC_certificate/Software/uCOS-II/Source/os_mutex.c",line 635,column 9,i
    1853 00000334 D500          MOVB      XAR5,#0               ; [CPU_ALU] |635| 
    1854 00000335 9A10          MOVB      AL,#16                ; [CPU_ALU] |635| 
    1855 00000336 9B00          MOVB      AH,#0                 ; [CPU_ALU] |635| 
    1856              $C$DW$105       .dwtag  DW_TAG_TI_branch
    1857                      .dwattr $C$DW$105, DW_AT_low_pc(0x00)
    1858                      .dwattr $C$DW$105, DW_AT_name("_OS_EventTaskRdy")
    1859                      .dwattr $C$DW$105, DW_AT_TI_call
    1860              
    1861 00000337 7640!         LCR       #_OS_EventTaskRdy     ; [CPU_ALU] |635| 
         00000338 0000 
    1862                      ; call occurs [#_OS_EventTaskRdy] ; [] |635| 
TMS320C2000 Assembler PC v20.2.1 Tue Feb 16 00:15:59 2021

Copyright (c) 1996-2018 Texas Instruments Incorporated
os_mutex.asm                                                         PAGE   37

    1863 00000339 9644          MOV       *-SP[4],AL            ; [CPU_ALU] |635| 
    1864                      .dwpsn  file "C:/ti/Workspace/PLC_certificate/Software/uCOS-II/Source/os_mutex.c",line 636,column 9,i
    1865 0000033a 8A42          MOVL      XAR4,*-SP[2]          ; [CPU_ALU] |636| 
    1866 0000033b 18E4          AND       *+XAR4[4],#0xff00     ; [CPU_ALU] |636| 
         0000033c FF00 
    1867                      .dwpsn  file "C:/ti/Workspace/PLC_certificate/Software/uCOS-II/Source/os_mutex.c",line 637,column 9,i
    1868 0000033d 8A42          MOVL      XAR4,*-SP[2]          ; [CPU_ALU] |637| 
    1869 0000033e 9244          MOV       AL,*-SP[4]            ; [CPU_ALU] |637| 
    1870 0000033f 98E4          OR        *+XAR4[4],AL          ; [CPU_ALU] |637| 
    1871                      .dwpsn  file "C:/ti/Workspace/PLC_certificate/Software/uCOS-II/Source/os_mutex.c",line 638,column 9,i
    1872 00000340 2901          CLRC      SXM                   ; [CPU_ALU] 
    1873 00000341 8F00!         MOVL      XAR4,#_OSTCBPrioTbl   ; [CPU_ARAU] |638| 
         00000342 0000 
    1874 00000343 5603          MOV       ACC,*-SP[4] << 1      ; [CPU_ALU] |638| 
         00000344 0144 
    1875 00000345 5601          ADDL      XAR4,ACC              ; [CPU_ALU] |638| 
         00000346 00A4 
    1876 00000347 06C4          MOVL      ACC,*+XAR4[0]         ; [CPU_ALU] |638| 
    1877 00000348 8A42          MOVL      XAR4,*-SP[2]          ; [CPU_ALU] |638| 
    1878 00000349 1ED4          MOVL      *+XAR4[2],ACC         ; [CPU_ALU] |638| 
    1879                      .dwpsn  file "C:/ti/Workspace/PLC_certificate/Software/uCOS-II/Source/os_mutex.c",line 639,column 9,i
    1880 0000034a 9243          MOV       AL,*-SP[3]            ; [CPU_ALU] |639| 
    1881 0000034b 52FF          CMPB      AL,#255               ; [CPU_ALU] |639| 
    1882 0000034c 610A          B         $C$L56,EQ             ; [CPU_ALU] |639| 
    1883                      ; branchcc occurs ; [] |639| 
    1884 0000034d 5444          CMP       AL,*-SP[4]            ; [CPU_ALU] |639| 
    1885 0000034e 6808          B         $C$L56,LO             ; [CPU_ALU] |639| 
    1886                      ; branchcc occurs ; [] |639| 
    1887                      .dwpsn  file "C:/ti/Workspace/PLC_certificate/Software/uCOS-II/Source/os_mutex.c",line 641,column 13,
    1888 0000034f 9245          MOV       AL,*-SP[5]            ; [CPU_ALU] |641| 
    1889              $C$DW$106       .dwtag  DW_TAG_TI_branch
    1890                      .dwattr $C$DW$106, DW_AT_low_pc(0x00)
    1891                      .dwattr $C$DW$106, DW_AT_name("_OS_CPU_SR_Restore")
    1892                      .dwattr $C$DW$106, DW_AT_TI_call
    1893              
    1894 00000350 7640!         LCR       #_OS_CPU_SR_Restore   ; [CPU_ALU] |641| 
         00000351 0000 
    1895                      ; call occurs [#_OS_CPU_SR_Restore] ; [] |641| 
    1896                      .dwpsn  file "C:/ti/Workspace/PLC_certificate/Software/uCOS-II/Source/os_mutex.c",line 642,column 13,
    1897              $C$DW$107       .dwtag  DW_TAG_TI_branch
    1898                      .dwattr $C$DW$107, DW_AT_low_pc(0x00)
    1899                      .dwattr $C$DW$107, DW_AT_name("_OS_Sched")
    1900                      .dwattr $C$DW$107, DW_AT_TI_call
    1901              
    1902 00000352 7640!         LCR       #_OS_Sched            ; [CPU_ALU] |642| 
         00000353 0000 
    1903                      ; call occurs [#_OS_Sched] ; [] |642| 
    1904                      .dwpsn  file "C:/ti/Workspace/PLC_certificate/Software/uCOS-II/Source/os_mutex.c",line 643,column 13,
    1905 00000354 9A78          MOVB      AL,#120               ; [CPU_ALU] |643| 
    1906 00000355 6F11          B         $C$L58,UNC            ; [CPU_ALU] |643| 
    1907                      ; branch occurs ; [] |643| 
    1908 00000356       $C$L56:    
    1909                      .dwpsn  file "C:/ti/Workspace/PLC_certificate/Software/uCOS-II/Source/os_mutex.c",line 645,column 13,
    1910 00000356 9245          MOV       AL,*-SP[5]            ; [CPU_ALU] |645| 
    1911              $C$DW$108       .dwtag  DW_TAG_TI_branch
TMS320C2000 Assembler PC v20.2.1 Tue Feb 16 00:15:59 2021

Copyright (c) 1996-2018 Texas Instruments Incorporated
os_mutex.asm                                                         PAGE   38

    1912                      .dwattr $C$DW$108, DW_AT_low_pc(0x00)
    1913                      .dwattr $C$DW$108, DW_AT_name("_OS_CPU_SR_Restore")
    1914                      .dwattr $C$DW$108, DW_AT_TI_call
    1915              
    1916 00000357 7640!         LCR       #_OS_CPU_SR_Restore   ; [CPU_ALU] |645| 
         00000358 0000 
    1917                      ; call occurs [#_OS_CPU_SR_Restore] ; [] |645| 
    1918                      .dwpsn  file "C:/ti/Workspace/PLC_certificate/Software/uCOS-II/Source/os_mutex.c",line 646,column 13,
    1919              $C$DW$109       .dwtag  DW_TAG_TI_branch
    1920                      .dwattr $C$DW$109, DW_AT_low_pc(0x00)
    1921                      .dwattr $C$DW$109, DW_AT_name("_OS_Sched")
    1922                      .dwattr $C$DW$109, DW_AT_TI_call
    1923              
    1924 00000359 7640!         LCR       #_OS_Sched            ; [CPU_ALU] |646| 
         0000035a 0000 
    1925                      ; call occurs [#_OS_Sched] ; [] |646| 
    1926                      .dwpsn  file "C:/ti/Workspace/PLC_certificate/Software/uCOS-II/Source/os_mutex.c",line 647,column 13,
    1927 0000035b 9A00          MOVB      AL,#0                 ; [CPU_ALU] |647| 
    1928 0000035c 6F0A          B         $C$L58,UNC            ; [CPU_ALU] |647| 
    1929                      ; branch occurs ; [] |647| 
    1930 0000035d       $C$L57:    
    1931                      .dwpsn  file "C:/ti/Workspace/PLC_certificate/Software/uCOS-II/Source/os_mutex.c",line 650,column 5,i
    1932 0000035d 1AE4          OR        *+XAR4[4],#0x00ff     ; [CPU_ALU] |650| 
         0000035e 00FF 
    1933                      .dwpsn  file "C:/ti/Workspace/PLC_certificate/Software/uCOS-II/Source/os_mutex.c",line 651,column 5,i
    1934 0000035f 8A42          MOVL      XAR4,*-SP[2]          ; [CPU_ALU] |651| 
    1935 00000360 0200          MOVB      ACC,#0                ; [CPU_ALU] |651| 
    1936 00000361 1ED4          MOVL      *+XAR4[2],ACC         ; [CPU_ALU] |651| 
    1937                      .dwpsn  file "C:/ti/Workspace/PLC_certificate/Software/uCOS-II/Source/os_mutex.c",line 652,column 5,i
    1938 00000362 9245          MOV       AL,*-SP[5]            ; [CPU_ALU] |652| 
    1939              $C$DW$110       .dwtag  DW_TAG_TI_branch
    1940                      .dwattr $C$DW$110, DW_AT_low_pc(0x00)
    1941                      .dwattr $C$DW$110, DW_AT_name("_OS_CPU_SR_Restore")
    1942                      .dwattr $C$DW$110, DW_AT_TI_call
    1943              
    1944 00000363 7640!         LCR       #_OS_CPU_SR_Restore   ; [CPU_ALU] |652| 
         00000364 0000 
    1945                      ; call occurs [#_OS_CPU_SR_Restore] ; [] |652| 
    1946                      .dwpsn  file "C:/ti/Workspace/PLC_certificate/Software/uCOS-II/Source/os_mutex.c",line 653,column 5,i
    1947 00000365 9A00          MOVB      AL,#0                 ; [CPU_ALU] |653| 
    1948 00000366       $C$L58:    
    1949                      .dwpsn  file "C:/ti/Workspace/PLC_certificate/Software/uCOS-II/Source/os_mutex.c",line 654,column 1,i
    1950 00000366 FE86          SUBB      SP,#6                 ; [CPU_ARAU] 
    1951                      .dwcfi  cfa_offset, -2
    1952              $C$DW$111       .dwtag  DW_TAG_TI_branch
    1953                      .dwattr $C$DW$111, DW_AT_low_pc(0x00)
    1954                      .dwattr $C$DW$111, DW_AT_TI_return
    1955              
    1956 00000367 0006          LRETR     ; [CPU_ALU] 
    1957                      ; return occurs ; [] 
    1958                      .dwattr $C$DW$96, DW_AT_TI_end_file("C:/ti/Workspace/PLC_certificate/Software/uCOS-II/Source/os_mutex
    1959                      .dwattr $C$DW$96, DW_AT_TI_end_line(0x28e)
    1960                      .dwattr $C$DW$96, DW_AT_TI_end_column(0x01)
    1961                      .dwendentry
    1962                      .dwendtag $C$DW$96
TMS320C2000 Assembler PC v20.2.1 Tue Feb 16 00:15:59 2021

Copyright (c) 1996-2018 Texas Instruments Incorporated
os_mutex.asm                                                         PAGE   39

    1963              
    1964 00000368               .sect   ".text"
    1965                      .clink
    1966                      .global _OSMutexQuery
    1967              
    1968              $C$DW$112       .dwtag  DW_TAG_subprogram
    1969                      .dwattr $C$DW$112, DW_AT_name("OSMutexQuery")
    1970                      .dwattr $C$DW$112, DW_AT_low_pc(_OSMutexQuery)
    1971                      .dwattr $C$DW$112, DW_AT_high_pc(0x00)
    1972                      .dwattr $C$DW$112, DW_AT_TI_symbol_name("_OSMutexQuery")
    1973                      .dwattr $C$DW$112, DW_AT_external
    1974                      .dwattr $C$DW$112, DW_AT_type(*$C$DW$T$19)
    1975                      .dwattr $C$DW$112, DW_AT_TI_begin_file("C:/ti/Workspace/PLC_certificate/Software/uCOS-II/Source/os_mu
    1976                      .dwattr $C$DW$112, DW_AT_TI_begin_line(0x2a3)
    1977                      .dwattr $C$DW$112, DW_AT_TI_begin_column(0x08)
    1978                      .dwattr $C$DW$112, DW_AT_TI_max_frame_size(-12)
    1979                      .dwpsn  file "C:/ti/Workspace/PLC_certificate/Software/uCOS-II/Source/os_mutex.c",line 677,column 1,i
    1980              
    1981                      .dwfde $C$DW$CIE, _OSMutexQuery
    1982              $C$DW$113       .dwtag  DW_TAG_formal_parameter
    1983                      .dwattr $C$DW$113, DW_AT_name("pevent")
    1984                      .dwattr $C$DW$113, DW_AT_TI_symbol_name("_pevent")
    1985                      .dwattr $C$DW$113, DW_AT_type(*$C$DW$T$34)
    1986                      .dwattr $C$DW$113, DW_AT_location[DW_OP_reg12]
    1987              
    1988              $C$DW$114       .dwtag  DW_TAG_formal_parameter
    1989                      .dwattr $C$DW$114, DW_AT_name("p_mutex_data")
    1990                      .dwattr $C$DW$114, DW_AT_TI_symbol_name("_p_mutex_data")
    1991                      .dwattr $C$DW$114, DW_AT_type(*$C$DW$T$60)
    1992                      .dwattr $C$DW$114, DW_AT_location[DW_OP_reg14]
    1993              
    1994              
    1995              ;***************************************************************
    1996              ;* FNAME: _OSMutexQuery                 FR SIZE:  10           *
    1997              ;*                                                             *
    1998              ;* FUNCTION ENVIRONMENT                                        *
    1999              ;*                                                             *
    2000              ;* FUNCTION PROPERTIES                                         *
    2001              ;*                            0 Parameter, 10 Auto,  0 SOE     *
    2002              ;***************************************************************
    2003              
    2004 00000368       _OSMutexQuery:
    2005                      .dwcfi  cfa_offset, -2
    2006                      .dwcfi  save_reg_to_mem, 26, 0
    2007 00000368 FE0A          ADDB      SP,#10                ; [CPU_ARAU] 
    2008                      .dwcfi  cfa_offset, -12
    2009              $C$DW$115       .dwtag  DW_TAG_variable
    2010                      .dwattr $C$DW$115, DW_AT_name("pevent")
    2011                      .dwattr $C$DW$115, DW_AT_TI_symbol_name("_pevent")
    2012                      .dwattr $C$DW$115, DW_AT_type(*$C$DW$T$34)
    2013                      .dwattr $C$DW$115, DW_AT_location[DW_OP_breg20 -2]
    2014              
    2015              $C$DW$116       .dwtag  DW_TAG_variable
    2016                      .dwattr $C$DW$116, DW_AT_name("p_mutex_data")
    2017                      .dwattr $C$DW$116, DW_AT_TI_symbol_name("_p_mutex_data")
TMS320C2000 Assembler PC v20.2.1 Tue Feb 16 00:15:59 2021

Copyright (c) 1996-2018 Texas Instruments Incorporated
os_mutex.asm                                                         PAGE   40

    2018                      .dwattr $C$DW$116, DW_AT_type(*$C$DW$T$60)
    2019                      .dwattr $C$DW$116, DW_AT_location[DW_OP_breg20 -4]
    2020              
    2021              $C$DW$117       .dwtag  DW_TAG_variable
    2022                      .dwattr $C$DW$117, DW_AT_name("psrc")
    2023                      .dwattr $C$DW$117, DW_AT_TI_symbol_name("_psrc")
    2024                      .dwattr $C$DW$117, DW_AT_type(*$C$DW$T$55)
    2025                      .dwattr $C$DW$117, DW_AT_location[DW_OP_breg20 -6]
    2026              
    2027              $C$DW$118       .dwtag  DW_TAG_variable
    2028                      .dwattr $C$DW$118, DW_AT_name("pdest")
    2029                      .dwattr $C$DW$118, DW_AT_TI_symbol_name("_pdest")
    2030                      .dwattr $C$DW$118, DW_AT_type(*$C$DW$T$55)
    2031                      .dwattr $C$DW$118, DW_AT_location[DW_OP_breg20 -8]
    2032              
    2033              $C$DW$119       .dwtag  DW_TAG_variable
    2034                      .dwattr $C$DW$119, DW_AT_name("i")
    2035                      .dwattr $C$DW$119, DW_AT_TI_symbol_name("_i")
    2036                      .dwattr $C$DW$119, DW_AT_type(*$C$DW$T$19)
    2037                      .dwattr $C$DW$119, DW_AT_location[DW_OP_breg20 -9]
    2038              
    2039              $C$DW$120       .dwtag  DW_TAG_variable
    2040                      .dwattr $C$DW$120, DW_AT_name("cpu_sr")
    2041                      .dwattr $C$DW$120, DW_AT_TI_symbol_name("_cpu_sr")
    2042                      .dwattr $C$DW$120, DW_AT_type(*$C$DW$T$40)
    2043                      .dwattr $C$DW$120, DW_AT_location[DW_OP_breg20 -10]
    2044              
    2045 00000369 A044          MOVL      *-SP[4],XAR5          ; [CPU_ALU] |677| 
    2046 0000036a A842          MOVL      *-SP[2],XAR4          ; [CPU_ALU] |677| 
    2047                      .dwpsn  file "C:/ti/Workspace/PLC_certificate/Software/uCOS-II/Source/os_mutex.c",line 682,column 24,
    2048 0000036b 2B4A          MOV       *-SP[10],#0           ; [CPU_ALU] |682| 
    2049                      .dwpsn  file "C:/ti/Workspace/PLC_certificate/Software/uCOS-II/Source/os_mutex.c",line 687,column 5,i
    2050 0000036c 761F!         MOVW      DP,#_OSIntNesting     ; [CPU_ARAU] 
         0000036d 0000 
    2051 0000036e 9200!         MOV       AL,@_OSIntNesting     ; [CPU_ALU] |687| 
    2052 0000036f 6103          B         $C$L59,EQ             ; [CPU_ALU] |687| 
    2053                      ; branchcc occurs ; [] |687| 
    2054                      .dwpsn  file "C:/ti/Workspace/PLC_certificate/Software/uCOS-II/Source/os_mutex.c",line 688,column 9,i
    2055 00000370 9A06          MOVB      AL,#6                 ; [CPU_ALU] |688| 
    2056 00000371 6F50          B         $C$L67,UNC            ; [CPU_ALU] |688| 
    2057                      ; branch occurs ; [] |688| 
    2058 00000372       $C$L59:    
    2059                      .dwpsn  file "C:/ti/Workspace/PLC_certificate/Software/uCOS-II/Source/os_mutex.c",line 691,column 5,i
    2060 00000372 0642          MOVL      ACC,*-SP[2]           ; [CPU_ALU] |691| 
    2061 00000373 6003          B         $C$L60,NEQ            ; [CPU_ALU] |691| 
    2062                      ; branchcc occurs ; [] |691| 
    2063                      .dwpsn  file "C:/ti/Workspace/PLC_certificate/Software/uCOS-II/Source/os_mutex.c",line 692,column 9,i
    2064 00000374 9A04          MOVB      AL,#4                 ; [CPU_ALU] |692| 
    2065 00000375 6F4C          B         $C$L67,UNC            ; [CPU_ALU] |692| 
    2066                      ; branch occurs ; [] |692| 
    2067 00000376       $C$L60:    
    2068                      .dwpsn  file "C:/ti/Workspace/PLC_certificate/Software/uCOS-II/Source/os_mutex.c",line 694,column 5,i
    2069 00000376 0644          MOVL      ACC,*-SP[4]           ; [CPU_ALU] |694| 
    2070 00000377 6003          B         $C$L61,NEQ            ; [CPU_ALU] |694| 
    2071                      ; branchcc occurs ; [] |694| 
TMS320C2000 Assembler PC v20.2.1 Tue Feb 16 00:15:59 2021

Copyright (c) 1996-2018 Texas Instruments Incorporated
os_mutex.asm                                                         PAGE   41

    2072                      .dwpsn  file "C:/ti/Workspace/PLC_certificate/Software/uCOS-II/Source/os_mutex.c",line 695,column 9,i
    2073 00000378 9A09          MOVB      AL,#9                 ; [CPU_ALU] |695| 
    2074 00000379 6F48          B         $C$L67,UNC            ; [CPU_ALU] |695| 
    2075                      ; branch occurs ; [] |695| 
    2076 0000037a       $C$L61:    
    2077                      .dwpsn  file "C:/ti/Workspace/PLC_certificate/Software/uCOS-II/Source/os_mutex.c",line 698,column 5,i
    2078 0000037a 92C4          MOV       AL,*+XAR4[0]          ; [CPU_ALU] |698| 
    2079 0000037b 5204          CMPB      AL,#4                 ; [CPU_ALU] |698| 
    2080 0000037c 6103          B         $C$L62,EQ             ; [CPU_ALU] |698| 
    2081                      ; branchcc occurs ; [] |698| 
    2082                      .dwpsn  file "C:/ti/Workspace/PLC_certificate/Software/uCOS-II/Source/os_mutex.c",line 699,column 9,i
    2083 0000037d 9A01          MOVB      AL,#1                 ; [CPU_ALU] |699| 
    2084 0000037e 6F43          B         $C$L67,UNC            ; [CPU_ALU] |699| 
    2085                      ; branch occurs ; [] |699| 
    2086 0000037f       $C$L62:    
    2087                      .dwpsn  file "C:/ti/Workspace/PLC_certificate/Software/uCOS-II/Source/os_mutex.c",line 701,column 5,i
    2088              $C$DW$121       .dwtag  DW_TAG_TI_branch
    2089                      .dwattr $C$DW$121, DW_AT_low_pc(0x00)
    2090                      .dwattr $C$DW$121, DW_AT_name("_OS_CPU_SR_Save")
    2091                      .dwattr $C$DW$121, DW_AT_TI_call
    2092              
    2093 0000037f 7640!         LCR       #_OS_CPU_SR_Save      ; [CPU_ALU] |701| 
         00000380 0000 
    2094                      ; call occurs [#_OS_CPU_SR_Save] ; [] |701| 
    2095 00000381 964A          MOV       *-SP[10],AL           ; [CPU_ALU] |701| 
    2096                      .dwpsn  file "C:/ti/Workspace/PLC_certificate/Software/uCOS-II/Source/os_mutex.c",line 702,column 5,i
    2097 00000382 8A42          MOVL      XAR4,*-SP[2]          ; [CPU_ALU] |702| 
    2098 00000383 92E4          MOV       AL,*+XAR4[4]          ; [CPU_ALU] |702| 
    2099 00000384 FFC7          LSR       AL,8                  ; [CPU_ALU] |702| 
    2100 00000385 88A9          MOVZ      AR6,AL                ; [CPU_ALU] |702| 
    2101 00000386 020B          MOVB      ACC,#11               ; [CPU_ALU] |702| 
    2102 00000387 0744          ADDL      ACC,*-SP[4]           ; [CPU_ALU] |702| 
    2103 00000388 8AA9          MOVL      XAR4,ACC              ; [CPU_ALU] |702| 
    2104 00000389 7EC4          MOV       *+XAR4[0],AR6         ; [CPU_ALU] |702| 
    2105                      .dwpsn  file "C:/ti/Workspace/PLC_certificate/Software/uCOS-II/Source/os_mutex.c",line 703,column 5,i
    2106 0000038a 8A42          MOVL      XAR4,*-SP[2]          ; [CPU_ALU] |703| 
    2107 0000038b 92E4          MOV       AL,*+XAR4[4]          ; [CPU_ALU] |703| 
    2108 0000038c 90FF          ANDB      AL,#0xff              ; [CPU_ALU] |703| 
    2109 0000038d 88A9          MOVZ      AR6,AL                ; [CPU_ALU] |703| 
    2110 0000038e 020A          MOVB      ACC,#10               ; [CPU_ALU] |703| 
    2111 0000038f 0744          ADDL      ACC,*-SP[4]           ; [CPU_ALU] |703| 
    2112 00000390 8AA9          MOVL      XAR4,ACC              ; [CPU_ALU] |703| 
    2113 00000391 7EC4          MOV       *+XAR4[0],AR6         ; [CPU_ALU] |703| 
    2114                      .dwpsn  file "C:/ti/Workspace/PLC_certificate/Software/uCOS-II/Source/os_mutex.c",line 704,column 5,i
    2115 00000392 020A          MOVB      ACC,#10               ; [CPU_ALU] |704| 
    2116 00000393 0744          ADDL      ACC,*-SP[4]           ; [CPU_ALU] |704| 
    2117 00000394 8AA9          MOVL      XAR4,ACC              ; [CPU_ALU] |704| 
    2118 00000395 92C4          MOV       AL,*+XAR4[0]          ; [CPU_ALU] |704| 
    2119 00000396 52FF          CMPB      AL,#255               ; [CPU_ALU] |704| 
    2120 00000397 6007          B         $C$L63,NEQ            ; [CPU_ALU] |704| 
    2121                      ; branchcc occurs ; [] |704| 
    2122                      .dwpsn  file "C:/ti/Workspace/PLC_certificate/Software/uCOS-II/Source/os_mutex.c",line 705,column 9,i
    2123 00000398 0209          MOVB      ACC,#9                ; [CPU_ALU] |705| 
    2124 00000399 0744          ADDL      ACC,*-SP[4]           ; [CPU_ALU] |705| 
    2125 0000039a 8AA9          MOVL      XAR4,ACC              ; [CPU_ALU] |705| 
TMS320C2000 Assembler PC v20.2.1 Tue Feb 16 00:15:59 2021

Copyright (c) 1996-2018 Texas Instruments Incorporated
os_mutex.asm                                                         PAGE   42

    2126 0000039b 56BF          MOVB      *+XAR4[0],#1,UNC      ; [CPU_ALU] |705| 
         0000039c 01C4 
    2127 0000039d 6F05          B         $C$L64,UNC            ; [CPU_ALU] 
    2128                      ; branch occurs ; [] 
    2129 0000039e       $C$L63:    
    2130                      .dwpsn  file "C:/ti/Workspace/PLC_certificate/Software/uCOS-II/Source/os_mutex.c",line 707,column 9,i
    2131 0000039e 0209          MOVB      ACC,#9                ; [CPU_ALU] |707| 
    2132 0000039f 0744          ADDL      ACC,*-SP[4]           ; [CPU_ALU] |707| 
    2133 000003a0 8AA9          MOVL      XAR4,ACC              ; [CPU_ALU] |707| 
    2134 000003a1 2BC4          MOV       *+XAR4[0],#0          ; [CPU_ALU] |707| 
    2135 000003a2       $C$L64:    
    2136                      .dwpsn  file "C:/ti/Workspace/PLC_certificate/Software/uCOS-II/Source/os_mutex.c",line 709,column 5,i
    2137 000003a2 8A42          MOVL      XAR4,*-SP[2]          ; [CPU_ALU] |709| 
    2138 000003a3 0208          MOVB      ACC,#8                ; [CPU_ALU] |709| 
    2139 000003a4 0744          ADDL      ACC,*-SP[4]           ; [CPU_ALU] |709| 
    2140 000003a5 1EA7          MOVL      XAR7,ACC              ; [CPU_ALU] |709| 
    2141 000003a6 92EC          MOV       AL,*+XAR4[5]          ; [CPU_ALU] |709| 
    2142 000003a7 96C7          MOV       *+XAR7[0],AL          ; [CPU_ALU] |709| 
    2143                      .dwpsn  file "C:/ti/Workspace/PLC_certificate/Software/uCOS-II/Source/os_mutex.c",line 710,column 5,i
    2144 000003a8 0206          MOVB      ACC,#6                ; [CPU_ALU] |710| 
    2145 000003a9 0742          ADDL      ACC,*-SP[2]           ; [CPU_ALU] |710| 
    2146 000003aa 1E46          MOVL      *-SP[6],ACC           ; [CPU_ALU] |710| 
    2147                      .dwpsn  file "C:/ti/Workspace/PLC_certificate/Software/uCOS-II/Source/os_mutex.c",line 711,column 5,i
    2148 000003ab 0644          MOVL      ACC,*-SP[4]           ; [CPU_ALU] |711| 
    2149 000003ac 1E48          MOVL      *-SP[8],ACC           ; [CPU_ALU] |711| 
    2150                      .dwpsn  file "C:/ti/Workspace/PLC_certificate/Software/uCOS-II/Source/os_mutex.c",line 712,column 10,
    2151 000003ad 2B49          MOV       *-SP[9],#0            ; [CPU_ALU] |712| 
    2152                      .dwpsn  file "C:/ti/Workspace/PLC_certificate/Software/uCOS-II/Source/os_mutex.c",line 712,column 18,
    2153 000003ae 9249          MOV       AL,*-SP[9]            ; [CPU_ALU] |712| 
    2154 000003af 5208          CMPB      AL,#8                 ; [CPU_ALU] |712| 
    2155 000003b0 670D          B         $C$L66,HIS            ; [CPU_ALU] |712| 
    2156                      ; branchcc occurs ; [] |712| 
    2157 000003b1       $C$L65:    
    2158                      .dwpsn  file "C:/ti/Workspace/PLC_certificate/Software/uCOS-II/Source/os_mutex.c",line 713,column 9,i
    2159 000003b1 8A46          MOVL      XAR4,*-SP[6]          ; [CPU_ALU] |713| 
    2160 000003b2 9284          MOV       AL,*XAR4++            ; [CPU_ALU] |713| 
    2161 000003b3 A846          MOVL      *-SP[6],XAR4          ; [CPU_ALU] |713| 
    2162 000003b4 8A48          MOVL      XAR4,*-SP[8]          ; [CPU_ALU] |713| 
    2163 000003b5 C4A4          MOVL      XAR6,XAR4             ; [CPU_ALU] |713| 
    2164 000003b6 DE01          ADDB      XAR6,#1               ; [CPU_ALU] |713| 
    2165 000003b7 C248          MOVL      *-SP[8],XAR6          ; [CPU_ALU] |713| 
    2166 000003b8 96C4          MOV       *+XAR4[0],AL          ; [CPU_ALU] |713| 
    2167                      .dwpsn  file "C:/ti/Workspace/PLC_certificate/Software/uCOS-II/Source/os_mutex.c",line 712,column 41,
    2168 000003b9 0A49          INC       *-SP[9]               ; [CPU_ALU] |712| 
    2169                      .dwpsn  file "C:/ti/Workspace/PLC_certificate/Software/uCOS-II/Source/os_mutex.c",line 712,column 18,
    2170 000003ba 9249          MOV       AL,*-SP[9]            ; [CPU_ALU] |712| 
    2171 000003bb 5208          CMPB      AL,#8                 ; [CPU_ALU] |712| 
    2172 000003bc 68F5          B         $C$L65,LO             ; [CPU_ALU] |712| 
    2173                      ; branchcc occurs ; [] |712| 
    2174 000003bd       $C$L66:    
    2175                      .dwpsn  file "C:/ti/Workspace/PLC_certificate/Software/uCOS-II/Source/os_mutex.c",line 715,column 5,i
    2176 000003bd 924A          MOV       AL,*-SP[10]           ; [CPU_ALU] |715| 
    2177              $C$DW$122       .dwtag  DW_TAG_TI_branch
    2178                      .dwattr $C$DW$122, DW_AT_low_pc(0x00)
    2179                      .dwattr $C$DW$122, DW_AT_name("_OS_CPU_SR_Restore")
TMS320C2000 Assembler PC v20.2.1 Tue Feb 16 00:15:59 2021

Copyright (c) 1996-2018 Texas Instruments Incorporated
os_mutex.asm                                                         PAGE   43

    2180                      .dwattr $C$DW$122, DW_AT_TI_call
    2181              
    2182 000003be 7640!         LCR       #_OS_CPU_SR_Restore   ; [CPU_ALU] |715| 
         000003bf 0000 
    2183                      ; call occurs [#_OS_CPU_SR_Restore] ; [] |715| 
    2184                      .dwpsn  file "C:/ti/Workspace/PLC_certificate/Software/uCOS-II/Source/os_mutex.c",line 716,column 5,i
    2185 000003c0 9A00          MOVB      AL,#0                 ; [CPU_ALU] |716| 
    2186 000003c1       $C$L67:    
    2187                      .dwpsn  file "C:/ti/Workspace/PLC_certificate/Software/uCOS-II/Source/os_mutex.c",line 717,column 1,i
    2188 000003c1 FE8A          SUBB      SP,#10                ; [CPU_ARAU] 
    2189                      .dwcfi  cfa_offset, -2
    2190              $C$DW$123       .dwtag  DW_TAG_TI_branch
    2191                      .dwattr $C$DW$123, DW_AT_low_pc(0x00)
    2192                      .dwattr $C$DW$123, DW_AT_TI_return
    2193              
    2194 000003c2 0006          LRETR     ; [CPU_ALU] 
    2195                      ; return occurs ; [] 
    2196                      .dwattr $C$DW$112, DW_AT_TI_end_file("C:/ti/Workspace/PLC_certificate/Software/uCOS-II/Source/os_mute
    2197                      .dwattr $C$DW$112, DW_AT_TI_end_line(0x2cd)
    2198                      .dwattr $C$DW$112, DW_AT_TI_end_column(0x01)
    2199                      .dwendentry
    2200                      .dwendtag $C$DW$112
    2201              
    2202 000003c3               .sect   ".text"
    2203                      .clink
    2204              
    2205              $C$DW$124       .dwtag  DW_TAG_subprogram
    2206                      .dwattr $C$DW$124, DW_AT_name("OSMutex_RdyAtPrio")
    2207                      .dwattr $C$DW$124, DW_AT_low_pc(_OSMutex_RdyAtPrio)
    2208                      .dwattr $C$DW$124, DW_AT_high_pc(0x00)
    2209                      .dwattr $C$DW$124, DW_AT_TI_symbol_name("_OSMutex_RdyAtPrio")
    2210                      .dwattr $C$DW$124, DW_AT_TI_begin_file("C:/ti/Workspace/PLC_certificate/Software/uCOS-II/Source/os_mu
    2211                      .dwattr $C$DW$124, DW_AT_TI_begin_line(0x2df)
    2212                      .dwattr $C$DW$124, DW_AT_TI_begin_column(0x0f)
    2213                      .dwattr $C$DW$124, DW_AT_TI_max_frame_size(-6)
    2214                      .dwpsn  file "C:/ti/Workspace/PLC_certificate/Software/uCOS-II/Source/os_mutex.c",line 737,column 1,i
    2215              
    2216                      .dwfde $C$DW$CIE, _OSMutex_RdyAtPrio
    2217              $C$DW$125       .dwtag  DW_TAG_formal_parameter
    2218                      .dwattr $C$DW$125, DW_AT_name("ptcb")
    2219                      .dwattr $C$DW$125, DW_AT_TI_symbol_name("_ptcb")
    2220                      .dwattr $C$DW$125, DW_AT_type(*$C$DW$T$46)
    2221                      .dwattr $C$DW$125, DW_AT_location[DW_OP_reg12]
    2222              
    2223              $C$DW$126       .dwtag  DW_TAG_formal_parameter
    2224                      .dwattr $C$DW$126, DW_AT_name("prio")
    2225                      .dwattr $C$DW$126, DW_AT_TI_symbol_name("_prio")
    2226                      .dwattr $C$DW$126, DW_AT_type(*$C$DW$T$19)
    2227                      .dwattr $C$DW$126, DW_AT_location[DW_OP_reg0]
    2228              
    2229              
    2230              ;***************************************************************
    2231              ;* FNAME: _OSMutex_RdyAtPrio            FR SIZE:   4           *
    2232              ;*                                                             *
    2233              ;* FUNCTION ENVIRONMENT                                        *
TMS320C2000 Assembler PC v20.2.1 Tue Feb 16 00:15:59 2021

Copyright (c) 1996-2018 Texas Instruments Incorporated
os_mutex.asm                                                         PAGE   44

    2234              ;*                                                             *
    2235              ;* FUNCTION PROPERTIES                                         *
    2236              ;*                            0 Parameter,  4 Auto,  0 SOE     *
    2237              ;***************************************************************
    2238              
    2239 000003c3       _OSMutex_RdyAtPrio:
    2240                      .dwcfi  cfa_offset, -2
    2241                      .dwcfi  save_reg_to_mem, 26, 0
    2242 000003c3 FE04          ADDB      SP,#4                 ; [CPU_ARAU] 
    2243                      .dwcfi  cfa_offset, -6
    2244              $C$DW$127       .dwtag  DW_TAG_variable
    2245                      .dwattr $C$DW$127, DW_AT_name("ptcb")
    2246                      .dwattr $C$DW$127, DW_AT_TI_symbol_name("_ptcb")
    2247                      .dwattr $C$DW$127, DW_AT_type(*$C$DW$T$46)
    2248                      .dwattr $C$DW$127, DW_AT_location[DW_OP_breg20 -2]
    2249              
    2250              $C$DW$128       .dwtag  DW_TAG_variable
    2251                      .dwattr $C$DW$128, DW_AT_name("prio")
    2252                      .dwattr $C$DW$128, DW_AT_TI_symbol_name("_prio")
    2253                      .dwattr $C$DW$128, DW_AT_type(*$C$DW$T$19)
    2254                      .dwattr $C$DW$128, DW_AT_location[DW_OP_breg20 -3]
    2255              
    2256              $C$DW$129       .dwtag  DW_TAG_variable
    2257                      .dwattr $C$DW$129, DW_AT_name("y")
    2258                      .dwattr $C$DW$129, DW_AT_TI_symbol_name("_y")
    2259                      .dwattr $C$DW$129, DW_AT_type(*$C$DW$T$19)
    2260                      .dwattr $C$DW$129, DW_AT_location[DW_OP_breg20 -4]
    2261              
    2262 000003c4 9643          MOV       *-SP[3],AL            ; [CPU_ALU] |737| 
    2263 000003c5 A842          MOVL      *-SP[2],XAR4          ; [CPU_ALU] |737| 
    2264                      .dwpsn  file "C:/ti/Workspace/PLC_certificate/Software/uCOS-II/Source/os_mutex.c",line 741,column 5,i
    2265 000003c6 021E          MOVB      ACC,#30               ; [CPU_ALU] |741| 
    2266 000003c7 0742          ADDL      ACC,*-SP[2]           ; [CPU_ALU] |741| 
    2267 000003c8 1EA7          MOVL      XAR7,ACC              ; [CPU_ALU] |741| 
    2268 000003c9 92C7          MOV       AL,*+XAR7[0]          ; [CPU_ALU] |741| 
    2269 000003ca 9644          MOV       *-SP[4],AL            ; [CPU_ALU] |741| 
    2270                      .dwpsn  file "C:/ti/Workspace/PLC_certificate/Software/uCOS-II/Source/os_mutex.c",line 742,column 5,i
    2271 000003cb 8F00!         MOVL      XAR4,#_OSRdyTbl       ; [CPU_ARAU] |742| 
         000003cc 0000 
    2272 000003cd A8A9          MOVL      ACC,XAR4              ; [CPU_ALU] |742| 
    2273 000003ce 0D44          ADDU      ACC,*-SP[4]           ; [CPU_ALU] |742| 
    2274 000003cf 83A9          MOVL      XAR5,ACC              ; [CPU_ALU] |742| 
    2275 000003d0 021F          MOVB      ACC,#31               ; [CPU_ALU] |742| 
    2276 000003d1 0742          ADDL      ACC,*-SP[2]           ; [CPU_ALU] |742| 
    2277 000003d2 8AA9          MOVL      XAR4,ACC              ; [CPU_ALU] |742| 
    2278 000003d3 92C4          MOV       AL,*+XAR4[0]          ; [CPU_ALU] |742| 
    2279 000003d4 FF5E          NOT       AL                    ; [CPU_ALU] |742| 
    2280 000003d5 C0C5          AND       *+XAR5[0],AL          ; [CPU_ALU] |742| 
    2281                      .dwpsn  file "C:/ti/Workspace/PLC_certificate/Software/uCOS-II/Source/os_mutex.c",line 743,column 5,i
    2282 000003d6 5844          MOVZ      AR0,*-SP[4]           ; [CPU_ALU] |743| 
    2283 000003d7 8F00!         MOVL      XAR4,#_OSRdyTbl       ; [CPU_ARAU] |743| 
         000003d8 0000 
    2284 000003d9 9294          MOV       AL,*+XAR4[AR0]        ; [CPU_ALU] |743| 
    2285 000003da 6009          B         $C$L68,NEQ            ; [CPU_ALU] |743| 
    2286                      ; branchcc occurs ; [] |743| 
TMS320C2000 Assembler PC v20.2.1 Tue Feb 16 00:15:59 2021

Copyright (c) 1996-2018 Texas Instruments Incorporated
os_mutex.asm                                                         PAGE   45

    2287                      .dwpsn  file "C:/ti/Workspace/PLC_certificate/Software/uCOS-II/Source/os_mutex.c",line 744,column 9,i
    2288 000003db 0220          MOVB      ACC,#32               ; [CPU_ALU] |744| 
    2289 000003dc 0742          ADDL      ACC,*-SP[2]           ; [CPU_ALU] |744| 
    2290 000003dd 8AA9          MOVL      XAR4,ACC              ; [CPU_ALU] |744| 
    2291 000003de 761F!         MOVW      DP,#_OSRdyGrp         ; [CPU_ARAU] 
         000003df 0000 
    2292 000003e0 92C4          MOV       AL,*+XAR4[0]          ; [CPU_ALU] |744| 
    2293 000003e1 FF5E          NOT       AL                    ; [CPU_ALU] |744| 
    2294 000003e2 C000!         AND       @_OSRdyGrp,AL         ; [CPU_ALU] |744| 
    2295 000003e3       $C$L68:    
    2296                      .dwpsn  file "C:/ti/Workspace/PLC_certificate/Software/uCOS-II/Source/os_mutex.c",line 746,column 5,i
    2297 000003e3 021C          MOVB      ACC,#28               ; [CPU_ALU] |746| 
    2298 000003e4 0742          ADDL      ACC,*-SP[2]           ; [CPU_ALU] |746| 
    2299 000003e5 1EA7          MOVL      XAR7,ACC              ; [CPU_ALU] |746| 
    2300 000003e6 9243          MOV       AL,*-SP[3]            ; [CPU_ALU] |746| 
    2301 000003e7 96C7          MOV       *+XAR7[0],AL          ; [CPU_ALU] |746| 
    2302                      .dwpsn  file "C:/ti/Workspace/PLC_certificate/Software/uCOS-II/Source/os_mutex.c",line 747,column 5,i
    2303 000003e8 761F!         MOVW      DP,#_OSPrioCur        ; [CPU_ARAU] 
         000003e9 0000 
    2304 000003ea 9243          MOV       AL,*-SP[3]            ; [CPU_ALU] |747| 
    2305 000003eb 9600!         MOV       @_OSPrioCur,AL        ; [CPU_ALU] |747| 
    2306                      .dwpsn  file "C:/ti/Workspace/PLC_certificate/Software/uCOS-II/Source/os_mutex.c",line 749,column 5,i
    2307 000003ec 021E          MOVB      ACC,#30               ; [CPU_ALU] |749| 
    2308 000003ed 0742          ADDL      ACC,*-SP[2]           ; [CPU_ALU] |749| 
    2309 000003ee 8AA9          MOVL      XAR4,ACC              ; [CPU_ALU] |749| 
    2310 000003ef CC43          AND       AL,*-SP[3],#0x0038    ; [CPU_ALU] |749| 
         000003f0 0038 
    2311 000003f1 FFC2          LSR       AL,3                  ; [CPU_ALU] |749| 
    2312 000003f2 96C4          MOV       *+XAR4[0],AL          ; [CPU_ALU] |749| 
    2313                      .dwpsn  file "C:/ti/Workspace/PLC_certificate/Software/uCOS-II/Source/os_mutex.c",line 750,column 5,i
    2314 000003f3 021D          MOVB      ACC,#29               ; [CPU_ALU] |750| 
    2315 000003f4 0742          ADDL      ACC,*-SP[2]           ; [CPU_ALU] |750| 
    2316 000003f5 8AA9          MOVL      XAR4,ACC              ; [CPU_ALU] |750| 
    2317 000003f6 9243          MOV       AL,*-SP[3]            ; [CPU_ALU] |750| 
    2318 000003f7 9007          ANDB      AL,#0x07              ; [CPU_ALU] |750| 
    2319 000003f8 96C4          MOV       *+XAR4[0],AL          ; [CPU_ALU] |750| 
    2320                      .dwpsn  file "C:/ti/Workspace/PLC_certificate/Software/uCOS-II/Source/os_mutex.c",line 755,column 5,i
    2321 000003f9 021E          MOVB      ACC,#30               ; [CPU_ALU] |755| 
    2322 000003fa 0742          ADDL      ACC,*-SP[2]           ; [CPU_ALU] |755| 
    2323 000003fb 8AA9          MOVL      XAR4,ACC              ; [CPU_ALU] |755| 
    2324 000003fc 0201          MOVB      ACC,#1                ; [CPU_ALU] |755| 
    2325 000003fd 2DC4          MOV       T,*+XAR4[0]           ; [CPU_ALU] |755| 
    2326 000003fe 563B          LSLL      ACC,T                 ; [CPU_ALU] |755| 
    2327 000003ff 1EA6          MOVL      XAR6,ACC              ; [CPU_ALU] |755| 
    2328 00000400 0220          MOVB      ACC,#32               ; [CPU_ALU] |755| 
    2329 00000401 0742          ADDL      ACC,*-SP[2]           ; [CPU_ALU] |755| 
    2330 00000402 8AA9          MOVL      XAR4,ACC              ; [CPU_ALU] |755| 
    2331 00000403 7EC4          MOV       *+XAR4[0],AR6         ; [CPU_ALU] |755| 
    2332                      .dwpsn  file "C:/ti/Workspace/PLC_certificate/Software/uCOS-II/Source/os_mutex.c",line 756,column 5,i
    2333 00000404 021D          MOVB      ACC,#29               ; [CPU_ALU] |756| 
    2334 00000405 0742          ADDL      ACC,*-SP[2]           ; [CPU_ALU] |756| 
    2335 00000406 8AA9          MOVL      XAR4,ACC              ; [CPU_ALU] |756| 
    2336 00000407 0201          MOVB      ACC,#1                ; [CPU_ALU] |756| 
    2337 00000408 2DC4          MOV       T,*+XAR4[0]           ; [CPU_ALU] |756| 
    2338 00000409 563B          LSLL      ACC,T                 ; [CPU_ALU] |756| 
TMS320C2000 Assembler PC v20.2.1 Tue Feb 16 00:15:59 2021

Copyright (c) 1996-2018 Texas Instruments Incorporated
os_mutex.asm                                                         PAGE   46

    2339 0000040a 1EA6          MOVL      XAR6,ACC              ; [CPU_ALU] |756| 
    2340 0000040b 021F          MOVB      ACC,#31               ; [CPU_ALU] |756| 
    2341 0000040c 0742          ADDL      ACC,*-SP[2]           ; [CPU_ALU] |756| 
    2342 0000040d 8AA9          MOVL      XAR4,ACC              ; [CPU_ALU] |756| 
    2343 0000040e 7EC4          MOV       *+XAR4[0],AR6         ; [CPU_ALU] |756| 
    2344                      .dwpsn  file "C:/ti/Workspace/PLC_certificate/Software/uCOS-II/Source/os_mutex.c",line 757,column 5,i
    2345 0000040f 0220          MOVB      ACC,#32               ; [CPU_ALU] |757| 
    2346 00000410 0742          ADDL      ACC,*-SP[2]           ; [CPU_ALU] |757| 
    2347 00000411 8AA9          MOVL      XAR4,ACC              ; [CPU_ALU] |757| 
    2348 00000412 761F!         MOVW      DP,#_OSRdyGrp         ; [CPU_ARAU] 
         00000413 0000 
    2349 00000414 92C4          MOV       AL,*+XAR4[0]          ; [CPU_ALU] |757| 
    2350 00000415 9800!         OR        @_OSRdyGrp,AL         ; [CPU_ALU] |757| 
    2351                      .dwpsn  file "C:/ti/Workspace/PLC_certificate/Software/uCOS-II/Source/os_mutex.c",line 758,column 5,i
    2352 00000416 021E          MOVB      ACC,#30               ; [CPU_ALU] |758| 
    2353 00000417 0742          ADDL      ACC,*-SP[2]           ; [CPU_ALU] |758| 
    2354 00000418 1EA6          MOVL      XAR6,ACC              ; [CPU_ALU] |758| 
    2355 00000419 8F00!         MOVL      XAR4,#_OSRdyTbl       ; [CPU_ARAU] |758| 
         0000041a 0000 
    2356 0000041b A8A9          MOVL      ACC,XAR4              ; [CPU_ALU] |758| 
    2357 0000041c 0DC6          ADDU      ACC,*+XAR6[0]         ; [CPU_ALU] |758| 
    2358 0000041d 83A9          MOVL      XAR5,ACC              ; [CPU_ALU] |758| 
    2359 0000041e 021F          MOVB      ACC,#31               ; [CPU_ALU] |758| 
    2360 0000041f 0742          ADDL      ACC,*-SP[2]           ; [CPU_ALU] |758| 
    2361 00000420 8AA9          MOVL      XAR4,ACC              ; [CPU_ALU] |758| 
    2362 00000421 92C4          MOV       AL,*+XAR4[0]          ; [CPU_ALU] |758| 
    2363 00000422 98C5          OR        *+XAR5[0],AL          ; [CPU_ALU] |758| 
    2364                      .dwpsn  file "C:/ti/Workspace/PLC_certificate/Software/uCOS-II/Source/os_mutex.c",line 759,column 5,i
    2365 00000423 2901          CLRC      SXM                   ; [CPU_ALU] 
    2366 00000424 8F00!         MOVL      XAR4,#_OSTCBPrioTbl   ; [CPU_ARAU] |759| 
         00000425 0000 
    2367 00000426 5603          MOV       ACC,*-SP[3] << 1      ; [CPU_ALU] |759| 
         00000427 0143 
    2368 00000428 5601          ADDL      XAR4,ACC              ; [CPU_ALU] |759| 
         00000429 00A4 
    2369 0000042a 0642          MOVL      ACC,*-SP[2]           ; [CPU_ALU] |759| 
    2370 0000042b 1EC4          MOVL      *+XAR4[0],ACC         ; [CPU_ALU] |759| 
    2371                      .dwpsn  file "C:/ti/Workspace/PLC_certificate/Software/uCOS-II/Source/os_mutex.c",line 760,column 1,i
    2372 0000042c FE84          SUBB      SP,#4                 ; [CPU_ARAU] 
    2373                      .dwcfi  cfa_offset, -2
    2374              $C$DW$130       .dwtag  DW_TAG_TI_branch
    2375                      .dwattr $C$DW$130, DW_AT_low_pc(0x00)
    2376                      .dwattr $C$DW$130, DW_AT_TI_return
    2377              
    2378 0000042d 0006          LRETR     ; [CPU_ALU] 
    2379                      ; return occurs ; [] 
    2380                      .dwattr $C$DW$124, DW_AT_TI_end_file("C:/ti/Workspace/PLC_certificate/Software/uCOS-II/Source/os_mute
    2381                      .dwattr $C$DW$124, DW_AT_TI_end_line(0x2f8)
    2382                      .dwattr $C$DW$124, DW_AT_TI_end_column(0x01)
    2383                      .dwendentry
    2384                      .dwendtag $C$DW$124
    2385              
    2386              ;***************************************************************
    2387              ;* FAR STRINGS                                                 *
    2388              ;***************************************************************
TMS320C2000 Assembler PC v20.2.1 Tue Feb 16 00:15:59 2021

Copyright (c) 1996-2018 Texas Instruments Incorporated
os_mutex.asm                                                         PAGE   47

    2389 00000000               .sect   ".econst:.string"
    2390                      .align  2
    2391 00000000 003F  $C$FSL1:        .string "?",0
         00000001 0000 
    2392              ;**************************************************************
    2393              ;* UNDEFINED EXTERNAL REFERENCES                              *
    2394              ;**************************************************************
    2395                      .global _OS_CPU_SR_Restore
    2396                      .global _OS_EventWaitListInit
    2397                      .global _OS_Sched
    2398                      .global _OS_EventTaskWait
    2399                      .global _OS_EventTaskRemove
    2400                      .global _OSIntNesting
    2401                      .global _OSLockNesting
    2402                      .global _OSPrioCur
    2403                      .global _OSRdyGrp
    2404                      .global _OS_CPU_SR_Save
    2405                      .global _OS_EventTaskRdy
    2406                      .global _OSEventFreeList
    2407                      .global _OSTCBCur
    2408                      .global _OSRdyTbl
    2409                      .global _OSTCBPrioTbl
    2410              
    2411              ;***************************************************************
    2412              ;* TYPE INFORMATION                                            *
    2413              ;***************************************************************
    2414              $C$DW$T$2       .dwtag  DW_TAG_unspecified_type
    2415                      .dwattr $C$DW$T$2, DW_AT_name("void")
    2416              
    2417              $C$DW$T$3       .dwtag  DW_TAG_pointer_type
    2418                      .dwattr $C$DW$T$3, DW_AT_type(*$C$DW$T$2)
    2419                      .dwattr $C$DW$T$3, DW_AT_address_class(0x20)
    2420              
    2421              $C$DW$T$4       .dwtag  DW_TAG_base_type
    2422                      .dwattr $C$DW$T$4, DW_AT_encoding(DW_ATE_boolean)
    2423                      .dwattr $C$DW$T$4, DW_AT_name("bool")
    2424                      .dwattr $C$DW$T$4, DW_AT_byte_size(0x01)
    2425              
    2426              $C$DW$T$5       .dwtag  DW_TAG_base_type
    2427                      .dwattr $C$DW$T$5, DW_AT_encoding(DW_ATE_signed_char)
    2428                      .dwattr $C$DW$T$5, DW_AT_name("signed char")
    2429                      .dwattr $C$DW$T$5, DW_AT_byte_size(0x01)
    2430              
    2431              $C$DW$T$6       .dwtag  DW_TAG_base_type
    2432                      .dwattr $C$DW$T$6, DW_AT_encoding(DW_ATE_unsigned_char)
    2433                      .dwattr $C$DW$T$6, DW_AT_name("unsigned char")
    2434                      .dwattr $C$DW$T$6, DW_AT_byte_size(0x01)
    2435              
    2436              $C$DW$T$27      .dwtag  DW_TAG_typedef
    2437                      .dwattr $C$DW$T$27, DW_AT_name("BOOLEAN")
    2438                      .dwattr $C$DW$T$27, DW_AT_type(*$C$DW$T$6)
    2439                      .dwattr $C$DW$T$27, DW_AT_language(DW_LANG_C)
    2440              
    2441              $C$DW$T$19      .dwtag  DW_TAG_typedef
    2442                      .dwattr $C$DW$T$19, DW_AT_name("INT8U")
TMS320C2000 Assembler PC v20.2.1 Tue Feb 16 00:15:59 2021

Copyright (c) 1996-2018 Texas Instruments Incorporated
os_mutex.asm                                                         PAGE   48

    2443                      .dwattr $C$DW$T$19, DW_AT_type(*$C$DW$T$6)
    2444                      .dwattr $C$DW$T$19, DW_AT_language(DW_LANG_C)
    2445              
    2446              $C$DW$T$21      .dwtag  DW_TAG_typedef
    2447                      .dwattr $C$DW$T$21, DW_AT_name("OS_PRIO")
    2448                      .dwattr $C$DW$T$21, DW_AT_type(*$C$DW$T$19)
    2449                      .dwattr $C$DW$T$21, DW_AT_language(DW_LANG_C)
    2450              
    2451              
    2452              $C$DW$T$22      .dwtag  DW_TAG_array_type
    2453                      .dwattr $C$DW$T$22, DW_AT_type(*$C$DW$T$21)
    2454                      .dwattr $C$DW$T$22, DW_AT_language(DW_LANG_C)
    2455                      .dwattr $C$DW$T$22, DW_AT_byte_size(0x08)
    2456              $C$DW$131       .dwtag  DW_TAG_subrange_type
    2457                      .dwattr $C$DW$131, DW_AT_upper_bound(0x07)
    2458              
    2459                      .dwendtag $C$DW$T$22
    2460              
    2461              $C$DW$T$55      .dwtag  DW_TAG_pointer_type
    2462                      .dwattr $C$DW$T$55, DW_AT_type(*$C$DW$T$21)
    2463                      .dwattr $C$DW$T$55, DW_AT_address_class(0x20)
    2464              
    2465              $C$DW$T$23      .dwtag  DW_TAG_pointer_type
    2466                      .dwattr $C$DW$T$23, DW_AT_type(*$C$DW$T$19)
    2467                      .dwattr $C$DW$T$23, DW_AT_address_class(0x20)
    2468              
    2469              $C$DW$T$7       .dwtag  DW_TAG_base_type
    2470                      .dwattr $C$DW$T$7, DW_AT_encoding(DW_ATE_signed_char)
    2471                      .dwattr $C$DW$T$7, DW_AT_name("wchar_t")
    2472                      .dwattr $C$DW$T$7, DW_AT_byte_size(0x01)
    2473              
    2474              $C$DW$T$8       .dwtag  DW_TAG_base_type
    2475                      .dwattr $C$DW$T$8, DW_AT_encoding(DW_ATE_signed)
    2476                      .dwattr $C$DW$T$8, DW_AT_name("short")
    2477                      .dwattr $C$DW$T$8, DW_AT_byte_size(0x01)
    2478              
    2479              $C$DW$T$9       .dwtag  DW_TAG_base_type
    2480                      .dwattr $C$DW$T$9, DW_AT_encoding(DW_ATE_unsigned)
    2481                      .dwattr $C$DW$T$9, DW_AT_name("unsigned short")
    2482                      .dwattr $C$DW$T$9, DW_AT_byte_size(0x01)
    2483              
    2484              $C$DW$T$20      .dwtag  DW_TAG_typedef
    2485                      .dwattr $C$DW$T$20, DW_AT_name("INT16U")
    2486                      .dwattr $C$DW$T$20, DW_AT_type(*$C$DW$T$9)
    2487                      .dwattr $C$DW$T$20, DW_AT_language(DW_LANG_C)
    2488              
    2489              $C$DW$T$25      .dwtag  DW_TAG_typedef
    2490                      .dwattr $C$DW$T$25, DW_AT_name("OS_FLAGS")
    2491                      .dwattr $C$DW$T$25, DW_AT_type(*$C$DW$T$20)
    2492                      .dwattr $C$DW$T$25, DW_AT_language(DW_LANG_C)
    2493              
    2494              $C$DW$T$40      .dwtag  DW_TAG_typedef
    2495                      .dwattr $C$DW$T$40, DW_AT_name("OS_CPU_SR")
    2496                      .dwattr $C$DW$T$40, DW_AT_type(*$C$DW$T$9)
    2497                      .dwattr $C$DW$T$40, DW_AT_language(DW_LANG_C)
TMS320C2000 Assembler PC v20.2.1 Tue Feb 16 00:15:59 2021

Copyright (c) 1996-2018 Texas Instruments Incorporated
os_mutex.asm                                                         PAGE   49

    2498              
    2499              $C$DW$T$29      .dwtag  DW_TAG_typedef
    2500                      .dwattr $C$DW$T$29, DW_AT_name("OS_STK")
    2501                      .dwattr $C$DW$T$29, DW_AT_type(*$C$DW$T$9)
    2502                      .dwattr $C$DW$T$29, DW_AT_language(DW_LANG_C)
    2503              
    2504              $C$DW$T$30      .dwtag  DW_TAG_pointer_type
    2505                      .dwattr $C$DW$T$30, DW_AT_type(*$C$DW$T$29)
    2506                      .dwattr $C$DW$T$30, DW_AT_address_class(0x20)
    2507              
    2508              $C$DW$T$10      .dwtag  DW_TAG_base_type
    2509                      .dwattr $C$DW$T$10, DW_AT_encoding(DW_ATE_signed)
    2510                      .dwattr $C$DW$T$10, DW_AT_name("int")
    2511                      .dwattr $C$DW$T$10, DW_AT_byte_size(0x01)
    2512              
    2513              $C$DW$T$11      .dwtag  DW_TAG_base_type
    2514                      .dwattr $C$DW$T$11, DW_AT_encoding(DW_ATE_unsigned)
    2515                      .dwattr $C$DW$T$11, DW_AT_name("unsigned int")
    2516                      .dwattr $C$DW$T$11, DW_AT_byte_size(0x01)
    2517              
    2518              $C$DW$T$12      .dwtag  DW_TAG_base_type
    2519                      .dwattr $C$DW$T$12, DW_AT_encoding(DW_ATE_signed)
    2520                      .dwattr $C$DW$T$12, DW_AT_name("long")
    2521                      .dwattr $C$DW$T$12, DW_AT_byte_size(0x02)
    2522              
    2523              $C$DW$T$13      .dwtag  DW_TAG_base_type
    2524                      .dwattr $C$DW$T$13, DW_AT_encoding(DW_ATE_unsigned)
    2525                      .dwattr $C$DW$T$13, DW_AT_name("unsigned long")
    2526                      .dwattr $C$DW$T$13, DW_AT_byte_size(0x02)
    2527              
    2528              $C$DW$T$31      .dwtag  DW_TAG_typedef
    2529                      .dwattr $C$DW$T$31, DW_AT_name("INT32U")
    2530                      .dwattr $C$DW$T$31, DW_AT_type(*$C$DW$T$13)
    2531                      .dwattr $C$DW$T$31, DW_AT_language(DW_LANG_C)
    2532              
    2533              
    2534              $C$DW$T$38      .dwtag  DW_TAG_array_type
    2535                      .dwattr $C$DW$T$38, DW_AT_type(*$C$DW$T$31)
    2536                      .dwattr $C$DW$T$38, DW_AT_language(DW_LANG_C)
    2537                      .dwattr $C$DW$T$38, DW_AT_byte_size(0x02)
    2538              $C$DW$132       .dwtag  DW_TAG_subrange_type
    2539                      .dwattr $C$DW$132, DW_AT_upper_bound(0x00)
    2540              
    2541                      .dwendtag $C$DW$T$38
    2542              
    2543              $C$DW$T$14      .dwtag  DW_TAG_base_type
    2544                      .dwattr $C$DW$T$14, DW_AT_encoding(DW_ATE_signed)
    2545                      .dwattr $C$DW$T$14, DW_AT_name("long long")
    2546                      .dwattr $C$DW$T$14, DW_AT_byte_size(0x04)
    2547              
    2548              $C$DW$T$15      .dwtag  DW_TAG_base_type
    2549                      .dwattr $C$DW$T$15, DW_AT_encoding(DW_ATE_unsigned)
    2550                      .dwattr $C$DW$T$15, DW_AT_name("unsigned long long")
    2551                      .dwattr $C$DW$T$15, DW_AT_byte_size(0x04)
    2552              
TMS320C2000 Assembler PC v20.2.1 Tue Feb 16 00:15:59 2021

Copyright (c) 1996-2018 Texas Instruments Incorporated
os_mutex.asm                                                         PAGE   50

    2553              $C$DW$T$16      .dwtag  DW_TAG_base_type
    2554                      .dwattr $C$DW$T$16, DW_AT_encoding(DW_ATE_float)
    2555                      .dwattr $C$DW$T$16, DW_AT_name("float")
    2556                      .dwattr $C$DW$T$16, DW_AT_byte_size(0x02)
    2557              
    2558              $C$DW$T$17      .dwtag  DW_TAG_base_type
    2559                      .dwattr $C$DW$T$17, DW_AT_encoding(DW_ATE_float)
    2560                      .dwattr $C$DW$T$17, DW_AT_name("double")
    2561                      .dwattr $C$DW$T$17, DW_AT_byte_size(0x02)
    2562              
    2563              $C$DW$T$18      .dwtag  DW_TAG_base_type
    2564                      .dwattr $C$DW$T$18, DW_AT_encoding(DW_ATE_float)
    2565                      .dwattr $C$DW$T$18, DW_AT_name("long double")
    2566                      .dwattr $C$DW$T$18, DW_AT_byte_size(0x04)
    2567              
    2568              
    2569              $C$DW$T$24      .dwtag  DW_TAG_structure_type
    2570                      .dwattr $C$DW$T$24, DW_AT_name("os_event")
    2571                      .dwattr $C$DW$T$24, DW_AT_byte_size(0x10)
    2572              $C$DW$133       .dwtag  DW_TAG_member
    2573                      .dwattr $C$DW$133, DW_AT_type(*$C$DW$T$19)
    2574                      .dwattr $C$DW$133, DW_AT_name("OSEventType")
    2575                      .dwattr $C$DW$133, DW_AT_TI_symbol_name("_OSEventType")
    2576                      .dwattr $C$DW$133, DW_AT_data_member_location[DW_OP_plus_uconst 0x0]
    2577                      .dwattr $C$DW$133, DW_AT_accessibility(DW_ACCESS_public)
    2578              
    2579              $C$DW$134       .dwtag  DW_TAG_member
    2580                      .dwattr $C$DW$134, DW_AT_type(*$C$DW$T$3)
    2581                      .dwattr $C$DW$134, DW_AT_name("OSEventPtr")
    2582                      .dwattr $C$DW$134, DW_AT_TI_symbol_name("_OSEventPtr")
    2583                      .dwattr $C$DW$134, DW_AT_data_member_location[DW_OP_plus_uconst 0x2]
    2584                      .dwattr $C$DW$134, DW_AT_accessibility(DW_ACCESS_public)
    2585              
    2586              $C$DW$135       .dwtag  DW_TAG_member
    2587                      .dwattr $C$DW$135, DW_AT_type(*$C$DW$T$20)
    2588                      .dwattr $C$DW$135, DW_AT_name("OSEventCnt")
    2589                      .dwattr $C$DW$135, DW_AT_TI_symbol_name("_OSEventCnt")
    2590                      .dwattr $C$DW$135, DW_AT_data_member_location[DW_OP_plus_uconst 0x4]
    2591                      .dwattr $C$DW$135, DW_AT_accessibility(DW_ACCESS_public)
    2592              
    2593              $C$DW$136       .dwtag  DW_TAG_member
    2594                      .dwattr $C$DW$136, DW_AT_type(*$C$DW$T$21)
    2595                      .dwattr $C$DW$136, DW_AT_name("OSEventGrp")
    2596                      .dwattr $C$DW$136, DW_AT_TI_symbol_name("_OSEventGrp")
    2597                      .dwattr $C$DW$136, DW_AT_data_member_location[DW_OP_plus_uconst 0x5]
    2598                      .dwattr $C$DW$136, DW_AT_accessibility(DW_ACCESS_public)
    2599              
    2600              $C$DW$137       .dwtag  DW_TAG_member
    2601                      .dwattr $C$DW$137, DW_AT_type(*$C$DW$T$22)
    2602                      .dwattr $C$DW$137, DW_AT_name("OSEventTbl")
    2603                      .dwattr $C$DW$137, DW_AT_TI_symbol_name("_OSEventTbl")
    2604                      .dwattr $C$DW$137, DW_AT_data_member_location[DW_OP_plus_uconst 0x6]
    2605                      .dwattr $C$DW$137, DW_AT_accessibility(DW_ACCESS_public)
    2606              
    2607              $C$DW$138       .dwtag  DW_TAG_member
TMS320C2000 Assembler PC v20.2.1 Tue Feb 16 00:15:59 2021

Copyright (c) 1996-2018 Texas Instruments Incorporated
os_mutex.asm                                                         PAGE   51

    2608                      .dwattr $C$DW$138, DW_AT_type(*$C$DW$T$23)
    2609                      .dwattr $C$DW$138, DW_AT_name("OSEventName")
    2610                      .dwattr $C$DW$138, DW_AT_TI_symbol_name("_OSEventName")
    2611                      .dwattr $C$DW$138, DW_AT_data_member_location[DW_OP_plus_uconst 0xe]
    2612                      .dwattr $C$DW$138, DW_AT_accessibility(DW_ACCESS_public)
    2613              
    2614                      .dwendtag $C$DW$T$24
    2615              
    2616              $C$DW$T$33      .dwtag  DW_TAG_typedef
    2617                      .dwattr $C$DW$T$33, DW_AT_name("OS_EVENT")
    2618                      .dwattr $C$DW$T$33, DW_AT_type(*$C$DW$T$24)
    2619                      .dwattr $C$DW$T$33, DW_AT_language(DW_LANG_C)
    2620              
    2621              $C$DW$T$34      .dwtag  DW_TAG_pointer_type
    2622                      .dwattr $C$DW$T$34, DW_AT_type(*$C$DW$T$33)
    2623                      .dwattr $C$DW$T$34, DW_AT_address_class(0x20)
    2624              
    2625              $C$DW$T$35      .dwtag  DW_TAG_pointer_type
    2626                      .dwattr $C$DW$T$35, DW_AT_type(*$C$DW$T$34)
    2627                      .dwattr $C$DW$T$35, DW_AT_address_class(0x20)
    2628              
    2629              
    2630              $C$DW$T$26      .dwtag  DW_TAG_structure_type
    2631                      .dwattr $C$DW$T$26, DW_AT_name("os_flag_node")
    2632                      .dwattr $C$DW$T$26, DW_AT_byte_size(0x0a)
    2633              $C$DW$139       .dwtag  DW_TAG_member
    2634                      .dwattr $C$DW$139, DW_AT_type(*$C$DW$T$3)
    2635                      .dwattr $C$DW$139, DW_AT_name("OSFlagNodeNext")
    2636                      .dwattr $C$DW$139, DW_AT_TI_symbol_name("_OSFlagNodeNext")
    2637                      .dwattr $C$DW$139, DW_AT_data_member_location[DW_OP_plus_uconst 0x0]
    2638                      .dwattr $C$DW$139, DW_AT_accessibility(DW_ACCESS_public)
    2639              
    2640              $C$DW$140       .dwtag  DW_TAG_member
    2641                      .dwattr $C$DW$140, DW_AT_type(*$C$DW$T$3)
    2642                      .dwattr $C$DW$140, DW_AT_name("OSFlagNodePrev")
    2643                      .dwattr $C$DW$140, DW_AT_TI_symbol_name("_OSFlagNodePrev")
    2644                      .dwattr $C$DW$140, DW_AT_data_member_location[DW_OP_plus_uconst 0x2]
    2645                      .dwattr $C$DW$140, DW_AT_accessibility(DW_ACCESS_public)
    2646              
    2647              $C$DW$141       .dwtag  DW_TAG_member
    2648                      .dwattr $C$DW$141, DW_AT_type(*$C$DW$T$3)
    2649                      .dwattr $C$DW$141, DW_AT_name("OSFlagNodeTCB")
    2650                      .dwattr $C$DW$141, DW_AT_TI_symbol_name("_OSFlagNodeTCB")
    2651                      .dwattr $C$DW$141, DW_AT_data_member_location[DW_OP_plus_uconst 0x4]
    2652                      .dwattr $C$DW$141, DW_AT_accessibility(DW_ACCESS_public)
    2653              
    2654              $C$DW$142       .dwtag  DW_TAG_member
    2655                      .dwattr $C$DW$142, DW_AT_type(*$C$DW$T$3)
    2656                      .dwattr $C$DW$142, DW_AT_name("OSFlagNodeFlagGrp")
    2657                      .dwattr $C$DW$142, DW_AT_TI_symbol_name("_OSFlagNodeFlagGrp")
    2658                      .dwattr $C$DW$142, DW_AT_data_member_location[DW_OP_plus_uconst 0x6]
    2659                      .dwattr $C$DW$142, DW_AT_accessibility(DW_ACCESS_public)
    2660              
    2661              $C$DW$143       .dwtag  DW_TAG_member
    2662                      .dwattr $C$DW$143, DW_AT_type(*$C$DW$T$25)
TMS320C2000 Assembler PC v20.2.1 Tue Feb 16 00:15:59 2021

Copyright (c) 1996-2018 Texas Instruments Incorporated
os_mutex.asm                                                         PAGE   52

    2663                      .dwattr $C$DW$143, DW_AT_name("OSFlagNodeFlags")
    2664                      .dwattr $C$DW$143, DW_AT_TI_symbol_name("_OSFlagNodeFlags")
    2665                      .dwattr $C$DW$143, DW_AT_data_member_location[DW_OP_plus_uconst 0x8]
    2666                      .dwattr $C$DW$143, DW_AT_accessibility(DW_ACCESS_public)
    2667              
    2668              $C$DW$144       .dwtag  DW_TAG_member
    2669                      .dwattr $C$DW$144, DW_AT_type(*$C$DW$T$19)
    2670                      .dwattr $C$DW$144, DW_AT_name("OSFlagNodeWaitType")
    2671                      .dwattr $C$DW$144, DW_AT_TI_symbol_name("_OSFlagNodeWaitType")
    2672                      .dwattr $C$DW$144, DW_AT_data_member_location[DW_OP_plus_uconst 0x9]
    2673                      .dwattr $C$DW$144, DW_AT_accessibility(DW_ACCESS_public)
    2674              
    2675                      .dwendtag $C$DW$T$26
    2676              
    2677              $C$DW$T$36      .dwtag  DW_TAG_typedef
    2678                      .dwattr $C$DW$T$36, DW_AT_name("OS_FLAG_NODE")
    2679                      .dwattr $C$DW$T$36, DW_AT_type(*$C$DW$T$26)
    2680                      .dwattr $C$DW$T$36, DW_AT_language(DW_LANG_C)
    2681              
    2682              $C$DW$T$37      .dwtag  DW_TAG_pointer_type
    2683                      .dwattr $C$DW$T$37, DW_AT_type(*$C$DW$T$36)
    2684                      .dwattr $C$DW$T$37, DW_AT_address_class(0x20)
    2685              
    2686              
    2687              $C$DW$T$28      .dwtag  DW_TAG_structure_type
    2688                      .dwattr $C$DW$T$28, DW_AT_name("os_mutex_data")
    2689                      .dwattr $C$DW$T$28, DW_AT_byte_size(0x0c)
    2690              $C$DW$145       .dwtag  DW_TAG_member
    2691                      .dwattr $C$DW$145, DW_AT_type(*$C$DW$T$22)
    2692                      .dwattr $C$DW$145, DW_AT_name("OSEventTbl")
    2693                      .dwattr $C$DW$145, DW_AT_TI_symbol_name("_OSEventTbl")
    2694                      .dwattr $C$DW$145, DW_AT_data_member_location[DW_OP_plus_uconst 0x0]
    2695                      .dwattr $C$DW$145, DW_AT_accessibility(DW_ACCESS_public)
    2696              
    2697              $C$DW$146       .dwtag  DW_TAG_member
    2698                      .dwattr $C$DW$146, DW_AT_type(*$C$DW$T$21)
    2699                      .dwattr $C$DW$146, DW_AT_name("OSEventGrp")
    2700                      .dwattr $C$DW$146, DW_AT_TI_symbol_name("_OSEventGrp")
    2701                      .dwattr $C$DW$146, DW_AT_data_member_location[DW_OP_plus_uconst 0x8]
    2702                      .dwattr $C$DW$146, DW_AT_accessibility(DW_ACCESS_public)
    2703              
    2704              $C$DW$147       .dwtag  DW_TAG_member
    2705                      .dwattr $C$DW$147, DW_AT_type(*$C$DW$T$27)
    2706                      .dwattr $C$DW$147, DW_AT_name("OSValue")
    2707                      .dwattr $C$DW$147, DW_AT_TI_symbol_name("_OSValue")
    2708                      .dwattr $C$DW$147, DW_AT_data_member_location[DW_OP_plus_uconst 0x9]
    2709                      .dwattr $C$DW$147, DW_AT_accessibility(DW_ACCESS_public)
    2710              
    2711              $C$DW$148       .dwtag  DW_TAG_member
    2712                      .dwattr $C$DW$148, DW_AT_type(*$C$DW$T$19)
    2713                      .dwattr $C$DW$148, DW_AT_name("OSOwnerPrio")
    2714                      .dwattr $C$DW$148, DW_AT_TI_symbol_name("_OSOwnerPrio")
    2715                      .dwattr $C$DW$148, DW_AT_data_member_location[DW_OP_plus_uconst 0xa]
    2716                      .dwattr $C$DW$148, DW_AT_accessibility(DW_ACCESS_public)
    2717              
TMS320C2000 Assembler PC v20.2.1 Tue Feb 16 00:15:59 2021

Copyright (c) 1996-2018 Texas Instruments Incorporated
os_mutex.asm                                                         PAGE   53

    2718              $C$DW$149       .dwtag  DW_TAG_member
    2719                      .dwattr $C$DW$149, DW_AT_type(*$C$DW$T$19)
    2720                      .dwattr $C$DW$149, DW_AT_name("OSMutexPCP")
    2721                      .dwattr $C$DW$149, DW_AT_TI_symbol_name("_OSMutexPCP")
    2722                      .dwattr $C$DW$149, DW_AT_data_member_location[DW_OP_plus_uconst 0xb]
    2723                      .dwattr $C$DW$149, DW_AT_accessibility(DW_ACCESS_public)
    2724              
    2725                      .dwendtag $C$DW$T$28
    2726              
    2727              $C$DW$T$59      .dwtag  DW_TAG_typedef
    2728                      .dwattr $C$DW$T$59, DW_AT_name("OS_MUTEX_DATA")
    2729                      .dwattr $C$DW$T$59, DW_AT_type(*$C$DW$T$28)
    2730                      .dwattr $C$DW$T$59, DW_AT_language(DW_LANG_C)
    2731              
    2732              $C$DW$T$60      .dwtag  DW_TAG_pointer_type
    2733                      .dwattr $C$DW$T$60, DW_AT_type(*$C$DW$T$59)
    2734                      .dwattr $C$DW$T$60, DW_AT_address_class(0x20)
    2735              
    2736              
    2737              $C$DW$T$39      .dwtag  DW_TAG_structure_type
    2738                      .dwattr $C$DW$T$39, DW_AT_name("os_tcb")
    2739                      .dwattr $C$DW$T$39, DW_AT_byte_size(0x30)
    2740              $C$DW$150       .dwtag  DW_TAG_member
    2741                      .dwattr $C$DW$150, DW_AT_type(*$C$DW$T$30)
    2742                      .dwattr $C$DW$150, DW_AT_name("OSTCBStkPtr")
    2743                      .dwattr $C$DW$150, DW_AT_TI_symbol_name("_OSTCBStkPtr")
    2744                      .dwattr $C$DW$150, DW_AT_data_member_location[DW_OP_plus_uconst 0x0]
    2745                      .dwattr $C$DW$150, DW_AT_accessibility(DW_ACCESS_public)
    2746              
    2747              $C$DW$151       .dwtag  DW_TAG_member
    2748                      .dwattr $C$DW$151, DW_AT_type(*$C$DW$T$3)
    2749                      .dwattr $C$DW$151, DW_AT_name("OSTCBExtPtr")
    2750                      .dwattr $C$DW$151, DW_AT_TI_symbol_name("_OSTCBExtPtr")
    2751                      .dwattr $C$DW$151, DW_AT_data_member_location[DW_OP_plus_uconst 0x2]
    2752                      .dwattr $C$DW$151, DW_AT_accessibility(DW_ACCESS_public)
    2753              
    2754              $C$DW$152       .dwtag  DW_TAG_member
    2755                      .dwattr $C$DW$152, DW_AT_type(*$C$DW$T$30)
    2756                      .dwattr $C$DW$152, DW_AT_name("OSTCBStkBottom")
    2757                      .dwattr $C$DW$152, DW_AT_TI_symbol_name("_OSTCBStkBottom")
    2758                      .dwattr $C$DW$152, DW_AT_data_member_location[DW_OP_plus_uconst 0x4]
    2759                      .dwattr $C$DW$152, DW_AT_accessibility(DW_ACCESS_public)
    2760              
    2761              $C$DW$153       .dwtag  DW_TAG_member
    2762                      .dwattr $C$DW$153, DW_AT_type(*$C$DW$T$31)
    2763                      .dwattr $C$DW$153, DW_AT_name("OSTCBStkSize")
    2764                      .dwattr $C$DW$153, DW_AT_TI_symbol_name("_OSTCBStkSize")
    2765                      .dwattr $C$DW$153, DW_AT_data_member_location[DW_OP_plus_uconst 0x6]
    2766                      .dwattr $C$DW$153, DW_AT_accessibility(DW_ACCESS_public)
    2767              
    2768              $C$DW$154       .dwtag  DW_TAG_member
    2769                      .dwattr $C$DW$154, DW_AT_type(*$C$DW$T$20)
    2770                      .dwattr $C$DW$154, DW_AT_name("OSTCBOpt")
    2771                      .dwattr $C$DW$154, DW_AT_TI_symbol_name("_OSTCBOpt")
    2772                      .dwattr $C$DW$154, DW_AT_data_member_location[DW_OP_plus_uconst 0x8]
TMS320C2000 Assembler PC v20.2.1 Tue Feb 16 00:15:59 2021

Copyright (c) 1996-2018 Texas Instruments Incorporated
os_mutex.asm                                                         PAGE   54

    2773                      .dwattr $C$DW$154, DW_AT_accessibility(DW_ACCESS_public)
    2774              
    2775              $C$DW$155       .dwtag  DW_TAG_member
    2776                      .dwattr $C$DW$155, DW_AT_type(*$C$DW$T$20)
    2777                      .dwattr $C$DW$155, DW_AT_name("OSTCBId")
    2778                      .dwattr $C$DW$155, DW_AT_TI_symbol_name("_OSTCBId")
    2779                      .dwattr $C$DW$155, DW_AT_data_member_location[DW_OP_plus_uconst 0x9]
    2780                      .dwattr $C$DW$155, DW_AT_accessibility(DW_ACCESS_public)
    2781              
    2782              $C$DW$156       .dwtag  DW_TAG_member
    2783                      .dwattr $C$DW$156, DW_AT_type(*$C$DW$T$32)
    2784                      .dwattr $C$DW$156, DW_AT_name("OSTCBNext")
    2785                      .dwattr $C$DW$156, DW_AT_TI_symbol_name("_OSTCBNext")
    2786                      .dwattr $C$DW$156, DW_AT_data_member_location[DW_OP_plus_uconst 0xa]
    2787                      .dwattr $C$DW$156, DW_AT_accessibility(DW_ACCESS_public)
    2788              
    2789              $C$DW$157       .dwtag  DW_TAG_member
    2790                      .dwattr $C$DW$157, DW_AT_type(*$C$DW$T$32)
    2791                      .dwattr $C$DW$157, DW_AT_name("OSTCBPrev")
    2792                      .dwattr $C$DW$157, DW_AT_TI_symbol_name("_OSTCBPrev")
    2793                      .dwattr $C$DW$157, DW_AT_data_member_location[DW_OP_plus_uconst 0xc]
    2794                      .dwattr $C$DW$157, DW_AT_accessibility(DW_ACCESS_public)
    2795              
    2796              $C$DW$158       .dwtag  DW_TAG_member
    2797                      .dwattr $C$DW$158, DW_AT_type(*$C$DW$T$34)
    2798                      .dwattr $C$DW$158, DW_AT_name("OSTCBEventPtr")
    2799                      .dwattr $C$DW$158, DW_AT_TI_symbol_name("_OSTCBEventPtr")
    2800                      .dwattr $C$DW$158, DW_AT_data_member_location[DW_OP_plus_uconst 0xe]
    2801                      .dwattr $C$DW$158, DW_AT_accessibility(DW_ACCESS_public)
    2802              
    2803              $C$DW$159       .dwtag  DW_TAG_member
    2804                      .dwattr $C$DW$159, DW_AT_type(*$C$DW$T$35)
    2805                      .dwattr $C$DW$159, DW_AT_name("OSTCBEventMultiPtr")
    2806                      .dwattr $C$DW$159, DW_AT_TI_symbol_name("_OSTCBEventMultiPtr")
    2807                      .dwattr $C$DW$159, DW_AT_data_member_location[DW_OP_plus_uconst 0x10]
    2808                      .dwattr $C$DW$159, DW_AT_accessibility(DW_ACCESS_public)
    2809              
    2810              $C$DW$160       .dwtag  DW_TAG_member
    2811                      .dwattr $C$DW$160, DW_AT_type(*$C$DW$T$3)
    2812                      .dwattr $C$DW$160, DW_AT_name("OSTCBMsg")
    2813                      .dwattr $C$DW$160, DW_AT_TI_symbol_name("_OSTCBMsg")
    2814                      .dwattr $C$DW$160, DW_AT_data_member_location[DW_OP_plus_uconst 0x12]
    2815                      .dwattr $C$DW$160, DW_AT_accessibility(DW_ACCESS_public)
    2816              
    2817              $C$DW$161       .dwtag  DW_TAG_member
    2818                      .dwattr $C$DW$161, DW_AT_type(*$C$DW$T$37)
    2819                      .dwattr $C$DW$161, DW_AT_name("OSTCBFlagNode")
    2820                      .dwattr $C$DW$161, DW_AT_TI_symbol_name("_OSTCBFlagNode")
    2821                      .dwattr $C$DW$161, DW_AT_data_member_location[DW_OP_plus_uconst 0x14]
    2822                      .dwattr $C$DW$161, DW_AT_accessibility(DW_ACCESS_public)
    2823              
    2824              $C$DW$162       .dwtag  DW_TAG_member
    2825                      .dwattr $C$DW$162, DW_AT_type(*$C$DW$T$25)
    2826                      .dwattr $C$DW$162, DW_AT_name("OSTCBFlagsRdy")
    2827                      .dwattr $C$DW$162, DW_AT_TI_symbol_name("_OSTCBFlagsRdy")
TMS320C2000 Assembler PC v20.2.1 Tue Feb 16 00:15:59 2021

Copyright (c) 1996-2018 Texas Instruments Incorporated
os_mutex.asm                                                         PAGE   55

    2828                      .dwattr $C$DW$162, DW_AT_data_member_location[DW_OP_plus_uconst 0x16]
    2829                      .dwattr $C$DW$162, DW_AT_accessibility(DW_ACCESS_public)
    2830              
    2831              $C$DW$163       .dwtag  DW_TAG_member
    2832                      .dwattr $C$DW$163, DW_AT_type(*$C$DW$T$31)
    2833                      .dwattr $C$DW$163, DW_AT_name("OSTCBDly")
    2834                      .dwattr $C$DW$163, DW_AT_TI_symbol_name("_OSTCBDly")
    2835                      .dwattr $C$DW$163, DW_AT_data_member_location[DW_OP_plus_uconst 0x18]
    2836                      .dwattr $C$DW$163, DW_AT_accessibility(DW_ACCESS_public)
    2837              
    2838              $C$DW$164       .dwtag  DW_TAG_member
    2839                      .dwattr $C$DW$164, DW_AT_type(*$C$DW$T$19)
    2840                      .dwattr $C$DW$164, DW_AT_name("OSTCBStat")
    2841                      .dwattr $C$DW$164, DW_AT_TI_symbol_name("_OSTCBStat")
    2842                      .dwattr $C$DW$164, DW_AT_data_member_location[DW_OP_plus_uconst 0x1a]
    2843                      .dwattr $C$DW$164, DW_AT_accessibility(DW_ACCESS_public)
    2844              
    2845              $C$DW$165       .dwtag  DW_TAG_member
    2846                      .dwattr $C$DW$165, DW_AT_type(*$C$DW$T$19)
    2847                      .dwattr $C$DW$165, DW_AT_name("OSTCBStatPend")
    2848                      .dwattr $C$DW$165, DW_AT_TI_symbol_name("_OSTCBStatPend")
    2849                      .dwattr $C$DW$165, DW_AT_data_member_location[DW_OP_plus_uconst 0x1b]
    2850                      .dwattr $C$DW$165, DW_AT_accessibility(DW_ACCESS_public)
    2851              
    2852              $C$DW$166       .dwtag  DW_TAG_member
    2853                      .dwattr $C$DW$166, DW_AT_type(*$C$DW$T$19)
    2854                      .dwattr $C$DW$166, DW_AT_name("OSTCBPrio")
    2855                      .dwattr $C$DW$166, DW_AT_TI_symbol_name("_OSTCBPrio")
    2856                      .dwattr $C$DW$166, DW_AT_data_member_location[DW_OP_plus_uconst 0x1c]
    2857                      .dwattr $C$DW$166, DW_AT_accessibility(DW_ACCESS_public)
    2858              
    2859              $C$DW$167       .dwtag  DW_TAG_member
    2860                      .dwattr $C$DW$167, DW_AT_type(*$C$DW$T$19)
    2861                      .dwattr $C$DW$167, DW_AT_name("OSTCBX")
    2862                      .dwattr $C$DW$167, DW_AT_TI_symbol_name("_OSTCBX")
    2863                      .dwattr $C$DW$167, DW_AT_data_member_location[DW_OP_plus_uconst 0x1d]
    2864                      .dwattr $C$DW$167, DW_AT_accessibility(DW_ACCESS_public)
    2865              
    2866              $C$DW$168       .dwtag  DW_TAG_member
    2867                      .dwattr $C$DW$168, DW_AT_type(*$C$DW$T$19)
    2868                      .dwattr $C$DW$168, DW_AT_name("OSTCBY")
    2869                      .dwattr $C$DW$168, DW_AT_TI_symbol_name("_OSTCBY")
    2870                      .dwattr $C$DW$168, DW_AT_data_member_location[DW_OP_plus_uconst 0x1e]
    2871                      .dwattr $C$DW$168, DW_AT_accessibility(DW_ACCESS_public)
    2872              
    2873              $C$DW$169       .dwtag  DW_TAG_member
    2874                      .dwattr $C$DW$169, DW_AT_type(*$C$DW$T$21)
    2875                      .dwattr $C$DW$169, DW_AT_name("OSTCBBitX")
    2876                      .dwattr $C$DW$169, DW_AT_TI_symbol_name("_OSTCBBitX")
    2877                      .dwattr $C$DW$169, DW_AT_data_member_location[DW_OP_plus_uconst 0x1f]
    2878                      .dwattr $C$DW$169, DW_AT_accessibility(DW_ACCESS_public)
    2879              
    2880              $C$DW$170       .dwtag  DW_TAG_member
    2881                      .dwattr $C$DW$170, DW_AT_type(*$C$DW$T$21)
    2882                      .dwattr $C$DW$170, DW_AT_name("OSTCBBitY")
TMS320C2000 Assembler PC v20.2.1 Tue Feb 16 00:15:59 2021

Copyright (c) 1996-2018 Texas Instruments Incorporated
os_mutex.asm                                                         PAGE   56

    2883                      .dwattr $C$DW$170, DW_AT_TI_symbol_name("_OSTCBBitY")
    2884                      .dwattr $C$DW$170, DW_AT_data_member_location[DW_OP_plus_uconst 0x20]
    2885                      .dwattr $C$DW$170, DW_AT_accessibility(DW_ACCESS_public)
    2886              
    2887              $C$DW$171       .dwtag  DW_TAG_member
    2888                      .dwattr $C$DW$171, DW_AT_type(*$C$DW$T$19)
    2889                      .dwattr $C$DW$171, DW_AT_name("OSTCBDelReq")
    2890                      .dwattr $C$DW$171, DW_AT_TI_symbol_name("_OSTCBDelReq")
    2891                      .dwattr $C$DW$171, DW_AT_data_member_location[DW_OP_plus_uconst 0x21]
    2892                      .dwattr $C$DW$171, DW_AT_accessibility(DW_ACCESS_public)
    2893              
    2894              $C$DW$172       .dwtag  DW_TAG_member
    2895                      .dwattr $C$DW$172, DW_AT_type(*$C$DW$T$31)
    2896                      .dwattr $C$DW$172, DW_AT_name("OSTCBCtxSwCtr")
    2897                      .dwattr $C$DW$172, DW_AT_TI_symbol_name("_OSTCBCtxSwCtr")
    2898                      .dwattr $C$DW$172, DW_AT_data_member_location[DW_OP_plus_uconst 0x22]
    2899                      .dwattr $C$DW$172, DW_AT_accessibility(DW_ACCESS_public)
    2900              
    2901              $C$DW$173       .dwtag  DW_TAG_member
    2902                      .dwattr $C$DW$173, DW_AT_type(*$C$DW$T$31)
    2903                      .dwattr $C$DW$173, DW_AT_name("OSTCBCyclesTot")
    2904                      .dwattr $C$DW$173, DW_AT_TI_symbol_name("_OSTCBCyclesTot")
    2905                      .dwattr $C$DW$173, DW_AT_data_member_location[DW_OP_plus_uconst 0x24]
    2906                      .dwattr $C$DW$173, DW_AT_accessibility(DW_ACCESS_public)
    2907              
    2908              $C$DW$174       .dwtag  DW_TAG_member
    2909                      .dwattr $C$DW$174, DW_AT_type(*$C$DW$T$31)
    2910                      .dwattr $C$DW$174, DW_AT_name("OSTCBCyclesStart")
    2911                      .dwattr $C$DW$174, DW_AT_TI_symbol_name("_OSTCBCyclesStart")
    2912                      .dwattr $C$DW$174, DW_AT_data_member_location[DW_OP_plus_uconst 0x26]
    2913                      .dwattr $C$DW$174, DW_AT_accessibility(DW_ACCESS_public)
    2914              
    2915              $C$DW$175       .dwtag  DW_TAG_member
    2916                      .dwattr $C$DW$175, DW_AT_type(*$C$DW$T$30)
    2917                      .dwattr $C$DW$175, DW_AT_name("OSTCBStkBase")
    2918                      .dwattr $C$DW$175, DW_AT_TI_symbol_name("_OSTCBStkBase")
    2919                      .dwattr $C$DW$175, DW_AT_data_member_location[DW_OP_plus_uconst 0x28]
    2920                      .dwattr $C$DW$175, DW_AT_accessibility(DW_ACCESS_public)
    2921              
    2922              $C$DW$176       .dwtag  DW_TAG_member
    2923                      .dwattr $C$DW$176, DW_AT_type(*$C$DW$T$31)
    2924                      .dwattr $C$DW$176, DW_AT_name("OSTCBStkUsed")
    2925                      .dwattr $C$DW$176, DW_AT_TI_symbol_name("_OSTCBStkUsed")
    2926                      .dwattr $C$DW$176, DW_AT_data_member_location[DW_OP_plus_uconst 0x2a]
    2927                      .dwattr $C$DW$176, DW_AT_accessibility(DW_ACCESS_public)
    2928              
    2929              $C$DW$177       .dwtag  DW_TAG_member
    2930                      .dwattr $C$DW$177, DW_AT_type(*$C$DW$T$23)
    2931                      .dwattr $C$DW$177, DW_AT_name("OSTCBTaskName")
    2932                      .dwattr $C$DW$177, DW_AT_TI_symbol_name("_OSTCBTaskName")
    2933                      .dwattr $C$DW$177, DW_AT_data_member_location[DW_OP_plus_uconst 0x2c]
    2934                      .dwattr $C$DW$177, DW_AT_accessibility(DW_ACCESS_public)
    2935              
    2936              $C$DW$178       .dwtag  DW_TAG_member
    2937                      .dwattr $C$DW$178, DW_AT_type(*$C$DW$T$38)
TMS320C2000 Assembler PC v20.2.1 Tue Feb 16 00:15:59 2021

Copyright (c) 1996-2018 Texas Instruments Incorporated
os_mutex.asm                                                         PAGE   57

    2938                      .dwattr $C$DW$178, DW_AT_name("OSTCBRegTbl")
    2939                      .dwattr $C$DW$178, DW_AT_TI_symbol_name("_OSTCBRegTbl")
    2940                      .dwattr $C$DW$178, DW_AT_data_member_location[DW_OP_plus_uconst 0x2e]
    2941                      .dwattr $C$DW$178, DW_AT_accessibility(DW_ACCESS_public)
    2942              
    2943                      .dwendtag $C$DW$T$39
    2944              
    2945              $C$DW$T$45      .dwtag  DW_TAG_typedef
    2946                      .dwattr $C$DW$T$45, DW_AT_name("OS_TCB")
    2947                      .dwattr $C$DW$T$45, DW_AT_type(*$C$DW$T$39)
    2948                      .dwattr $C$DW$T$45, DW_AT_language(DW_LANG_C)
    2949              
    2950              $C$DW$T$46      .dwtag  DW_TAG_pointer_type
    2951                      .dwattr $C$DW$T$46, DW_AT_type(*$C$DW$T$45)
    2952                      .dwattr $C$DW$T$46, DW_AT_address_class(0x20)
    2953              
    2954              
    2955              $C$DW$T$68      .dwtag  DW_TAG_array_type
    2956                      .dwattr $C$DW$T$68, DW_AT_type(*$C$DW$T$46)
    2957                      .dwattr $C$DW$T$68, DW_AT_language(DW_LANG_C)
    2958                      .dwattr $C$DW$T$68, DW_AT_byte_size(0x80)
    2959              $C$DW$179       .dwtag  DW_TAG_subrange_type
    2960                      .dwattr $C$DW$179, DW_AT_upper_bound(0x3f)
    2961              
    2962                      .dwendtag $C$DW$T$68
    2963              
    2964              $C$DW$T$32      .dwtag  DW_TAG_pointer_type
    2965                      .dwattr $C$DW$T$32, DW_AT_type(*$C$DW$T$39)
    2966                      .dwattr $C$DW$T$32, DW_AT_address_class(0x20)
    2967              
    2968                      .dwattr $C$DW$CU, DW_AT_language(DW_LANG_C)
    2969              
    2970              ;***************************************************************
    2971              ;* DWARF CIE ENTRIES                                           *
    2972              ;***************************************************************
    2973              
    2974              $C$DW$CIE       .dwcie 26
    2975                      .dwcfi  cfa_register, 20
    2976                      .dwcfi  cfa_offset, 0
    2977                      .dwcfi  same_value, 28
    2978                      .dwcfi  same_value, 6
    2979                      .dwcfi  same_value, 7
    2980                      .dwcfi  same_value, 8
    2981                      .dwcfi  same_value, 9
    2982                      .dwcfi  same_value, 10
    2983                      .dwcfi  same_value, 11
    2984                      .dwendentry
    2985              
    2986              ;***************************************************************
    2987              ;* DWARF REGISTER MAP                                          *
    2988              ;***************************************************************
    2989              
    2990              $C$DW$180       .dwtag  DW_TAG_TI_assign_register
    2991                      .dwattr $C$DW$180, DW_AT_name("AL")
    2992                      .dwattr $C$DW$180, DW_AT_location[DW_OP_reg0]
TMS320C2000 Assembler PC v20.2.1 Tue Feb 16 00:15:59 2021

Copyright (c) 1996-2018 Texas Instruments Incorporated
os_mutex.asm                                                         PAGE   58

    2993              
    2994              $C$DW$181       .dwtag  DW_TAG_TI_assign_register
    2995                      .dwattr $C$DW$181, DW_AT_name("AH")
    2996                      .dwattr $C$DW$181, DW_AT_location[DW_OP_reg1]
    2997              
    2998              $C$DW$182       .dwtag  DW_TAG_TI_assign_register
    2999                      .dwattr $C$DW$182, DW_AT_name("PL")
    3000                      .dwattr $C$DW$182, DW_AT_location[DW_OP_reg2]
    3001              
    3002              $C$DW$183       .dwtag  DW_TAG_TI_assign_register
    3003                      .dwattr $C$DW$183, DW_AT_name("PH")
    3004                      .dwattr $C$DW$183, DW_AT_location[DW_OP_reg3]
    3005              
    3006              $C$DW$184       .dwtag  DW_TAG_TI_assign_register
    3007                      .dwattr $C$DW$184, DW_AT_name("SP")
    3008                      .dwattr $C$DW$184, DW_AT_location[DW_OP_reg20]
    3009              
    3010              $C$DW$185       .dwtag  DW_TAG_TI_assign_register
    3011                      .dwattr $C$DW$185, DW_AT_name("XT")
    3012                      .dwattr $C$DW$185, DW_AT_location[DW_OP_reg21]
    3013              
    3014              $C$DW$186       .dwtag  DW_TAG_TI_assign_register
    3015                      .dwattr $C$DW$186, DW_AT_name("T")
    3016                      .dwattr $C$DW$186, DW_AT_location[DW_OP_reg22]
    3017              
    3018              $C$DW$187       .dwtag  DW_TAG_TI_assign_register
    3019                      .dwattr $C$DW$187, DW_AT_name("ST0")
    3020                      .dwattr $C$DW$187, DW_AT_location[DW_OP_reg23]
    3021              
    3022              $C$DW$188       .dwtag  DW_TAG_TI_assign_register
    3023                      .dwattr $C$DW$188, DW_AT_name("ST1")
    3024                      .dwattr $C$DW$188, DW_AT_location[DW_OP_reg24]
    3025              
    3026              $C$DW$189       .dwtag  DW_TAG_TI_assign_register
    3027                      .dwattr $C$DW$189, DW_AT_name("PC")
    3028                      .dwattr $C$DW$189, DW_AT_location[DW_OP_reg25]
    3029              
    3030              $C$DW$190       .dwtag  DW_TAG_TI_assign_register
    3031                      .dwattr $C$DW$190, DW_AT_name("RPC")
    3032                      .dwattr $C$DW$190, DW_AT_location[DW_OP_reg26]
    3033              
    3034              $C$DW$191       .dwtag  DW_TAG_TI_assign_register
    3035                      .dwattr $C$DW$191, DW_AT_name("FP")
    3036                      .dwattr $C$DW$191, DW_AT_location[DW_OP_reg28]
    3037              
    3038              $C$DW$192       .dwtag  DW_TAG_TI_assign_register
    3039                      .dwattr $C$DW$192, DW_AT_name("DP")
    3040                      .dwattr $C$DW$192, DW_AT_location[DW_OP_reg29]
    3041              
    3042              $C$DW$193       .dwtag  DW_TAG_TI_assign_register
    3043                      .dwattr $C$DW$193, DW_AT_name("SXM")
    3044                      .dwattr $C$DW$193, DW_AT_location[DW_OP_reg30]
    3045              
    3046              $C$DW$194       .dwtag  DW_TAG_TI_assign_register
    3047                      .dwattr $C$DW$194, DW_AT_name("PM")
TMS320C2000 Assembler PC v20.2.1 Tue Feb 16 00:15:59 2021

Copyright (c) 1996-2018 Texas Instruments Incorporated
os_mutex.asm                                                         PAGE   59

    3048                      .dwattr $C$DW$194, DW_AT_location[DW_OP_reg31]
    3049              
    3050              $C$DW$195       .dwtag  DW_TAG_TI_assign_register
    3051                      .dwattr $C$DW$195, DW_AT_name("OVM")
    3052                      .dwattr $C$DW$195, DW_AT_location[DW_OP_regx 0x20]
    3053              
    3054              $C$DW$196       .dwtag  DW_TAG_TI_assign_register
    3055                      .dwattr $C$DW$196, DW_AT_name("PAGE0")
    3056                      .dwattr $C$DW$196, DW_AT_location[DW_OP_regx 0x21]
    3057              
    3058              $C$DW$197       .dwtag  DW_TAG_TI_assign_register
    3059                      .dwattr $C$DW$197, DW_AT_name("AMODE")
    3060                      .dwattr $C$DW$197, DW_AT_location[DW_OP_regx 0x22]
    3061              
    3062              $C$DW$198       .dwtag  DW_TAG_TI_assign_register
    3063                      .dwattr $C$DW$198, DW_AT_name("EALLOW")
    3064                      .dwattr $C$DW$198, DW_AT_location[DW_OP_regx 0x4e]
    3065              
    3066              $C$DW$199       .dwtag  DW_TAG_TI_assign_register
    3067                      .dwattr $C$DW$199, DW_AT_name("INTM")
    3068                      .dwattr $C$DW$199, DW_AT_location[DW_OP_regx 0x23]
    3069              
    3070              $C$DW$200       .dwtag  DW_TAG_TI_assign_register
    3071                      .dwattr $C$DW$200, DW_AT_name("IFR")
    3072                      .dwattr $C$DW$200, DW_AT_location[DW_OP_regx 0x24]
    3073              
    3074              $C$DW$201       .dwtag  DW_TAG_TI_assign_register
    3075                      .dwattr $C$DW$201, DW_AT_name("IER")
    3076                      .dwattr $C$DW$201, DW_AT_location[DW_OP_regx 0x25]
    3077              
    3078              $C$DW$202       .dwtag  DW_TAG_TI_assign_register
    3079                      .dwattr $C$DW$202, DW_AT_name("V")
    3080                      .dwattr $C$DW$202, DW_AT_location[DW_OP_regx 0x26]
    3081              
    3082              $C$DW$203       .dwtag  DW_TAG_TI_assign_register
    3083                      .dwattr $C$DW$203, DW_AT_name("PSEUDOH")
    3084                      .dwattr $C$DW$203, DW_AT_location[DW_OP_regx 0x4c]
    3085              
    3086              $C$DW$204       .dwtag  DW_TAG_TI_assign_register
    3087                      .dwattr $C$DW$204, DW_AT_name("VOL")
    3088                      .dwattr $C$DW$204, DW_AT_location[DW_OP_regx 0x4d]
    3089              
    3090              $C$DW$205       .dwtag  DW_TAG_TI_assign_register
    3091                      .dwattr $C$DW$205, DW_AT_name("AR0")
    3092                      .dwattr $C$DW$205, DW_AT_location[DW_OP_reg4]
    3093              
    3094              $C$DW$206       .dwtag  DW_TAG_TI_assign_register
    3095                      .dwattr $C$DW$206, DW_AT_name("XAR0")
    3096                      .dwattr $C$DW$206, DW_AT_location[DW_OP_reg5]
    3097              
    3098              $C$DW$207       .dwtag  DW_TAG_TI_assign_register
    3099                      .dwattr $C$DW$207, DW_AT_name("AR1")
    3100                      .dwattr $C$DW$207, DW_AT_location[DW_OP_reg6]
    3101              
    3102              $C$DW$208       .dwtag  DW_TAG_TI_assign_register
TMS320C2000 Assembler PC v20.2.1 Tue Feb 16 00:15:59 2021

Copyright (c) 1996-2018 Texas Instruments Incorporated
os_mutex.asm                                                         PAGE   60

    3103                      .dwattr $C$DW$208, DW_AT_name("XAR1")
    3104                      .dwattr $C$DW$208, DW_AT_location[DW_OP_reg7]
    3105              
    3106              $C$DW$209       .dwtag  DW_TAG_TI_assign_register
    3107                      .dwattr $C$DW$209, DW_AT_name("AR2")
    3108                      .dwattr $C$DW$209, DW_AT_location[DW_OP_reg8]
    3109              
    3110              $C$DW$210       .dwtag  DW_TAG_TI_assign_register
    3111                      .dwattr $C$DW$210, DW_AT_name("XAR2")
    3112                      .dwattr $C$DW$210, DW_AT_location[DW_OP_reg9]
    3113              
    3114              $C$DW$211       .dwtag  DW_TAG_TI_assign_register
    3115                      .dwattr $C$DW$211, DW_AT_name("AR3")
    3116                      .dwattr $C$DW$211, DW_AT_location[DW_OP_reg10]
    3117              
    3118              $C$DW$212       .dwtag  DW_TAG_TI_assign_register
    3119                      .dwattr $C$DW$212, DW_AT_name("XAR3")
    3120                      .dwattr $C$DW$212, DW_AT_location[DW_OP_reg11]
    3121              
    3122              $C$DW$213       .dwtag  DW_TAG_TI_assign_register
    3123                      .dwattr $C$DW$213, DW_AT_name("AR4")
    3124                      .dwattr $C$DW$213, DW_AT_location[DW_OP_reg12]
    3125              
    3126              $C$DW$214       .dwtag  DW_TAG_TI_assign_register
    3127                      .dwattr $C$DW$214, DW_AT_name("XAR4")
    3128                      .dwattr $C$DW$214, DW_AT_location[DW_OP_reg13]
    3129              
    3130              $C$DW$215       .dwtag  DW_TAG_TI_assign_register
    3131                      .dwattr $C$DW$215, DW_AT_name("AR5")
    3132                      .dwattr $C$DW$215, DW_AT_location[DW_OP_reg14]
    3133              
    3134              $C$DW$216       .dwtag  DW_TAG_TI_assign_register
    3135                      .dwattr $C$DW$216, DW_AT_name("XAR5")
    3136                      .dwattr $C$DW$216, DW_AT_location[DW_OP_reg15]
    3137              
    3138              $C$DW$217       .dwtag  DW_TAG_TI_assign_register
    3139                      .dwattr $C$DW$217, DW_AT_name("AR6")
