TMS320C2000 Assembler PC v20.2.1 Tue Feb 16 00:15:58 2021

Copyright (c) 1996-2018 Texas Instruments Incorporated
os_mbox.asm                                                          PAGE    1

       1              ;***************************************************************
       2              ;* TMS320C2000 G3 C/C++ Codegen                               PC v20.2.1.LTS *
       3              ;* Date/Time created: Tue Feb 16 00:15:58 2021                 *
       4              ;***************************************************************
       5                      .compiler_opts --abi=coffabi --diag_wrap=off --float_support=softlib --hll_source=on --mem_model:code
       6                      .asg    XAR2, FP
       7              
       8              $C$DW$CU        .dwtag  DW_TAG_compile_unit
       9                      .dwattr $C$DW$CU, DW_AT_name("C:/ti/Workspace/PLC_certificate/Software/uCOS-II/Source/os_mbox.c")
      10                      .dwattr $C$DW$CU, DW_AT_producer("TI TMS320C2000 G3 C/C++ Codegen PC v20.2.1.LTS Copyright (c) 1996-2
      11                      .dwattr $C$DW$CU, DW_AT_TI_version(0x01)
      12                      .dwattr $C$DW$CU, DW_AT_comp_dir("C:\ti\Workspace\PLC_certificate\Examples\TI\TMDSDOCK28335\OS2\CCS\D
      13              
      14              $C$DW$1 .dwtag  DW_TAG_subprogram
      15                      .dwattr $C$DW$1, DW_AT_name("OS_CPU_SR_Restore")
      16                      .dwattr $C$DW$1, DW_AT_TI_symbol_name("_OS_CPU_SR_Restore")
      17                      .dwattr $C$DW$1, DW_AT_declaration
      18                      .dwattr $C$DW$1, DW_AT_external
      19              $C$DW$2 .dwtag  DW_TAG_formal_parameter
      20                      .dwattr $C$DW$2, DW_AT_type(*$C$DW$T$41)
      21              
      22                      .dwendtag $C$DW$1
      23              
      24              
      25              $C$DW$3 .dwtag  DW_TAG_subprogram
      26                      .dwattr $C$DW$3, DW_AT_name("OS_EventWaitListInit")
      27                      .dwattr $C$DW$3, DW_AT_TI_symbol_name("_OS_EventWaitListInit")
      28                      .dwattr $C$DW$3, DW_AT_declaration
      29                      .dwattr $C$DW$3, DW_AT_external
      30              $C$DW$4 .dwtag  DW_TAG_formal_parameter
      31                      .dwattr $C$DW$4, DW_AT_type(*$C$DW$T$33)
      32              
      33                      .dwendtag $C$DW$3
      34              
      35              
      36              $C$DW$5 .dwtag  DW_TAG_subprogram
      37                      .dwattr $C$DW$5, DW_AT_name("OS_Sched")
      38                      .dwattr $C$DW$5, DW_AT_TI_symbol_name("_OS_Sched")
      39                      .dwattr $C$DW$5, DW_AT_declaration
      40                      .dwattr $C$DW$5, DW_AT_external
      41                      .dwendtag $C$DW$5
      42              
      43              
      44              $C$DW$6 .dwtag  DW_TAG_subprogram
      45                      .dwattr $C$DW$6, DW_AT_name("OS_EventTaskWait")
      46                      .dwattr $C$DW$6, DW_AT_TI_symbol_name("_OS_EventTaskWait")
      47                      .dwattr $C$DW$6, DW_AT_declaration
      48                      .dwattr $C$DW$6, DW_AT_external
      49              $C$DW$7 .dwtag  DW_TAG_formal_parameter
      50                      .dwattr $C$DW$7, DW_AT_type(*$C$DW$T$33)
      51              
      52                      .dwendtag $C$DW$6
      53              
      54              
      55              $C$DW$8 .dwtag  DW_TAG_subprogram
TMS320C2000 Assembler PC v20.2.1 Tue Feb 16 00:15:58 2021

Copyright (c) 1996-2018 Texas Instruments Incorporated
os_mbox.asm                                                          PAGE    2

      56                      .dwattr $C$DW$8, DW_AT_name("OS_EventTaskRemove")
      57                      .dwattr $C$DW$8, DW_AT_TI_symbol_name("_OS_EventTaskRemove")
      58                      .dwattr $C$DW$8, DW_AT_declaration
      59                      .dwattr $C$DW$8, DW_AT_external
      60              $C$DW$9 .dwtag  DW_TAG_formal_parameter
      61                      .dwattr $C$DW$9, DW_AT_type(*$C$DW$T$47)
      62              
      63              $C$DW$10        .dwtag  DW_TAG_formal_parameter
      64                      .dwattr $C$DW$10, DW_AT_type(*$C$DW$T$33)
      65              
      66                      .dwendtag $C$DW$8
      67              
      68              $C$DW$11        .dwtag  DW_TAG_variable
      69                      .dwattr $C$DW$11, DW_AT_name("OSIntNesting")
      70                      .dwattr $C$DW$11, DW_AT_TI_symbol_name("_OSIntNesting")
      71                      .dwattr $C$DW$11, DW_AT_type(*$C$DW$T$19)
      72                      .dwattr $C$DW$11, DW_AT_declaration
      73                      .dwattr $C$DW$11, DW_AT_external
      74              
      75              $C$DW$12        .dwtag  DW_TAG_variable
      76                      .dwattr $C$DW$12, DW_AT_name("OSLockNesting")
      77                      .dwattr $C$DW$12, DW_AT_TI_symbol_name("_OSLockNesting")
      78                      .dwattr $C$DW$12, DW_AT_type(*$C$DW$T$19)
      79                      .dwattr $C$DW$12, DW_AT_declaration
      80                      .dwattr $C$DW$12, DW_AT_external
      81              
      82              
      83              $C$DW$13        .dwtag  DW_TAG_subprogram
      84                      .dwattr $C$DW$13, DW_AT_name("OS_CPU_SR_Save")
      85                      .dwattr $C$DW$13, DW_AT_TI_symbol_name("_OS_CPU_SR_Save")
      86                      .dwattr $C$DW$13, DW_AT_type(*$C$DW$T$41)
      87                      .dwattr $C$DW$13, DW_AT_declaration
      88                      .dwattr $C$DW$13, DW_AT_external
      89                      .dwendtag $C$DW$13
      90              
      91              
      92              $C$DW$14        .dwtag  DW_TAG_subprogram
      93                      .dwattr $C$DW$14, DW_AT_name("OS_EventTaskRdy")
      94                      .dwattr $C$DW$14, DW_AT_TI_symbol_name("_OS_EventTaskRdy")
      95                      .dwattr $C$DW$14, DW_AT_type(*$C$DW$T$19)
      96                      .dwattr $C$DW$14, DW_AT_declaration
      97                      .dwattr $C$DW$14, DW_AT_external
      98              $C$DW$15        .dwtag  DW_TAG_formal_parameter
      99                      .dwattr $C$DW$15, DW_AT_type(*$C$DW$T$33)
     100              
     101              $C$DW$16        .dwtag  DW_TAG_formal_parameter
     102                      .dwattr $C$DW$16, DW_AT_type(*$C$DW$T$3)
     103              
     104              $C$DW$17        .dwtag  DW_TAG_formal_parameter
     105                      .dwattr $C$DW$17, DW_AT_type(*$C$DW$T$19)
     106              
     107              $C$DW$18        .dwtag  DW_TAG_formal_parameter
     108                      .dwattr $C$DW$18, DW_AT_type(*$C$DW$T$19)
     109              
     110                      .dwendtag $C$DW$14
TMS320C2000 Assembler PC v20.2.1 Tue Feb 16 00:15:58 2021

Copyright (c) 1996-2018 Texas Instruments Incorporated
os_mbox.asm                                                          PAGE    3

     111              
     112              $C$DW$19        .dwtag  DW_TAG_variable
     113                      .dwattr $C$DW$19, DW_AT_name("OSEventFreeList")
     114                      .dwattr $C$DW$19, DW_AT_TI_symbol_name("_OSEventFreeList")
     115                      .dwattr $C$DW$19, DW_AT_type(*$C$DW$T$33)
     116                      .dwattr $C$DW$19, DW_AT_declaration
     117                      .dwattr $C$DW$19, DW_AT_external
     118              
     119              $C$DW$20        .dwtag  DW_TAG_variable
     120                      .dwattr $C$DW$20, DW_AT_name("OSTCBCur")
     121                      .dwattr $C$DW$20, DW_AT_TI_symbol_name("_OSTCBCur")
     122                      .dwattr $C$DW$20, DW_AT_type(*$C$DW$T$47)
     123                      .dwattr $C$DW$20, DW_AT_declaration
     124                      .dwattr $C$DW$20, DW_AT_external
     125              
     126              ;       C:\ti\ccs1011\ccs\tools\compiler\ti-cgt-c2000_20.2.1.LTS\bin\ac2000.exe -@C:\\Users\\LEEKEO~1\\AppDat
     127 00000000               .sect   ".text"
     128                      .clink
     129                      .global _OSMboxAccept
     130              
     131              $C$DW$21        .dwtag  DW_TAG_subprogram
     132                      .dwattr $C$DW$21, DW_AT_name("OSMboxAccept")
     133                      .dwattr $C$DW$21, DW_AT_low_pc(_OSMboxAccept)
     134                      .dwattr $C$DW$21, DW_AT_high_pc(0x00)
     135                      .dwattr $C$DW$21, DW_AT_TI_symbol_name("_OSMboxAccept")
     136                      .dwattr $C$DW$21, DW_AT_external
     137                      .dwattr $C$DW$21, DW_AT_type(*$C$DW$T$3)
     138                      .dwattr $C$DW$21, DW_AT_TI_begin_file("C:/ti/Workspace/PLC_certificate/Software/uCOS-II/Source/os_mbo
     139                      .dwattr $C$DW$21, DW_AT_TI_begin_line(0x31)
     140                      .dwattr $C$DW$21, DW_AT_TI_begin_column(0x08)
     141                      .dwattr $C$DW$21, DW_AT_TI_max_frame_size(-8)
     142                      .dwpsn  file "C:/ti/Workspace/PLC_certificate/Software/uCOS-II/Source/os_mbox.c",line 50,column 1,is_
     143              
     144                      .dwfde $C$DW$CIE, _OSMboxAccept
     145              $C$DW$22        .dwtag  DW_TAG_formal_parameter
     146                      .dwattr $C$DW$22, DW_AT_name("pevent")
     147                      .dwattr $C$DW$22, DW_AT_TI_symbol_name("_pevent")
     148                      .dwattr $C$DW$22, DW_AT_type(*$C$DW$T$33)
     149                      .dwattr $C$DW$22, DW_AT_location[DW_OP_reg12]
     150              
     151              
     152              ;***************************************************************
     153              ;* FNAME: _OSMboxAccept                 FR SIZE:   6           *
     154              ;*                                                             *
     155              ;* FUNCTION ENVIRONMENT                                        *
     156              ;*                                                             *
     157              ;* FUNCTION PROPERTIES                                         *
     158              ;*                            0 Parameter,  5 Auto,  0 SOE     *
     159              ;***************************************************************
     160              
     161 00000000       _OSMboxAccept:
     162                      .dwcfi  cfa_offset, -2
     163                      .dwcfi  save_reg_to_mem, 26, 0
     164 00000000 FE06          ADDB      SP,#6                 ; [CPU_ARAU] 
     165                      .dwcfi  cfa_offset, -8
TMS320C2000 Assembler PC v20.2.1 Tue Feb 16 00:15:58 2021

Copyright (c) 1996-2018 Texas Instruments Incorporated
os_mbox.asm                                                          PAGE    4

     166              $C$DW$23        .dwtag  DW_TAG_variable
     167                      .dwattr $C$DW$23, DW_AT_name("pevent")
     168                      .dwattr $C$DW$23, DW_AT_TI_symbol_name("_pevent")
     169                      .dwattr $C$DW$23, DW_AT_type(*$C$DW$T$33)
     170                      .dwattr $C$DW$23, DW_AT_location[DW_OP_breg20 -2]
     171              
     172              $C$DW$24        .dwtag  DW_TAG_variable
     173                      .dwattr $C$DW$24, DW_AT_name("pmsg")
     174                      .dwattr $C$DW$24, DW_AT_TI_symbol_name("_pmsg")
     175                      .dwattr $C$DW$24, DW_AT_type(*$C$DW$T$3)
     176                      .dwattr $C$DW$24, DW_AT_location[DW_OP_breg20 -4]
     177              
     178              $C$DW$25        .dwtag  DW_TAG_variable
     179                      .dwattr $C$DW$25, DW_AT_name("cpu_sr")
     180                      .dwattr $C$DW$25, DW_AT_TI_symbol_name("_cpu_sr")
     181                      .dwattr $C$DW$25, DW_AT_type(*$C$DW$T$41)
     182                      .dwattr $C$DW$25, DW_AT_location[DW_OP_breg20 -5]
     183              
     184 00000001 A842          MOVL      *-SP[2],XAR4          ; [CPU_ALU] |50| 
     185                      .dwpsn  file "C:/ti/Workspace/PLC_certificate/Software/uCOS-II/Source/os_mbox.c",line 53,column 23,is
     186 00000002 2B45          MOV       *-SP[5],#0            ; [CPU_ALU] |53| 
     187                      .dwpsn  file "C:/ti/Workspace/PLC_certificate/Software/uCOS-II/Source/os_mbox.c",line 59,column 5,is_
     188 00000003 0642          MOVL      ACC,*-SP[2]           ; [CPU_ALU] |59| 
     189 00000004 6003          B         $C$L1,NEQ             ; [CPU_ALU] |59| 
     190                      ; branchcc occurs ; [] |59| 
     191                      .dwpsn  file "C:/ti/Workspace/PLC_certificate/Software/uCOS-II/Source/os_mbox.c",line 60,column 9,is_
     192 00000005 D400          MOVB      XAR4,#0               ; [CPU_ALU] |60| 
     193 00000006 6F12          B         $C$L3,UNC             ; [CPU_ALU] |60| 
     194                      ; branch occurs ; [] |60| 
     195 00000007       $C$L1:    
     196                      .dwpsn  file "C:/ti/Workspace/PLC_certificate/Software/uCOS-II/Source/os_mbox.c",line 63,column 5,is_
     197 00000007 92C4          MOV       AL,*+XAR4[0]          ; [CPU_ALU] |63| 
     198 00000008 5201          CMPB      AL,#1                 ; [CPU_ALU] |63| 
     199 00000009 6103          B         $C$L2,EQ              ; [CPU_ALU] |63| 
     200                      ; branchcc occurs ; [] |63| 
     201                      .dwpsn  file "C:/ti/Workspace/PLC_certificate/Software/uCOS-II/Source/os_mbox.c",line 64,column 9,is_
     202 0000000a D400          MOVB      XAR4,#0               ; [CPU_ALU] |64| 
     203 0000000b 6F0D          B         $C$L3,UNC             ; [CPU_ALU] |64| 
     204                      ; branch occurs ; [] |64| 
     205 0000000c       $C$L2:    
     206                      .dwpsn  file "C:/ti/Workspace/PLC_certificate/Software/uCOS-II/Source/os_mbox.c",line 66,column 5,is_
     207              $C$DW$26        .dwtag  DW_TAG_TI_branch
     208                      .dwattr $C$DW$26, DW_AT_low_pc(0x00)
     209                      .dwattr $C$DW$26, DW_AT_name("_OS_CPU_SR_Save")
     210                      .dwattr $C$DW$26, DW_AT_TI_call
     211              
     212 0000000c 7640!         LCR       #_OS_CPU_SR_Save      ; [CPU_ALU] |66| 
         0000000d 0000 
     213                      ; call occurs [#_OS_CPU_SR_Save] ; [] |66| 
     214 0000000e 9645          MOV       *-SP[5],AL            ; [CPU_ALU] |66| 
     215                      .dwpsn  file "C:/ti/Workspace/PLC_certificate/Software/uCOS-II/Source/os_mbox.c",line 67,column 5,is_
     216 0000000f 8A42          MOVL      XAR4,*-SP[2]          ; [CPU_ALU] |67| 
     217 00000010 06D4          MOVL      ACC,*+XAR4[2]         ; [CPU_ALU] |67| 
     218 00000011 1E44          MOVL      *-SP[4],ACC           ; [CPU_ALU] |67| 
     219                      .dwpsn  file "C:/ti/Workspace/PLC_certificate/Software/uCOS-II/Source/os_mbox.c",line 68,column 5,is_
TMS320C2000 Assembler PC v20.2.1 Tue Feb 16 00:15:58 2021

Copyright (c) 1996-2018 Texas Instruments Incorporated
os_mbox.asm                                                          PAGE    5

     220 00000012 0200          MOVB      ACC,#0                ; [CPU_ALU] |68| 
     221 00000013 1ED4          MOVL      *+XAR4[2],ACC         ; [CPU_ALU] |68| 
     222                      .dwpsn  file "C:/ti/Workspace/PLC_certificate/Software/uCOS-II/Source/os_mbox.c",line 69,column 5,is_
     223 00000014 9245          MOV       AL,*-SP[5]            ; [CPU_ALU] |69| 
     224              $C$DW$27        .dwtag  DW_TAG_TI_branch
     225                      .dwattr $C$DW$27, DW_AT_low_pc(0x00)
     226                      .dwattr $C$DW$27, DW_AT_name("_OS_CPU_SR_Restore")
     227                      .dwattr $C$DW$27, DW_AT_TI_call
     228              
     229 00000015 7640!         LCR       #_OS_CPU_SR_Restore   ; [CPU_ALU] |69| 
         00000016 0000 
     230                      ; call occurs [#_OS_CPU_SR_Restore] ; [] |69| 
     231                      .dwpsn  file "C:/ti/Workspace/PLC_certificate/Software/uCOS-II/Source/os_mbox.c",line 70,column 5,is_
     232 00000017 8A44          MOVL      XAR4,*-SP[4]          ; [CPU_ALU] |70| 
     233 00000018       $C$L3:    
     234                      .dwpsn  file "C:/ti/Workspace/PLC_certificate/Software/uCOS-II/Source/os_mbox.c",line 71,column 1,is_
     235 00000018 FE86          SUBB      SP,#6                 ; [CPU_ARAU] 
     236                      .dwcfi  cfa_offset, -2
     237              $C$DW$28        .dwtag  DW_TAG_TI_branch
     238                      .dwattr $C$DW$28, DW_AT_low_pc(0x00)
     239                      .dwattr $C$DW$28, DW_AT_TI_return
     240              
     241 00000019 0006          LRETR     ; [CPU_ALU] 
     242                      ; return occurs ; [] 
     243                      .dwattr $C$DW$21, DW_AT_TI_end_file("C:/ti/Workspace/PLC_certificate/Software/uCOS-II/Source/os_mbox.
     244                      .dwattr $C$DW$21, DW_AT_TI_end_line(0x47)
     245                      .dwattr $C$DW$21, DW_AT_TI_end_column(0x01)
     246                      .dwendentry
     247                      .dwendtag $C$DW$21
     248              
     249 0000001a               .sect   ".text"
     250                      .clink
     251                      .global _OSMboxCreate
     252              
     253              $C$DW$29        .dwtag  DW_TAG_subprogram
     254                      .dwattr $C$DW$29, DW_AT_name("OSMboxCreate")
     255                      .dwattr $C$DW$29, DW_AT_low_pc(_OSMboxCreate)
     256                      .dwattr $C$DW$29, DW_AT_high_pc(0x00)
     257                      .dwattr $C$DW$29, DW_AT_TI_symbol_name("_OSMboxCreate")
     258                      .dwattr $C$DW$29, DW_AT_external
     259                      .dwattr $C$DW$29, DW_AT_type(*$C$DW$T$33)
     260                      .dwattr $C$DW$29, DW_AT_TI_begin_file("C:/ti/Workspace/PLC_certificate/Software/uCOS-II/Source/os_mbo
     261                      .dwattr $C$DW$29, DW_AT_TI_begin_line(0x5a)
     262                      .dwattr $C$DW$29, DW_AT_TI_begin_column(0x0c)
     263                      .dwattr $C$DW$29, DW_AT_TI_max_frame_size(-8)
     264                      .dwpsn  file "C:/ti/Workspace/PLC_certificate/Software/uCOS-II/Source/os_mbox.c",line 91,column 1,is_
     265              
     266                      .dwfde $C$DW$CIE, _OSMboxCreate
     267              $C$DW$30        .dwtag  DW_TAG_formal_parameter
     268                      .dwattr $C$DW$30, DW_AT_name("pmsg")
     269                      .dwattr $C$DW$30, DW_AT_TI_symbol_name("_pmsg")
     270                      .dwattr $C$DW$30, DW_AT_type(*$C$DW$T$3)
     271                      .dwattr $C$DW$30, DW_AT_location[DW_OP_reg12]
     272              
     273              
TMS320C2000 Assembler PC v20.2.1 Tue Feb 16 00:15:58 2021

Copyright (c) 1996-2018 Texas Instruments Incorporated
os_mbox.asm                                                          PAGE    6

     274              ;***************************************************************
     275              ;* FNAME: _OSMboxCreate                 FR SIZE:   6           *
     276              ;*                                                             *
     277              ;* FUNCTION ENVIRONMENT                                        *
     278              ;*                                                             *
     279              ;* FUNCTION PROPERTIES                                         *
     280              ;*                            0 Parameter,  5 Auto,  0 SOE     *
     281              ;***************************************************************
     282              
     283 0000001a       _OSMboxCreate:
     284                      .dwcfi  cfa_offset, -2
     285                      .dwcfi  save_reg_to_mem, 26, 0
     286 0000001a FE06          ADDB      SP,#6                 ; [CPU_ARAU] 
     287                      .dwcfi  cfa_offset, -8
     288              $C$DW$31        .dwtag  DW_TAG_variable
     289                      .dwattr $C$DW$31, DW_AT_name("pmsg")
     290                      .dwattr $C$DW$31, DW_AT_TI_symbol_name("_pmsg")
     291                      .dwattr $C$DW$31, DW_AT_type(*$C$DW$T$3)
     292                      .dwattr $C$DW$31, DW_AT_location[DW_OP_breg20 -2]
     293              
     294              $C$DW$32        .dwtag  DW_TAG_variable
     295                      .dwattr $C$DW$32, DW_AT_name("pevent")
     296                      .dwattr $C$DW$32, DW_AT_TI_symbol_name("_pevent")
     297                      .dwattr $C$DW$32, DW_AT_type(*$C$DW$T$33)
     298                      .dwattr $C$DW$32, DW_AT_location[DW_OP_breg20 -4]
     299              
     300              $C$DW$33        .dwtag  DW_TAG_variable
     301                      .dwattr $C$DW$33, DW_AT_name("cpu_sr")
     302                      .dwattr $C$DW$33, DW_AT_TI_symbol_name("_cpu_sr")
     303                      .dwattr $C$DW$33, DW_AT_type(*$C$DW$T$41)
     304                      .dwattr $C$DW$33, DW_AT_location[DW_OP_breg20 -5]
     305              
     306 0000001b A842          MOVL      *-SP[2],XAR4          ; [CPU_ALU] |91| 
     307                      .dwpsn  file "C:/ti/Workspace/PLC_certificate/Software/uCOS-II/Source/os_mbox.c",line 94,column 23,is
     308 0000001c 2B45          MOV       *-SP[5],#0            ; [CPU_ALU] |94| 
     309                      .dwpsn  file "C:/ti/Workspace/PLC_certificate/Software/uCOS-II/Source/os_mbox.c",line 106,column 5,is
     310 0000001d 761F!         MOVW      DP,#_OSIntNesting     ; [CPU_ARAU] 
         0000001e 0000 
     311 0000001f 9200!         MOV       AL,@_OSIntNesting     ; [CPU_ALU] |106| 
     312 00000020 6103          B         $C$L4,EQ              ; [CPU_ALU] |106| 
     313                      ; branchcc occurs ; [] |106| 
     314                      .dwpsn  file "C:/ti/Workspace/PLC_certificate/Software/uCOS-II/Source/os_mbox.c",line 107,column 9,is
     315 00000021 D400          MOVB      XAR4,#0               ; [CPU_ALU] |107| 
     316 00000022 6F24          B         $C$L7,UNC             ; [CPU_ALU] |107| 
     317                      ; branch occurs ; [] |107| 
     318 00000023       $C$L4:    
     319                      .dwpsn  file "C:/ti/Workspace/PLC_certificate/Software/uCOS-II/Source/os_mbox.c",line 109,column 5,is
     320              $C$DW$34        .dwtag  DW_TAG_TI_branch
     321                      .dwattr $C$DW$34, DW_AT_low_pc(0x00)
     322                      .dwattr $C$DW$34, DW_AT_name("_OS_CPU_SR_Save")
     323                      .dwattr $C$DW$34, DW_AT_TI_call
     324              
     325 00000023 7640!         LCR       #_OS_CPU_SR_Save      ; [CPU_ALU] |109| 
         00000024 0000 
     326                      ; call occurs [#_OS_CPU_SR_Save] ; [] |109| 
TMS320C2000 Assembler PC v20.2.1 Tue Feb 16 00:15:58 2021

Copyright (c) 1996-2018 Texas Instruments Incorporated
os_mbox.asm                                                          PAGE    7

     327 00000025 9645          MOV       *-SP[5],AL            ; [CPU_ALU] |109| 
     328                      .dwpsn  file "C:/ti/Workspace/PLC_certificate/Software/uCOS-II/Source/os_mbox.c",line 110,column 5,is
     329 00000026 761F!         MOVW      DP,#_OSEventFreeList  ; [CPU_ARAU] 
         00000027 0000 
     330 00000028 0600!         MOVL      ACC,@_OSEventFreeList ; [CPU_ALU] |110| 
     331 00000029 1E44          MOVL      *-SP[4],ACC           ; [CPU_ALU] |110| 
     332                      .dwpsn  file "C:/ti/Workspace/PLC_certificate/Software/uCOS-II/Source/os_mbox.c",line 111,column 5,is
     333 0000002a 0600!         MOVL      ACC,@_OSEventFreeList ; [CPU_ALU] |111| 
     334 0000002b 6104          B         $C$L5,EQ              ; [CPU_ALU] |111| 
     335                      ; branchcc occurs ; [] |111| 
     336                      .dwpsn  file "C:/ti/Workspace/PLC_certificate/Software/uCOS-II/Source/os_mbox.c",line 112,column 9,is
     337 0000002c 8A00!         MOVL      XAR4,@_OSEventFreeList ; [CPU_ALU] |112| 
     338 0000002d 06D4          MOVL      ACC,*+XAR4[2]         ; [CPU_ALU] |112| 
     339 0000002e 1E00!         MOVL      @_OSEventFreeList,ACC ; [CPU_ALU] |112| 
     340 0000002f       $C$L5:    
     341                      .dwpsn  file "C:/ti/Workspace/PLC_certificate/Software/uCOS-II/Source/os_mbox.c",line 114,column 5,is
     342 0000002f 9245          MOV       AL,*-SP[5]            ; [CPU_ALU] |114| 
     343              $C$DW$35        .dwtag  DW_TAG_TI_branch
     344                      .dwattr $C$DW$35, DW_AT_low_pc(0x00)
     345                      .dwattr $C$DW$35, DW_AT_name("_OS_CPU_SR_Restore")
     346                      .dwattr $C$DW$35, DW_AT_TI_call
     347              
     348 00000030 7640!         LCR       #_OS_CPU_SR_Restore   ; [CPU_ALU] |114| 
         00000031 0000 
     349                      ; call occurs [#_OS_CPU_SR_Restore] ; [] |114| 
     350                      .dwpsn  file "C:/ti/Workspace/PLC_certificate/Software/uCOS-II/Source/os_mbox.c",line 115,column 5,is
     351 00000032 0644          MOVL      ACC,*-SP[4]           ; [CPU_ALU] |115| 
     352 00000033 6112          B         $C$L6,EQ              ; [CPU_ALU] |115| 
     353                      ; branchcc occurs ; [] |115| 
     354                      .dwpsn  file "C:/ti/Workspace/PLC_certificate/Software/uCOS-II/Source/os_mbox.c",line 116,column 9,is
     355 00000034 8A44          MOVL      XAR4,*-SP[4]          ; [CPU_ALU] |116| 
     356 00000035 56BF          MOVB      *+XAR4[0],#1,UNC      ; [CPU_ALU] |116| 
         00000036 01C4 
     357                      .dwpsn  file "C:/ti/Workspace/PLC_certificate/Software/uCOS-II/Source/os_mbox.c",line 117,column 9,is
     358 00000037 8A44          MOVL      XAR4,*-SP[4]          ; [CPU_ALU] |117| 
     359 00000038 2BE4          MOV       *+XAR4[4],#0          ; [CPU_ALU] |117| 
     360                      .dwpsn  file "C:/ti/Workspace/PLC_certificate/Software/uCOS-II/Source/os_mbox.c",line 118,column 9,is
     361 00000039 8A44          MOVL      XAR4,*-SP[4]          ; [CPU_ALU] |118| 
     362 0000003a 0642          MOVL      ACC,*-SP[2]           ; [CPU_ALU] |118| 
     363 0000003b 1ED4          MOVL      *+XAR4[2],ACC         ; [CPU_ALU] |118| 
     364                      .dwpsn  file "C:/ti/Workspace/PLC_certificate/Software/uCOS-II/Source/os_mbox.c",line 120,column 9,is
     365 0000003c 020E          MOVB      ACC,#14               ; [CPU_ALU] |120| 
     366 0000003d 0744          ADDL      ACC,*-SP[4]           ; [CPU_ALU] |120| 
     367 0000003e 8AA9          MOVL      XAR4,ACC              ; [CPU_ALU] |120| 
     368 0000003f 8F40+         MOVL      XAR5,#$C$FSL1         ; [CPU_ARAU] |120| 
         00000040 0000 
     369 00000041 A0C4          MOVL      *+XAR4[0],XAR5        ; [CPU_ALU] |120| 
     370                      .dwpsn  file "C:/ti/Workspace/PLC_certificate/Software/uCOS-II/Source/os_mbox.c",line 122,column 9,is
     371 00000042 8A44          MOVL      XAR4,*-SP[4]          ; [CPU_ALU] |122| 
     372              $C$DW$36        .dwtag  DW_TAG_TI_branch
     373                      .dwattr $C$DW$36, DW_AT_low_pc(0x00)
     374                      .dwattr $C$DW$36, DW_AT_name("_OS_EventWaitListInit")
     375                      .dwattr $C$DW$36, DW_AT_TI_call
     376              
     377 00000043 7640!         LCR       #_OS_EventWaitListInit ; [CPU_ALU] |122| 
TMS320C2000 Assembler PC v20.2.1 Tue Feb 16 00:15:58 2021

Copyright (c) 1996-2018 Texas Instruments Incorporated
os_mbox.asm                                                          PAGE    8

         00000044 0000 
     378                      ; call occurs [#_OS_EventWaitListInit] ; [] |122| 
     379 00000045       $C$L6:    
     380                      .dwpsn  file "C:/ti/Workspace/PLC_certificate/Software/uCOS-II/Source/os_mbox.c",line 124,column 5,is
     381 00000045 8A44          MOVL      XAR4,*-SP[4]          ; [CPU_ALU] |124| 
     382 00000046       $C$L7:    
     383                      .dwpsn  file "C:/ti/Workspace/PLC_certificate/Software/uCOS-II/Source/os_mbox.c",line 125,column 1,is
     384 00000046 FE86          SUBB      SP,#6                 ; [CPU_ARAU] 
     385                      .dwcfi  cfa_offset, -2
     386              $C$DW$37        .dwtag  DW_TAG_TI_branch
     387                      .dwattr $C$DW$37, DW_AT_low_pc(0x00)
     388                      .dwattr $C$DW$37, DW_AT_TI_return
     389              
     390 00000047 0006          LRETR     ; [CPU_ALU] 
     391                      ; return occurs ; [] 
     392                      .dwattr $C$DW$29, DW_AT_TI_end_file("C:/ti/Workspace/PLC_certificate/Software/uCOS-II/Source/os_mbox.
     393                      .dwattr $C$DW$29, DW_AT_TI_end_line(0x7d)
     394                      .dwattr $C$DW$29, DW_AT_TI_end_column(0x01)
     395                      .dwendentry
     396                      .dwendtag $C$DW$29
     397              
     398 00000048               .sect   ".text"
     399                      .clink
     400                      .global _OSMboxDel
     401              
     402              $C$DW$38        .dwtag  DW_TAG_subprogram
     403                      .dwattr $C$DW$38, DW_AT_name("OSMboxDel")
     404                      .dwattr $C$DW$38, DW_AT_low_pc(_OSMboxDel)
     405                      .dwattr $C$DW$38, DW_AT_high_pc(0x00)
     406                      .dwattr $C$DW$38, DW_AT_TI_symbol_name("_OSMboxDel")
     407                      .dwattr $C$DW$38, DW_AT_external
     408                      .dwattr $C$DW$38, DW_AT_type(*$C$DW$T$33)
     409                      .dwattr $C$DW$38, DW_AT_TI_begin_file("C:/ti/Workspace/PLC_certificate/Software/uCOS-II/Source/os_mbo
     410                      .dwattr $C$DW$38, DW_AT_TI_begin_line(0xa6)
     411                      .dwattr $C$DW$38, DW_AT_TI_begin_column(0x0c)
     412                      .dwattr $C$DW$38, DW_AT_TI_max_frame_size(-12)
     413                      .dwpsn  file "C:/ti/Workspace/PLC_certificate/Software/uCOS-II/Source/os_mbox.c",line 169,column 1,is
     414              
     415                      .dwfde $C$DW$CIE, _OSMboxDel
     416              $C$DW$39        .dwtag  DW_TAG_formal_parameter
     417                      .dwattr $C$DW$39, DW_AT_name("pevent")
     418                      .dwattr $C$DW$39, DW_AT_TI_symbol_name("_pevent")
     419                      .dwattr $C$DW$39, DW_AT_type(*$C$DW$T$33)
     420                      .dwattr $C$DW$39, DW_AT_location[DW_OP_reg12]
     421              
     422              $C$DW$40        .dwtag  DW_TAG_formal_parameter
     423                      .dwattr $C$DW$40, DW_AT_name("opt")
     424                      .dwattr $C$DW$40, DW_AT_TI_symbol_name("_opt")
     425                      .dwattr $C$DW$40, DW_AT_type(*$C$DW$T$19)
     426                      .dwattr $C$DW$40, DW_AT_location[DW_OP_reg0]
     427              
     428              $C$DW$41        .dwtag  DW_TAG_formal_parameter
     429                      .dwattr $C$DW$41, DW_AT_name("perr")
     430                      .dwattr $C$DW$41, DW_AT_TI_symbol_name("_perr")
     431                      .dwattr $C$DW$41, DW_AT_type(*$C$DW$T$23)
TMS320C2000 Assembler PC v20.2.1 Tue Feb 16 00:15:58 2021

Copyright (c) 1996-2018 Texas Instruments Incorporated
os_mbox.asm                                                          PAGE    9

     432                      .dwattr $C$DW$41, DW_AT_location[DW_OP_reg14]
     433              
     434              
     435              ;***************************************************************
     436              ;* FNAME: _OSMboxDel                    FR SIZE:  10           *
     437              ;*                                                             *
     438              ;* FUNCTION ENVIRONMENT                                        *
     439              ;*                                                             *
     440              ;* FUNCTION PROPERTIES                                         *
     441              ;*                            0 Parameter,  9 Auto,  0 SOE     *
     442              ;***************************************************************
     443              
     444 00000048       _OSMboxDel:
     445                      .dwcfi  cfa_offset, -2
     446                      .dwcfi  save_reg_to_mem, 26, 0
     447 00000048 FE0A          ADDB      SP,#10                ; [CPU_ARAU] 
     448                      .dwcfi  cfa_offset, -12
     449              $C$DW$42        .dwtag  DW_TAG_variable
     450                      .dwattr $C$DW$42, DW_AT_name("pevent")
     451                      .dwattr $C$DW$42, DW_AT_TI_symbol_name("_pevent")
     452                      .dwattr $C$DW$42, DW_AT_type(*$C$DW$T$33)
     453                      .dwattr $C$DW$42, DW_AT_location[DW_OP_breg20 -2]
     454              
     455              $C$DW$43        .dwtag  DW_TAG_variable
     456                      .dwattr $C$DW$43, DW_AT_name("perr")
     457                      .dwattr $C$DW$43, DW_AT_TI_symbol_name("_perr")
     458                      .dwattr $C$DW$43, DW_AT_type(*$C$DW$T$23)
     459                      .dwattr $C$DW$43, DW_AT_location[DW_OP_breg20 -4]
     460              
     461              $C$DW$44        .dwtag  DW_TAG_variable
     462                      .dwattr $C$DW$44, DW_AT_name("pevent_return")
     463                      .dwattr $C$DW$44, DW_AT_TI_symbol_name("_pevent_return")
     464                      .dwattr $C$DW$44, DW_AT_type(*$C$DW$T$33)
     465                      .dwattr $C$DW$44, DW_AT_location[DW_OP_breg20 -6]
     466              
     467              $C$DW$45        .dwtag  DW_TAG_variable
     468                      .dwattr $C$DW$45, DW_AT_name("opt")
     469                      .dwattr $C$DW$45, DW_AT_TI_symbol_name("_opt")
     470                      .dwattr $C$DW$45, DW_AT_type(*$C$DW$T$19)
     471                      .dwattr $C$DW$45, DW_AT_location[DW_OP_breg20 -7]
     472              
     473              $C$DW$46        .dwtag  DW_TAG_variable
     474                      .dwattr $C$DW$46, DW_AT_name("tasks_waiting")
     475                      .dwattr $C$DW$46, DW_AT_TI_symbol_name("_tasks_waiting")
     476                      .dwattr $C$DW$46, DW_AT_type(*$C$DW$T$52)
     477                      .dwattr $C$DW$46, DW_AT_location[DW_OP_breg20 -8]
     478              
     479              $C$DW$47        .dwtag  DW_TAG_variable
     480                      .dwattr $C$DW$47, DW_AT_name("cpu_sr")
     481                      .dwattr $C$DW$47, DW_AT_TI_symbol_name("_cpu_sr")
     482                      .dwattr $C$DW$47, DW_AT_type(*$C$DW$T$41)
     483                      .dwattr $C$DW$47, DW_AT_location[DW_OP_breg20 -9]
     484              
     485 00000049 A044          MOVL      *-SP[4],XAR5          ; [CPU_ALU] |169| 
     486 0000004a 9647          MOV       *-SP[7],AL            ; [CPU_ALU] |169| 
TMS320C2000 Assembler PC v20.2.1 Tue Feb 16 00:15:58 2021

Copyright (c) 1996-2018 Texas Instruments Incorporated
os_mbox.asm                                                          PAGE   10

     487 0000004b A842          MOVL      *-SP[2],XAR4          ; [CPU_ALU] |169| 
     488                      .dwpsn  file "C:/ti/Workspace/PLC_certificate/Software/uCOS-II/Source/os_mbox.c",line 173,column 23,i
     489 0000004c 2B49          MOV       *-SP[9],#0            ; [CPU_ALU] |173| 
     490                      .dwpsn  file "C:/ti/Workspace/PLC_certificate/Software/uCOS-II/Source/os_mbox.c",line 186,column 5,is
     491 0000004d 0642          MOVL      ACC,*-SP[2]           ; [CPU_ALU] |186| 
     492 0000004e 6006          B         $C$L8,NEQ             ; [CPU_ALU] |186| 
     493                      ; branchcc occurs ; [] |186| 
     494                      .dwpsn  file "C:/ti/Workspace/PLC_certificate/Software/uCOS-II/Source/os_mbox.c",line 187,column 9,is
     495 0000004f 8A44          MOVL      XAR4,*-SP[4]          ; [CPU_ALU] |187| 
     496 00000050 56BF          MOVB      *+XAR4[0],#4,UNC      ; [CPU_ALU] |187| 
         00000051 04C4 
     497                      .dwpsn  file "C:/ti/Workspace/PLC_certificate/Software/uCOS-II/Source/os_mbox.c",line 188,column 9,is
     498 00000052 8A42          MOVL      XAR4,*-SP[2]          ; [CPU_ALU] |188| 
     499 00000053 6F76          B         $C$L20,UNC            ; [CPU_ALU] |188| 
     500                      ; branch occurs ; [] |188| 
     501 00000054       $C$L8:    
     502                      .dwpsn  file "C:/ti/Workspace/PLC_certificate/Software/uCOS-II/Source/os_mbox.c",line 191,column 5,is
     503 00000054 92C4          MOV       AL,*+XAR4[0]          ; [CPU_ALU] |191| 
     504 00000055 5201          CMPB      AL,#1                 ; [CPU_ALU] |191| 
     505 00000056 6106          B         $C$L9,EQ              ; [CPU_ALU] |191| 
     506                      ; branchcc occurs ; [] |191| 
     507                      .dwpsn  file "C:/ti/Workspace/PLC_certificate/Software/uCOS-II/Source/os_mbox.c",line 192,column 9,is
     508 00000057 8A44          MOVL      XAR4,*-SP[4]          ; [CPU_ALU] |192| 
     509 00000058 56BF          MOVB      *+XAR4[0],#1,UNC      ; [CPU_ALU] |192| 
         00000059 01C4 
     510                      .dwpsn  file "C:/ti/Workspace/PLC_certificate/Software/uCOS-II/Source/os_mbox.c",line 193,column 9,is
     511 0000005a 8A42          MOVL      XAR4,*-SP[2]          ; [CPU_ALU] |193| 
     512 0000005b 6F6E          B         $C$L20,UNC            ; [CPU_ALU] |193| 
     513                      ; branch occurs ; [] |193| 
     514 0000005c       $C$L9:    
     515                      .dwpsn  file "C:/ti/Workspace/PLC_certificate/Software/uCOS-II/Source/os_mbox.c",line 195,column 5,is
     516 0000005c 761F!         MOVW      DP,#_OSIntNesting     ; [CPU_ARAU] 
         0000005d 0000 
     517 0000005e 9200!         MOV       AL,@_OSIntNesting     ; [CPU_ALU] |195| 
     518 0000005f 6106          B         $C$L10,EQ             ; [CPU_ALU] |195| 
     519                      ; branchcc occurs ; [] |195| 
     520                      .dwpsn  file "C:/ti/Workspace/PLC_certificate/Software/uCOS-II/Source/os_mbox.c",line 196,column 9,is
     521 00000060 8A44          MOVL      XAR4,*-SP[4]          ; [CPU_ALU] |196| 
     522 00000061 56BF          MOVB      *+XAR4[0],#15,UNC     ; [CPU_ALU] |196| 
         00000062 0FC4 
     523                      .dwpsn  file "C:/ti/Workspace/PLC_certificate/Software/uCOS-II/Source/os_mbox.c",line 197,column 9,is
     524 00000063 8A42          MOVL      XAR4,*-SP[2]          ; [CPU_ALU] |197| 
     525 00000064 6F65          B         $C$L20,UNC            ; [CPU_ALU] |197| 
     526                      ; branch occurs ; [] |197| 
     527 00000065       $C$L10:    
     528                      .dwpsn  file "C:/ti/Workspace/PLC_certificate/Software/uCOS-II/Source/os_mbox.c",line 199,column 5,is
     529              $C$DW$48        .dwtag  DW_TAG_TI_branch
     530                      .dwattr $C$DW$48, DW_AT_low_pc(0x00)
     531                      .dwattr $C$DW$48, DW_AT_name("_OS_CPU_SR_Save")
     532                      .dwattr $C$DW$48, DW_AT_TI_call
     533              
     534 00000065 7640!         LCR       #_OS_CPU_SR_Save      ; [CPU_ALU] |199| 
         00000066 0000 
     535                      ; call occurs [#_OS_CPU_SR_Save] ; [] |199| 
     536 00000067 9649          MOV       *-SP[9],AL            ; [CPU_ALU] |199| 
TMS320C2000 Assembler PC v20.2.1 Tue Feb 16 00:15:58 2021

Copyright (c) 1996-2018 Texas Instruments Incorporated
os_mbox.asm                                                          PAGE   11

     537                      .dwpsn  file "C:/ti/Workspace/PLC_certificate/Software/uCOS-II/Source/os_mbox.c",line 200,column 5,is
     538 00000068 8A42          MOVL      XAR4,*-SP[2]          ; [CPU_ALU] |200| 
     539 00000069 92EC          MOV       AL,*+XAR4[5]          ; [CPU_ALU] |200| 
     540 0000006a 6104          B         $C$L11,EQ             ; [CPU_ALU] |200| 
     541                      ; branchcc occurs ; [] |200| 
     542                      .dwpsn  file "C:/ti/Workspace/PLC_certificate/Software/uCOS-II/Source/os_mbox.c",line 201,column 9,is
     543 0000006b 56BF          MOVB      *-SP[8],#1,UNC        ; [CPU_ALU] |201| 
         0000006c 0148 
     544 0000006d 6F56          B         $C$L18,UNC            ; [CPU_ALU] 
     545                      ; branch occurs ; [] 
     546 0000006e       $C$L11:    
     547                      .dwpsn  file "C:/ti/Workspace/PLC_certificate/Software/uCOS-II/Source/os_mbox.c",line 203,column 9,is
     548 0000006e 2B48          MOV       *-SP[8],#0            ; [CPU_ALU] |203| 
     549                      .dwpsn  file "C:/ti/Workspace/PLC_certificate/Software/uCOS-II/Source/os_mbox.c",line 205,column 5,is
     550 0000006f 6F54          B         $C$L18,UNC            ; [CPU_ALU] |205| 
     551                      ; branch occurs ; [] |205| 
     552 00000070       $C$L12:    
     553                      .dwpsn  file "C:/ti/Workspace/PLC_certificate/Software/uCOS-II/Source/os_mbox.c",line 207,column 14,i
     554 00000070 9248          MOV       AL,*-SP[8]            ; [CPU_ALU] |207| 
     555 00000071 601A          B         $C$L13,NEQ            ; [CPU_ALU] |207| 
     556                      ; branchcc occurs ; [] |207| 
     557                      .dwpsn  file "C:/ti/Workspace/PLC_certificate/Software/uCOS-II/Source/os_mbox.c",line 209,column 18,i
     558 00000072 020E          MOVB      ACC,#14               ; [CPU_ALU] |209| 
     559 00000073 0742          ADDL      ACC,*-SP[2]           ; [CPU_ALU] |209| 
     560 00000074 8AA9          MOVL      XAR4,ACC              ; [CPU_ALU] |209| 
     561 00000075 8F40+         MOVL      XAR5,#$C$FSL1         ; [CPU_ARAU] |209| 
         00000076 0000 
     562 00000077 A0C4          MOVL      *+XAR4[0],XAR5        ; [CPU_ALU] |209| 
     563                      .dwpsn  file "C:/ti/Workspace/PLC_certificate/Software/uCOS-II/Source/os_mbox.c",line 211,column 18,i
     564 00000078 8A42          MOVL      XAR4,*-SP[2]          ; [CPU_ALU] |211| 
     565 00000079 2BC4          MOV       *+XAR4[0],#0          ; [CPU_ALU] |211| 
     566                      .dwpsn  file "C:/ti/Workspace/PLC_certificate/Software/uCOS-II/Source/os_mbox.c",line 212,column 18,i
     567 0000007a 8A42          MOVL      XAR4,*-SP[2]          ; [CPU_ALU] |212| 
     568 0000007b 761F!         MOVW      DP,#_OSEventFreeList  ; [CPU_ARAU] 
         0000007c 0000 
     569 0000007d 0600!         MOVL      ACC,@_OSEventFreeList ; [CPU_ALU] |212| 
     570 0000007e 1ED4          MOVL      *+XAR4[2],ACC         ; [CPU_ALU] |212| 
     571                      .dwpsn  file "C:/ti/Workspace/PLC_certificate/Software/uCOS-II/Source/os_mbox.c",line 213,column 18,i
     572 0000007f 8A42          MOVL      XAR4,*-SP[2]          ; [CPU_ALU] |213| 
     573 00000080 2BE4          MOV       *+XAR4[4],#0          ; [CPU_ALU] |213| 
     574                      .dwpsn  file "C:/ti/Workspace/PLC_certificate/Software/uCOS-II/Source/os_mbox.c",line 214,column 18,i
     575 00000081 0642          MOVL      ACC,*-SP[2]           ; [CPU_ALU] |214| 
     576 00000082 1E00!         MOVL      @_OSEventFreeList,ACC ; [CPU_ALU] |214| 
     577                      .dwpsn  file "C:/ti/Workspace/PLC_certificate/Software/uCOS-II/Source/os_mbox.c",line 215,column 18,i
     578 00000083 9249          MOV       AL,*-SP[9]            ; [CPU_ALU] |215| 
     579              $C$DW$49        .dwtag  DW_TAG_TI_branch
     580                      .dwattr $C$DW$49, DW_AT_low_pc(0x00)
     581                      .dwattr $C$DW$49, DW_AT_name("_OS_CPU_SR_Restore")
     582                      .dwattr $C$DW$49, DW_AT_TI_call
     583              
     584 00000084 7640!         LCR       #_OS_CPU_SR_Restore   ; [CPU_ALU] |215| 
         00000085 0000 
     585                      ; call occurs [#_OS_CPU_SR_Restore] ; [] |215| 
     586                      .dwpsn  file "C:/ti/Workspace/PLC_certificate/Software/uCOS-II/Source/os_mbox.c",line 216,column 18,i
     587 00000086 8A44          MOVL      XAR4,*-SP[4]          ; [CPU_ALU] |216| 
TMS320C2000 Assembler PC v20.2.1 Tue Feb 16 00:15:58 2021

Copyright (c) 1996-2018 Texas Instruments Incorporated
os_mbox.asm                                                          PAGE   12

     588 00000087 2BC4          MOV       *+XAR4[0],#0          ; [CPU_ALU] |216| 
     589                      .dwpsn  file "C:/ti/Workspace/PLC_certificate/Software/uCOS-II/Source/os_mbox.c",line 217,column 18,i
     590 00000088 0200          MOVB      ACC,#0                ; [CPU_ALU] |217| 
     591 00000089 1E46          MOVL      *-SP[6],ACC           ; [CPU_ALU] |217| 
     592 0000008a 6F3E          B         $C$L19,UNC            ; [CPU_ALU] 
     593                      ; branch occurs ; [] 
     594 0000008b       $C$L13:    
     595                      .dwpsn  file "C:/ti/Workspace/PLC_certificate/Software/uCOS-II/Source/os_mbox.c",line 219,column 18,i
     596 0000008b 9249          MOV       AL,*-SP[9]            ; [CPU_ALU] |219| 
     597              $C$DW$50        .dwtag  DW_TAG_TI_branch
     598                      .dwattr $C$DW$50, DW_AT_low_pc(0x00)
     599                      .dwattr $C$DW$50, DW_AT_name("_OS_CPU_SR_Restore")
     600                      .dwattr $C$DW$50, DW_AT_TI_call
     601              
     602 0000008c 7640!         LCR       #_OS_CPU_SR_Restore   ; [CPU_ALU] |219| 
         0000008d 0000 
     603                      ; call occurs [#_OS_CPU_SR_Restore] ; [] |219| 
     604                      .dwpsn  file "C:/ti/Workspace/PLC_certificate/Software/uCOS-II/Source/os_mbox.c",line 220,column 18,i
     605 0000008e 8A44          MOVL      XAR4,*-SP[4]          ; [CPU_ALU] |220| 
     606 0000008f 56BF          MOVB      *+XAR4[0],#73,UNC     ; [CPU_ALU] |220| 
         00000090 49C4 
     607                      .dwpsn  file "C:/ti/Workspace/PLC_certificate/Software/uCOS-II/Source/os_mbox.c",line 221,column 18,i
     608 00000091 0642          MOVL      ACC,*-SP[2]           ; [CPU_ALU] |221| 
     609 00000092 1E46          MOVL      *-SP[6],ACC           ; [CPU_ALU] |221| 
     610                      .dwpsn  file "C:/ti/Workspace/PLC_certificate/Software/uCOS-II/Source/os_mbox.c",line 223,column 14,i
     611 00000093 6F35          B         $C$L19,UNC            ; [CPU_ALU] |223| 
     612                      ; branch occurs ; [] |223| 
     613 00000094       $C$L14:    
     614                      .dwpsn  file "C:/ti/Workspace/PLC_certificate/Software/uCOS-II/Source/os_mbox.c",line 227,column 18,i
     615 00000094 D500          MOVB      XAR5,#0               ; [CPU_ALU] |227| 
     616 00000095 9A02          MOVB      AL,#2                 ; [CPU_ALU] |227| 
     617 00000096 9B02          MOVB      AH,#2                 ; [CPU_ALU] |227| 
     618              $C$DW$51        .dwtag  DW_TAG_TI_branch
     619                      .dwattr $C$DW$51, DW_AT_low_pc(0x00)
     620                      .dwattr $C$DW$51, DW_AT_name("_OS_EventTaskRdy")
     621                      .dwattr $C$DW$51, DW_AT_TI_call
     622              
     623 00000097 7640!         LCR       #_OS_EventTaskRdy     ; [CPU_ALU] |227| 
         00000098 0000 
     624                      ; call occurs [#_OS_EventTaskRdy] ; [] |227| 
     625 00000099       $C$L15:    
     626                      .dwpsn  file "C:/ti/Workspace/PLC_certificate/Software/uCOS-II/Source/os_mbox.c",line 226,column 21,i
     627 00000099 8A42          MOVL      XAR4,*-SP[2]          ; [CPU_ALU] |226| 
     628 0000009a 92EC          MOV       AL,*+XAR4[5]          ; [CPU_ALU] |226| 
     629 0000009b 60F9          B         $C$L14,NEQ            ; [CPU_ALU] |226| 
     630                      ; branchcc occurs ; [] |226| 
     631                      .dwpsn  file "C:/ti/Workspace/PLC_certificate/Software/uCOS-II/Source/os_mbox.c",line 230,column 14,i
     632 0000009c 020E          MOVB      ACC,#14               ; [CPU_ALU] |230| 
     633 0000009d 0742          ADDL      ACC,*-SP[2]           ; [CPU_ALU] |230| 
     634 0000009e 8AA9          MOVL      XAR4,ACC              ; [CPU_ALU] |230| 
     635 0000009f 8F40+         MOVL      XAR5,#$C$FSL1         ; [CPU_ARAU] |230| 
         000000a0 0000 
     636 000000a1 A0C4          MOVL      *+XAR4[0],XAR5        ; [CPU_ALU] |230| 
     637                      .dwpsn  file "C:/ti/Workspace/PLC_certificate/Software/uCOS-II/Source/os_mbox.c",line 232,column 14,i
     638 000000a2 8A42          MOVL      XAR4,*-SP[2]          ; [CPU_ALU] |232| 
TMS320C2000 Assembler PC v20.2.1 Tue Feb 16 00:15:58 2021

Copyright (c) 1996-2018 Texas Instruments Incorporated
os_mbox.asm                                                          PAGE   13

     639 000000a3 2BC4          MOV       *+XAR4[0],#0          ; [CPU_ALU] |232| 
     640                      .dwpsn  file "C:/ti/Workspace/PLC_certificate/Software/uCOS-II/Source/os_mbox.c",line 233,column 14,i
     641 000000a4 8A42          MOVL      XAR4,*-SP[2]          ; [CPU_ALU] |233| 
     642 000000a5 761F!         MOVW      DP,#_OSEventFreeList  ; [CPU_ARAU] 
         000000a6 0000 
     643 000000a7 0600!         MOVL      ACC,@_OSEventFreeList ; [CPU_ALU] |233| 
     644 000000a8 1ED4          MOVL      *+XAR4[2],ACC         ; [CPU_ALU] |233| 
     645                      .dwpsn  file "C:/ti/Workspace/PLC_certificate/Software/uCOS-II/Source/os_mbox.c",line 234,column 14,i
     646 000000a9 8A42          MOVL      XAR4,*-SP[2]          ; [CPU_ALU] |234| 
     647 000000aa 2BE4          MOV       *+XAR4[4],#0          ; [CPU_ALU] |234| 
     648                      .dwpsn  file "C:/ti/Workspace/PLC_certificate/Software/uCOS-II/Source/os_mbox.c",line 235,column 14,i
     649 000000ab 0642          MOVL      ACC,*-SP[2]           ; [CPU_ALU] |235| 
     650 000000ac 1E00!         MOVL      @_OSEventFreeList,ACC ; [CPU_ALU] |235| 
     651                      .dwpsn  file "C:/ti/Workspace/PLC_certificate/Software/uCOS-II/Source/os_mbox.c",line 236,column 14,i
     652 000000ad 9249          MOV       AL,*-SP[9]            ; [CPU_ALU] |236| 
     653              $C$DW$52        .dwtag  DW_TAG_TI_branch
     654                      .dwattr $C$DW$52, DW_AT_low_pc(0x00)
     655                      .dwattr $C$DW$52, DW_AT_name("_OS_CPU_SR_Restore")
     656                      .dwattr $C$DW$52, DW_AT_TI_call
     657              
     658 000000ae 7640!         LCR       #_OS_CPU_SR_Restore   ; [CPU_ALU] |236| 
         000000af 0000 
     659                      ; call occurs [#_OS_CPU_SR_Restore] ; [] |236| 
     660                      .dwpsn  file "C:/ti/Workspace/PLC_certificate/Software/uCOS-II/Source/os_mbox.c",line 237,column 14,i
     661 000000b0 9248          MOV       AL,*-SP[8]            ; [CPU_ALU] |237| 
     662 000000b1 5201          CMPB      AL,#1                 ; [CPU_ALU] |237| 
     663 000000b2 6003          B         $C$L16,NEQ            ; [CPU_ALU] |237| 
     664                      ; branchcc occurs ; [] |237| 
     665                      .dwpsn  file "C:/ti/Workspace/PLC_certificate/Software/uCOS-II/Source/os_mbox.c",line 238,column 18,i
     666              $C$DW$53        .dwtag  DW_TAG_TI_branch
     667                      .dwattr $C$DW$53, DW_AT_low_pc(0x00)
     668                      .dwattr $C$DW$53, DW_AT_name("_OS_Sched")
     669                      .dwattr $C$DW$53, DW_AT_TI_call
     670              
     671 000000b3 7640!         LCR       #_OS_Sched            ; [CPU_ALU] |238| 
         000000b4 0000 
     672                      ; call occurs [#_OS_Sched] ; [] |238| 
     673 000000b5       $C$L16:    
     674                      .dwpsn  file "C:/ti/Workspace/PLC_certificate/Software/uCOS-II/Source/os_mbox.c",line 240,column 14,i
     675 000000b5 8A44          MOVL      XAR4,*-SP[4]          ; [CPU_ALU] |240| 
     676 000000b6 2BC4          MOV       *+XAR4[0],#0          ; [CPU_ALU] |240| 
     677                      .dwpsn  file "C:/ti/Workspace/PLC_certificate/Software/uCOS-II/Source/os_mbox.c",line 241,column 14,i
     678 000000b7 0200          MOVB      ACC,#0                ; [CPU_ALU] |241| 
     679 000000b8 1E46          MOVL      *-SP[6],ACC           ; [CPU_ALU] |241| 
     680                      .dwpsn  file "C:/ti/Workspace/PLC_certificate/Software/uCOS-II/Source/os_mbox.c",line 242,column 14,i
     681 000000b9 6F0F          B         $C$L19,UNC            ; [CPU_ALU] |242| 
     682                      ; branch occurs ; [] |242| 
     683 000000ba       $C$L17:    
     684                      .dwpsn  file "C:/ti/Workspace/PLC_certificate/Software/uCOS-II/Source/os_mbox.c",line 245,column 14,i
     685 000000ba 9249          MOV       AL,*-SP[9]            ; [CPU_ALU] |245| 
     686              $C$DW$54        .dwtag  DW_TAG_TI_branch
     687                      .dwattr $C$DW$54, DW_AT_low_pc(0x00)
     688                      .dwattr $C$DW$54, DW_AT_name("_OS_CPU_SR_Restore")
     689                      .dwattr $C$DW$54, DW_AT_TI_call
     690              
TMS320C2000 Assembler PC v20.2.1 Tue Feb 16 00:15:58 2021

Copyright (c) 1996-2018 Texas Instruments Incorporated
os_mbox.asm                                                          PAGE   14

     691 000000bb 7640!         LCR       #_OS_CPU_SR_Restore   ; [CPU_ALU] |245| 
         000000bc 0000 
     692                      ; call occurs [#_OS_CPU_SR_Restore] ; [] |245| 
     693                      .dwpsn  file "C:/ti/Workspace/PLC_certificate/Software/uCOS-II/Source/os_mbox.c",line 246,column 14,i
     694 000000bd 8A44          MOVL      XAR4,*-SP[4]          ; [CPU_ALU] |246| 
     695 000000be 56BF          MOVB      *+XAR4[0],#7,UNC      ; [CPU_ALU] |246| 
         000000bf 07C4 
     696                      .dwpsn  file "C:/ti/Workspace/PLC_certificate/Software/uCOS-II/Source/os_mbox.c",line 247,column 14,i
     697 000000c0 0642          MOVL      ACC,*-SP[2]           ; [CPU_ALU] |247| 
     698 000000c1 1E46          MOVL      *-SP[6],ACC           ; [CPU_ALU] |247| 
     699                      .dwpsn  file "C:/ti/Workspace/PLC_certificate/Software/uCOS-II/Source/os_mbox.c",line 248,column 14,i
     700 000000c2 6F06          B         $C$L19,UNC            ; [CPU_ALU] |248| 
     701                      ; branch occurs ; [] |248| 
     702 000000c3       $C$L18:    
     703                      .dwpsn  file "C:/ti/Workspace/PLC_certificate/Software/uCOS-II/Source/os_mbox.c",line 205,column 5,is
     704 000000c3 9247          MOV       AL,*-SP[7]            ; [CPU_ALU] |205| 
     705 000000c4 61AC          B         $C$L12,EQ             ; [CPU_ALU] |205| 
     706                      ; branchcc occurs ; [] |205| 
     707 000000c5 5201          CMPB      AL,#1                 ; [CPU_ALU] |205| 
     708 000000c6 61D3          B         $C$L15,EQ             ; [CPU_ALU] |205| 
     709                      ; branchcc occurs ; [] |205| 
     710 000000c7 6FF3          B         $C$L17,UNC            ; [CPU_ALU] |205| 
     711                      ; branch occurs ; [] |205| 
     712 000000c8       $C$L19:    
     713                      .dwpsn  file "C:/ti/Workspace/PLC_certificate/Software/uCOS-II/Source/os_mbox.c",line 250,column 5,is
     714 000000c8 8A46          MOVL      XAR4,*-SP[6]          ; [CPU_ALU] |250| 
     715 000000c9       $C$L20:    
     716                      .dwpsn  file "C:/ti/Workspace/PLC_certificate/Software/uCOS-II/Source/os_mbox.c",line 251,column 1,is
     717 000000c9 FE8A          SUBB      SP,#10                ; [CPU_ARAU] 
     718                      .dwcfi  cfa_offset, -2
     719              $C$DW$55        .dwtag  DW_TAG_TI_branch
     720                      .dwattr $C$DW$55, DW_AT_low_pc(0x00)
     721                      .dwattr $C$DW$55, DW_AT_TI_return
     722              
     723 000000ca 0006          LRETR     ; [CPU_ALU] 
     724                      ; return occurs ; [] 
     725                      .dwattr $C$DW$38, DW_AT_TI_end_file("C:/ti/Workspace/PLC_certificate/Software/uCOS-II/Source/os_mbox.
     726                      .dwattr $C$DW$38, DW_AT_TI_end_line(0xfb)
     727                      .dwattr $C$DW$38, DW_AT_TI_end_column(0x01)
     728                      .dwendentry
     729                      .dwendtag $C$DW$38
     730              
     731 000000cb               .sect   ".text"
     732                      .clink
     733                      .global _OSMboxPend
     734              
     735              $C$DW$56        .dwtag  DW_TAG_subprogram
     736                      .dwattr $C$DW$56, DW_AT_name("OSMboxPend")
     737                      .dwattr $C$DW$56, DW_AT_low_pc(_OSMboxPend)
     738                      .dwattr $C$DW$56, DW_AT_high_pc(0x00)
     739                      .dwattr $C$DW$56, DW_AT_TI_symbol_name("_OSMboxPend")
     740                      .dwattr $C$DW$56, DW_AT_external
     741                      .dwattr $C$DW$56, DW_AT_type(*$C$DW$T$3)
     742                      .dwattr $C$DW$56, DW_AT_TI_begin_file("C:/ti/Workspace/PLC_certificate/Software/uCOS-II/Source/os_mbo
     743                      .dwattr $C$DW$56, DW_AT_TI_begin_line(0x120)
TMS320C2000 Assembler PC v20.2.1 Tue Feb 16 00:15:58 2021

Copyright (c) 1996-2018 Texas Instruments Incorporated
os_mbox.asm                                                          PAGE   15

     744                      .dwattr $C$DW$56, DW_AT_TI_begin_column(0x08)
     745                      .dwattr $C$DW$56, DW_AT_TI_max_frame_size(-12)
     746                      .dwpsn  file "C:/ti/Workspace/PLC_certificate/Software/uCOS-II/Source/os_mbox.c",line 291,column 1,is
     747              
     748                      .dwfde $C$DW$CIE, _OSMboxPend
     749              $C$DW$57        .dwtag  DW_TAG_formal_parameter
     750                      .dwattr $C$DW$57, DW_AT_name("pevent")
     751                      .dwattr $C$DW$57, DW_AT_TI_symbol_name("_pevent")
     752                      .dwattr $C$DW$57, DW_AT_type(*$C$DW$T$33)
     753                      .dwattr $C$DW$57, DW_AT_location[DW_OP_reg12]
     754              
     755              $C$DW$58        .dwtag  DW_TAG_formal_parameter
     756                      .dwattr $C$DW$58, DW_AT_name("timeout")
     757                      .dwattr $C$DW$58, DW_AT_TI_symbol_name("_timeout")
     758                      .dwattr $C$DW$58, DW_AT_type(*$C$DW$T$30)
     759                      .dwattr $C$DW$58, DW_AT_location[DW_OP_reg0]
     760              
     761              $C$DW$59        .dwtag  DW_TAG_formal_parameter
     762                      .dwattr $C$DW$59, DW_AT_name("perr")
     763                      .dwattr $C$DW$59, DW_AT_TI_symbol_name("_perr")
     764                      .dwattr $C$DW$59, DW_AT_type(*$C$DW$T$23)
     765                      .dwattr $C$DW$59, DW_AT_location[DW_OP_reg14]
     766              
     767              
     768              ;***************************************************************
     769              ;* FNAME: _OSMboxPend                   FR SIZE:  10           *
     770              ;*                                                             *
     771              ;* FUNCTION ENVIRONMENT                                        *
     772              ;*                                                             *
     773              ;* FUNCTION PROPERTIES                                         *
     774              ;*                            0 Parameter,  9 Auto,  0 SOE     *
     775              ;***************************************************************
     776              
     777 000000cb       _OSMboxPend:
     778                      .dwcfi  cfa_offset, -2
     779                      .dwcfi  save_reg_to_mem, 26, 0
     780 000000cb FE0A          ADDB      SP,#10                ; [CPU_ARAU] 
     781                      .dwcfi  cfa_offset, -12
     782              $C$DW$60        .dwtag  DW_TAG_variable
     783                      .dwattr $C$DW$60, DW_AT_name("pevent")
     784                      .dwattr $C$DW$60, DW_AT_TI_symbol_name("_pevent")
     785                      .dwattr $C$DW$60, DW_AT_type(*$C$DW$T$33)
     786                      .dwattr $C$DW$60, DW_AT_location[DW_OP_breg20 -2]
     787              
     788              $C$DW$61        .dwtag  DW_TAG_variable
     789                      .dwattr $C$DW$61, DW_AT_name("timeout")
     790                      .dwattr $C$DW$61, DW_AT_TI_symbol_name("_timeout")
     791                      .dwattr $C$DW$61, DW_AT_type(*$C$DW$T$30)
     792                      .dwattr $C$DW$61, DW_AT_location[DW_OP_breg20 -4]
     793              
     794              $C$DW$62        .dwtag  DW_TAG_variable
     795                      .dwattr $C$DW$62, DW_AT_name("perr")
     796                      .dwattr $C$DW$62, DW_AT_TI_symbol_name("_perr")
     797                      .dwattr $C$DW$62, DW_AT_type(*$C$DW$T$23)
     798                      .dwattr $C$DW$62, DW_AT_location[DW_OP_breg20 -6]
TMS320C2000 Assembler PC v20.2.1 Tue Feb 16 00:15:58 2021

Copyright (c) 1996-2018 Texas Instruments Incorporated
os_mbox.asm                                                          PAGE   16

     799              
     800              $C$DW$63        .dwtag  DW_TAG_variable
     801                      .dwattr $C$DW$63, DW_AT_name("pmsg")
     802                      .dwattr $C$DW$63, DW_AT_TI_symbol_name("_pmsg")
     803                      .dwattr $C$DW$63, DW_AT_type(*$C$DW$T$3)
     804                      .dwattr $C$DW$63, DW_AT_location[DW_OP_breg20 -8]
     805              
     806              $C$DW$64        .dwtag  DW_TAG_variable
     807                      .dwattr $C$DW$64, DW_AT_name("cpu_sr")
     808                      .dwattr $C$DW$64, DW_AT_TI_symbol_name("_cpu_sr")
     809                      .dwattr $C$DW$64, DW_AT_type(*$C$DW$T$41)
     810                      .dwattr $C$DW$64, DW_AT_location[DW_OP_breg20 -9]
     811              
     812 000000cc A046          MOVL      *-SP[6],XAR5          ; [CPU_ALU] |291| 
     813 000000cd 1E44          MOVL      *-SP[4],ACC           ; [CPU_ALU] |291| 
     814 000000ce A842          MOVL      *-SP[2],XAR4          ; [CPU_ALU] |291| 
     815                      .dwpsn  file "C:/ti/Workspace/PLC_certificate/Software/uCOS-II/Source/os_mbox.c",line 294,column 23,i
     816 000000cf 2B49          MOV       *-SP[9],#0            ; [CPU_ALU] |294| 
     817                      .dwpsn  file "C:/ti/Workspace/PLC_certificate/Software/uCOS-II/Source/os_mbox.c",line 307,column 5,is
     818 000000d0 0642          MOVL      ACC,*-SP[2]           ; [CPU_ALU] |307| 
     819 000000d1 6007          B         $C$L21,NEQ            ; [CPU_ALU] |307| 
     820                      ; branchcc occurs ; [] |307| 
     821                      .dwpsn  file "C:/ti/Workspace/PLC_certificate/Software/uCOS-II/Source/os_mbox.c",line 308,column 9,is
     822 000000d2 8A46          MOVL      XAR4,*-SP[6]          ; [CPU_ALU] |308| 
     823 000000d3 56BF          MOVB      *+XAR4[0],#4,UNC      ; [CPU_ALU] |308| 
         000000d4 04C4 
     824                      .dwpsn  file "C:/ti/Workspace/PLC_certificate/Software/uCOS-II/Source/os_mbox.c",line 309,column 9,is
     825 000000d5 D400          MOVB      XAR4,#0               ; [CPU_ALU] |309| 
     826 000000d6 FFEF          B         $C$L31,UNC            ; [CPU_ALU] |309| 
         000000d7 0088 
     827                      ; branch occurs ; [] |309| 
     828 000000d8       $C$L21:    
     829                      .dwpsn  file "C:/ti/Workspace/PLC_certificate/Software/uCOS-II/Source/os_mbox.c",line 312,column 5,is
     830 000000d8 92C4          MOV       AL,*+XAR4[0]          ; [CPU_ALU] |312| 
     831 000000d9 5201          CMPB      AL,#1                 ; [CPU_ALU] |312| 
     832 000000da 6106          B         $C$L22,EQ             ; [CPU_ALU] |312| 
     833                      ; branchcc occurs ; [] |312| 
     834                      .dwpsn  file "C:/ti/Workspace/PLC_certificate/Software/uCOS-II/Source/os_mbox.c",line 313,column 9,is
     835 000000db 8A46          MOVL      XAR4,*-SP[6]          ; [CPU_ALU] |313| 
     836 000000dc 56BF          MOVB      *+XAR4[0],#1,UNC      ; [CPU_ALU] |313| 
         000000dd 01C4 
     837                      .dwpsn  file "C:/ti/Workspace/PLC_certificate/Software/uCOS-II/Source/os_mbox.c",line 314,column 9,is
     838 000000de D400          MOVB      XAR4,#0               ; [CPU_ALU] |314| 
     839 000000df 6F7F          B         $C$L31,UNC            ; [CPU_ALU] |314| 
     840                      ; branch occurs ; [] |314| 
     841 000000e0       $C$L22:    
     842                      .dwpsn  file "C:/ti/Workspace/PLC_certificate/Software/uCOS-II/Source/os_mbox.c",line 316,column 5,is
     843 000000e0 761F!         MOVW      DP,#_OSIntNesting     ; [CPU_ARAU] 
         000000e1 0000 
     844 000000e2 9200!         MOV       AL,@_OSIntNesting     ; [CPU_ALU] |316| 
     845 000000e3 6106          B         $C$L23,EQ             ; [CPU_ALU] |316| 
     846                      ; branchcc occurs ; [] |316| 
     847                      .dwpsn  file "C:/ti/Workspace/PLC_certificate/Software/uCOS-II/Source/os_mbox.c",line 317,column 9,is
     848 000000e4 8A46          MOVL      XAR4,*-SP[6]          ; [CPU_ALU] |317| 
     849 000000e5 56BF          MOVB      *+XAR4[0],#2,UNC      ; [CPU_ALU] |317| 
TMS320C2000 Assembler PC v20.2.1 Tue Feb 16 00:15:58 2021

Copyright (c) 1996-2018 Texas Instruments Incorporated
os_mbox.asm                                                          PAGE   17

         000000e6 02C4 
     850                      .dwpsn  file "C:/ti/Workspace/PLC_certificate/Software/uCOS-II/Source/os_mbox.c",line 318,column 9,is
     851 000000e7 D400          MOVB      XAR4,#0               ; [CPU_ALU] |318| 
     852 000000e8 6F76          B         $C$L31,UNC            ; [CPU_ALU] |318| 
     853                      ; branch occurs ; [] |318| 
     854 000000e9       $C$L23:    
     855                      .dwpsn  file "C:/ti/Workspace/PLC_certificate/Software/uCOS-II/Source/os_mbox.c",line 320,column 5,is
     856 000000e9 761F!         MOVW      DP,#_OSLockNesting    ; [CPU_ARAU] 
         000000ea 0000 
     857 000000eb 9200!         MOV       AL,@_OSLockNesting    ; [CPU_ALU] |320| 
     858 000000ec 6106          B         $C$L24,EQ             ; [CPU_ALU] |320| 
     859                      ; branchcc occurs ; [] |320| 
     860                      .dwpsn  file "C:/ti/Workspace/PLC_certificate/Software/uCOS-II/Source/os_mbox.c",line 321,column 9,is
     861 000000ed 8A46          MOVL      XAR4,*-SP[6]          ; [CPU_ALU] |321| 
     862 000000ee 56BF          MOVB      *+XAR4[0],#13,UNC     ; [CPU_ALU] |321| 
         000000ef 0DC4 
     863                      .dwpsn  file "C:/ti/Workspace/PLC_certificate/Software/uCOS-II/Source/os_mbox.c",line 322,column 9,is
     864 000000f0 D400          MOVB      XAR4,#0               ; [CPU_ALU] |322| 
     865 000000f1 6F6D          B         $C$L31,UNC            ; [CPU_ALU] |322| 
     866                      ; branch occurs ; [] |322| 
     867 000000f2       $C$L24:    
     868                      .dwpsn  file "C:/ti/Workspace/PLC_certificate/Software/uCOS-II/Source/os_mbox.c",line 324,column 5,is
     869              $C$DW$65        .dwtag  DW_TAG_TI_branch
     870                      .dwattr $C$DW$65, DW_AT_low_pc(0x00)
     871                      .dwattr $C$DW$65, DW_AT_name("_OS_CPU_SR_Save")
     872                      .dwattr $C$DW$65, DW_AT_TI_call
     873              
     874 000000f2 7640!         LCR       #_OS_CPU_SR_Save      ; [CPU_ALU] |324| 
         000000f3 0000 
     875                      ; call occurs [#_OS_CPU_SR_Save] ; [] |324| 
     876 000000f4 9649          MOV       *-SP[9],AL            ; [CPU_ALU] |324| 
     877                      .dwpsn  file "C:/ti/Workspace/PLC_certificate/Software/uCOS-II/Source/os_mbox.c",line 325,column 5,is
     878 000000f5 8A42          MOVL      XAR4,*-SP[2]          ; [CPU_ALU] |325| 
     879 000000f6 06D4          MOVL      ACC,*+XAR4[2]         ; [CPU_ALU] |325| 
     880 000000f7 1E48          MOVL      *-SP[8],ACC           ; [CPU_ALU] |325| 
     881                      .dwpsn  file "C:/ti/Workspace/PLC_certificate/Software/uCOS-II/Source/os_mbox.c",line 326,column 5,is
     882 000000f8 0648          MOVL      ACC,*-SP[8]           ; [CPU_ALU] |326| 
     883 000000f9 610A          B         $C$L25,EQ             ; [CPU_ALU] |326| 
     884                      ; branchcc occurs ; [] |326| 
     885                      .dwpsn  file "C:/ti/Workspace/PLC_certificate/Software/uCOS-II/Source/os_mbox.c",line 327,column 9,is
     886 000000fa 0200          MOVB      ACC,#0                ; [CPU_ALU] |327| 
     887 000000fb 1ED4          MOVL      *+XAR4[2],ACC         ; [CPU_ALU] |327| 
     888                      .dwpsn  file "C:/ti/Workspace/PLC_certificate/Software/uCOS-II/Source/os_mbox.c",line 328,column 9,is
     889 000000fc 9249          MOV       AL,*-SP[9]            ; [CPU_ALU] |328| 
     890              $C$DW$66        .dwtag  DW_TAG_TI_branch
     891                      .dwattr $C$DW$66, DW_AT_low_pc(0x00)
     892                      .dwattr $C$DW$66, DW_AT_name("_OS_CPU_SR_Restore")
     893                      .dwattr $C$DW$66, DW_AT_TI_call
     894              
     895 000000fd 7640!         LCR       #_OS_CPU_SR_Restore   ; [CPU_ALU] |328| 
         000000fe 0000 
     896                      ; call occurs [#_OS_CPU_SR_Restore] ; [] |328| 
     897                      .dwpsn  file "C:/ti/Workspace/PLC_certificate/Software/uCOS-II/Source/os_mbox.c",line 329,column 9,is
     898 000000ff 8A46          MOVL      XAR4,*-SP[6]          ; [CPU_ALU] |329| 
     899 00000100 2BC4          MOV       *+XAR4[0],#0          ; [CPU_ALU] |329| 
TMS320C2000 Assembler PC v20.2.1 Tue Feb 16 00:15:58 2021

Copyright (c) 1996-2018 Texas Instruments Incorporated
os_mbox.asm                                                          PAGE   18

     900                      .dwpsn  file "C:/ti/Workspace/PLC_certificate/Software/uCOS-II/Source/os_mbox.c",line 330,column 9,is
     901 00000101 8A48          MOVL      XAR4,*-SP[8]          ; [CPU_ALU] |330| 
     902 00000102 6F5C          B         $C$L31,UNC            ; [CPU_ALU] |330| 
     903                      ; branch occurs ; [] |330| 
     904 00000103       $C$L25:    
     905                      .dwpsn  file "C:/ti/Workspace/PLC_certificate/Software/uCOS-II/Source/os_mbox.c",line 332,column 5,is
     906 00000103 021A          MOVB      ACC,#26               ; [CPU_ALU] |332| 
     907 00000104 761F!         MOVW      DP,#_OSTCBCur         ; [CPU_ARAU] 
         00000105 0000 
     908 00000106 0700!         ADDL      ACC,@_OSTCBCur        ; [CPU_ALU] |332| 
     909 00000107 8AA9          MOVL      XAR4,ACC              ; [CPU_ALU] |332| 
     910 00000108 1AC4          OR        *+XAR4[0],#0x0002     ; [CPU_ALU] |332| 
         00000109 0002 
     911                      .dwpsn  file "C:/ti/Workspace/PLC_certificate/Software/uCOS-II/Source/os_mbox.c",line 333,column 5,is
     912 0000010a 021B          MOVB      ACC,#27               ; [CPU_ALU] |333| 
     913 0000010b 0700!         ADDL      ACC,@_OSTCBCur        ; [CPU_ALU] |333| 
     914 0000010c 8AA9          MOVL      XAR4,ACC              ; [CPU_ALU] |333| 
     915 0000010d 2BC4          MOV       *+XAR4[0],#0          ; [CPU_ALU] |333| 
     916                      .dwpsn  file "C:/ti/Workspace/PLC_certificate/Software/uCOS-II/Source/os_mbox.c",line 334,column 5,is
     917 0000010e C444          MOVL      XAR6,*-SP[4]          ; [CPU_ALU] |334| 
     918 0000010f 0218          MOVB      ACC,#24               ; [CPU_ALU] |334| 
     919 00000110 0700!         ADDL      ACC,@_OSTCBCur        ; [CPU_ALU] |334| 
     920 00000111 8AA9          MOVL      XAR4,ACC              ; [CPU_ALU] |334| 
     921 00000112 C2C4          MOVL      *+XAR4[0],XAR6        ; [CPU_ALU] |334| 
     922                      .dwpsn  file "C:/ti/Workspace/PLC_certificate/Software/uCOS-II/Source/os_mbox.c",line 335,column 5,is
     923 00000113 8A42          MOVL      XAR4,*-SP[2]          ; [CPU_ALU] |335| 
     924              $C$DW$67        .dwtag  DW_TAG_TI_branch
     925                      .dwattr $C$DW$67, DW_AT_low_pc(0x00)
     926                      .dwattr $C$DW$67, DW_AT_name("_OS_EventTaskWait")
     927                      .dwattr $C$DW$67, DW_AT_TI_call
     928              
     929 00000114 7640!         LCR       #_OS_EventTaskWait    ; [CPU_ALU] |335| 
         00000115 0000 
     930                      ; call occurs [#_OS_EventTaskWait] ; [] |335| 
     931                      .dwpsn  file "C:/ti/Workspace/PLC_certificate/Software/uCOS-II/Source/os_mbox.c",line 336,column 5,is
     932 00000116 9249          MOV       AL,*-SP[9]            ; [CPU_ALU] |336| 
     933              $C$DW$68        .dwtag  DW_TAG_TI_branch
     934                      .dwattr $C$DW$68, DW_AT_low_pc(0x00)
     935                      .dwattr $C$DW$68, DW_AT_name("_OS_CPU_SR_Restore")
     936                      .dwattr $C$DW$68, DW_AT_TI_call
     937              
     938 00000117 7640!         LCR       #_OS_CPU_SR_Restore   ; [CPU_ALU] |336| 
         00000118 0000 
     939                      ; call occurs [#_OS_CPU_SR_Restore] ; [] |336| 
     940                      .dwpsn  file "C:/ti/Workspace/PLC_certificate/Software/uCOS-II/Source/os_mbox.c",line 337,column 5,is
     941              $C$DW$69        .dwtag  DW_TAG_TI_branch
     942                      .dwattr $C$DW$69, DW_AT_low_pc(0x00)
     943                      .dwattr $C$DW$69, DW_AT_name("_OS_Sched")
     944                      .dwattr $C$DW$69, DW_AT_TI_call
     945              
     946 00000119 7640!         LCR       #_OS_Sched            ; [CPU_ALU] |337| 
         0000011a 0000 
     947                      ; call occurs [#_OS_Sched] ; [] |337| 
     948                      .dwpsn  file "C:/ti/Workspace/PLC_certificate/Software/uCOS-II/Source/os_mbox.c",line 338,column 5,is
     949              $C$DW$70        .dwtag  DW_TAG_TI_branch
TMS320C2000 Assembler PC v20.2.1 Tue Feb 16 00:15:58 2021

Copyright (c) 1996-2018 Texas Instruments Incorporated
os_mbox.asm                                                          PAGE   19

     950                      .dwattr $C$DW$70, DW_AT_low_pc(0x00)
     951                      .dwattr $C$DW$70, DW_AT_name("_OS_CPU_SR_Save")
     952                      .dwattr $C$DW$70, DW_AT_TI_call
     953              
     954 0000011b 7640!         LCR       #_OS_CPU_SR_Save      ; [CPU_ALU] |338| 
         0000011c 0000 
     955                      ; call occurs [#_OS_CPU_SR_Save] ; [] |338| 
     956 0000011d 9649          MOV       *-SP[9],AL            ; [CPU_ALU] |338| 
     957                      .dwpsn  file "C:/ti/Workspace/PLC_certificate/Software/uCOS-II/Source/os_mbox.c",line 339,column 5,is
     958 0000011e 6F19          B         $C$L29,UNC            ; [CPU_ALU] |339| 
     959                      ; branch occurs ; [] |339| 
     960 0000011f       $C$L26:    
     961                      .dwpsn  file "C:/ti/Workspace/PLC_certificate/Software/uCOS-II/Source/os_mbox.c",line 341,column 14,i
     962 0000011f 0212          MOVB      ACC,#18               ; [CPU_ALU] |341| 
     963 00000120 0700!         ADDL      ACC,@_OSTCBCur        ; [CPU_ALU] |341| 
     964 00000121 8AA9          MOVL      XAR4,ACC              ; [CPU_ALU] |341| 
     965 00000122 06C4          MOVL      ACC,*+XAR4[0]         ; [CPU_ALU] |341| 
     966 00000123 1E48          MOVL      *-SP[8],ACC           ; [CPU_ALU] |341| 
     967                      .dwpsn  file "C:/ti/Workspace/PLC_certificate/Software/uCOS-II/Source/os_mbox.c",line 342,column 13,i
     968 00000124 8A46          MOVL      XAR4,*-SP[6]          ; [CPU_ALU] |342| 
     969 00000125 2BC4          MOV       *+XAR4[0],#0          ; [CPU_ALU] |342| 
     970                      .dwpsn  file "C:/ti/Workspace/PLC_certificate/Software/uCOS-II/Source/os_mbox.c",line 343,column 14,i
     971 00000126 6F1D          B         $C$L30,UNC            ; [CPU_ALU] |343| 
     972                      ; branch occurs ; [] |343| 
     973 00000127       $C$L27:    
     974                      .dwpsn  file "C:/ti/Workspace/PLC_certificate/Software/uCOS-II/Source/os_mbox.c",line 346,column 14,i
     975 00000127 0200          MOVB      ACC,#0                ; [CPU_ALU] |346| 
     976 00000128 1E48          MOVL      *-SP[8],ACC           ; [CPU_ALU] |346| 
     977                      .dwpsn  file "C:/ti/Workspace/PLC_certificate/Software/uCOS-II/Source/os_mbox.c",line 347,column 13,i
     978 00000129 8A46          MOVL      XAR4,*-SP[6]          ; [CPU_ALU] |347| 
     979 0000012a 56BF          MOVB      *+XAR4[0],#14,UNC     ; [CPU_ALU] |347| 
         0000012b 0EC4 
     980                      .dwpsn  file "C:/ti/Workspace/PLC_certificate/Software/uCOS-II/Source/os_mbox.c",line 348,column 14,i
     981 0000012c 6F17          B         $C$L30,UNC            ; [CPU_ALU] |348| 
     982                      ; branch occurs ; [] |348| 
     983 0000012d       $C$L28:    
     984                      .dwpsn  file "C:/ti/Workspace/PLC_certificate/Software/uCOS-II/Source/os_mbox.c",line 352,column 14,i
     985 0000012d 8A00!         MOVL      XAR4,@_OSTCBCur       ; [CPU_ALU] |352| 
     986 0000012e 8342          MOVL      XAR5,*-SP[2]          ; [CPU_ALU] |352| 
     987              $C$DW$71        .dwtag  DW_TAG_TI_branch
     988                      .dwattr $C$DW$71, DW_AT_low_pc(0x00)
     989                      .dwattr $C$DW$71, DW_AT_name("_OS_EventTaskRemove")
     990                      .dwattr $C$DW$71, DW_AT_TI_call
     991              
     992 0000012f 7640!         LCR       #_OS_EventTaskRemove  ; [CPU_ALU] |352| 
         00000130 0000 
     993                      ; call occurs [#_OS_EventTaskRemove] ; [] |352| 
     994                      .dwpsn  file "C:/ti/Workspace/PLC_certificate/Software/uCOS-II/Source/os_mbox.c",line 353,column 14,i
     995 00000131 0200          MOVB      ACC,#0                ; [CPU_ALU] |353| 
     996 00000132 1E48          MOVL      *-SP[8],ACC           ; [CPU_ALU] |353| 
     997                      .dwpsn  file "C:/ti/Workspace/PLC_certificate/Software/uCOS-II/Source/os_mbox.c",line 354,column 13,i
     998 00000133 8A46          MOVL      XAR4,*-SP[6]          ; [CPU_ALU] |354| 
     999 00000134 56BF          MOVB      *+XAR4[0],#10,UNC     ; [CPU_ALU] |354| 
         00000135 0AC4 
    1000                      .dwpsn  file "C:/ti/Workspace/PLC_certificate/Software/uCOS-II/Source/os_mbox.c",line 355,column 14,i
TMS320C2000 Assembler PC v20.2.1 Tue Feb 16 00:15:58 2021

Copyright (c) 1996-2018 Texas Instruments Incorporated
os_mbox.asm                                                          PAGE   20

    1001 00000136 6F0D          B         $C$L30,UNC            ; [CPU_ALU] |355| 
    1002                      ; branch occurs ; [] |355| 
    1003 00000137       $C$L29:    
    1004                      .dwpsn  file "C:/ti/Workspace/PLC_certificate/Software/uCOS-II/Source/os_mbox.c",line 339,column 5,is
    1005 00000137 021B          MOVB      ACC,#27               ; [CPU_ALU] |339| 
    1006 00000138 761F!         MOVW      DP,#_OSTCBCur         ; [CPU_ARAU] 
         00000139 0000 
    1007 0000013a 0700!         ADDL      ACC,@_OSTCBCur        ; [CPU_ALU] |339| 
    1008 0000013b 8AA9          MOVL      XAR4,ACC              ; [CPU_ALU] |339| 
    1009 0000013c 92C4          MOV       AL,*+XAR4[0]          ; [CPU_ALU] |339| 
    1010 0000013d 61E2          B         $C$L26,EQ             ; [CPU_ALU] |339| 
    1011                      ; branchcc occurs ; [] |339| 
    1012 0000013e 5201          CMPB      AL,#1                 ; [CPU_ALU] |339| 
    1013 0000013f 61EE          B         $C$L28,EQ             ; [CPU_ALU] |339| 
    1014                      ; branchcc occurs ; [] |339| 
    1015 00000140 5202          CMPB      AL,#2                 ; [CPU_ALU] |339| 
    1016 00000141 61E6          B         $C$L27,EQ             ; [CPU_ALU] |339| 
    1017                      ; branchcc occurs ; [] |339| 
    1018 00000142 6FEB          B         $C$L28,UNC            ; [CPU_ALU] |339| 
    1019                      ; branch occurs ; [] |339| 
    1020 00000143       $C$L30:    
    1021                      .dwpsn  file "C:/ti/Workspace/PLC_certificate/Software/uCOS-II/Source/os_mbox.c",line 357,column 5,is
    1022 00000143 021A          MOVB      ACC,#26               ; [CPU_ALU] |357| 
    1023 00000144 761F!         MOVW      DP,#_OSTCBCur         ; [CPU_ARAU] 
         00000145 0000 
    1024 00000146 0700!         ADDL      ACC,@_OSTCBCur        ; [CPU_ALU] |357| 
    1025 00000147 8AA9          MOVL      XAR4,ACC              ; [CPU_ALU] |357| 
    1026 00000148 2BC4          MOV       *+XAR4[0],#0          ; [CPU_ALU] |357| 
    1027                      .dwpsn  file "C:/ti/Workspace/PLC_certificate/Software/uCOS-II/Source/os_mbox.c",line 358,column 5,is
    1028 00000149 021B          MOVB      ACC,#27               ; [CPU_ALU] |358| 
    1029 0000014a 0700!         ADDL      ACC,@_OSTCBCur        ; [CPU_ALU] |358| 
    1030 0000014b 8AA9          MOVL      XAR4,ACC              ; [CPU_ALU] |358| 
    1031 0000014c 2BC4          MOV       *+XAR4[0],#0          ; [CPU_ALU] |358| 
    1032                      .dwpsn  file "C:/ti/Workspace/PLC_certificate/Software/uCOS-II/Source/os_mbox.c",line 359,column 5,is
    1033 0000014d BE00          MOVB      XAR6,#0               ; [CPU_ALU] |359| 
    1034 0000014e 020E          MOVB      ACC,#14               ; [CPU_ALU] |359| 
    1035 0000014f 0700!         ADDL      ACC,@_OSTCBCur        ; [CPU_ALU] |359| 
    1036 00000150 8AA9          MOVL      XAR4,ACC              ; [CPU_ALU] |359| 
    1037 00000151 C2C4          MOVL      *+XAR4[0],XAR6        ; [CPU_ALU] |359| 
    1038                      .dwpsn  file "C:/ti/Workspace/PLC_certificate/Software/uCOS-II/Source/os_mbox.c",line 361,column 5,is
    1039 00000152 0210          MOVB      ACC,#16               ; [CPU_ALU] |361| 
    1040 00000153 0700!         ADDL      ACC,@_OSTCBCur        ; [CPU_ALU] |361| 
    1041 00000154 8AA9          MOVL      XAR4,ACC              ; [CPU_ALU] |361| 
    1042 00000155 C2C4          MOVL      *+XAR4[0],XAR6        ; [CPU_ALU] |361| 
    1043                      .dwpsn  file "C:/ti/Workspace/PLC_certificate/Software/uCOS-II/Source/os_mbox.c",line 363,column 5,is
    1044 00000156 0212          MOVB      ACC,#18               ; [CPU_ALU] |363| 
    1045 00000157 0700!         ADDL      ACC,@_OSTCBCur        ; [CPU_ALU] |363| 
    1046 00000158 8AA9          MOVL      XAR4,ACC              ; [CPU_ALU] |363| 
    1047 00000159 C2C4          MOVL      *+XAR4[0],XAR6        ; [CPU_ALU] |363| 
    1048                      .dwpsn  file "C:/ti/Workspace/PLC_certificate/Software/uCOS-II/Source/os_mbox.c",line 364,column 5,is
    1049 0000015a 9249          MOV       AL,*-SP[9]            ; [CPU_ALU] |364| 
    1050              $C$DW$72        .dwtag  DW_TAG_TI_branch
    1051                      .dwattr $C$DW$72, DW_AT_low_pc(0x00)
    1052                      .dwattr $C$DW$72, DW_AT_name("_OS_CPU_SR_Restore")
    1053                      .dwattr $C$DW$72, DW_AT_TI_call
TMS320C2000 Assembler PC v20.2.1 Tue Feb 16 00:15:58 2021

Copyright (c) 1996-2018 Texas Instruments Incorporated
os_mbox.asm                                                          PAGE   21

    1054              
    1055 0000015b 7640!         LCR       #_OS_CPU_SR_Restore   ; [CPU_ALU] |364| 
         0000015c 0000 
    1056                      ; call occurs [#_OS_CPU_SR_Restore] ; [] |364| 
    1057                      .dwpsn  file "C:/ti/Workspace/PLC_certificate/Software/uCOS-II/Source/os_mbox.c",line 365,column 5,is
    1058 0000015d 8A48          MOVL      XAR4,*-SP[8]          ; [CPU_ALU] |365| 
    1059 0000015e       $C$L31:    
    1060                      .dwpsn  file "C:/ti/Workspace/PLC_certificate/Software/uCOS-II/Source/os_mbox.c",line 366,column 1,is
    1061 0000015e FE8A          SUBB      SP,#10                ; [CPU_ARAU] 
    1062                      .dwcfi  cfa_offset, -2
    1063              $C$DW$73        .dwtag  DW_TAG_TI_branch
    1064                      .dwattr $C$DW$73, DW_AT_low_pc(0x00)
    1065                      .dwattr $C$DW$73, DW_AT_TI_return
    1066              
    1067 0000015f 0006          LRETR     ; [CPU_ALU] 
    1068                      ; return occurs ; [] 
    1069                      .dwattr $C$DW$56, DW_AT_TI_end_file("C:/ti/Workspace/PLC_certificate/Software/uCOS-II/Source/os_mbox.
    1070                      .dwattr $C$DW$56, DW_AT_TI_end_line(0x16e)
    1071                      .dwattr $C$DW$56, DW_AT_TI_end_column(0x01)
    1072                      .dwendentry
    1073                      .dwendtag $C$DW$56
    1074              
    1075 00000160               .sect   ".text"
    1076                      .clink
    1077                      .global _OSMboxPendAbort
    1078              
    1079              $C$DW$74        .dwtag  DW_TAG_subprogram
    1080                      .dwattr $C$DW$74, DW_AT_name("OSMboxPendAbort")
    1081                      .dwattr $C$DW$74, DW_AT_low_pc(_OSMboxPendAbort)
    1082                      .dwattr $C$DW$74, DW_AT_high_pc(0x00)
    1083                      .dwattr $C$DW$74, DW_AT_TI_symbol_name("_OSMboxPendAbort")
    1084                      .dwattr $C$DW$74, DW_AT_external
    1085                      .dwattr $C$DW$74, DW_AT_type(*$C$DW$T$19)
    1086                      .dwattr $C$DW$74, DW_AT_TI_begin_file("C:/ti/Workspace/PLC_certificate/Software/uCOS-II/Source/os_mbo
    1087                      .dwattr $C$DW$74, DW_AT_TI_begin_line(0x191)
    1088                      .dwattr $C$DW$74, DW_AT_TI_begin_column(0x08)
    1089                      .dwattr $C$DW$74, DW_AT_TI_max_frame_size(-10)
    1090                      .dwpsn  file "C:/ti/Workspace/PLC_certificate/Software/uCOS-II/Source/os_mbox.c",line 404,column 1,is
    1091              
    1092                      .dwfde $C$DW$CIE, _OSMboxPendAbort
    1093              $C$DW$75        .dwtag  DW_TAG_formal_parameter
    1094                      .dwattr $C$DW$75, DW_AT_name("pevent")
    1095                      .dwattr $C$DW$75, DW_AT_TI_symbol_name("_pevent")
    1096                      .dwattr $C$DW$75, DW_AT_type(*$C$DW$T$33)
    1097                      .dwattr $C$DW$75, DW_AT_location[DW_OP_reg12]
    1098              
    1099              $C$DW$76        .dwtag  DW_TAG_formal_parameter
    1100                      .dwattr $C$DW$76, DW_AT_name("opt")
    1101                      .dwattr $C$DW$76, DW_AT_TI_symbol_name("_opt")
    1102                      .dwattr $C$DW$76, DW_AT_type(*$C$DW$T$19)
    1103                      .dwattr $C$DW$76, DW_AT_location[DW_OP_reg0]
    1104              
    1105              $C$DW$77        .dwtag  DW_TAG_formal_parameter
    1106                      .dwattr $C$DW$77, DW_AT_name("perr")
    1107                      .dwattr $C$DW$77, DW_AT_TI_symbol_name("_perr")
TMS320C2000 Assembler PC v20.2.1 Tue Feb 16 00:15:58 2021

Copyright (c) 1996-2018 Texas Instruments Incorporated
os_mbox.asm                                                          PAGE   22

    1108                      .dwattr $C$DW$77, DW_AT_type(*$C$DW$T$23)
    1109                      .dwattr $C$DW$77, DW_AT_location[DW_OP_reg14]
    1110              
    1111              
    1112              ;***************************************************************
    1113              ;* FNAME: _OSMboxPendAbort              FR SIZE:   8           *
    1114              ;*                                                             *
    1115              ;* FUNCTION ENVIRONMENT                                        *
    1116              ;*                                                             *
    1117              ;* FUNCTION PROPERTIES                                         *
    1118              ;*                            0 Parameter,  7 Auto,  0 SOE     *
    1119              ;***************************************************************
    1120              
    1121 00000160       _OSMboxPendAbort:
    1122                      .dwcfi  cfa_offset, -2
    1123                      .dwcfi  save_reg_to_mem, 26, 0
    1124 00000160 FE08          ADDB      SP,#8                 ; [CPU_ARAU] 
    1125                      .dwcfi  cfa_offset, -10
    1126              $C$DW$78        .dwtag  DW_TAG_variable
    1127                      .dwattr $C$DW$78, DW_AT_name("pevent")
    1128                      .dwattr $C$DW$78, DW_AT_TI_symbol_name("_pevent")
    1129                      .dwattr $C$DW$78, DW_AT_type(*$C$DW$T$33)
    1130                      .dwattr $C$DW$78, DW_AT_location[DW_OP_breg20 -2]
    1131              
    1132              $C$DW$79        .dwtag  DW_TAG_variable
    1133                      .dwattr $C$DW$79, DW_AT_name("perr")
    1134                      .dwattr $C$DW$79, DW_AT_TI_symbol_name("_perr")
    1135                      .dwattr $C$DW$79, DW_AT_type(*$C$DW$T$23)
    1136                      .dwattr $C$DW$79, DW_AT_location[DW_OP_breg20 -4]
    1137              
    1138              $C$DW$80        .dwtag  DW_TAG_variable
    1139                      .dwattr $C$DW$80, DW_AT_name("opt")
    1140                      .dwattr $C$DW$80, DW_AT_TI_symbol_name("_opt")
    1141                      .dwattr $C$DW$80, DW_AT_type(*$C$DW$T$19)
    1142                      .dwattr $C$DW$80, DW_AT_location[DW_OP_breg20 -5]
    1143              
    1144              $C$DW$81        .dwtag  DW_TAG_variable
    1145                      .dwattr $C$DW$81, DW_AT_name("nbr_tasks")
    1146                      .dwattr $C$DW$81, DW_AT_TI_symbol_name("_nbr_tasks")
    1147                      .dwattr $C$DW$81, DW_AT_type(*$C$DW$T$19)
    1148                      .dwattr $C$DW$81, DW_AT_location[DW_OP_breg20 -6]
    1149              
    1150              $C$DW$82        .dwtag  DW_TAG_variable
    1151                      .dwattr $C$DW$82, DW_AT_name("cpu_sr")
    1152                      .dwattr $C$DW$82, DW_AT_TI_symbol_name("_cpu_sr")
    1153                      .dwattr $C$DW$82, DW_AT_type(*$C$DW$T$41)
    1154                      .dwattr $C$DW$82, DW_AT_location[DW_OP_breg20 -7]
    1155              
    1156 00000161 A044          MOVL      *-SP[4],XAR5          ; [CPU_ALU] |404| 
    1157 00000162 9645          MOV       *-SP[5],AL            ; [CPU_ALU] |404| 
    1158 00000163 A842          MOVL      *-SP[2],XAR4          ; [CPU_ALU] |404| 
    1159                      .dwpsn  file "C:/ti/Workspace/PLC_certificate/Software/uCOS-II/Source/os_mbox.c",line 407,column 23,i
    1160 00000164 2B47          MOV       *-SP[7],#0            ; [CPU_ALU] |407| 
    1161                      .dwpsn  file "C:/ti/Workspace/PLC_certificate/Software/uCOS-II/Source/os_mbox.c",line 420,column 5,is
    1162 00000165 0642          MOVL      ACC,*-SP[2]           ; [CPU_ALU] |420| 
TMS320C2000 Assembler PC v20.2.1 Tue Feb 16 00:15:58 2021

Copyright (c) 1996-2018 Texas Instruments Incorporated
os_mbox.asm                                                          PAGE   23

    1163 00000166 6006          B         $C$L32,NEQ            ; [CPU_ALU] |420| 
    1164                      ; branchcc occurs ; [] |420| 
    1165                      .dwpsn  file "C:/ti/Workspace/PLC_certificate/Software/uCOS-II/Source/os_mbox.c",line 421,column 9,is
    1166 00000167 8A44          MOVL      XAR4,*-SP[4]          ; [CPU_ALU] |421| 
    1167 00000168 56BF          MOVB      *+XAR4[0],#4,UNC      ; [CPU_ALU] |421| 
         00000169 04C4 
    1168                      .dwpsn  file "C:/ti/Workspace/PLC_certificate/Software/uCOS-II/Source/os_mbox.c",line 422,column 9,is
    1169 0000016a 9A00          MOVB      AL,#0                 ; [CPU_ALU] |422| 
    1170 0000016b 6F37          B         $C$L40,UNC            ; [CPU_ALU] |422| 
    1171                      ; branch occurs ; [] |422| 
    1172 0000016c       $C$L32:    
    1173                      .dwpsn  file "C:/ti/Workspace/PLC_certificate/Software/uCOS-II/Source/os_mbox.c",line 425,column 5,is
    1174 0000016c 92C4          MOV       AL,*+XAR4[0]          ; [CPU_ALU] |425| 
    1175 0000016d 5201          CMPB      AL,#1                 ; [CPU_ALU] |425| 
    1176 0000016e 6106          B         $C$L33,EQ             ; [CPU_ALU] |425| 
    1177                      ; branchcc occurs ; [] |425| 
    1178                      .dwpsn  file "C:/ti/Workspace/PLC_certificate/Software/uCOS-II/Source/os_mbox.c",line 426,column 9,is
    1179 0000016f 8A44          MOVL      XAR4,*-SP[4]          ; [CPU_ALU] |426| 
    1180 00000170 56BF          MOVB      *+XAR4[0],#1,UNC      ; [CPU_ALU] |426| 
         00000171 01C4 
    1181                      .dwpsn  file "C:/ti/Workspace/PLC_certificate/Software/uCOS-II/Source/os_mbox.c",line 427,column 9,is
    1182 00000172 9A00          MOVB      AL,#0                 ; [CPU_ALU] |427| 
    1183 00000173 6F2F          B         $C$L40,UNC            ; [CPU_ALU] |427| 
    1184                      ; branch occurs ; [] |427| 
    1185 00000174       $C$L33:    
    1186                      .dwpsn  file "C:/ti/Workspace/PLC_certificate/Software/uCOS-II/Source/os_mbox.c",line 429,column 5,is
    1187              $C$DW$83        .dwtag  DW_TAG_TI_branch
    1188                      .dwattr $C$DW$83, DW_AT_low_pc(0x00)
    1189                      .dwattr $C$DW$83, DW_AT_name("_OS_CPU_SR_Save")
    1190                      .dwattr $C$DW$83, DW_AT_TI_call
    1191              
    1192 00000174 7640!         LCR       #_OS_CPU_SR_Save      ; [CPU_ALU] |429| 
         00000175 0000 
    1193                      ; call occurs [#_OS_CPU_SR_Save] ; [] |429| 
    1194 00000176 9647          MOV       *-SP[7],AL            ; [CPU_ALU] |429| 
    1195                      .dwpsn  file "C:/ti/Workspace/PLC_certificate/Software/uCOS-II/Source/os_mbox.c",line 430,column 5,is
    1196 00000177 8A42          MOVL      XAR4,*-SP[2]          ; [CPU_ALU] |430| 
    1197 00000178 92EC          MOV       AL,*+XAR4[5]          ; [CPU_ALU] |430| 
    1198 00000179 6123          B         $C$L39,EQ             ; [CPU_ALU] |430| 
    1199                      ; branchcc occurs ; [] |430| 
    1200                      .dwpsn  file "C:/ti/Workspace/PLC_certificate/Software/uCOS-II/Source/os_mbox.c",line 431,column 9,is
    1201 0000017a 2B46          MOV       *-SP[6],#0            ; [CPU_ALU] |431| 
    1202                      .dwpsn  file "C:/ti/Workspace/PLC_certificate/Software/uCOS-II/Source/os_mbox.c",line 432,column 9,is
    1203 0000017b 6F12          B         $C$L37,UNC            ; [CPU_ALU] |432| 
    1204                      ; branch occurs ; [] |432| 
    1205 0000017c       $C$L34:    
    1206                      .dwpsn  file "C:/ti/Workspace/PLC_certificate/Software/uCOS-II/Source/os_mbox.c",line 435,column 22,i
    1207 0000017c D500          MOVB      XAR5,#0               ; [CPU_ALU] |435| 
    1208 0000017d 9A02          MOVB      AL,#2                 ; [CPU_ALU] |435| 
    1209 0000017e 9B02          MOVB      AH,#2                 ; [CPU_ALU] |435| 
    1210              $C$DW$84        .dwtag  DW_TAG_TI_branch
    1211                      .dwattr $C$DW$84, DW_AT_low_pc(0x00)
    1212                      .dwattr $C$DW$84, DW_AT_name("_OS_EventTaskRdy")
    1213                      .dwattr $C$DW$84, DW_AT_TI_call
    1214              
TMS320C2000 Assembler PC v20.2.1 Tue Feb 16 00:15:58 2021

Copyright (c) 1996-2018 Texas Instruments Incorporated
os_mbox.asm                                                          PAGE   24

    1215 0000017f 7640!         LCR       #_OS_EventTaskRdy     ; [CPU_ALU] |435| 
         00000180 0000 
    1216                      ; call occurs [#_OS_EventTaskRdy] ; [] |435| 
    1217                      .dwpsn  file "C:/ti/Workspace/PLC_certificate/Software/uCOS-II/Source/os_mbox.c",line 436,column 22,i
    1218 00000181 0A46          INC       *-SP[6]               ; [CPU_ALU] |436| 
    1219 00000182       $C$L35:    
    1220                      .dwpsn  file "C:/ti/Workspace/PLC_certificate/Software/uCOS-II/Source/os_mbox.c",line 434,column 25,i
    1221 00000182 8A42          MOVL      XAR4,*-SP[2]          ; [CPU_ALU] |434| 
    1222 00000183 92EC          MOV       AL,*+XAR4[5]          ; [CPU_ALU] |434| 
    1223 00000184 60F8          B         $C$L34,NEQ            ; [CPU_ALU] |434| 
    1224                      ; branchcc occurs ; [] |434| 
    1225                      .dwpsn  file "C:/ti/Workspace/PLC_certificate/Software/uCOS-II/Source/os_mbox.c",line 438,column 18,i
    1226 00000185 6F0D          B         $C$L38,UNC            ; [CPU_ALU] |438| 
    1227                      ; branch occurs ; [] |438| 
    1228 00000186       $C$L36:    
    1229                      .dwpsn  file "C:/ti/Workspace/PLC_certificate/Software/uCOS-II/Source/os_mbox.c",line 442,column 18,i
    1230 00000186 D500          MOVB      XAR5,#0               ; [CPU_ALU] |442| 
    1231 00000187 9A02          MOVB      AL,#2                 ; [CPU_ALU] |442| 
    1232 00000188 9B02          MOVB      AH,#2                 ; [CPU_ALU] |442| 
    1233              $C$DW$85        .dwtag  DW_TAG_TI_branch
    1234                      .dwattr $C$DW$85, DW_AT_low_pc(0x00)
    1235                      .dwattr $C$DW$85, DW_AT_name("_OS_EventTaskRdy")
    1236                      .dwattr $C$DW$85, DW_AT_TI_call
    1237              
    1238 00000189 7640!         LCR       #_OS_EventTaskRdy     ; [CPU_ALU] |442| 
         0000018a 0000 
    1239                      ; call occurs [#_OS_EventTaskRdy] ; [] |442| 
    1240                      .dwpsn  file "C:/ti/Workspace/PLC_certificate/Software/uCOS-II/Source/os_mbox.c",line 443,column 18,i
    1241 0000018b 0A46          INC       *-SP[6]               ; [CPU_ALU] |443| 
    1242                      .dwpsn  file "C:/ti/Workspace/PLC_certificate/Software/uCOS-II/Source/os_mbox.c",line 444,column 18,i
    1243 0000018c 6F06          B         $C$L38,UNC            ; [CPU_ALU] |444| 
    1244                      ; branch occurs ; [] |444| 
    1245 0000018d       $C$L37:    
    1246                      .dwpsn  file "C:/ti/Workspace/PLC_certificate/Software/uCOS-II/Source/os_mbox.c",line 432,column 9,is
    1247 0000018d 9245          MOV       AL,*-SP[5]            ; [CPU_ALU] |432| 
    1248 0000018e 61F8          B         $C$L36,EQ             ; [CPU_ALU] |432| 
    1249                      ; branchcc occurs ; [] |432| 
    1250 0000018f 5201          CMPB      AL,#1                 ; [CPU_ALU] |432| 
    1251 00000190 61F2          B         $C$L35,EQ             ; [CPU_ALU] |432| 
    1252                      ; branchcc occurs ; [] |432| 
    1253 00000191 6FF5          B         $C$L36,UNC            ; [CPU_ALU] |432| 
    1254                      ; branch occurs ; [] |432| 
    1255 00000192       $C$L38:    
    1256                      .dwpsn  file "C:/ti/Workspace/PLC_certificate/Software/uCOS-II/Source/os_mbox.c",line 446,column 9,is
    1257 00000192 9247          MOV       AL,*-SP[7]            ; [CPU_ALU] |446| 
    1258              $C$DW$86        .dwtag  DW_TAG_TI_branch
    1259                      .dwattr $C$DW$86, DW_AT_low_pc(0x00)
    1260                      .dwattr $C$DW$86, DW_AT_name("_OS_CPU_SR_Restore")
    1261                      .dwattr $C$DW$86, DW_AT_TI_call
    1262              
    1263 00000193 7640!         LCR       #_OS_CPU_SR_Restore   ; [CPU_ALU] |446| 
         00000194 0000 
    1264                      ; call occurs [#_OS_CPU_SR_Restore] ; [] |446| 
    1265                      .dwpsn  file "C:/ti/Workspace/PLC_certificate/Software/uCOS-II/Source/os_mbox.c",line 447,column 9,is
    1266              $C$DW$87        .dwtag  DW_TAG_TI_branch
TMS320C2000 Assembler PC v20.2.1 Tue Feb 16 00:15:58 2021

Copyright (c) 1996-2018 Texas Instruments Incorporated
os_mbox.asm                                                          PAGE   25

    1267                      .dwattr $C$DW$87, DW_AT_low_pc(0x00)
    1268                      .dwattr $C$DW$87, DW_AT_name("_OS_Sched")
    1269                      .dwattr $C$DW$87, DW_AT_TI_call
    1270              
    1271 00000195 7640!         LCR       #_OS_Sched            ; [CPU_ALU] |447| 
         00000196 0000 
    1272                      ; call occurs [#_OS_Sched] ; [] |447| 
    1273                      .dwpsn  file "C:/ti/Workspace/PLC_certificate/Software/uCOS-II/Source/os_mbox.c",line 448,column 9,is
    1274 00000197 8A44          MOVL      XAR4,*-SP[4]          ; [CPU_ALU] |448| 
    1275 00000198 56BF          MOVB      *+XAR4[0],#14,UNC     ; [CPU_ALU] |448| 
         00000199 0EC4 
    1276                      .dwpsn  file "C:/ti/Workspace/PLC_certificate/Software/uCOS-II/Source/os_mbox.c",line 449,column 9,is
    1277 0000019a 9246          MOV       AL,*-SP[6]            ; [CPU_ALU] |449| 
    1278 0000019b 6F07          B         $C$L40,UNC            ; [CPU_ALU] |449| 
    1279                      ; branch occurs ; [] |449| 
    1280 0000019c       $C$L39:    
    1281                      .dwpsn  file "C:/ti/Workspace/PLC_certificate/Software/uCOS-II/Source/os_mbox.c",line 451,column 5,is
    1282 0000019c 9247          MOV       AL,*-SP[7]            ; [CPU_ALU] |451| 
    1283              $C$DW$88        .dwtag  DW_TAG_TI_branch
    1284                      .dwattr $C$DW$88, DW_AT_low_pc(0x00)
    1285                      .dwattr $C$DW$88, DW_AT_name("_OS_CPU_SR_Restore")
    1286                      .dwattr $C$DW$88, DW_AT_TI_call
    1287              
    1288 0000019d 7640!         LCR       #_OS_CPU_SR_Restore   ; [CPU_ALU] |451| 
         0000019e 0000 
    1289                      ; call occurs [#_OS_CPU_SR_Restore] ; [] |451| 
    1290                      .dwpsn  file "C:/ti/Workspace/PLC_certificate/Software/uCOS-II/Source/os_mbox.c",line 452,column 5,is
    1291 0000019f 8A44          MOVL      XAR4,*-SP[4]          ; [CPU_ALU] |452| 
    1292 000001a0 2BC4          MOV       *+XAR4[0],#0          ; [CPU_ALU] |452| 
    1293                      .dwpsn  file "C:/ti/Workspace/PLC_certificate/Software/uCOS-II/Source/os_mbox.c",line 453,column 5,is
    1294 000001a1 9A00          MOVB      AL,#0                 ; [CPU_ALU] |453| 
    1295 000001a2       $C$L40:    
    1296                      .dwpsn  file "C:/ti/Workspace/PLC_certificate/Software/uCOS-II/Source/os_mbox.c",line 454,column 1,is
    1297 000001a2 FE88          SUBB      SP,#8                 ; [CPU_ARAU] 
    1298                      .dwcfi  cfa_offset, -2
    1299              $C$DW$89        .dwtag  DW_TAG_TI_branch
    1300                      .dwattr $C$DW$89, DW_AT_low_pc(0x00)
    1301                      .dwattr $C$DW$89, DW_AT_TI_return
    1302              
    1303 000001a3 0006          LRETR     ; [CPU_ALU] 
    1304                      ; return occurs ; [] 
    1305                      .dwattr $C$DW$74, DW_AT_TI_end_file("C:/ti/Workspace/PLC_certificate/Software/uCOS-II/Source/os_mbox.
    1306                      .dwattr $C$DW$74, DW_AT_TI_end_line(0x1c6)
    1307                      .dwattr $C$DW$74, DW_AT_TI_end_column(0x01)
    1308                      .dwendentry
    1309                      .dwendtag $C$DW$74
    1310              
    1311 000001a4               .sect   ".text"
    1312                      .clink
    1313                      .global _OSMboxPost
    1314              
    1315              $C$DW$90        .dwtag  DW_TAG_subprogram
    1316                      .dwattr $C$DW$90, DW_AT_name("OSMboxPost")
    1317                      .dwattr $C$DW$90, DW_AT_low_pc(_OSMboxPost)
    1318                      .dwattr $C$DW$90, DW_AT_high_pc(0x00)
TMS320C2000 Assembler PC v20.2.1 Tue Feb 16 00:15:58 2021

Copyright (c) 1996-2018 Texas Instruments Incorporated
os_mbox.asm                                                          PAGE   26

    1319                      .dwattr $C$DW$90, DW_AT_TI_symbol_name("_OSMboxPost")
    1320                      .dwattr $C$DW$90, DW_AT_external
    1321                      .dwattr $C$DW$90, DW_AT_type(*$C$DW$T$19)
    1322                      .dwattr $C$DW$90, DW_AT_TI_begin_file("C:/ti/Workspace/PLC_certificate/Software/uCOS-II/Source/os_mbo
    1323                      .dwattr $C$DW$90, DW_AT_TI_begin_line(0x1e1)
    1324                      .dwattr $C$DW$90, DW_AT_TI_begin_column(0x08)
    1325                      .dwattr $C$DW$90, DW_AT_TI_max_frame_size(-8)
    1326                      .dwpsn  file "C:/ti/Workspace/PLC_certificate/Software/uCOS-II/Source/os_mbox.c",line 483,column 1,is
    1327              
    1328                      .dwfde $C$DW$CIE, _OSMboxPost
    1329              $C$DW$91        .dwtag  DW_TAG_formal_parameter
    1330                      .dwattr $C$DW$91, DW_AT_name("pevent")
    1331                      .dwattr $C$DW$91, DW_AT_TI_symbol_name("_pevent")
    1332                      .dwattr $C$DW$91, DW_AT_type(*$C$DW$T$33)
    1333                      .dwattr $C$DW$91, DW_AT_location[DW_OP_reg12]
    1334              
    1335              $C$DW$92        .dwtag  DW_TAG_formal_parameter
    1336                      .dwattr $C$DW$92, DW_AT_name("pmsg")
    1337                      .dwattr $C$DW$92, DW_AT_TI_symbol_name("_pmsg")
    1338                      .dwattr $C$DW$92, DW_AT_type(*$C$DW$T$3)
    1339                      .dwattr $C$DW$92, DW_AT_location[DW_OP_reg14]
    1340              
    1341              
    1342              ;***************************************************************
    1343              ;* FNAME: _OSMboxPost                   FR SIZE:   6           *
    1344              ;*                                                             *
    1345              ;* FUNCTION ENVIRONMENT                                        *
    1346              ;*                                                             *
    1347              ;* FUNCTION PROPERTIES                                         *
    1348              ;*                            0 Parameter,  5 Auto,  0 SOE     *
    1349              ;***************************************************************
    1350              
    1351 000001a4       _OSMboxPost:
    1352                      .dwcfi  cfa_offset, -2
    1353                      .dwcfi  save_reg_to_mem, 26, 0
    1354 000001a4 FE06          ADDB      SP,#6                 ; [CPU_ARAU] 
    1355                      .dwcfi  cfa_offset, -8
    1356              $C$DW$93        .dwtag  DW_TAG_variable
    1357                      .dwattr $C$DW$93, DW_AT_name("pevent")
    1358                      .dwattr $C$DW$93, DW_AT_TI_symbol_name("_pevent")
    1359                      .dwattr $C$DW$93, DW_AT_type(*$C$DW$T$33)
    1360                      .dwattr $C$DW$93, DW_AT_location[DW_OP_breg20 -2]
    1361              
    1362              $C$DW$94        .dwtag  DW_TAG_variable
    1363                      .dwattr $C$DW$94, DW_AT_name("pmsg")
    1364                      .dwattr $C$DW$94, DW_AT_TI_symbol_name("_pmsg")
    1365                      .dwattr $C$DW$94, DW_AT_type(*$C$DW$T$3)
    1366                      .dwattr $C$DW$94, DW_AT_location[DW_OP_breg20 -4]
    1367              
    1368              $C$DW$95        .dwtag  DW_TAG_variable
    1369                      .dwattr $C$DW$95, DW_AT_name("cpu_sr")
    1370                      .dwattr $C$DW$95, DW_AT_TI_symbol_name("_cpu_sr")
    1371                      .dwattr $C$DW$95, DW_AT_type(*$C$DW$T$41)
    1372                      .dwattr $C$DW$95, DW_AT_location[DW_OP_breg20 -5]
    1373              
TMS320C2000 Assembler PC v20.2.1 Tue Feb 16 00:15:58 2021

Copyright (c) 1996-2018 Texas Instruments Incorporated
os_mbox.asm                                                          PAGE   27

    1374 000001a5 A044          MOVL      *-SP[4],XAR5          ; [CPU_ALU] |483| 
    1375 000001a6 A842          MOVL      *-SP[2],XAR4          ; [CPU_ALU] |483| 
    1376                      .dwpsn  file "C:/ti/Workspace/PLC_certificate/Software/uCOS-II/Source/os_mbox.c",line 485,column 23,i
    1377 000001a7 2B45          MOV       *-SP[5],#0            ; [CPU_ALU] |485| 
    1378                      .dwpsn  file "C:/ti/Workspace/PLC_certificate/Software/uCOS-II/Source/os_mbox.c",line 491,column 5,is
    1379 000001a8 0642          MOVL      ACC,*-SP[2]           ; [CPU_ALU] |491| 
    1380 000001a9 6003          B         $C$L41,NEQ            ; [CPU_ALU] |491| 
    1381                      ; branchcc occurs ; [] |491| 
    1382                      .dwpsn  file "C:/ti/Workspace/PLC_certificate/Software/uCOS-II/Source/os_mbox.c",line 492,column 9,is
    1383 000001aa 9A04          MOVB      AL,#4                 ; [CPU_ALU] |492| 
    1384 000001ab 6F29          B         $C$L46,UNC            ; [CPU_ALU] |492| 
    1385                      ; branch occurs ; [] |492| 
    1386 000001ac       $C$L41:    
    1387                      .dwpsn  file "C:/ti/Workspace/PLC_certificate/Software/uCOS-II/Source/os_mbox.c",line 494,column 5,is
    1388 000001ac 0644          MOVL      ACC,*-SP[4]           ; [CPU_ALU] |494| 
    1389 000001ad 6003          B         $C$L42,NEQ            ; [CPU_ALU] |494| 
    1390                      ; branchcc occurs ; [] |494| 
    1391                      .dwpsn  file "C:/ti/Workspace/PLC_certificate/Software/uCOS-II/Source/os_mbox.c",line 495,column 9,is
    1392 000001ae 9A03          MOVB      AL,#3                 ; [CPU_ALU] |495| 
    1393 000001af 6F25          B         $C$L46,UNC            ; [CPU_ALU] |495| 
    1394                      ; branch occurs ; [] |495| 
    1395 000001b0       $C$L42:    
    1396                      .dwpsn  file "C:/ti/Workspace/PLC_certificate/Software/uCOS-II/Source/os_mbox.c",line 498,column 5,is
    1397 000001b0 92C4          MOV       AL,*+XAR4[0]          ; [CPU_ALU] |498| 
    1398 000001b1 5201          CMPB      AL,#1                 ; [CPU_ALU] |498| 
    1399 000001b2 6103          B         $C$L43,EQ             ; [CPU_ALU] |498| 
    1400                      ; branchcc occurs ; [] |498| 
    1401                      .dwpsn  file "C:/ti/Workspace/PLC_certificate/Software/uCOS-II/Source/os_mbox.c",line 499,column 9,is
    1402 000001b3 9A01          MOVB      AL,#1                 ; [CPU_ALU] |499| 
    1403 000001b4 6F20          B         $C$L46,UNC            ; [CPU_ALU] |499| 
    1404                      ; branch occurs ; [] |499| 
    1405 000001b5       $C$L43:    
    1406                      .dwpsn  file "C:/ti/Workspace/PLC_certificate/Software/uCOS-II/Source/os_mbox.c",line 501,column 5,is
    1407              $C$DW$96        .dwtag  DW_TAG_TI_branch
    1408                      .dwattr $C$DW$96, DW_AT_low_pc(0x00)
    1409                      .dwattr $C$DW$96, DW_AT_name("_OS_CPU_SR_Save")
    1410                      .dwattr $C$DW$96, DW_AT_TI_call
    1411              
    1412 000001b5 7640!         LCR       #_OS_CPU_SR_Save      ; [CPU_ALU] |501| 
         000001b6 0000 
    1413                      ; call occurs [#_OS_CPU_SR_Save] ; [] |501| 
    1414 000001b7 9645          MOV       *-SP[5],AL            ; [CPU_ALU] |501| 
    1415                      .dwpsn  file "C:/ti/Workspace/PLC_certificate/Software/uCOS-II/Source/os_mbox.c",line 502,column 5,is
    1416 000001b8 8A42          MOVL      XAR4,*-SP[2]          ; [CPU_ALU] |502| 
    1417 000001b9 92EC          MOV       AL,*+XAR4[5]          ; [CPU_ALU] |502| 
    1418 000001ba 610D          B         $C$L44,EQ             ; [CPU_ALU] |502| 
    1419                      ; branchcc occurs ; [] |502| 
    1420                      .dwpsn  file "C:/ti/Workspace/PLC_certificate/Software/uCOS-II/Source/os_mbox.c",line 504,column 9,is
    1421 000001bb 8344          MOVL      XAR5,*-SP[4]          ; [CPU_ALU] |504| 
    1422 000001bc 9A02          MOVB      AL,#2                 ; [CPU_ALU] |504| 
    1423 000001bd 9B00          MOVB      AH,#0                 ; [CPU_ALU] |504| 
    1424              $C$DW$97        .dwtag  DW_TAG_TI_branch
    1425                      .dwattr $C$DW$97, DW_AT_low_pc(0x00)
    1426                      .dwattr $C$DW$97, DW_AT_name("_OS_EventTaskRdy")
    1427                      .dwattr $C$DW$97, DW_AT_TI_call
TMS320C2000 Assembler PC v20.2.1 Tue Feb 16 00:15:58 2021

Copyright (c) 1996-2018 Texas Instruments Incorporated
os_mbox.asm                                                          PAGE   28

    1428              
    1429 000001be 7640!         LCR       #_OS_EventTaskRdy     ; [CPU_ALU] |504| 
         000001bf 0000 
    1430                      ; call occurs [#_OS_EventTaskRdy] ; [] |504| 
    1431                      .dwpsn  file "C:/ti/Workspace/PLC_certificate/Software/uCOS-II/Source/os_mbox.c",line 505,column 9,is
    1432 000001c0 9245          MOV       AL,*-SP[5]            ; [CPU_ALU] |505| 
    1433              $C$DW$98        .dwtag  DW_TAG_TI_branch
    1434                      .dwattr $C$DW$98, DW_AT_low_pc(0x00)
    1435                      .dwattr $C$DW$98, DW_AT_name("_OS_CPU_SR_Restore")
    1436                      .dwattr $C$DW$98, DW_AT_TI_call
    1437              
    1438 000001c1 7640!         LCR       #_OS_CPU_SR_Restore   ; [CPU_ALU] |505| 
         000001c2 0000 
    1439                      ; call occurs [#_OS_CPU_SR_Restore] ; [] |505| 
    1440                      .dwpsn  file "C:/ti/Workspace/PLC_certificate/Software/uCOS-II/Source/os_mbox.c",line 506,column 9,is
    1441              $C$DW$99        .dwtag  DW_TAG_TI_branch
    1442                      .dwattr $C$DW$99, DW_AT_low_pc(0x00)
    1443                      .dwattr $C$DW$99, DW_AT_name("_OS_Sched")
    1444                      .dwattr $C$DW$99, DW_AT_TI_call
    1445              
    1446 000001c3 7640!         LCR       #_OS_Sched            ; [CPU_ALU] |506| 
         000001c4 0000 
    1447                      ; call occurs [#_OS_Sched] ; [] |506| 
    1448                      .dwpsn  file "C:/ti/Workspace/PLC_certificate/Software/uCOS-II/Source/os_mbox.c",line 507,column 9,is
    1449 000001c5 9A00          MOVB      AL,#0                 ; [CPU_ALU] |507| 
    1450 000001c6 6F0E          B         $C$L46,UNC            ; [CPU_ALU] |507| 
    1451                      ; branch occurs ; [] |507| 
    1452 000001c7       $C$L44:    
    1453                      .dwpsn  file "C:/ti/Workspace/PLC_certificate/Software/uCOS-II/Source/os_mbox.c",line 509,column 5,is
    1454 000001c7 06D4          MOVL      ACC,*+XAR4[2]         ; [CPU_ALU] |509| 
    1455 000001c8 6106          B         $C$L45,EQ             ; [CPU_ALU] |509| 
    1456                      ; branchcc occurs ; [] |509| 
    1457                      .dwpsn  file "C:/ti/Workspace/PLC_certificate/Software/uCOS-II/Source/os_mbox.c",line 510,column 9,is
    1458 000001c9 9245          MOV       AL,*-SP[5]            ; [CPU_ALU] |510| 
    1459              $C$DW$100       .dwtag  DW_TAG_TI_branch
    1460                      .dwattr $C$DW$100, DW_AT_low_pc(0x00)
    1461                      .dwattr $C$DW$100, DW_AT_name("_OS_CPU_SR_Restore")
    1462                      .dwattr $C$DW$100, DW_AT_TI_call
    1463              
    1464 000001ca 7640!         LCR       #_OS_CPU_SR_Restore   ; [CPU_ALU] |510| 
         000001cb 0000 
    1465                      ; call occurs [#_OS_CPU_SR_Restore] ; [] |510| 
    1466                      .dwpsn  file "C:/ti/Workspace/PLC_certificate/Software/uCOS-II/Source/os_mbox.c",line 511,column 9,is
    1467 000001cc 9A14          MOVB      AL,#20                ; [CPU_ALU] |511| 
    1468 000001cd 6F07          B         $C$L46,UNC            ; [CPU_ALU] |511| 
    1469                      ; branch occurs ; [] |511| 
    1470 000001ce       $C$L45:    
    1471                      .dwpsn  file "C:/ti/Workspace/PLC_certificate/Software/uCOS-II/Source/os_mbox.c",line 513,column 5,is
    1472 000001ce 0644          MOVL      ACC,*-SP[4]           ; [CPU_ALU] |513| 
    1473 000001cf 1ED4          MOVL      *+XAR4[2],ACC         ; [CPU_ALU] |513| 
    1474                      .dwpsn  file "C:/ti/Workspace/PLC_certificate/Software/uCOS-II/Source/os_mbox.c",line 514,column 5,is
    1475 000001d0 9245          MOV       AL,*-SP[5]            ; [CPU_ALU] |514| 
    1476              $C$DW$101       .dwtag  DW_TAG_TI_branch
    1477                      .dwattr $C$DW$101, DW_AT_low_pc(0x00)
    1478                      .dwattr $C$DW$101, DW_AT_name("_OS_CPU_SR_Restore")
TMS320C2000 Assembler PC v20.2.1 Tue Feb 16 00:15:58 2021

Copyright (c) 1996-2018 Texas Instruments Incorporated
os_mbox.asm                                                          PAGE   29

    1479                      .dwattr $C$DW$101, DW_AT_TI_call
    1480              
    1481 000001d1 7640!         LCR       #_OS_CPU_SR_Restore   ; [CPU_ALU] |514| 
         000001d2 0000 
    1482                      ; call occurs [#_OS_CPU_SR_Restore] ; [] |514| 
    1483                      .dwpsn  file "C:/ti/Workspace/PLC_certificate/Software/uCOS-II/Source/os_mbox.c",line 515,column 5,is
    1484 000001d3 9A00          MOVB      AL,#0                 ; [CPU_ALU] |515| 
    1485 000001d4       $C$L46:    
    1486                      .dwpsn  file "C:/ti/Workspace/PLC_certificate/Software/uCOS-II/Source/os_mbox.c",line 516,column 1,is
    1487 000001d4 FE86          SUBB      SP,#6                 ; [CPU_ARAU] 
    1488                      .dwcfi  cfa_offset, -2
    1489              $C$DW$102       .dwtag  DW_TAG_TI_branch
    1490                      .dwattr $C$DW$102, DW_AT_low_pc(0x00)
    1491                      .dwattr $C$DW$102, DW_AT_TI_return
    1492              
    1493 000001d5 0006          LRETR     ; [CPU_ALU] 
    1494                      ; return occurs ; [] 
    1495                      .dwattr $C$DW$90, DW_AT_TI_end_file("C:/ti/Workspace/PLC_certificate/Software/uCOS-II/Source/os_mbox.
    1496                      .dwattr $C$DW$90, DW_AT_TI_end_line(0x204)
    1497                      .dwattr $C$DW$90, DW_AT_TI_end_column(0x01)
    1498                      .dwendentry
    1499                      .dwendtag $C$DW$90
    1500              
    1501 000001d6               .sect   ".text"
    1502                      .clink
    1503                      .global _OSMboxPostOpt
    1504              
    1505              $C$DW$103       .dwtag  DW_TAG_subprogram
    1506                      .dwattr $C$DW$103, DW_AT_name("OSMboxPostOpt")
    1507                      .dwattr $C$DW$103, DW_AT_low_pc(_OSMboxPostOpt)
    1508                      .dwattr $C$DW$103, DW_AT_high_pc(0x00)
    1509                      .dwattr $C$DW$103, DW_AT_TI_symbol_name("_OSMboxPostOpt")
    1510                      .dwattr $C$DW$103, DW_AT_external
    1511                      .dwattr $C$DW$103, DW_AT_type(*$C$DW$T$19)
    1512                      .dwattr $C$DW$103, DW_AT_TI_begin_file("C:/ti/Workspace/PLC_certificate/Software/uCOS-II/Source/os_mb
    1513                      .dwattr $C$DW$103, DW_AT_TI_begin_line(0x229)
    1514                      .dwattr $C$DW$103, DW_AT_TI_begin_column(0x08)
    1515                      .dwattr $C$DW$103, DW_AT_TI_max_frame_size(-8)
    1516                      .dwpsn  file "C:/ti/Workspace/PLC_certificate/Software/uCOS-II/Source/os_mbox.c",line 556,column 1,is
    1517              
    1518                      .dwfde $C$DW$CIE, _OSMboxPostOpt
    1519              $C$DW$104       .dwtag  DW_TAG_formal_parameter
    1520                      .dwattr $C$DW$104, DW_AT_name("pevent")
    1521                      .dwattr $C$DW$104, DW_AT_TI_symbol_name("_pevent")
    1522                      .dwattr $C$DW$104, DW_AT_type(*$C$DW$T$33)
    1523                      .dwattr $C$DW$104, DW_AT_location[DW_OP_reg12]
    1524              
    1525              $C$DW$105       .dwtag  DW_TAG_formal_parameter
    1526                      .dwattr $C$DW$105, DW_AT_name("pmsg")
    1527                      .dwattr $C$DW$105, DW_AT_TI_symbol_name("_pmsg")
    1528                      .dwattr $C$DW$105, DW_AT_type(*$C$DW$T$3)
    1529                      .dwattr $C$DW$105, DW_AT_location[DW_OP_reg14]
    1530              
    1531              $C$DW$106       .dwtag  DW_TAG_formal_parameter
    1532                      .dwattr $C$DW$106, DW_AT_name("opt")
TMS320C2000 Assembler PC v20.2.1 Tue Feb 16 00:15:58 2021

Copyright (c) 1996-2018 Texas Instruments Incorporated
os_mbox.asm                                                          PAGE   30

    1533                      .dwattr $C$DW$106, DW_AT_TI_symbol_name("_opt")
    1534                      .dwattr $C$DW$106, DW_AT_type(*$C$DW$T$19)
    1535                      .dwattr $C$DW$106, DW_AT_location[DW_OP_reg0]
    1536              
    1537              
    1538              ;***************************************************************
    1539              ;* FNAME: _OSMboxPostOpt                FR SIZE:   6           *
    1540              ;*                                                             *
    1541              ;* FUNCTION ENVIRONMENT                                        *
    1542              ;*                                                             *
    1543              ;* FUNCTION PROPERTIES                                         *
    1544              ;*                            0 Parameter,  6 Auto,  0 SOE     *
    1545              ;***************************************************************
    1546              
    1547 000001d6       _OSMboxPostOpt:
    1548                      .dwcfi  cfa_offset, -2
    1549                      .dwcfi  save_reg_to_mem, 26, 0
    1550 000001d6 FE06          ADDB      SP,#6                 ; [CPU_ARAU] 
    1551                      .dwcfi  cfa_offset, -8
    1552              $C$DW$107       .dwtag  DW_TAG_variable
    1553                      .dwattr $C$DW$107, DW_AT_name("pevent")
    1554                      .dwattr $C$DW$107, DW_AT_TI_symbol_name("_pevent")
    1555                      .dwattr $C$DW$107, DW_AT_type(*$C$DW$T$33)
    1556                      .dwattr $C$DW$107, DW_AT_location[DW_OP_breg20 -2]
    1557              
    1558              $C$DW$108       .dwtag  DW_TAG_variable
    1559                      .dwattr $C$DW$108, DW_AT_name("pmsg")
    1560                      .dwattr $C$DW$108, DW_AT_TI_symbol_name("_pmsg")
    1561                      .dwattr $C$DW$108, DW_AT_type(*$C$DW$T$3)
    1562                      .dwattr $C$DW$108, DW_AT_location[DW_OP_breg20 -4]
    1563              
    1564              $C$DW$109       .dwtag  DW_TAG_variable
    1565                      .dwattr $C$DW$109, DW_AT_name("opt")
    1566                      .dwattr $C$DW$109, DW_AT_TI_symbol_name("_opt")
    1567                      .dwattr $C$DW$109, DW_AT_type(*$C$DW$T$19)
    1568                      .dwattr $C$DW$109, DW_AT_location[DW_OP_breg20 -5]
    1569              
    1570              $C$DW$110       .dwtag  DW_TAG_variable
    1571                      .dwattr $C$DW$110, DW_AT_name("cpu_sr")
    1572                      .dwattr $C$DW$110, DW_AT_TI_symbol_name("_cpu_sr")
    1573                      .dwattr $C$DW$110, DW_AT_type(*$C$DW$T$41)
    1574                      .dwattr $C$DW$110, DW_AT_location[DW_OP_breg20 -6]
    1575              
    1576 000001d7 9645          MOV       *-SP[5],AL            ; [CPU_ALU] |556| 
    1577 000001d8 A044          MOVL      *-SP[4],XAR5          ; [CPU_ALU] |556| 
    1578 000001d9 A842          MOVL      *-SP[2],XAR4          ; [CPU_ALU] |556| 
    1579                      .dwpsn  file "C:/ti/Workspace/PLC_certificate/Software/uCOS-II/Source/os_mbox.c",line 558,column 23,i
    1580 000001da 2B46          MOV       *-SP[6],#0            ; [CPU_ALU] |558| 
    1581                      .dwpsn  file "C:/ti/Workspace/PLC_certificate/Software/uCOS-II/Source/os_mbox.c",line 564,column 5,is
    1582 000001db 0642          MOVL      ACC,*-SP[2]           ; [CPU_ALU] |564| 
    1583 000001dc 6003          B         $C$L47,NEQ            ; [CPU_ALU] |564| 
    1584                      ; branchcc occurs ; [] |564| 
    1585                      .dwpsn  file "C:/ti/Workspace/PLC_certificate/Software/uCOS-II/Source/os_mbox.c",line 565,column 9,is
    1586 000001dd 9A04          MOVB      AL,#4                 ; [CPU_ALU] |565| 
    1587 000001de 6F37          B         $C$L57,UNC            ; [CPU_ALU] |565| 
TMS320C2000 Assembler PC v20.2.1 Tue Feb 16 00:15:58 2021

Copyright (c) 1996-2018 Texas Instruments Incorporated
os_mbox.asm                                                          PAGE   31

    1588                      ; branch occurs ; [] |565| 
    1589 000001df       $C$L47:    
    1590                      .dwpsn  file "C:/ti/Workspace/PLC_certificate/Software/uCOS-II/Source/os_mbox.c",line 567,column 5,is
    1591 000001df 0644          MOVL      ACC,*-SP[4]           ; [CPU_ALU] |567| 
    1592 000001e0 6003          B         $C$L48,NEQ            ; [CPU_ALU] |567| 
    1593                      ; branchcc occurs ; [] |567| 
    1594                      .dwpsn  file "C:/ti/Workspace/PLC_certificate/Software/uCOS-II/Source/os_mbox.c",line 568,column 9,is
    1595 000001e1 9A03          MOVB      AL,#3                 ; [CPU_ALU] |568| 
    1596 000001e2 6F33          B         $C$L57,UNC            ; [CPU_ALU] |568| 
    1597                      ; branch occurs ; [] |568| 
    1598 000001e3       $C$L48:    
    1599                      .dwpsn  file "C:/ti/Workspace/PLC_certificate/Software/uCOS-II/Source/os_mbox.c",line 571,column 5,is
    1600 000001e3 92C4          MOV       AL,*+XAR4[0]          ; [CPU_ALU] |571| 
    1601 000001e4 5201          CMPB      AL,#1                 ; [CPU_ALU] |571| 
    1602 000001e5 6103          B         $C$L49,EQ             ; [CPU_ALU] |571| 
    1603                      ; branchcc occurs ; [] |571| 
    1604                      .dwpsn  file "C:/ti/Workspace/PLC_certificate/Software/uCOS-II/Source/os_mbox.c",line 572,column 9,is
    1605 000001e6 9A01          MOVB      AL,#1                 ; [CPU_ALU] |572| 
    1606 000001e7 6F2E          B         $C$L57,UNC            ; [CPU_ALU] |572| 
    1607                      ; branch occurs ; [] |572| 
    1608 000001e8       $C$L49:    
    1609                      .dwpsn  file "C:/ti/Workspace/PLC_certificate/Software/uCOS-II/Source/os_mbox.c",line 574,column 5,is
    1610              $C$DW$111       .dwtag  DW_TAG_TI_branch
    1611                      .dwattr $C$DW$111, DW_AT_low_pc(0x00)
    1612                      .dwattr $C$DW$111, DW_AT_name("_OS_CPU_SR_Save")
    1613                      .dwattr $C$DW$111, DW_AT_TI_call
    1614              
    1615 000001e8 7640!         LCR       #_OS_CPU_SR_Save      ; [CPU_ALU] |574| 
         000001e9 0000 
    1616                      ; call occurs [#_OS_CPU_SR_Save] ; [] |574| 
    1617 000001ea 9646          MOV       *-SP[6],AL            ; [CPU_ALU] |574| 
    1618                      .dwpsn  file "C:/ti/Workspace/PLC_certificate/Software/uCOS-II/Source/os_mbox.c",line 575,column 5,is
    1619 000001eb 8A42          MOVL      XAR4,*-SP[2]          ; [CPU_ALU] |575| 
    1620 000001ec 92EC          MOV       AL,*+XAR4[5]          ; [CPU_ALU] |575| 
    1621 000001ed 611B          B         $C$L55,EQ             ; [CPU_ALU] |575| 
    1622                      ; branchcc occurs ; [] |575| 
    1623                      .dwpsn  file "C:/ti/Workspace/PLC_certificate/Software/uCOS-II/Source/os_mbox.c",line 576,column 9,is
    1624 000001ee 4045          TBIT      *-SP[5],#0            ; [CPU_ALU] |576| 
    1625 000001ef 6C0B          B         $C$L52,NTC            ; [CPU_ALU] |576| 
    1626                      ; branchcc occurs ; [] |576| 
    1627                      .dwpsn  file "C:/ti/Workspace/PLC_certificate/Software/uCOS-II/Source/os_mbox.c",line 577,column 13,i
    1628 000001f0 6F06          B         $C$L51,UNC            ; [CPU_ALU] |577| 
    1629                      ; branch occurs ; [] |577| 
    1630 000001f1       $C$L50:    
    1631                      .dwpsn  file "C:/ti/Workspace/PLC_certificate/Software/uCOS-II/Source/os_mbox.c",line 578,column 17,i
    1632 000001f1 8344          MOVL      XAR5,*-SP[4]          ; [CPU_ALU] |578| 
    1633 000001f2 9A02          MOVB      AL,#2                 ; [CPU_ALU] |578| 
    1634 000001f3 9B00          MOVB      AH,#0                 ; [CPU_ALU] |578| 
    1635              $C$DW$112       .dwtag  DW_TAG_TI_branch
    1636                      .dwattr $C$DW$112, DW_AT_low_pc(0x00)
    1637                      .dwattr $C$DW$112, DW_AT_name("_OS_EventTaskRdy")
    1638                      .dwattr $C$DW$112, DW_AT_TI_call
    1639              
    1640 000001f4 7640!         LCR       #_OS_EventTaskRdy     ; [CPU_ALU] |578| 
         000001f5 0000 
TMS320C2000 Assembler PC v20.2.1 Tue Feb 16 00:15:58 2021

Copyright (c) 1996-2018 Texas Instruments Incorporated
os_mbox.asm                                                          PAGE   32

    1641                      ; call occurs [#_OS_EventTaskRdy] ; [] |578| 
    1642 000001f6       $C$L51:    
    1643                      .dwpsn  file "C:/ti/Workspace/PLC_certificate/Software/uCOS-II/Source/os_mbox.c",line 577,column 20,i
    1644 000001f6 8A42          MOVL      XAR4,*-SP[2]          ; [CPU_ALU] |577| 
    1645 000001f7 92EC          MOV       AL,*+XAR4[5]          ; [CPU_ALU] |577| 
    1646 000001f8 60F9          B         $C$L50,NEQ            ; [CPU_ALU] |577| 
    1647                      ; branchcc occurs ; [] |577| 
    1648 000001f9 6F06          B         $C$L53,UNC            ; [CPU_ALU] 
    1649                      ; branch occurs ; [] 
    1650 000001fa       $C$L52:    
    1651                      .dwpsn  file "C:/ti/Workspace/PLC_certificate/Software/uCOS-II/Source/os_mbox.c",line 581,column 13,i
    1652 000001fa 8344          MOVL      XAR5,*-SP[4]          ; [CPU_ALU] |581| 
    1653 000001fb 9A02          MOVB      AL,#2                 ; [CPU_ALU] |581| 
    1654 000001fc 9B00          MOVB      AH,#0                 ; [CPU_ALU] |581| 
    1655              $C$DW$113       .dwtag  DW_TAG_TI_branch
    1656                      .dwattr $C$DW$113, DW_AT_low_pc(0x00)
    1657                      .dwattr $C$DW$113, DW_AT_name("_OS_EventTaskRdy")
    1658                      .dwattr $C$DW$113, DW_AT_TI_call
    1659              
    1660 000001fd 7640!         LCR       #_OS_EventTaskRdy     ; [CPU_ALU] |581| 
         000001fe 0000 
    1661                      ; call occurs [#_OS_EventTaskRdy] ; [] |581| 
    1662 000001ff       $C$L53:    
    1663                      .dwpsn  file "C:/ti/Workspace/PLC_certificate/Software/uCOS-II/Source/os_mbox.c",line 583,column 9,is
    1664 000001ff 9246          MOV       AL,*-SP[6]            ; [CPU_ALU] |583| 
    1665              $C$DW$114       .dwtag  DW_TAG_TI_branch
    1666                      .dwattr $C$DW$114, DW_AT_low_pc(0x00)
    1667                      .dwattr $C$DW$114, DW_AT_name("_OS_CPU_SR_Restore")
    1668                      .dwattr $C$DW$114, DW_AT_TI_call
    1669              
    1670 00000200 7640!         LCR       #_OS_CPU_SR_Restore   ; [CPU_ALU] |583| 
         00000201 0000 
    1671                      ; call occurs [#_OS_CPU_SR_Restore] ; [] |583| 
    1672                      .dwpsn  file "C:/ti/Workspace/PLC_certificate/Software/uCOS-II/Source/os_mbox.c",line 584,column 9,is
    1673 00000202 4245          TBIT      *-SP[5],#2            ; [CPU_ALU] |584| 
    1674 00000203 6D03          B         $C$L54,TC             ; [CPU_ALU] |584| 
    1675                      ; branchcc occurs ; [] |584| 
    1676                      .dwpsn  file "C:/ti/Workspace/PLC_certificate/Software/uCOS-II/Source/os_mbox.c",line 585,column 13,i
    1677              $C$DW$115       .dwtag  DW_TAG_TI_branch
    1678                      .dwattr $C$DW$115, DW_AT_low_pc(0x00)
    1679                      .dwattr $C$DW$115, DW_AT_name("_OS_Sched")
    1680                      .dwattr $C$DW$115, DW_AT_TI_call
    1681              
    1682 00000204 7640!         LCR       #_OS_Sched            ; [CPU_ALU] |585| 
         00000205 0000 
    1683                      ; call occurs [#_OS_Sched] ; [] |585| 
    1684 00000206       $C$L54:    
    1685                      .dwpsn  file "C:/ti/Workspace/PLC_certificate/Software/uCOS-II/Source/os_mbox.c",line 587,column 9,is
    1686 00000206 9A00          MOVB      AL,#0                 ; [CPU_ALU] |587| 
    1687 00000207 6F0E          B         $C$L57,UNC            ; [CPU_ALU] |587| 
    1688                      ; branch occurs ; [] |587| 
    1689 00000208       $C$L55:    
    1690                      .dwpsn  file "C:/ti/Workspace/PLC_certificate/Software/uCOS-II/Source/os_mbox.c",line 589,column 5,is
    1691 00000208 06D4          MOVL      ACC,*+XAR4[2]         ; [CPU_ALU] |589| 
    1692 00000209 6106          B         $C$L56,EQ             ; [CPU_ALU] |589| 
TMS320C2000 Assembler PC v20.2.1 Tue Feb 16 00:15:58 2021

Copyright (c) 1996-2018 Texas Instruments Incorporated
os_mbox.asm                                                          PAGE   33

    1693                      ; branchcc occurs ; [] |589| 
    1694                      .dwpsn  file "C:/ti/Workspace/PLC_certificate/Software/uCOS-II/Source/os_mbox.c",line 590,column 9,is
    1695 0000020a 9246          MOV       AL,*-SP[6]            ; [CPU_ALU] |590| 
    1696              $C$DW$116       .dwtag  DW_TAG_TI_branch
    1697                      .dwattr $C$DW$116, DW_AT_low_pc(0x00)
    1698                      .dwattr $C$DW$116, DW_AT_name("_OS_CPU_SR_Restore")
    1699                      .dwattr $C$DW$116, DW_AT_TI_call
    1700              
    1701 0000020b 7640!         LCR       #_OS_CPU_SR_Restore   ; [CPU_ALU] |590| 
         0000020c 0000 
    1702                      ; call occurs [#_OS_CPU_SR_Restore] ; [] |590| 
    1703                      .dwpsn  file "C:/ti/Workspace/PLC_certificate/Software/uCOS-II/Source/os_mbox.c",line 591,column 9,is
    1704 0000020d 9A14          MOVB      AL,#20                ; [CPU_ALU] |591| 
    1705 0000020e 6F07          B         $C$L57,UNC            ; [CPU_ALU] |591| 
    1706                      ; branch occurs ; [] |591| 
    1707 0000020f       $C$L56:    
    1708                      .dwpsn  file "C:/ti/Workspace/PLC_certificate/Software/uCOS-II/Source/os_mbox.c",line 593,column 5,is
    1709 0000020f 0644          MOVL      ACC,*-SP[4]           ; [CPU_ALU] |593| 
    1710 00000210 1ED4          MOVL      *+XAR4[2],ACC         ; [CPU_ALU] |593| 
    1711                      .dwpsn  file "C:/ti/Workspace/PLC_certificate/Software/uCOS-II/Source/os_mbox.c",line 594,column 5,is
    1712 00000211 9246          MOV       AL,*-SP[6]            ; [CPU_ALU] |594| 
    1713              $C$DW$117       .dwtag  DW_TAG_TI_branch
    1714                      .dwattr $C$DW$117, DW_AT_low_pc(0x00)
    1715                      .dwattr $C$DW$117, DW_AT_name("_OS_CPU_SR_Restore")
    1716                      .dwattr $C$DW$117, DW_AT_TI_call
    1717              
    1718 00000212 7640!         LCR       #_OS_CPU_SR_Restore   ; [CPU_ALU] |594| 
         00000213 0000 
    1719                      ; call occurs [#_OS_CPU_SR_Restore] ; [] |594| 
    1720                      .dwpsn  file "C:/ti/Workspace/PLC_certificate/Software/uCOS-II/Source/os_mbox.c",line 595,column 5,is
    1721 00000214 9A00          MOVB      AL,#0                 ; [CPU_ALU] |595| 
    1722 00000215       $C$L57:    
    1723                      .dwpsn  file "C:/ti/Workspace/PLC_certificate/Software/uCOS-II/Source/os_mbox.c",line 596,column 1,is
    1724 00000215 FE86          SUBB      SP,#6                 ; [CPU_ARAU] 
    1725                      .dwcfi  cfa_offset, -2
    1726              $C$DW$118       .dwtag  DW_TAG_TI_branch
    1727                      .dwattr $C$DW$118, DW_AT_low_pc(0x00)
    1728                      .dwattr $C$DW$118, DW_AT_TI_return
    1729              
    1730 00000216 0006          LRETR     ; [CPU_ALU] 
    1731                      ; return occurs ; [] 
    1732                      .dwattr $C$DW$103, DW_AT_TI_end_file("C:/ti/Workspace/PLC_certificate/Software/uCOS-II/Source/os_mbox
    1733                      .dwattr $C$DW$103, DW_AT_TI_end_line(0x254)
    1734                      .dwattr $C$DW$103, DW_AT_TI_end_column(0x01)
    1735                      .dwendentry
    1736                      .dwendtag $C$DW$103
    1737              
    1738 00000217               .sect   ".text"
    1739                      .clink
    1740                      .global _OSMboxQuery
    1741              
    1742              $C$DW$119       .dwtag  DW_TAG_subprogram
    1743                      .dwattr $C$DW$119, DW_AT_name("OSMboxQuery")
    1744                      .dwattr $C$DW$119, DW_AT_low_pc(_OSMboxQuery)
    1745                      .dwattr $C$DW$119, DW_AT_high_pc(0x00)
TMS320C2000 Assembler PC v20.2.1 Tue Feb 16 00:15:58 2021

Copyright (c) 1996-2018 Texas Instruments Incorporated
os_mbox.asm                                                          PAGE   34

    1746                      .dwattr $C$DW$119, DW_AT_TI_symbol_name("_OSMboxQuery")
    1747                      .dwattr $C$DW$119, DW_AT_external
    1748                      .dwattr $C$DW$119, DW_AT_type(*$C$DW$T$19)
    1749                      .dwattr $C$DW$119, DW_AT_TI_begin_file("C:/ti/Workspace/PLC_certificate/Software/uCOS-II/Source/os_mb
    1750                      .dwattr $C$DW$119, DW_AT_TI_begin_line(0x26b)
    1751                      .dwattr $C$DW$119, DW_AT_TI_begin_column(0x08)
    1752                      .dwattr $C$DW$119, DW_AT_TI_max_frame_size(-12)
    1753                      .dwpsn  file "C:/ti/Workspace/PLC_certificate/Software/uCOS-II/Source/os_mbox.c",line 621,column 1,is
    1754              
    1755                      .dwfde $C$DW$CIE, _OSMboxQuery
    1756              $C$DW$120       .dwtag  DW_TAG_formal_parameter
    1757                      .dwattr $C$DW$120, DW_AT_name("pevent")
    1758                      .dwattr $C$DW$120, DW_AT_TI_symbol_name("_pevent")
    1759                      .dwattr $C$DW$120, DW_AT_type(*$C$DW$T$33)
    1760                      .dwattr $C$DW$120, DW_AT_location[DW_OP_reg12]
    1761              
    1762              $C$DW$121       .dwtag  DW_TAG_formal_parameter
    1763                      .dwattr $C$DW$121, DW_AT_name("p_mbox_data")
    1764                      .dwattr $C$DW$121, DW_AT_TI_symbol_name("_p_mbox_data")
    1765                      .dwattr $C$DW$121, DW_AT_type(*$C$DW$T$60)
    1766                      .dwattr $C$DW$121, DW_AT_location[DW_OP_reg14]
    1767              
    1768              
    1769              ;***************************************************************
    1770              ;* FNAME: _OSMboxQuery                  FR SIZE:  10           *
    1771              ;*                                                             *
    1772              ;* FUNCTION ENVIRONMENT                                        *
    1773              ;*                                                             *
    1774              ;* FUNCTION PROPERTIES                                         *
    1775              ;*                            0 Parameter, 10 Auto,  0 SOE     *
    1776              ;***************************************************************
    1777              
    1778 00000217       _OSMboxQuery:
    1779                      .dwcfi  cfa_offset, -2
    1780                      .dwcfi  save_reg_to_mem, 26, 0
    1781 00000217 FE0A          ADDB      SP,#10                ; [CPU_ARAU] 
    1782                      .dwcfi  cfa_offset, -12
    1783              $C$DW$122       .dwtag  DW_TAG_variable
    1784                      .dwattr $C$DW$122, DW_AT_name("pevent")
    1785                      .dwattr $C$DW$122, DW_AT_TI_symbol_name("_pevent")
    1786                      .dwattr $C$DW$122, DW_AT_type(*$C$DW$T$33)
    1787                      .dwattr $C$DW$122, DW_AT_location[DW_OP_breg20 -2]
    1788              
    1789              $C$DW$123       .dwtag  DW_TAG_variable
    1790                      .dwattr $C$DW$123, DW_AT_name("p_mbox_data")
    1791                      .dwattr $C$DW$123, DW_AT_TI_symbol_name("_p_mbox_data")
    1792                      .dwattr $C$DW$123, DW_AT_type(*$C$DW$T$60)
    1793                      .dwattr $C$DW$123, DW_AT_location[DW_OP_breg20 -4]
    1794              
    1795              $C$DW$124       .dwtag  DW_TAG_variable
    1796                      .dwattr $C$DW$124, DW_AT_name("psrc")
    1797                      .dwattr $C$DW$124, DW_AT_TI_symbol_name("_psrc")
    1798                      .dwattr $C$DW$124, DW_AT_type(*$C$DW$T$53)
    1799                      .dwattr $C$DW$124, DW_AT_location[DW_OP_breg20 -6]
    1800              
TMS320C2000 Assembler PC v20.2.1 Tue Feb 16 00:15:58 2021

Copyright (c) 1996-2018 Texas Instruments Incorporated
os_mbox.asm                                                          PAGE   35

    1801              $C$DW$125       .dwtag  DW_TAG_variable
    1802                      .dwattr $C$DW$125, DW_AT_name("pdest")
    1803                      .dwattr $C$DW$125, DW_AT_TI_symbol_name("_pdest")
    1804                      .dwattr $C$DW$125, DW_AT_type(*$C$DW$T$53)
    1805                      .dwattr $C$DW$125, DW_AT_location[DW_OP_breg20 -8]
    1806              
    1807              $C$DW$126       .dwtag  DW_TAG_variable
    1808                      .dwattr $C$DW$126, DW_AT_name("i")
    1809                      .dwattr $C$DW$126, DW_AT_TI_symbol_name("_i")
    1810                      .dwattr $C$DW$126, DW_AT_type(*$C$DW$T$19)
    1811                      .dwattr $C$DW$126, DW_AT_location[DW_OP_breg20 -9]
    1812              
    1813              $C$DW$127       .dwtag  DW_TAG_variable
    1814                      .dwattr $C$DW$127, DW_AT_name("cpu_sr")
    1815                      .dwattr $C$DW$127, DW_AT_TI_symbol_name("_cpu_sr")
    1816                      .dwattr $C$DW$127, DW_AT_type(*$C$DW$T$41)
    1817                      .dwattr $C$DW$127, DW_AT_location[DW_OP_breg20 -10]
    1818              
    1819 00000218 A044          MOVL      *-SP[4],XAR5          ; [CPU_ALU] |621| 
    1820 00000219 A842          MOVL      *-SP[2],XAR4          ; [CPU_ALU] |621| 
    1821                      .dwpsn  file "C:/ti/Workspace/PLC_certificate/Software/uCOS-II/Source/os_mbox.c",line 626,column 24,i
    1822 0000021a 2B4A          MOV       *-SP[10],#0           ; [CPU_ALU] |626| 
    1823                      .dwpsn  file "C:/ti/Workspace/PLC_certificate/Software/uCOS-II/Source/os_mbox.c",line 632,column 5,is
    1824 0000021b 0642          MOVL      ACC,*-SP[2]           ; [CPU_ALU] |632| 
    1825 0000021c 6003          B         $C$L58,NEQ            ; [CPU_ALU] |632| 
    1826                      ; branchcc occurs ; [] |632| 
    1827                      .dwpsn  file "C:/ti/Workspace/PLC_certificate/Software/uCOS-II/Source/os_mbox.c",line 633,column 9,is
    1828 0000021d 9A04          MOVB      AL,#4                 ; [CPU_ALU] |633| 
    1829 0000021e 6F31          B         $C$L63,UNC            ; [CPU_ALU] |633| 
    1830                      ; branch occurs ; [] |633| 
    1831 0000021f       $C$L58:    
    1832                      .dwpsn  file "C:/ti/Workspace/PLC_certificate/Software/uCOS-II/Source/os_mbox.c",line 635,column 5,is
    1833 0000021f 0644          MOVL      ACC,*-SP[4]           ; [CPU_ALU] |635| 
    1834 00000220 6003          B         $C$L59,NEQ            ; [CPU_ALU] |635| 
    1835                      ; branchcc occurs ; [] |635| 
    1836                      .dwpsn  file "C:/ti/Workspace/PLC_certificate/Software/uCOS-II/Source/os_mbox.c",line 636,column 9,is
    1837 00000221 9A09          MOVB      AL,#9                 ; [CPU_ALU] |636| 
    1838 00000222 6F2D          B         $C$L63,UNC            ; [CPU_ALU] |636| 
    1839                      ; branch occurs ; [] |636| 
    1840 00000223       $C$L59:    
    1841                      .dwpsn  file "C:/ti/Workspace/PLC_certificate/Software/uCOS-II/Source/os_mbox.c",line 639,column 5,is
    1842 00000223 92C4          MOV       AL,*+XAR4[0]          ; [CPU_ALU] |639| 
    1843 00000224 5201          CMPB      AL,#1                 ; [CPU_ALU] |639| 
    1844 00000225 6103          B         $C$L60,EQ             ; [CPU_ALU] |639| 
    1845                      ; branchcc occurs ; [] |639| 
    1846                      .dwpsn  file "C:/ti/Workspace/PLC_certificate/Software/uCOS-II/Source/os_mbox.c",line 640,column 9,is
    1847 00000226 9A01          MOVB      AL,#1                 ; [CPU_ALU] |640| 
    1848 00000227 6F28          B         $C$L63,UNC            ; [CPU_ALU] |640| 
    1849                      ; branch occurs ; [] |640| 
    1850 00000228       $C$L60:    
    1851                      .dwpsn  file "C:/ti/Workspace/PLC_certificate/Software/uCOS-II/Source/os_mbox.c",line 642,column 5,is
    1852              $C$DW$128       .dwtag  DW_TAG_TI_branch
    1853                      .dwattr $C$DW$128, DW_AT_low_pc(0x00)
    1854                      .dwattr $C$DW$128, DW_AT_name("_OS_CPU_SR_Save")
    1855                      .dwattr $C$DW$128, DW_AT_TI_call
TMS320C2000 Assembler PC v20.2.1 Tue Feb 16 00:15:58 2021

Copyright (c) 1996-2018 Texas Instruments Incorporated
os_mbox.asm                                                          PAGE   36

    1856              
    1857 00000228 7640!         LCR       #_OS_CPU_SR_Save      ; [CPU_ALU] |642| 
         00000229 0000 
    1858                      ; call occurs [#_OS_CPU_SR_Save] ; [] |642| 
    1859 0000022a 964A          MOV       *-SP[10],AL           ; [CPU_ALU] |642| 
    1860                      .dwpsn  file "C:/ti/Workspace/PLC_certificate/Software/uCOS-II/Source/os_mbox.c",line 643,column 5,is
    1861 0000022b 8A42          MOVL      XAR4,*-SP[2]          ; [CPU_ALU] |643| 
    1862 0000022c 020A          MOVB      ACC,#10               ; [CPU_ALU] |643| 
    1863 0000022d 0744          ADDL      ACC,*-SP[4]           ; [CPU_ALU] |643| 
    1864 0000022e 1EA7          MOVL      XAR7,ACC              ; [CPU_ALU] |643| 
    1865 0000022f 92EC          MOV       AL,*+XAR4[5]          ; [CPU_ALU] |643| 
    1866 00000230 96C7          MOV       *+XAR7[0],AL          ; [CPU_ALU] |643| 
    1867                      .dwpsn  file "C:/ti/Workspace/PLC_certificate/Software/uCOS-II/Source/os_mbox.c",line 644,column 5,is
    1868 00000231 0206          MOVB      ACC,#6                ; [CPU_ALU] |644| 
    1869 00000232 0742          ADDL      ACC,*-SP[2]           ; [CPU_ALU] |644| 
    1870 00000233 1E46          MOVL      *-SP[6],ACC           ; [CPU_ALU] |644| 
    1871                      .dwpsn  file "C:/ti/Workspace/PLC_certificate/Software/uCOS-II/Source/os_mbox.c",line 645,column 5,is
    1872 00000234 0202          MOVB      ACC,#2                ; [CPU_ALU] |645| 
    1873 00000235 0744          ADDL      ACC,*-SP[4]           ; [CPU_ALU] |645| 
    1874 00000236 1E48          MOVL      *-SP[8],ACC           ; [CPU_ALU] |645| 
    1875                      .dwpsn  file "C:/ti/Workspace/PLC_certificate/Software/uCOS-II/Source/os_mbox.c",line 646,column 10,i
    1876 00000237 2B49          MOV       *-SP[9],#0            ; [CPU_ALU] |646| 
    1877                      .dwpsn  file "C:/ti/Workspace/PLC_certificate/Software/uCOS-II/Source/os_mbox.c",line 646,column 18,i
    1878 00000238 9249          MOV       AL,*-SP[9]            ; [CPU_ALU] |646| 
    1879 00000239 5208          CMPB      AL,#8                 ; [CPU_ALU] |646| 
    1880 0000023a 670D          B         $C$L62,HIS            ; [CPU_ALU] |646| 
    1881                      ; branchcc occurs ; [] |646| 
    1882 0000023b       $C$L61:    
    1883                      .dwpsn  file "C:/ti/Workspace/PLC_certificate/Software/uCOS-II/Source/os_mbox.c",line 647,column 9,is
    1884 0000023b 8A46          MOVL      XAR4,*-SP[6]          ; [CPU_ALU] |647| 
    1885 0000023c 9284          MOV       AL,*XAR4++            ; [CPU_ALU] |647| 
    1886 0000023d A846          MOVL      *-SP[6],XAR4          ; [CPU_ALU] |647| 
    1887 0000023e 8A48          MOVL      XAR4,*-SP[8]          ; [CPU_ALU] |647| 
    1888 0000023f C4A4          MOVL      XAR6,XAR4             ; [CPU_ALU] |647| 
    1889 00000240 DE01          ADDB      XAR6,#1               ; [CPU_ALU] |647| 
    1890 00000241 C248          MOVL      *-SP[8],XAR6          ; [CPU_ALU] |647| 
    1891 00000242 96C4          MOV       *+XAR4[0],AL          ; [CPU_ALU] |647| 
    1892                      .dwpsn  file "C:/ti/Workspace/PLC_certificate/Software/uCOS-II/Source/os_mbox.c",line 646,column 41,i
    1893 00000243 0A49          INC       *-SP[9]               ; [CPU_ALU] |646| 
    1894                      .dwpsn  file "C:/ti/Workspace/PLC_certificate/Software/uCOS-II/Source/os_mbox.c",line 646,column 18,i
    1895 00000244 9249          MOV       AL,*-SP[9]            ; [CPU_ALU] |646| 
    1896 00000245 5208          CMPB      AL,#8                 ; [CPU_ALU] |646| 
    1897 00000246 68F5          B         $C$L61,LO             ; [CPU_ALU] |646| 
    1898                      ; branchcc occurs ; [] |646| 
    1899 00000247       $C$L62:    
    1900                      .dwpsn  file "C:/ti/Workspace/PLC_certificate/Software/uCOS-II/Source/os_mbox.c",line 649,column 5,is
    1901 00000247 8A42          MOVL      XAR4,*-SP[2]          ; [CPU_ALU] |649| 
    1902 00000248 06D4          MOVL      ACC,*+XAR4[2]         ; [CPU_ALU] |649| 
    1903 00000249 8A44          MOVL      XAR4,*-SP[4]          ; [CPU_ALU] |649| 
    1904 0000024a 1EC4          MOVL      *+XAR4[0],ACC         ; [CPU_ALU] |649| 
    1905                      .dwpsn  file "C:/ti/Workspace/PLC_certificate/Software/uCOS-II/Source/os_mbox.c",line 650,column 5,is
    1906 0000024b 924A          MOV       AL,*-SP[10]           ; [CPU_ALU] |650| 
    1907              $C$DW$129       .dwtag  DW_TAG_TI_branch
    1908                      .dwattr $C$DW$129, DW_AT_low_pc(0x00)
    1909                      .dwattr $C$DW$129, DW_AT_name("_OS_CPU_SR_Restore")
TMS320C2000 Assembler PC v20.2.1 Tue Feb 16 00:15:58 2021

Copyright (c) 1996-2018 Texas Instruments Incorporated
os_mbox.asm                                                          PAGE   37

    1910                      .dwattr $C$DW$129, DW_AT_TI_call
    1911              
    1912 0000024c 7640!         LCR       #_OS_CPU_SR_Restore   ; [CPU_ALU] |650| 
         0000024d 0000 
    1913                      ; call occurs [#_OS_CPU_SR_Restore] ; [] |650| 
    1914                      .dwpsn  file "C:/ti/Workspace/PLC_certificate/Software/uCOS-II/Source/os_mbox.c",line 651,column 5,is
    1915 0000024e 9A00          MOVB      AL,#0                 ; [CPU_ALU] |651| 
    1916 0000024f       $C$L63:    
    1917                      .dwpsn  file "C:/ti/Workspace/PLC_certificate/Software/uCOS-II/Source/os_mbox.c",line 652,column 1,is
    1918 0000024f FE8A          SUBB      SP,#10                ; [CPU_ARAU] 
    1919                      .dwcfi  cfa_offset, -2
    1920              $C$DW$130       .dwtag  DW_TAG_TI_branch
    1921                      .dwattr $C$DW$130, DW_AT_low_pc(0x00)
    1922                      .dwattr $C$DW$130, DW_AT_TI_return
    1923              
    1924 00000250 0006          LRETR     ; [CPU_ALU] 
    1925                      ; return occurs ; [] 
    1926                      .dwattr $C$DW$119, DW_AT_TI_end_file("C:/ti/Workspace/PLC_certificate/Software/uCOS-II/Source/os_mbox
    1927                      .dwattr $C$DW$119, DW_AT_TI_end_line(0x28c)
    1928                      .dwattr $C$DW$119, DW_AT_TI_end_column(0x01)
    1929                      .dwendentry
    1930                      .dwendtag $C$DW$119
    1931              
    1932              ;***************************************************************
    1933              ;* FAR STRINGS                                                 *
    1934              ;***************************************************************
    1935 00000000               .sect   ".econst:.string"
    1936                      .align  2
    1937 00000000 003F  $C$FSL1:        .string "?",0
         00000001 0000 
    1938              ;**************************************************************
    1939              ;* UNDEFINED EXTERNAL REFERENCES                              *
    1940              ;**************************************************************
    1941                      .global _OS_CPU_SR_Restore
    1942                      .global _OS_EventWaitListInit
    1943                      .global _OS_Sched
    1944                      .global _OS_EventTaskWait
    1945                      .global _OS_EventTaskRemove
    1946                      .global _OSIntNesting
    1947                      .global _OSLockNesting
    1948                      .global _OS_CPU_SR_Save
    1949                      .global _OS_EventTaskRdy
    1950                      .global _OSEventFreeList
    1951                      .global _OSTCBCur
    1952              
    1953              ;***************************************************************
    1954              ;* TYPE INFORMATION                                            *
    1955              ;***************************************************************
    1956              $C$DW$T$2       .dwtag  DW_TAG_unspecified_type
    1957                      .dwattr $C$DW$T$2, DW_AT_name("void")
    1958              
    1959              $C$DW$T$3       .dwtag  DW_TAG_pointer_type
    1960                      .dwattr $C$DW$T$3, DW_AT_type(*$C$DW$T$2)
    1961                      .dwattr $C$DW$T$3, DW_AT_address_class(0x20)
    1962              
TMS320C2000 Assembler PC v20.2.1 Tue Feb 16 00:15:58 2021

Copyright (c) 1996-2018 Texas Instruments Incorporated
os_mbox.asm                                                          PAGE   38

    1963              $C$DW$T$4       .dwtag  DW_TAG_base_type
    1964                      .dwattr $C$DW$T$4, DW_AT_encoding(DW_ATE_boolean)
    1965                      .dwattr $C$DW$T$4, DW_AT_name("bool")
    1966                      .dwattr $C$DW$T$4, DW_AT_byte_size(0x01)
    1967              
    1968              $C$DW$T$5       .dwtag  DW_TAG_base_type
    1969                      .dwattr $C$DW$T$5, DW_AT_encoding(DW_ATE_signed_char)
    1970                      .dwattr $C$DW$T$5, DW_AT_name("signed char")
    1971                      .dwattr $C$DW$T$5, DW_AT_byte_size(0x01)
    1972              
    1973              $C$DW$T$6       .dwtag  DW_TAG_base_type
    1974                      .dwattr $C$DW$T$6, DW_AT_encoding(DW_ATE_unsigned_char)
    1975                      .dwattr $C$DW$T$6, DW_AT_name("unsigned char")
    1976                      .dwattr $C$DW$T$6, DW_AT_byte_size(0x01)
    1977              
    1978              $C$DW$T$52      .dwtag  DW_TAG_typedef
    1979                      .dwattr $C$DW$T$52, DW_AT_name("BOOLEAN")
    1980                      .dwattr $C$DW$T$52, DW_AT_type(*$C$DW$T$6)
    1981                      .dwattr $C$DW$T$52, DW_AT_language(DW_LANG_C)
    1982              
    1983              $C$DW$T$19      .dwtag  DW_TAG_typedef
    1984                      .dwattr $C$DW$T$19, DW_AT_name("INT8U")
    1985                      .dwattr $C$DW$T$19, DW_AT_type(*$C$DW$T$6)
    1986                      .dwattr $C$DW$T$19, DW_AT_language(DW_LANG_C)
    1987              
    1988              $C$DW$T$21      .dwtag  DW_TAG_typedef
    1989                      .dwattr $C$DW$T$21, DW_AT_name("OS_PRIO")
    1990                      .dwattr $C$DW$T$21, DW_AT_type(*$C$DW$T$19)
    1991                      .dwattr $C$DW$T$21, DW_AT_language(DW_LANG_C)
    1992              
    1993              
    1994              $C$DW$T$22      .dwtag  DW_TAG_array_type
    1995                      .dwattr $C$DW$T$22, DW_AT_type(*$C$DW$T$21)
    1996                      .dwattr $C$DW$T$22, DW_AT_language(DW_LANG_C)
    1997                      .dwattr $C$DW$T$22, DW_AT_byte_size(0x08)
    1998              $C$DW$131       .dwtag  DW_TAG_subrange_type
    1999                      .dwattr $C$DW$131, DW_AT_upper_bound(0x07)
    2000              
    2001                      .dwendtag $C$DW$T$22
    2002              
    2003              $C$DW$T$53      .dwtag  DW_TAG_pointer_type
    2004                      .dwattr $C$DW$T$53, DW_AT_type(*$C$DW$T$21)
    2005                      .dwattr $C$DW$T$53, DW_AT_address_class(0x20)
    2006              
    2007              $C$DW$T$23      .dwtag  DW_TAG_pointer_type
    2008                      .dwattr $C$DW$T$23, DW_AT_type(*$C$DW$T$19)
    2009                      .dwattr $C$DW$T$23, DW_AT_address_class(0x20)
    2010              
    2011              $C$DW$T$7       .dwtag  DW_TAG_base_type
    2012                      .dwattr $C$DW$T$7, DW_AT_encoding(DW_ATE_signed_char)
    2013                      .dwattr $C$DW$T$7, DW_AT_name("wchar_t")
    2014                      .dwattr $C$DW$T$7, DW_AT_byte_size(0x01)
    2015              
    2016              $C$DW$T$8       .dwtag  DW_TAG_base_type
    2017                      .dwattr $C$DW$T$8, DW_AT_encoding(DW_ATE_signed)
TMS320C2000 Assembler PC v20.2.1 Tue Feb 16 00:15:58 2021

Copyright (c) 1996-2018 Texas Instruments Incorporated
os_mbox.asm                                                          PAGE   39

    2018                      .dwattr $C$DW$T$8, DW_AT_name("short")
    2019                      .dwattr $C$DW$T$8, DW_AT_byte_size(0x01)
    2020              
    2021              $C$DW$T$9       .dwtag  DW_TAG_base_type
    2022                      .dwattr $C$DW$T$9, DW_AT_encoding(DW_ATE_unsigned)
    2023                      .dwattr $C$DW$T$9, DW_AT_name("unsigned short")
    2024                      .dwattr $C$DW$T$9, DW_AT_byte_size(0x01)
    2025              
    2026              $C$DW$T$20      .dwtag  DW_TAG_typedef
    2027                      .dwattr $C$DW$T$20, DW_AT_name("INT16U")
    2028                      .dwattr $C$DW$T$20, DW_AT_type(*$C$DW$T$9)
    2029                      .dwattr $C$DW$T$20, DW_AT_language(DW_LANG_C)
    2030              
    2031              $C$DW$T$25      .dwtag  DW_TAG_typedef
    2032                      .dwattr $C$DW$T$25, DW_AT_name("OS_FLAGS")
    2033                      .dwattr $C$DW$T$25, DW_AT_type(*$C$DW$T$20)
    2034                      .dwattr $C$DW$T$25, DW_AT_language(DW_LANG_C)
    2035              
    2036              $C$DW$T$41      .dwtag  DW_TAG_typedef
    2037                      .dwattr $C$DW$T$41, DW_AT_name("OS_CPU_SR")
    2038                      .dwattr $C$DW$T$41, DW_AT_type(*$C$DW$T$9)
    2039                      .dwattr $C$DW$T$41, DW_AT_language(DW_LANG_C)
    2040              
    2041              $C$DW$T$28      .dwtag  DW_TAG_typedef
    2042                      .dwattr $C$DW$T$28, DW_AT_name("OS_STK")
    2043                      .dwattr $C$DW$T$28, DW_AT_type(*$C$DW$T$9)
    2044                      .dwattr $C$DW$T$28, DW_AT_language(DW_LANG_C)
    2045              
    2046              $C$DW$T$29      .dwtag  DW_TAG_pointer_type
    2047                      .dwattr $C$DW$T$29, DW_AT_type(*$C$DW$T$28)
    2048                      .dwattr $C$DW$T$29, DW_AT_address_class(0x20)
    2049              
    2050              $C$DW$T$10      .dwtag  DW_TAG_base_type
    2051                      .dwattr $C$DW$T$10, DW_AT_encoding(DW_ATE_signed)
    2052                      .dwattr $C$DW$T$10, DW_AT_name("int")
    2053                      .dwattr $C$DW$T$10, DW_AT_byte_size(0x01)
    2054              
    2055              $C$DW$T$11      .dwtag  DW_TAG_base_type
    2056                      .dwattr $C$DW$T$11, DW_AT_encoding(DW_ATE_unsigned)
    2057                      .dwattr $C$DW$T$11, DW_AT_name("unsigned int")
    2058                      .dwattr $C$DW$T$11, DW_AT_byte_size(0x01)
    2059              
    2060              $C$DW$T$12      .dwtag  DW_TAG_base_type
    2061                      .dwattr $C$DW$T$12, DW_AT_encoding(DW_ATE_signed)
    2062                      .dwattr $C$DW$T$12, DW_AT_name("long")
    2063                      .dwattr $C$DW$T$12, DW_AT_byte_size(0x02)
    2064              
    2065              $C$DW$T$13      .dwtag  DW_TAG_base_type
    2066                      .dwattr $C$DW$T$13, DW_AT_encoding(DW_ATE_unsigned)
    2067                      .dwattr $C$DW$T$13, DW_AT_name("unsigned long")
    2068                      .dwattr $C$DW$T$13, DW_AT_byte_size(0x02)
    2069              
    2070              $C$DW$T$30      .dwtag  DW_TAG_typedef
    2071                      .dwattr $C$DW$T$30, DW_AT_name("INT32U")
    2072                      .dwattr $C$DW$T$30, DW_AT_type(*$C$DW$T$13)
TMS320C2000 Assembler PC v20.2.1 Tue Feb 16 00:15:58 2021

Copyright (c) 1996-2018 Texas Instruments Incorporated
os_mbox.asm                                                          PAGE   40

    2073                      .dwattr $C$DW$T$30, DW_AT_language(DW_LANG_C)
    2074              
    2075              
    2076              $C$DW$T$37      .dwtag  DW_TAG_array_type
    2077                      .dwattr $C$DW$T$37, DW_AT_type(*$C$DW$T$30)
    2078                      .dwattr $C$DW$T$37, DW_AT_language(DW_LANG_C)
    2079                      .dwattr $C$DW$T$37, DW_AT_byte_size(0x02)
    2080              $C$DW$132       .dwtag  DW_TAG_subrange_type
    2081                      .dwattr $C$DW$132, DW_AT_upper_bound(0x00)
    2082              
    2083                      .dwendtag $C$DW$T$37
    2084              
    2085              $C$DW$T$14      .dwtag  DW_TAG_base_type
    2086                      .dwattr $C$DW$T$14, DW_AT_encoding(DW_ATE_signed)
    2087                      .dwattr $C$DW$T$14, DW_AT_name("long long")
    2088                      .dwattr $C$DW$T$14, DW_AT_byte_size(0x04)
    2089              
    2090              $C$DW$T$15      .dwtag  DW_TAG_base_type
    2091                      .dwattr $C$DW$T$15, DW_AT_encoding(DW_ATE_unsigned)
    2092                      .dwattr $C$DW$T$15, DW_AT_name("unsigned long long")
    2093                      .dwattr $C$DW$T$15, DW_AT_byte_size(0x04)
    2094              
    2095              $C$DW$T$16      .dwtag  DW_TAG_base_type
    2096                      .dwattr $C$DW$T$16, DW_AT_encoding(DW_ATE_float)
    2097                      .dwattr $C$DW$T$16, DW_AT_name("float")
    2098                      .dwattr $C$DW$T$16, DW_AT_byte_size(0x02)
    2099              
    2100              $C$DW$T$17      .dwtag  DW_TAG_base_type
    2101                      .dwattr $C$DW$T$17, DW_AT_encoding(DW_ATE_float)
    2102                      .dwattr $C$DW$T$17, DW_AT_name("double")
    2103                      .dwattr $C$DW$T$17, DW_AT_byte_size(0x02)
    2104              
    2105              $C$DW$T$18      .dwtag  DW_TAG_base_type
    2106                      .dwattr $C$DW$T$18, DW_AT_encoding(DW_ATE_float)
    2107                      .dwattr $C$DW$T$18, DW_AT_name("long double")
    2108                      .dwattr $C$DW$T$18, DW_AT_byte_size(0x04)
    2109              
    2110              
    2111              $C$DW$T$24      .dwtag  DW_TAG_structure_type
    2112                      .dwattr $C$DW$T$24, DW_AT_name("os_event")
    2113                      .dwattr $C$DW$T$24, DW_AT_byte_size(0x10)
    2114              $C$DW$133       .dwtag  DW_TAG_member
    2115                      .dwattr $C$DW$133, DW_AT_type(*$C$DW$T$19)
    2116                      .dwattr $C$DW$133, DW_AT_name("OSEventType")
    2117                      .dwattr $C$DW$133, DW_AT_TI_symbol_name("_OSEventType")
    2118                      .dwattr $C$DW$133, DW_AT_data_member_location[DW_OP_plus_uconst 0x0]
    2119                      .dwattr $C$DW$133, DW_AT_accessibility(DW_ACCESS_public)
    2120              
    2121              $C$DW$134       .dwtag  DW_TAG_member
    2122                      .dwattr $C$DW$134, DW_AT_type(*$C$DW$T$3)
    2123                      .dwattr $C$DW$134, DW_AT_name("OSEventPtr")
    2124                      .dwattr $C$DW$134, DW_AT_TI_symbol_name("_OSEventPtr")
    2125                      .dwattr $C$DW$134, DW_AT_data_member_location[DW_OP_plus_uconst 0x2]
    2126                      .dwattr $C$DW$134, DW_AT_accessibility(DW_ACCESS_public)
    2127              
TMS320C2000 Assembler PC v20.2.1 Tue Feb 16 00:15:58 2021

Copyright (c) 1996-2018 Texas Instruments Incorporated
os_mbox.asm                                                          PAGE   41

    2128              $C$DW$135       .dwtag  DW_TAG_member
    2129                      .dwattr $C$DW$135, DW_AT_type(*$C$DW$T$20)
    2130                      .dwattr $C$DW$135, DW_AT_name("OSEventCnt")
    2131                      .dwattr $C$DW$135, DW_AT_TI_symbol_name("_OSEventCnt")
    2132                      .dwattr $C$DW$135, DW_AT_data_member_location[DW_OP_plus_uconst 0x4]
    2133                      .dwattr $C$DW$135, DW_AT_accessibility(DW_ACCESS_public)
    2134              
    2135              $C$DW$136       .dwtag  DW_TAG_member
    2136                      .dwattr $C$DW$136, DW_AT_type(*$C$DW$T$21)
    2137                      .dwattr $C$DW$136, DW_AT_name("OSEventGrp")
    2138                      .dwattr $C$DW$136, DW_AT_TI_symbol_name("_OSEventGrp")
    2139                      .dwattr $C$DW$136, DW_AT_data_member_location[DW_OP_plus_uconst 0x5]
    2140                      .dwattr $C$DW$136, DW_AT_accessibility(DW_ACCESS_public)
    2141              
    2142              $C$DW$137       .dwtag  DW_TAG_member
    2143                      .dwattr $C$DW$137, DW_AT_type(*$C$DW$T$22)
    2144                      .dwattr $C$DW$137, DW_AT_name("OSEventTbl")
    2145                      .dwattr $C$DW$137, DW_AT_TI_symbol_name("_OSEventTbl")
    2146                      .dwattr $C$DW$137, DW_AT_data_member_location[DW_OP_plus_uconst 0x6]
    2147                      .dwattr $C$DW$137, DW_AT_accessibility(DW_ACCESS_public)
    2148              
    2149              $C$DW$138       .dwtag  DW_TAG_member
    2150                      .dwattr $C$DW$138, DW_AT_type(*$C$DW$T$23)
    2151                      .dwattr $C$DW$138, DW_AT_name("OSEventName")
    2152                      .dwattr $C$DW$138, DW_AT_TI_symbol_name("_OSEventName")
    2153                      .dwattr $C$DW$138, DW_AT_data_member_location[DW_OP_plus_uconst 0xe]
    2154                      .dwattr $C$DW$138, DW_AT_accessibility(DW_ACCESS_public)
    2155              
    2156                      .dwendtag $C$DW$T$24
    2157              
    2158              $C$DW$T$32      .dwtag  DW_TAG_typedef
    2159                      .dwattr $C$DW$T$32, DW_AT_name("OS_EVENT")
    2160                      .dwattr $C$DW$T$32, DW_AT_type(*$C$DW$T$24)
    2161                      .dwattr $C$DW$T$32, DW_AT_language(DW_LANG_C)
    2162              
    2163              $C$DW$T$33      .dwtag  DW_TAG_pointer_type
    2164                      .dwattr $C$DW$T$33, DW_AT_type(*$C$DW$T$32)
    2165                      .dwattr $C$DW$T$33, DW_AT_address_class(0x20)
    2166              
    2167              $C$DW$T$34      .dwtag  DW_TAG_pointer_type
    2168                      .dwattr $C$DW$T$34, DW_AT_type(*$C$DW$T$33)
    2169                      .dwattr $C$DW$T$34, DW_AT_address_class(0x20)
    2170              
    2171              
    2172              $C$DW$T$26      .dwtag  DW_TAG_structure_type
    2173                      .dwattr $C$DW$T$26, DW_AT_name("os_flag_node")
    2174                      .dwattr $C$DW$T$26, DW_AT_byte_size(0x0a)
    2175              $C$DW$139       .dwtag  DW_TAG_member
    2176                      .dwattr $C$DW$139, DW_AT_type(*$C$DW$T$3)
    2177                      .dwattr $C$DW$139, DW_AT_name("OSFlagNodeNext")
    2178                      .dwattr $C$DW$139, DW_AT_TI_symbol_name("_OSFlagNodeNext")
    2179                      .dwattr $C$DW$139, DW_AT_data_member_location[DW_OP_plus_uconst 0x0]
    2180                      .dwattr $C$DW$139, DW_AT_accessibility(DW_ACCESS_public)
    2181              
    2182              $C$DW$140       .dwtag  DW_TAG_member
TMS320C2000 Assembler PC v20.2.1 Tue Feb 16 00:15:58 2021

Copyright (c) 1996-2018 Texas Instruments Incorporated
os_mbox.asm                                                          PAGE   42

    2183                      .dwattr $C$DW$140, DW_AT_type(*$C$DW$T$3)
    2184                      .dwattr $C$DW$140, DW_AT_name("OSFlagNodePrev")
    2185                      .dwattr $C$DW$140, DW_AT_TI_symbol_name("_OSFlagNodePrev")
    2186                      .dwattr $C$DW$140, DW_AT_data_member_location[DW_OP_plus_uconst 0x2]
    2187                      .dwattr $C$DW$140, DW_AT_accessibility(DW_ACCESS_public)
    2188              
    2189              $C$DW$141       .dwtag  DW_TAG_member
    2190                      .dwattr $C$DW$141, DW_AT_type(*$C$DW$T$3)
    2191                      .dwattr $C$DW$141, DW_AT_name("OSFlagNodeTCB")
    2192                      .dwattr $C$DW$141, DW_AT_TI_symbol_name("_OSFlagNodeTCB")
    2193                      .dwattr $C$DW$141, DW_AT_data_member_location[DW_OP_plus_uconst 0x4]
    2194                      .dwattr $C$DW$141, DW_AT_accessibility(DW_ACCESS_public)
    2195              
    2196              $C$DW$142       .dwtag  DW_TAG_member
    2197                      .dwattr $C$DW$142, DW_AT_type(*$C$DW$T$3)
    2198                      .dwattr $C$DW$142, DW_AT_name("OSFlagNodeFlagGrp")
    2199                      .dwattr $C$DW$142, DW_AT_TI_symbol_name("_OSFlagNodeFlagGrp")
    2200                      .dwattr $C$DW$142, DW_AT_data_member_location[DW_OP_plus_uconst 0x6]
    2201                      .dwattr $C$DW$142, DW_AT_accessibility(DW_ACCESS_public)
    2202              
    2203              $C$DW$143       .dwtag  DW_TAG_member
    2204                      .dwattr $C$DW$143, DW_AT_type(*$C$DW$T$25)
    2205                      .dwattr $C$DW$143, DW_AT_name("OSFlagNodeFlags")
    2206                      .dwattr $C$DW$143, DW_AT_TI_symbol_name("_OSFlagNodeFlags")
    2207                      .dwattr $C$DW$143, DW_AT_data_member_location[DW_OP_plus_uconst 0x8]
    2208                      .dwattr $C$DW$143, DW_AT_accessibility(DW_ACCESS_public)
    2209              
    2210              $C$DW$144       .dwtag  DW_TAG_member
    2211                      .dwattr $C$DW$144, DW_AT_type(*$C$DW$T$19)
    2212                      .dwattr $C$DW$144, DW_AT_name("OSFlagNodeWaitType")
    2213                      .dwattr $C$DW$144, DW_AT_TI_symbol_name("_OSFlagNodeWaitType")
    2214                      .dwattr $C$DW$144, DW_AT_data_member_location[DW_OP_plus_uconst 0x9]
    2215                      .dwattr $C$DW$144, DW_AT_accessibility(DW_ACCESS_public)
    2216              
    2217                      .dwendtag $C$DW$T$26
    2218              
    2219              $C$DW$T$35      .dwtag  DW_TAG_typedef
    2220                      .dwattr $C$DW$T$35, DW_AT_name("OS_FLAG_NODE")
    2221                      .dwattr $C$DW$T$35, DW_AT_type(*$C$DW$T$26)
    2222                      .dwattr $C$DW$T$35, DW_AT_language(DW_LANG_C)
    2223              
    2224              $C$DW$T$36      .dwtag  DW_TAG_pointer_type
    2225                      .dwattr $C$DW$T$36, DW_AT_type(*$C$DW$T$35)
    2226                      .dwattr $C$DW$T$36, DW_AT_address_class(0x20)
    2227              
    2228              
    2229              $C$DW$T$27      .dwtag  DW_TAG_structure_type
    2230                      .dwattr $C$DW$T$27, DW_AT_name("os_mbox_data")
    2231                      .dwattr $C$DW$T$27, DW_AT_byte_size(0x0c)
    2232              $C$DW$145       .dwtag  DW_TAG_member
    2233                      .dwattr $C$DW$145, DW_AT_type(*$C$DW$T$3)
    2234                      .dwattr $C$DW$145, DW_AT_name("OSMsg")
    2235                      .dwattr $C$DW$145, DW_AT_TI_symbol_name("_OSMsg")
    2236                      .dwattr $C$DW$145, DW_AT_data_member_location[DW_OP_plus_uconst 0x0]
    2237                      .dwattr $C$DW$145, DW_AT_accessibility(DW_ACCESS_public)
TMS320C2000 Assembler PC v20.2.1 Tue Feb 16 00:15:58 2021

Copyright (c) 1996-2018 Texas Instruments Incorporated
os_mbox.asm                                                          PAGE   43

    2238              
    2239              $C$DW$146       .dwtag  DW_TAG_member
    2240                      .dwattr $C$DW$146, DW_AT_type(*$C$DW$T$22)
    2241                      .dwattr $C$DW$146, DW_AT_name("OSEventTbl")
    2242                      .dwattr $C$DW$146, DW_AT_TI_symbol_name("_OSEventTbl")
    2243                      .dwattr $C$DW$146, DW_AT_data_member_location[DW_OP_plus_uconst 0x2]
    2244                      .dwattr $C$DW$146, DW_AT_accessibility(DW_ACCESS_public)
    2245              
    2246              $C$DW$147       .dwtag  DW_TAG_member
    2247                      .dwattr $C$DW$147, DW_AT_type(*$C$DW$T$21)
    2248                      .dwattr $C$DW$147, DW_AT_name("OSEventGrp")
    2249                      .dwattr $C$DW$147, DW_AT_TI_symbol_name("_OSEventGrp")
    2250                      .dwattr $C$DW$147, DW_AT_data_member_location[DW_OP_plus_uconst 0xa]
    2251                      .dwattr $C$DW$147, DW_AT_accessibility(DW_ACCESS_public)
    2252              
    2253                      .dwendtag $C$DW$T$27
    2254              
    2255              $C$DW$T$59      .dwtag  DW_TAG_typedef
    2256                      .dwattr $C$DW$T$59, DW_AT_name("OS_MBOX_DATA")
    2257                      .dwattr $C$DW$T$59, DW_AT_type(*$C$DW$T$27)
    2258                      .dwattr $C$DW$T$59, DW_AT_language(DW_LANG_C)
    2259              
    2260              $C$DW$T$60      .dwtag  DW_TAG_pointer_type
    2261                      .dwattr $C$DW$T$60, DW_AT_type(*$C$DW$T$59)
    2262                      .dwattr $C$DW$T$60, DW_AT_address_class(0x20)
    2263              
    2264              
    2265              $C$DW$T$38      .dwtag  DW_TAG_structure_type
    2266                      .dwattr $C$DW$T$38, DW_AT_name("os_tcb")
    2267                      .dwattr $C$DW$T$38, DW_AT_byte_size(0x30)
    2268              $C$DW$148       .dwtag  DW_TAG_member
    2269                      .dwattr $C$DW$148, DW_AT_type(*$C$DW$T$29)
    2270                      .dwattr $C$DW$148, DW_AT_name("OSTCBStkPtr")
    2271                      .dwattr $C$DW$148, DW_AT_TI_symbol_name("_OSTCBStkPtr")
    2272                      .dwattr $C$DW$148, DW_AT_data_member_location[DW_OP_plus_uconst 0x0]
    2273                      .dwattr $C$DW$148, DW_AT_accessibility(DW_ACCESS_public)
    2274              
    2275              $C$DW$149       .dwtag  DW_TAG_member
    2276                      .dwattr $C$DW$149, DW_AT_type(*$C$DW$T$3)
    2277                      .dwattr $C$DW$149, DW_AT_name("OSTCBExtPtr")
    2278                      .dwattr $C$DW$149, DW_AT_TI_symbol_name("_OSTCBExtPtr")
    2279                      .dwattr $C$DW$149, DW_AT_data_member_location[DW_OP_plus_uconst 0x2]
    2280                      .dwattr $C$DW$149, DW_AT_accessibility(DW_ACCESS_public)
    2281              
    2282              $C$DW$150       .dwtag  DW_TAG_member
    2283                      .dwattr $C$DW$150, DW_AT_type(*$C$DW$T$29)
    2284                      .dwattr $C$DW$150, DW_AT_name("OSTCBStkBottom")
    2285                      .dwattr $C$DW$150, DW_AT_TI_symbol_name("_OSTCBStkBottom")
    2286                      .dwattr $C$DW$150, DW_AT_data_member_location[DW_OP_plus_uconst 0x4]
    2287                      .dwattr $C$DW$150, DW_AT_accessibility(DW_ACCESS_public)
    2288              
    2289              $C$DW$151       .dwtag  DW_TAG_member
    2290                      .dwattr $C$DW$151, DW_AT_type(*$C$DW$T$30)
    2291                      .dwattr $C$DW$151, DW_AT_name("OSTCBStkSize")
    2292                      .dwattr $C$DW$151, DW_AT_TI_symbol_name("_OSTCBStkSize")
TMS320C2000 Assembler PC v20.2.1 Tue Feb 16 00:15:58 2021

Copyright (c) 1996-2018 Texas Instruments Incorporated
os_mbox.asm                                                          PAGE   44

    2293                      .dwattr $C$DW$151, DW_AT_data_member_location[DW_OP_plus_uconst 0x6]
    2294                      .dwattr $C$DW$151, DW_AT_accessibility(DW_ACCESS_public)
    2295              
    2296              $C$DW$152       .dwtag  DW_TAG_member
    2297                      .dwattr $C$DW$152, DW_AT_type(*$C$DW$T$20)
    2298                      .dwattr $C$DW$152, DW_AT_name("OSTCBOpt")
    2299                      .dwattr $C$DW$152, DW_AT_TI_symbol_name("_OSTCBOpt")
    2300                      .dwattr $C$DW$152, DW_AT_data_member_location[DW_OP_plus_uconst 0x8]
    2301                      .dwattr $C$DW$152, DW_AT_accessibility(DW_ACCESS_public)
    2302              
    2303              $C$DW$153       .dwtag  DW_TAG_member
    2304                      .dwattr $C$DW$153, DW_AT_type(*$C$DW$T$20)
    2305                      .dwattr $C$DW$153, DW_AT_name("OSTCBId")
    2306                      .dwattr $C$DW$153, DW_AT_TI_symbol_name("_OSTCBId")
    2307                      .dwattr $C$DW$153, DW_AT_data_member_location[DW_OP_plus_uconst 0x9]
    2308                      .dwattr $C$DW$153, DW_AT_accessibility(DW_ACCESS_public)
    2309              
    2310              $C$DW$154       .dwtag  DW_TAG_member
    2311                      .dwattr $C$DW$154, DW_AT_type(*$C$DW$T$31)
    2312                      .dwattr $C$DW$154, DW_AT_name("OSTCBNext")
    2313                      .dwattr $C$DW$154, DW_AT_TI_symbol_name("_OSTCBNext")
    2314                      .dwattr $C$DW$154, DW_AT_data_member_location[DW_OP_plus_uconst 0xa]
    2315                      .dwattr $C$DW$154, DW_AT_accessibility(DW_ACCESS_public)
    2316              
    2317              $C$DW$155       .dwtag  DW_TAG_member
    2318                      .dwattr $C$DW$155, DW_AT_type(*$C$DW$T$31)
    2319                      .dwattr $C$DW$155, DW_AT_name("OSTCBPrev")
    2320                      .dwattr $C$DW$155, DW_AT_TI_symbol_name("_OSTCBPrev")
    2321                      .dwattr $C$DW$155, DW_AT_data_member_location[DW_OP_plus_uconst 0xc]
    2322                      .dwattr $C$DW$155, DW_AT_accessibility(DW_ACCESS_public)
    2323              
    2324              $C$DW$156       .dwtag  DW_TAG_member
    2325                      .dwattr $C$DW$156, DW_AT_type(*$C$DW$T$33)
    2326                      .dwattr $C$DW$156, DW_AT_name("OSTCBEventPtr")
    2327                      .dwattr $C$DW$156, DW_AT_TI_symbol_name("_OSTCBEventPtr")
    2328                      .dwattr $C$DW$156, DW_AT_data_member_location[DW_OP_plus_uconst 0xe]
    2329                      .dwattr $C$DW$156, DW_AT_accessibility(DW_ACCESS_public)
    2330              
    2331              $C$DW$157       .dwtag  DW_TAG_member
    2332                      .dwattr $C$DW$157, DW_AT_type(*$C$DW$T$34)
    2333                      .dwattr $C$DW$157, DW_AT_name("OSTCBEventMultiPtr")
    2334                      .dwattr $C$DW$157, DW_AT_TI_symbol_name("_OSTCBEventMultiPtr")
    2335                      .dwattr $C$DW$157, DW_AT_data_member_location[DW_OP_plus_uconst 0x10]
    2336                      .dwattr $C$DW$157, DW_AT_accessibility(DW_ACCESS_public)
    2337              
    2338              $C$DW$158       .dwtag  DW_TAG_member
    2339                      .dwattr $C$DW$158, DW_AT_type(*$C$DW$T$3)
    2340                      .dwattr $C$DW$158, DW_AT_name("OSTCBMsg")
    2341                      .dwattr $C$DW$158, DW_AT_TI_symbol_name("_OSTCBMsg")
    2342                      .dwattr $C$DW$158, DW_AT_data_member_location[DW_OP_plus_uconst 0x12]
    2343                      .dwattr $C$DW$158, DW_AT_accessibility(DW_ACCESS_public)
    2344              
    2345              $C$DW$159       .dwtag  DW_TAG_member
    2346                      .dwattr $C$DW$159, DW_AT_type(*$C$DW$T$36)
    2347                      .dwattr $C$DW$159, DW_AT_name("OSTCBFlagNode")
TMS320C2000 Assembler PC v20.2.1 Tue Feb 16 00:15:58 2021

Copyright (c) 1996-2018 Texas Instruments Incorporated
os_mbox.asm                                                          PAGE   45

    2348                      .dwattr $C$DW$159, DW_AT_TI_symbol_name("_OSTCBFlagNode")
    2349                      .dwattr $C$DW$159, DW_AT_data_member_location[DW_OP_plus_uconst 0x14]
    2350                      .dwattr $C$DW$159, DW_AT_accessibility(DW_ACCESS_public)
    2351              
    2352              $C$DW$160       .dwtag  DW_TAG_member
    2353                      .dwattr $C$DW$160, DW_AT_type(*$C$DW$T$25)
    2354                      .dwattr $C$DW$160, DW_AT_name("OSTCBFlagsRdy")
    2355                      .dwattr $C$DW$160, DW_AT_TI_symbol_name("_OSTCBFlagsRdy")
    2356                      .dwattr $C$DW$160, DW_AT_data_member_location[DW_OP_plus_uconst 0x16]
    2357                      .dwattr $C$DW$160, DW_AT_accessibility(DW_ACCESS_public)
    2358              
    2359              $C$DW$161       .dwtag  DW_TAG_member
    2360                      .dwattr $C$DW$161, DW_AT_type(*$C$DW$T$30)
    2361                      .dwattr $C$DW$161, DW_AT_name("OSTCBDly")
    2362                      .dwattr $C$DW$161, DW_AT_TI_symbol_name("_OSTCBDly")
    2363                      .dwattr $C$DW$161, DW_AT_data_member_location[DW_OP_plus_uconst 0x18]
    2364                      .dwattr $C$DW$161, DW_AT_accessibility(DW_ACCESS_public)
    2365              
    2366              $C$DW$162       .dwtag  DW_TAG_member
    2367                      .dwattr $C$DW$162, DW_AT_type(*$C$DW$T$19)
    2368                      .dwattr $C$DW$162, DW_AT_name("OSTCBStat")
    2369                      .dwattr $C$DW$162, DW_AT_TI_symbol_name("_OSTCBStat")
    2370                      .dwattr $C$DW$162, DW_AT_data_member_location[DW_OP_plus_uconst 0x1a]
    2371                      .dwattr $C$DW$162, DW_AT_accessibility(DW_ACCESS_public)
    2372              
    2373              $C$DW$163       .dwtag  DW_TAG_member
    2374                      .dwattr $C$DW$163, DW_AT_type(*$C$DW$T$19)
    2375                      .dwattr $C$DW$163, DW_AT_name("OSTCBStatPend")
    2376                      .dwattr $C$DW$163, DW_AT_TI_symbol_name("_OSTCBStatPend")
    2377                      .dwattr $C$DW$163, DW_AT_data_member_location[DW_OP_plus_uconst 0x1b]
    2378                      .dwattr $C$DW$163, DW_AT_accessibility(DW_ACCESS_public)
    2379              
    2380              $C$DW$164       .dwtag  DW_TAG_member
    2381                      .dwattr $C$DW$164, DW_AT_type(*$C$DW$T$19)
    2382                      .dwattr $C$DW$164, DW_AT_name("OSTCBPrio")
    2383                      .dwattr $C$DW$164, DW_AT_TI_symbol_name("_OSTCBPrio")
    2384                      .dwattr $C$DW$164, DW_AT_data_member_location[DW_OP_plus_uconst 0x1c]
    2385                      .dwattr $C$DW$164, DW_AT_accessibility(DW_ACCESS_public)
    2386              
    2387              $C$DW$165       .dwtag  DW_TAG_member
    2388                      .dwattr $C$DW$165, DW_AT_type(*$C$DW$T$19)
    2389                      .dwattr $C$DW$165, DW_AT_name("OSTCBX")
    2390                      .dwattr $C$DW$165, DW_AT_TI_symbol_name("_OSTCBX")
    2391                      .dwattr $C$DW$165, DW_AT_data_member_location[DW_OP_plus_uconst 0x1d]
    2392                      .dwattr $C$DW$165, DW_AT_accessibility(DW_ACCESS_public)
    2393              
    2394              $C$DW$166       .dwtag  DW_TAG_member
    2395                      .dwattr $C$DW$166, DW_AT_type(*$C$DW$T$19)
    2396                      .dwattr $C$DW$166, DW_AT_name("OSTCBY")
    2397                      .dwattr $C$DW$166, DW_AT_TI_symbol_name("_OSTCBY")
    2398                      .dwattr $C$DW$166, DW_AT_data_member_location[DW_OP_plus_uconst 0x1e]
    2399                      .dwattr $C$DW$166, DW_AT_accessibility(DW_ACCESS_public)
    2400              
    2401              $C$DW$167       .dwtag  DW_TAG_member
    2402                      .dwattr $C$DW$167, DW_AT_type(*$C$DW$T$21)
TMS320C2000 Assembler PC v20.2.1 Tue Feb 16 00:15:58 2021

Copyright (c) 1996-2018 Texas Instruments Incorporated
os_mbox.asm                                                          PAGE   46

    2403                      .dwattr $C$DW$167, DW_AT_name("OSTCBBitX")
    2404                      .dwattr $C$DW$167, DW_AT_TI_symbol_name("_OSTCBBitX")
    2405                      .dwattr $C$DW$167, DW_AT_data_member_location[DW_OP_plus_uconst 0x1f]
    2406                      .dwattr $C$DW$167, DW_AT_accessibility(DW_ACCESS_public)
    2407              
    2408              $C$DW$168       .dwtag  DW_TAG_member
    2409                      .dwattr $C$DW$168, DW_AT_type(*$C$DW$T$21)
    2410                      .dwattr $C$DW$168, DW_AT_name("OSTCBBitY")
    2411                      .dwattr $C$DW$168, DW_AT_TI_symbol_name("_OSTCBBitY")
    2412                      .dwattr $C$DW$168, DW_AT_data_member_location[DW_OP_plus_uconst 0x20]
    2413                      .dwattr $C$DW$168, DW_AT_accessibility(DW_ACCESS_public)
    2414              
    2415              $C$DW$169       .dwtag  DW_TAG_member
    2416                      .dwattr $C$DW$169, DW_AT_type(*$C$DW$T$19)
    2417                      .dwattr $C$DW$169, DW_AT_name("OSTCBDelReq")
    2418                      .dwattr $C$DW$169, DW_AT_TI_symbol_name("_OSTCBDelReq")
    2419                      .dwattr $C$DW$169, DW_AT_data_member_location[DW_OP_plus_uconst 0x21]
    2420                      .dwattr $C$DW$169, DW_AT_accessibility(DW_ACCESS_public)
    2421              
    2422              $C$DW$170       .dwtag  DW_TAG_member
    2423                      .dwattr $C$DW$170, DW_AT_type(*$C$DW$T$30)
    2424                      .dwattr $C$DW$170, DW_AT_name("OSTCBCtxSwCtr")
    2425                      .dwattr $C$DW$170, DW_AT_TI_symbol_name("_OSTCBCtxSwCtr")
    2426                      .dwattr $C$DW$170, DW_AT_data_member_location[DW_OP_plus_uconst 0x22]
    2427                      .dwattr $C$DW$170, DW_AT_accessibility(DW_ACCESS_public)
    2428              
    2429              $C$DW$171       .dwtag  DW_TAG_member
    2430                      .dwattr $C$DW$171, DW_AT_type(*$C$DW$T$30)
    2431                      .dwattr $C$DW$171, DW_AT_name("OSTCBCyclesTot")
    2432                      .dwattr $C$DW$171, DW_AT_TI_symbol_name("_OSTCBCyclesTot")
    2433                      .dwattr $C$DW$171, DW_AT_data_member_location[DW_OP_plus_uconst 0x24]
    2434                      .dwattr $C$DW$171, DW_AT_accessibility(DW_ACCESS_public)
    2435              
    2436              $C$DW$172       .dwtag  DW_TAG_member
    2437                      .dwattr $C$DW$172, DW_AT_type(*$C$DW$T$30)
    2438                      .dwattr $C$DW$172, DW_AT_name("OSTCBCyclesStart")
    2439                      .dwattr $C$DW$172, DW_AT_TI_symbol_name("_OSTCBCyclesStart")
    2440                      .dwattr $C$DW$172, DW_AT_data_member_location[DW_OP_plus_uconst 0x26]
    2441                      .dwattr $C$DW$172, DW_AT_accessibility(DW_ACCESS_public)
    2442              
    2443              $C$DW$173       .dwtag  DW_TAG_member
    2444                      .dwattr $C$DW$173, DW_AT_type(*$C$DW$T$29)
    2445                      .dwattr $C$DW$173, DW_AT_name("OSTCBStkBase")
    2446                      .dwattr $C$DW$173, DW_AT_TI_symbol_name("_OSTCBStkBase")
    2447                      .dwattr $C$DW$173, DW_AT_data_member_location[DW_OP_plus_uconst 0x28]
    2448                      .dwattr $C$DW$173, DW_AT_accessibility(DW_ACCESS_public)
    2449              
    2450              $C$DW$174       .dwtag  DW_TAG_member
    2451                      .dwattr $C$DW$174, DW_AT_type(*$C$DW$T$30)
    2452                      .dwattr $C$DW$174, DW_AT_name("OSTCBStkUsed")
    2453                      .dwattr $C$DW$174, DW_AT_TI_symbol_name("_OSTCBStkUsed")
    2454                      .dwattr $C$DW$174, DW_AT_data_member_location[DW_OP_plus_uconst 0x2a]
    2455                      .dwattr $C$DW$174, DW_AT_accessibility(DW_ACCESS_public)
    2456              
    2457              $C$DW$175       .dwtag  DW_TAG_member
TMS320C2000 Assembler PC v20.2.1 Tue Feb 16 00:15:58 2021

Copyright (c) 1996-2018 Texas Instruments Incorporated
os_mbox.asm                                                          PAGE   47

    2458                      .dwattr $C$DW$175, DW_AT_type(*$C$DW$T$23)
    2459                      .dwattr $C$DW$175, DW_AT_name("OSTCBTaskName")
    2460                      .dwattr $C$DW$175, DW_AT_TI_symbol_name("_OSTCBTaskName")
    2461                      .dwattr $C$DW$175, DW_AT_data_member_location[DW_OP_plus_uconst 0x2c]
    2462                      .dwattr $C$DW$175, DW_AT_accessibility(DW_ACCESS_public)
    2463              
    2464              $C$DW$176       .dwtag  DW_TAG_member
    2465                      .dwattr $C$DW$176, DW_AT_type(*$C$DW$T$37)
    2466                      .dwattr $C$DW$176, DW_AT_name("OSTCBRegTbl")
    2467                      .dwattr $C$DW$176, DW_AT_TI_symbol_name("_OSTCBRegTbl")
    2468                      .dwattr $C$DW$176, DW_AT_data_member_location[DW_OP_plus_uconst 0x2e]
    2469                      .dwattr $C$DW$176, DW_AT_accessibility(DW_ACCESS_public)
    2470              
    2471                      .dwendtag $C$DW$T$38
    2472              
    2473              $C$DW$T$46      .dwtag  DW_TAG_typedef
    2474                      .dwattr $C$DW$T$46, DW_AT_name("OS_TCB")
    2475                      .dwattr $C$DW$T$46, DW_AT_type(*$C$DW$T$38)
    2476                      .dwattr $C$DW$T$46, DW_AT_language(DW_LANG_C)
    2477              
    2478              $C$DW$T$47      .dwtag  DW_TAG_pointer_type
    2479                      .dwattr $C$DW$T$47, DW_AT_type(*$C$DW$T$46)
    2480                      .dwattr $C$DW$T$47, DW_AT_address_class(0x20)
    2481              
    2482              $C$DW$T$31      .dwtag  DW_TAG_pointer_type
    2483                      .dwattr $C$DW$T$31, DW_AT_type(*$C$DW$T$38)
    2484                      .dwattr $C$DW$T$31, DW_AT_address_class(0x20)
    2485              
    2486                      .dwattr $C$DW$CU, DW_AT_language(DW_LANG_C)
    2487              
    2488              ;***************************************************************
    2489              ;* DWARF CIE ENTRIES                                           *
    2490              ;***************************************************************
    2491              
    2492              $C$DW$CIE       .dwcie 26
    2493                      .dwcfi  cfa_register, 20
    2494                      .dwcfi  cfa_offset, 0
    2495                      .dwcfi  same_value, 28
    2496                      .dwcfi  same_value, 6
    2497                      .dwcfi  same_value, 7
    2498                      .dwcfi  same_value, 8
    2499                      .dwcfi  same_value, 9
    2500                      .dwcfi  same_value, 10
    2501                      .dwcfi  same_value, 11
    2502                      .dwendentry
    2503              
    2504              ;***************************************************************
    2505              ;* DWARF REGISTER MAP                                          *
    2506              ;***************************************************************
    2507              
    2508              $C$DW$177       .dwtag  DW_TAG_TI_assign_register
    2509                      .dwattr $C$DW$177, DW_AT_name("AL")
    2510                      .dwattr $C$DW$177, DW_AT_location[DW_OP_reg0]
    2511              
    2512              $C$DW$178       .dwtag  DW_TAG_TI_assign_register
TMS320C2000 Assembler PC v20.2.1 Tue Feb 16 00:15:58 2021

Copyright (c) 1996-2018 Texas Instruments Incorporated
os_mbox.asm                                                          PAGE   48

    2513                      .dwattr $C$DW$178, DW_AT_name("AH")
    2514                      .dwattr $C$DW$178, DW_AT_location[DW_OP_reg1]
    2515              
    2516              $C$DW$179       .dwtag  DW_TAG_TI_assign_register
    2517                      .dwattr $C$DW$179, DW_AT_name("PL")
    2518                      .dwattr $C$DW$179, DW_AT_location[DW_OP_reg2]
    2519              
    2520              $C$DW$180       .dwtag  DW_TAG_TI_assign_register
    2521                      .dwattr $C$DW$180, DW_AT_name("PH")
    2522                      .dwattr $C$DW$180, DW_AT_location[DW_OP_reg3]
    2523              
    2524              $C$DW$181       .dwtag  DW_TAG_TI_assign_register
    2525                      .dwattr $C$DW$181, DW_AT_name("SP")
    2526                      .dwattr $C$DW$181, DW_AT_location[DW_OP_reg20]
    2527              
    2528              $C$DW$182       .dwtag  DW_TAG_TI_assign_register
    2529                      .dwattr $C$DW$182, DW_AT_name("XT")
    2530                      .dwattr $C$DW$182, DW_AT_location[DW_OP_reg21]
    2531              
    2532              $C$DW$183       .dwtag  DW_TAG_TI_assign_register
    2533                      .dwattr $C$DW$183, DW_AT_name("T")
    2534                      .dwattr $C$DW$183, DW_AT_location[DW_OP_reg22]
    2535              
    2536              $C$DW$184       .dwtag  DW_TAG_TI_assign_register
    2537                      .dwattr $C$DW$184, DW_AT_name("ST0")
    2538                      .dwattr $C$DW$184, DW_AT_location[DW_OP_reg23]
    2539              
    2540              $C$DW$185       .dwtag  DW_TAG_TI_assign_register
    2541                      .dwattr $C$DW$185, DW_AT_name("ST1")
    2542                      .dwattr $C$DW$185, DW_AT_location[DW_OP_reg24]
    2543              
    2544              $C$DW$186       .dwtag  DW_TAG_TI_assign_register
    2545                      .dwattr $C$DW$186, DW_AT_name("PC")
    2546                      .dwattr $C$DW$186, DW_AT_location[DW_OP_reg25]
    2547              
    2548              $C$DW$187       .dwtag  DW_TAG_TI_assign_register
    2549                      .dwattr $C$DW$187, DW_AT_name("RPC")
    2550                      .dwattr $C$DW$187, DW_AT_location[DW_OP_reg26]
    2551              
    2552              $C$DW$188       .dwtag  DW_TAG_TI_assign_register
    2553                      .dwattr $C$DW$188, DW_AT_name("FP")
    2554                      .dwattr $C$DW$188, DW_AT_location[DW_OP_reg28]
    2555              
    2556              $C$DW$189       .dwtag  DW_TAG_TI_assign_register
    2557                      .dwattr $C$DW$189, DW_AT_name("DP")
    2558                      .dwattr $C$DW$189, DW_AT_location[DW_OP_reg29]
    2559              
    2560              $C$DW$190       .dwtag  DW_TAG_TI_assign_register
    2561                      .dwattr $C$DW$190, DW_AT_name("SXM")
    2562                      .dwattr $C$DW$190, DW_AT_location[DW_OP_reg30]
    2563              
    2564              $C$DW$191       .dwtag  DW_TAG_TI_assign_register
    2565                      .dwattr $C$DW$191, DW_AT_name("PM")
    2566                      .dwattr $C$DW$191, DW_AT_location[DW_OP_reg31]
    2567              
TMS320C2000 Assembler PC v20.2.1 Tue Feb 16 00:15:58 2021

Copyright (c) 1996-2018 Texas Instruments Incorporated
os_mbox.asm                                                          PAGE   49

    2568              $C$DW$192       .dwtag  DW_TAG_TI_assign_register
    2569                      .dwattr $C$DW$192, DW_AT_name("OVM")
    2570                      .dwattr $C$DW$192, DW_AT_location[DW_OP_regx 0x20]
    2571              
    2572              $C$DW$193       .dwtag  DW_TAG_TI_assign_register
    2573                      .dwattr $C$DW$193, DW_AT_name("PAGE0")
    2574                      .dwattr $C$DW$193, DW_AT_location[DW_OP_regx 0x21]
    2575              
    2576              $C$DW$194       .dwtag  DW_TAG_TI_assign_register
    2577                      .dwattr $C$DW$194, DW_AT_name("AMODE")
    2578                      .dwattr $C$DW$194, DW_AT_location[DW_OP_regx 0x22]
    2579              
    2580              $C$DW$195       .dwtag  DW_TAG_TI_assign_register
    2581                      .dwattr $C$DW$195, DW_AT_name("EALLOW")
    2582                      .dwattr $C$DW$195, DW_AT_location[DW_OP_regx 0x4e]
    2583              
    2584              $C$DW$196       .dwtag  DW_TAG_TI_assign_register
    2585                      .dwattr $C$DW$196, DW_AT_name("INTM")
    2586                      .dwattr $C$DW$196, DW_AT_location[DW_OP_regx 0x23]
    2587              
    2588              $C$DW$197       .dwtag  DW_TAG_TI_assign_register
    2589                      .dwattr $C$DW$197, DW_AT_name("IFR")
    2590                      .dwattr $C$DW$197, DW_AT_location[DW_OP_regx 0x24]
    2591              
    2592              $C$DW$198       .dwtag  DW_TAG_TI_assign_register
    2593                      .dwattr $C$DW$198, DW_AT_name("IER")
    2594                      .dwattr $C$DW$198, DW_AT_location[DW_OP_regx 0x25]
    2595              
    2596              $C$DW$199       .dwtag  DW_TAG_TI_assign_register
    2597                      .dwattr $C$DW$199, DW_AT_name("V")
    2598                      .dwattr $C$DW$199, DW_AT_location[DW_OP_regx 0x26]
    2599              
    2600              $C$DW$200       .dwtag  DW_TAG_TI_assign_register
    2601                      .dwattr $C$DW$200, DW_AT_name("PSEUDOH")
    2602                      .dwattr $C$DW$200, DW_AT_location[DW_OP_regx 0x4c]
    2603              
    2604              $C$DW$201       .dwtag  DW_TAG_TI_assign_register
    2605                      .dwattr $C$DW$201, DW_AT_name("VOL")
    2606                      .dwattr $C$DW$201, DW_AT_location[DW_OP_regx 0x4d]
    2607              
    2608              $C$DW$202       .dwtag  DW_TAG_TI_assign_register
    2609                      .dwattr $C$DW$202, DW_AT_name("AR0")
    2610                      .dwattr $C$DW$202, DW_AT_location[DW_OP_reg4]
    2611              
    2612              $C$DW$203       .dwtag  DW_TAG_TI_assign_register
    2613                      .dwattr $C$DW$203, DW_AT_name("XAR0")
    2614                      .dwattr $C$DW$203, DW_AT_location[DW_OP_reg5]
    2615              
    2616              $C$DW$204       .dwtag  DW_TAG_TI_assign_register
    2617                      .dwattr $C$DW$204, DW_AT_name("AR1")
    2618                      .dwattr $C$DW$204, DW_AT_location[DW_OP_reg6]
    2619              
    2620              $C$DW$205       .dwtag  DW_TAG_TI_assign_register
    2621                      .dwattr $C$DW$205, DW_AT_name("XAR1")
    2622                      .dwattr $C$DW$205, DW_AT_location[DW_OP_reg7]
TMS320C2000 Assembler PC v20.2.1 Tue Feb 16 00:15:58 2021

Copyright (c) 1996-2018 Texas Instruments Incorporated
os_mbox.asm                                                          PAGE   50

    2623              
    2624              $C$DW$206       .dwtag  DW_TAG_TI_assign_register
    2625                      .dwattr $C$DW$206, DW_AT_name("AR2")
    2626                      .dwattr $C$DW$206, DW_AT_location[DW_OP_reg8]
    2627              
    2628              $C$DW$207       .dwtag  DW_TAG_TI_assign_register
    2629                      .dwattr $C$DW$207, DW_AT_name("XAR2")
    2630                      .dwattr $C$DW$207, DW_AT_location[DW_OP_reg9]
    2631              
    2632              $C$DW$208       .dwtag  DW_TAG_TI_assign_register
    2633                      .dwattr $C$DW$208, DW_AT_name("AR3")
    2634                      .dwattr $C$DW$208, DW_AT_location[DW_OP_reg10]
    2635              
    2636              $C$DW$209       .dwtag  DW_TAG_TI_assign_register
    2637                      .dwattr $C$DW$209, DW_AT_name("XAR3")
    2638                      .dwattr $C$DW$209, DW_AT_location[DW_OP_reg11]
    2639              
    2640              $C$DW$210       .dwtag  DW_TAG_TI_assign_register
    2641                      .dwattr $C$DW$210, DW_AT_name("AR4")
    2642                      .dwattr $C$DW$210, DW_AT_location[DW_OP_reg12]
    2643              
    2644              $C$DW$211       .dwtag  DW_TAG_TI_assign_register
    2645                      .dwattr $C$DW$211, DW_AT_name("XAR4")
    2646                      .dwattr $C$DW$211, DW_AT_location[DW_OP_reg13]
    2647              
    2648              $C$DW$212       .dwtag  DW_TAG_TI_assign_register
    2649                      .dwattr $C$DW$212, DW_AT_name("AR5")
    2650                      .dwattr $C$DW$212, DW_AT_location[DW_OP_reg14]
    2651              
    2652              $C$DW$213       .dwtag  DW_TAG_TI_assign_register
    2653                      .dwattr $C$DW$213, DW_AT_name("XAR5")
    2654                      .dwattr $C$DW$213, DW_AT_location[DW_OP_reg15]
    2655              
    2656              $C$DW$214       .dwtag  DW_TAG_TI_assign_register
    2657                      .dwattr $C$DW$214, DW_AT_name("AR6")
    2658                      .dwattr $C$DW$214, DW_AT_location[DW_OP_reg16]
    2659              
    2660              $C$DW$215       .dwtag  DW_TAG_TI_assign_register
    2661                      .dwattr $C$DW$215, DW_AT_name("XAR6")
    2662                      .dwattr $C$DW$215, DW_AT_location[DW_OP_reg17]
    2663              
    2664              $C$DW$216       .dwtag  DW_TAG_TI_assign_register
    2665                      .dwattr $C$DW$216, DW_AT_name("AR7")
    2666                      .dwattr $C$DW$216, DW_AT_location[DW_OP_reg18]
    2667              
    2668              $C$DW$217       .dwtag  DW_TAG_TI_assign_register
    2669                      .dwattr $C$DW$217, DW_AT_name("XAR7")
    2670                      .dwattr $C$DW$217, DW_AT_location[DW_OP_reg19]
    2671              
    2672                      .dwendtag $C$DW$CU
    2673              

No Assembly Errors, No Assembly Warnings
