TMS320C2000 Assembler PC v20.2.1 Mon Jan 11 16:45:38 2021

Copyright (c) 1996-2018 Texas Instruments Incorporated
os_q.asm                                                             PAGE    1

       1              ;***************************************************************
       2              ;* TMS320C2000 G3 C/C++ Codegen                               PC v20.2.1.LTS *
       3              ;* Date/Time created: Mon Jan 11 16:45:38 2021                 *
       4              ;***************************************************************
       5                      .compiler_opts --abi=coffabi --diag_wrap=off --float_support=softlib --hll_source=on --mem_model:code
       6                      .asg    XAR2, FP
       7              
       8              $C$DW$CU        .dwtag  DW_TAG_compile_unit
       9                      .dwattr $C$DW$CU, DW_AT_name("C:/ti/Workspace/PLC_certificate/Software/uCOS-II/Source/os_q.c")
      10                      .dwattr $C$DW$CU, DW_AT_producer("TI TMS320C2000 G3 C/C++ Codegen PC v20.2.1.LTS Copyright (c) 1996-2
      11                      .dwattr $C$DW$CU, DW_AT_TI_version(0x01)
      12                      .dwattr $C$DW$CU, DW_AT_comp_dir("C:\ti\Workspace\PLC_certificate\Examples\TI\TMDSDOCK28335\OS2\CCS\D
      13              
      14              $C$DW$1 .dwtag  DW_TAG_subprogram
      15                      .dwattr $C$DW$1, DW_AT_name("OS_CPU_SR_Restore")
      16                      .dwattr $C$DW$1, DW_AT_TI_symbol_name("_OS_CPU_SR_Restore")
      17                      .dwattr $C$DW$1, DW_AT_declaration
      18                      .dwattr $C$DW$1, DW_AT_external
      19              $C$DW$2 .dwtag  DW_TAG_formal_parameter
      20                      .dwattr $C$DW$2, DW_AT_type(*$C$DW$T$44)
      21              
      22                      .dwendtag $C$DW$1
      23              
      24              
      25              $C$DW$3 .dwtag  DW_TAG_subprogram
      26                      .dwattr $C$DW$3, DW_AT_name("OS_EventWaitListInit")
      27                      .dwattr $C$DW$3, DW_AT_TI_symbol_name("_OS_EventWaitListInit")
      28                      .dwattr $C$DW$3, DW_AT_declaration
      29                      .dwattr $C$DW$3, DW_AT_external
      30              $C$DW$4 .dwtag  DW_TAG_formal_parameter
      31                      .dwattr $C$DW$4, DW_AT_type(*$C$DW$T$36)
      32              
      33                      .dwendtag $C$DW$3
      34              
      35              
      36              $C$DW$5 .dwtag  DW_TAG_subprogram
      37                      .dwattr $C$DW$5, DW_AT_name("OS_Sched")
      38                      .dwattr $C$DW$5, DW_AT_TI_symbol_name("_OS_Sched")
      39                      .dwattr $C$DW$5, DW_AT_declaration
      40                      .dwattr $C$DW$5, DW_AT_external
      41                      .dwendtag $C$DW$5
      42              
      43              
      44              $C$DW$6 .dwtag  DW_TAG_subprogram
      45                      .dwattr $C$DW$6, DW_AT_name("OS_EventTaskWait")
      46                      .dwattr $C$DW$6, DW_AT_TI_symbol_name("_OS_EventTaskWait")
      47                      .dwattr $C$DW$6, DW_AT_declaration
      48                      .dwattr $C$DW$6, DW_AT_external
      49              $C$DW$7 .dwtag  DW_TAG_formal_parameter
      50                      .dwattr $C$DW$7, DW_AT_type(*$C$DW$T$36)
      51              
      52                      .dwendtag $C$DW$6
      53              
      54              
      55              $C$DW$8 .dwtag  DW_TAG_subprogram
TMS320C2000 Assembler PC v20.2.1 Mon Jan 11 16:45:38 2021

Copyright (c) 1996-2018 Texas Instruments Incorporated
os_q.asm                                                             PAGE    2

      56                      .dwattr $C$DW$8, DW_AT_name("OS_EventTaskRemove")
      57                      .dwattr $C$DW$8, DW_AT_TI_symbol_name("_OS_EventTaskRemove")
      58                      .dwattr $C$DW$8, DW_AT_declaration
      59                      .dwattr $C$DW$8, DW_AT_external
      60              $C$DW$9 .dwtag  DW_TAG_formal_parameter
      61                      .dwattr $C$DW$9, DW_AT_type(*$C$DW$T$50)
      62              
      63              $C$DW$10        .dwtag  DW_TAG_formal_parameter
      64                      .dwattr $C$DW$10, DW_AT_type(*$C$DW$T$36)
      65              
      66                      .dwendtag $C$DW$8
      67              
      68              
      69              $C$DW$11        .dwtag  DW_TAG_subprogram
      70                      .dwattr $C$DW$11, DW_AT_name("OS_MemClr")
      71                      .dwattr $C$DW$11, DW_AT_TI_symbol_name("_OS_MemClr")
      72                      .dwattr $C$DW$11, DW_AT_declaration
      73                      .dwattr $C$DW$11, DW_AT_external
      74              $C$DW$12        .dwtag  DW_TAG_formal_parameter
      75                      .dwattr $C$DW$12, DW_AT_type(*$C$DW$T$23)
      76              
      77              $C$DW$13        .dwtag  DW_TAG_formal_parameter
      78                      .dwattr $C$DW$13, DW_AT_type(*$C$DW$T$20)
      79              
      80                      .dwendtag $C$DW$11
      81              
      82              $C$DW$14        .dwtag  DW_TAG_variable
      83                      .dwattr $C$DW$14, DW_AT_name("OSIntNesting")
      84                      .dwattr $C$DW$14, DW_AT_TI_symbol_name("_OSIntNesting")
      85                      .dwattr $C$DW$14, DW_AT_type(*$C$DW$T$19)
      86                      .dwattr $C$DW$14, DW_AT_declaration
      87                      .dwattr $C$DW$14, DW_AT_external
      88              
      89              $C$DW$15        .dwtag  DW_TAG_variable
      90                      .dwattr $C$DW$15, DW_AT_name("OSLockNesting")
      91                      .dwattr $C$DW$15, DW_AT_TI_symbol_name("_OSLockNesting")
      92                      .dwattr $C$DW$15, DW_AT_type(*$C$DW$T$19)
      93                      .dwattr $C$DW$15, DW_AT_declaration
      94                      .dwattr $C$DW$15, DW_AT_external
      95              
      96              
      97              $C$DW$16        .dwtag  DW_TAG_subprogram
      98                      .dwattr $C$DW$16, DW_AT_name("OS_CPU_SR_Save")
      99                      .dwattr $C$DW$16, DW_AT_TI_symbol_name("_OS_CPU_SR_Save")
     100                      .dwattr $C$DW$16, DW_AT_type(*$C$DW$T$44)
     101                      .dwattr $C$DW$16, DW_AT_declaration
     102                      .dwattr $C$DW$16, DW_AT_external
     103                      .dwendtag $C$DW$16
     104              
     105              
     106              $C$DW$17        .dwtag  DW_TAG_subprogram
     107                      .dwattr $C$DW$17, DW_AT_name("OS_EventTaskRdy")
     108                      .dwattr $C$DW$17, DW_AT_TI_symbol_name("_OS_EventTaskRdy")
     109                      .dwattr $C$DW$17, DW_AT_type(*$C$DW$T$19)
     110                      .dwattr $C$DW$17, DW_AT_declaration
TMS320C2000 Assembler PC v20.2.1 Mon Jan 11 16:45:38 2021

Copyright (c) 1996-2018 Texas Instruments Incorporated
os_q.asm                                                             PAGE    3

     111                      .dwattr $C$DW$17, DW_AT_external
     112              $C$DW$18        .dwtag  DW_TAG_formal_parameter
     113                      .dwattr $C$DW$18, DW_AT_type(*$C$DW$T$36)
     114              
     115              $C$DW$19        .dwtag  DW_TAG_formal_parameter
     116                      .dwattr $C$DW$19, DW_AT_type(*$C$DW$T$3)
     117              
     118              $C$DW$20        .dwtag  DW_TAG_formal_parameter
     119                      .dwattr $C$DW$20, DW_AT_type(*$C$DW$T$19)
     120              
     121              $C$DW$21        .dwtag  DW_TAG_formal_parameter
     122                      .dwattr $C$DW$21, DW_AT_type(*$C$DW$T$19)
     123              
     124                      .dwendtag $C$DW$17
     125              
     126              $C$DW$22        .dwtag  DW_TAG_variable
     127                      .dwattr $C$DW$22, DW_AT_name("OSEventFreeList")
     128                      .dwattr $C$DW$22, DW_AT_TI_symbol_name("_OSEventFreeList")
     129                      .dwattr $C$DW$22, DW_AT_type(*$C$DW$T$36)
     130                      .dwattr $C$DW$22, DW_AT_declaration
     131                      .dwattr $C$DW$22, DW_AT_external
     132              
     133              $C$DW$23        .dwtag  DW_TAG_variable
     134                      .dwattr $C$DW$23, DW_AT_name("OSTCBCur")
     135                      .dwattr $C$DW$23, DW_AT_TI_symbol_name("_OSTCBCur")
     136                      .dwattr $C$DW$23, DW_AT_type(*$C$DW$T$50)
     137                      .dwattr $C$DW$23, DW_AT_declaration
     138                      .dwattr $C$DW$23, DW_AT_external
     139              
     140              $C$DW$24        .dwtag  DW_TAG_variable
     141                      .dwattr $C$DW$24, DW_AT_name("OSQFreeList")
     142                      .dwattr $C$DW$24, DW_AT_TI_symbol_name("_OSQFreeList")
     143                      .dwattr $C$DW$24, DW_AT_type(*$C$DW$T$75)
     144                      .dwattr $C$DW$24, DW_AT_declaration
     145                      .dwattr $C$DW$24, DW_AT_external
     146              
     147              $C$DW$25        .dwtag  DW_TAG_variable
     148                      .dwattr $C$DW$25, DW_AT_name("OSQTbl")
     149                      .dwattr $C$DW$25, DW_AT_TI_symbol_name("_OSQTbl")
     150                      .dwattr $C$DW$25, DW_AT_type(*$C$DW$T$76)
     151                      .dwattr $C$DW$25, DW_AT_declaration
     152                      .dwattr $C$DW$25, DW_AT_external
     153              
     154              ;       C:\ti\ccs1011\ccs\tools\compiler\ti-cgt-c2000_20.2.1.LTS\bin\ac2000.exe -@C:\\Users\\LEEKEO~1\\AppDat
     155 00000000               .sect   ".text"
     156                      .clink
     157                      .global _OSQAccept
     158              
     159              $C$DW$26        .dwtag  DW_TAG_subprogram
     160                      .dwattr $C$DW$26, DW_AT_name("OSQAccept")
     161                      .dwattr $C$DW$26, DW_AT_low_pc(_OSQAccept)
     162                      .dwattr $C$DW$26, DW_AT_high_pc(0x00)
     163                      .dwattr $C$DW$26, DW_AT_TI_symbol_name("_OSQAccept")
     164                      .dwattr $C$DW$26, DW_AT_external
     165                      .dwattr $C$DW$26, DW_AT_type(*$C$DW$T$3)
TMS320C2000 Assembler PC v20.2.1 Mon Jan 11 16:45:38 2021

Copyright (c) 1996-2018 Texas Instruments Incorporated
os_q.asm                                                             PAGE    4

     166                      .dwattr $C$DW$26, DW_AT_TI_begin_file("C:/ti/Workspace/PLC_certificate/Software/uCOS-II/Source/os_q.c
     167                      .dwattr $C$DW$26, DW_AT_TI_begin_line(0x3f)
     168                      .dwattr $C$DW$26, DW_AT_TI_begin_column(0x08)
     169                      .dwattr $C$DW$26, DW_AT_TI_max_frame_size(-12)
     170                      .dwpsn  file "C:/ti/Workspace/PLC_certificate/Software/uCOS-II/Source/os_q.c",line 65,column 1,is_stm
     171              
     172                      .dwfde $C$DW$CIE, _OSQAccept
     173              $C$DW$27        .dwtag  DW_TAG_formal_parameter
     174                      .dwattr $C$DW$27, DW_AT_name("pevent")
     175                      .dwattr $C$DW$27, DW_AT_TI_symbol_name("_pevent")
     176                      .dwattr $C$DW$27, DW_AT_type(*$C$DW$T$36)
     177                      .dwattr $C$DW$27, DW_AT_location[DW_OP_reg12]
     178              
     179              $C$DW$28        .dwtag  DW_TAG_formal_parameter
     180                      .dwattr $C$DW$28, DW_AT_name("perr")
     181                      .dwattr $C$DW$28, DW_AT_TI_symbol_name("_perr")
     182                      .dwattr $C$DW$28, DW_AT_type(*$C$DW$T$23)
     183                      .dwattr $C$DW$28, DW_AT_location[DW_OP_reg14]
     184              
     185              
     186              ;***************************************************************
     187              ;* FNAME: _OSQAccept                    FR SIZE:  10           *
     188              ;*                                                             *
     189              ;* FUNCTION ENVIRONMENT                                        *
     190              ;*                                                             *
     191              ;* FUNCTION PROPERTIES                                         *
     192              ;*                            0 Parameter,  9 Auto,  0 SOE     *
     193              ;***************************************************************
     194              
     195 00000000       _OSQAccept:
     196                      .dwcfi  cfa_offset, -2
     197                      .dwcfi  save_reg_to_mem, 26, 0
     198 00000000 FE0A          ADDB      SP,#10                ; [CPU_ARAU] 
     199                      .dwcfi  cfa_offset, -12
     200              $C$DW$29        .dwtag  DW_TAG_variable
     201                      .dwattr $C$DW$29, DW_AT_name("pevent")
     202                      .dwattr $C$DW$29, DW_AT_TI_symbol_name("_pevent")
     203                      .dwattr $C$DW$29, DW_AT_type(*$C$DW$T$36)
     204                      .dwattr $C$DW$29, DW_AT_location[DW_OP_breg20 -2]
     205              
     206              $C$DW$30        .dwtag  DW_TAG_variable
     207                      .dwattr $C$DW$30, DW_AT_name("perr")
     208                      .dwattr $C$DW$30, DW_AT_TI_symbol_name("_perr")
     209                      .dwattr $C$DW$30, DW_AT_type(*$C$DW$T$23)
     210                      .dwattr $C$DW$30, DW_AT_location[DW_OP_breg20 -4]
     211              
     212              $C$DW$31        .dwtag  DW_TAG_variable
     213                      .dwattr $C$DW$31, DW_AT_name("pmsg")
     214                      .dwattr $C$DW$31, DW_AT_TI_symbol_name("_pmsg")
     215                      .dwattr $C$DW$31, DW_AT_type(*$C$DW$T$3)
     216                      .dwattr $C$DW$31, DW_AT_location[DW_OP_breg20 -6]
     217              
     218              $C$DW$32        .dwtag  DW_TAG_variable
     219                      .dwattr $C$DW$32, DW_AT_name("pq")
     220                      .dwattr $C$DW$32, DW_AT_TI_symbol_name("_pq")
TMS320C2000 Assembler PC v20.2.1 Mon Jan 11 16:45:38 2021

Copyright (c) 1996-2018 Texas Instruments Incorporated
os_q.asm                                                             PAGE    5

     221                      .dwattr $C$DW$32, DW_AT_type(*$C$DW$T$75)
     222                      .dwattr $C$DW$32, DW_AT_location[DW_OP_breg20 -8]
     223              
     224              $C$DW$33        .dwtag  DW_TAG_variable
     225                      .dwattr $C$DW$33, DW_AT_name("cpu_sr")
     226                      .dwattr $C$DW$33, DW_AT_TI_symbol_name("_cpu_sr")
     227                      .dwattr $C$DW$33, DW_AT_type(*$C$DW$T$44)
     228                      .dwattr $C$DW$33, DW_AT_location[DW_OP_breg20 -9]
     229              
     230 00000001 A044          MOVL      *-SP[4],XAR5          ; [CPU_ALU] |65| 
     231 00000002 A842          MOVL      *-SP[2],XAR4          ; [CPU_ALU] |65| 
     232                      .dwpsn  file "C:/ti/Workspace/PLC_certificate/Software/uCOS-II/Source/os_q.c",line 69,column 23,is_st
     233 00000003 2B49          MOV       *-SP[9],#0            ; [CPU_ALU] |69| 
     234                      .dwpsn  file "C:/ti/Workspace/PLC_certificate/Software/uCOS-II/Source/os_q.c",line 82,column 5,is_stm
     235 00000004 0642          MOVL      ACC,*-SP[2]           ; [CPU_ALU] |82| 
     236 00000005 6006          B         $C$L1,NEQ             ; [CPU_ALU] |82| 
     237                      ; branchcc occurs ; [] |82| 
     238                      .dwpsn  file "C:/ti/Workspace/PLC_certificate/Software/uCOS-II/Source/os_q.c",line 83,column 9,is_stm
     239 00000006 8A44          MOVL      XAR4,*-SP[4]          ; [CPU_ALU] |83| 
     240 00000007 56BF          MOVB      *+XAR4[0],#4,UNC      ; [CPU_ALU] |83| 
         00000008 04C4 
     241                      .dwpsn  file "C:/ti/Workspace/PLC_certificate/Software/uCOS-II/Source/os_q.c",line 84,column 9,is_stm
     242 00000009 D400          MOVB      XAR4,#0               ; [CPU_ALU] |84| 
     243 0000000a 6F3C          B         $C$L6,UNC             ; [CPU_ALU] |84| 
     244                      ; branch occurs ; [] |84| 
     245 0000000b       $C$L1:    
     246                      .dwpsn  file "C:/ti/Workspace/PLC_certificate/Software/uCOS-II/Source/os_q.c",line 87,column 5,is_stm
     247 0000000b 92C4          MOV       AL,*+XAR4[0]          ; [CPU_ALU] |87| 
     248 0000000c 5202          CMPB      AL,#2                 ; [CPU_ALU] |87| 
     249 0000000d 6106          B         $C$L2,EQ              ; [CPU_ALU] |87| 
     250                      ; branchcc occurs ; [] |87| 
     251                      .dwpsn  file "C:/ti/Workspace/PLC_certificate/Software/uCOS-II/Source/os_q.c",line 88,column 9,is_stm
     252 0000000e 8A44          MOVL      XAR4,*-SP[4]          ; [CPU_ALU] |88| 
     253 0000000f 56BF          MOVB      *+XAR4[0],#1,UNC      ; [CPU_ALU] |88| 
         00000010 01C4 
     254                      .dwpsn  file "C:/ti/Workspace/PLC_certificate/Software/uCOS-II/Source/os_q.c",line 89,column 9,is_stm
     255 00000011 D400          MOVB      XAR4,#0               ; [CPU_ALU] |89| 
     256 00000012 6F34          B         $C$L6,UNC             ; [CPU_ALU] |89| 
     257                      ; branch occurs ; [] |89| 
     258 00000013       $C$L2:    
     259                      .dwpsn  file "C:/ti/Workspace/PLC_certificate/Software/uCOS-II/Source/os_q.c",line 91,column 5,is_stm
     260              $C$DW$34        .dwtag  DW_TAG_TI_branch
     261                      .dwattr $C$DW$34, DW_AT_low_pc(0x00)
     262                      .dwattr $C$DW$34, DW_AT_name("_OS_CPU_SR_Save")
     263                      .dwattr $C$DW$34, DW_AT_TI_call
     264              
     265 00000013 7640!         LCR       #_OS_CPU_SR_Save      ; [CPU_ALU] |91| 
         00000014 0000 
     266                      ; call occurs [#_OS_CPU_SR_Save] ; [] |91| 
     267 00000015 9649          MOV       *-SP[9],AL            ; [CPU_ALU] |91| 
     268                      .dwpsn  file "C:/ti/Workspace/PLC_certificate/Software/uCOS-II/Source/os_q.c",line 92,column 5,is_stm
     269 00000016 8A42          MOVL      XAR4,*-SP[2]          ; [CPU_ALU] |92| 
     270 00000017 06D4          MOVL      ACC,*+XAR4[2]         ; [CPU_ALU] |92| 
     271 00000018 1E48          MOVL      *-SP[8],ACC           ; [CPU_ALU] |92| 
     272                      .dwpsn  file "C:/ti/Workspace/PLC_certificate/Software/uCOS-II/Source/os_q.c",line 93,column 5,is_stm
TMS320C2000 Assembler PC v20.2.1 Mon Jan 11 16:45:38 2021

Copyright (c) 1996-2018 Texas Instruments Incorporated
os_q.asm                                                             PAGE    6

     273 00000019 020B          MOVB      ACC,#11               ; [CPU_ALU] |93| 
     274 0000001a 0748          ADDL      ACC,*-SP[8]           ; [CPU_ALU] |93| 
     275 0000001b 8AA9          MOVL      XAR4,ACC              ; [CPU_ALU] |93| 
     276 0000001c 92C4          MOV       AL,*+XAR4[0]          ; [CPU_ALU] |93| 
     277 0000001d 6120          B         $C$L4,EQ              ; [CPU_ALU] |93| 
     278                      ; branchcc occurs ; [] |93| 
     279                      .dwpsn  file "C:/ti/Workspace/PLC_certificate/Software/uCOS-II/Source/os_q.c",line 94,column 9,is_stm
     280 0000001e 0208          MOVB      ACC,#8                ; [CPU_ALU] |94| 
     281 0000001f 0748          ADDL      ACC,*-SP[8]           ; [CPU_ALU] |94| 
     282 00000020 8AA9          MOVL      XAR4,ACC              ; [CPU_ALU] |94| 
     283 00000021 83C4          MOVL      XAR5,*+XAR4[0]        ; [CPU_ALU] |94| 
     284 00000022 0208          MOVB      ACC,#8                ; [CPU_ALU] |94| 
     285 00000023 0748          ADDL      ACC,*-SP[8]           ; [CPU_ALU] |94| 
     286 00000024 8AA9          MOVL      XAR4,ACC              ; [CPU_ALU] |94| 
     287 00000025 C485          MOVL      XAR6,*XAR5++          ; [CPU_ALU] |94| 
     288 00000026 A0C4          MOVL      *+XAR4[0],XAR5        ; [CPU_ALU] |94| 
     289 00000027 C246          MOVL      *-SP[6],XAR6          ; [CPU_ALU] |94| 
     290                      .dwpsn  file "C:/ti/Workspace/PLC_certificate/Software/uCOS-II/Source/os_q.c",line 95,column 9,is_stm
     291 00000028 020B          MOVB      ACC,#11               ; [CPU_ALU] |95| 
     292 00000029 0748          ADDL      ACC,*-SP[8]           ; [CPU_ALU] |95| 
     293 0000002a 8AA9          MOVL      XAR4,ACC              ; [CPU_ALU] |95| 
     294 0000002b 0BC4          DEC       *+XAR4[0]             ; [CPU_ALU] |95| 
     295                      .dwpsn  file "C:/ti/Workspace/PLC_certificate/Software/uCOS-II/Source/os_q.c",line 96,column 9,is_stm
     296 0000002c 8A48          MOVL      XAR4,*-SP[8]          ; [CPU_ALU] |96| 
     297 0000002d C4E4          MOVL      XAR6,*+XAR4[4]        ; [CPU_ALU] |96| 
     298 0000002e 0208          MOVB      ACC,#8                ; [CPU_ALU] |96| 
     299 0000002f 0748          ADDL      ACC,*-SP[8]           ; [CPU_ALU] |96| 
     300 00000030 8AA9          MOVL      XAR4,ACC              ; [CPU_ALU] |96| 
     301 00000031 06A6          MOVL      ACC,XAR6              ; [CPU_ALU] |96| 
     302 00000032 0FC4          CMPL      ACC,*+XAR4[0]         ; [CPU_ALU] |96| 
     303 00000033 6007          B         $C$L3,NEQ             ; [CPU_ALU] |96| 
     304                      ; branchcc occurs ; [] |96| 
     305                      .dwpsn  file "C:/ti/Workspace/PLC_certificate/Software/uCOS-II/Source/os_q.c",line 97,column 13,is_st
     306 00000034 8A48          MOVL      XAR4,*-SP[8]          ; [CPU_ALU] |97| 
     307 00000035 C4D4          MOVL      XAR6,*+XAR4[2]        ; [CPU_ALU] |97| 
     308 00000036 0208          MOVB      ACC,#8                ; [CPU_ALU] |97| 
     309 00000037 0748          ADDL      ACC,*-SP[8]           ; [CPU_ALU] |97| 
     310 00000038 8AA9          MOVL      XAR4,ACC              ; [CPU_ALU] |97| 
     311 00000039 C2C4          MOVL      *+XAR4[0],XAR6        ; [CPU_ALU] |97| 
     312 0000003a       $C$L3:    
     313                      .dwpsn  file "C:/ti/Workspace/PLC_certificate/Software/uCOS-II/Source/os_q.c",line 99,column 9,is_stm
     314 0000003a 8A44          MOVL      XAR4,*-SP[4]          ; [CPU_ALU] |99| 
     315 0000003b 2BC4          MOV       *+XAR4[0],#0          ; [CPU_ALU] |99| 
     316 0000003c 6F06          B         $C$L5,UNC             ; [CPU_ALU] 
     317                      ; branch occurs ; [] 
     318 0000003d       $C$L4:    
     319                      .dwpsn  file "C:/ti/Workspace/PLC_certificate/Software/uCOS-II/Source/os_q.c",line 101,column 9,is_st
     320 0000003d 8A44          MOVL      XAR4,*-SP[4]          ; [CPU_ALU] |101| 
     321 0000003e 56BF          MOVB      *+XAR4[0],#31,UNC     ; [CPU_ALU] |101| 
         0000003f 1FC4 
     322                      .dwpsn  file "C:/ti/Workspace/PLC_certificate/Software/uCOS-II/Source/os_q.c",line 102,column 9,is_st
     323 00000040 0200          MOVB      ACC,#0                ; [CPU_ALU] |102| 
     324 00000041 1E46          MOVL      *-SP[6],ACC           ; [CPU_ALU] |102| 
     325 00000042       $C$L5:    
     326                      .dwpsn  file "C:/ti/Workspace/PLC_certificate/Software/uCOS-II/Source/os_q.c",line 104,column 5,is_st
TMS320C2000 Assembler PC v20.2.1 Mon Jan 11 16:45:38 2021

Copyright (c) 1996-2018 Texas Instruments Incorporated
os_q.asm                                                             PAGE    7

     327 00000042 9249          MOV       AL,*-SP[9]            ; [CPU_ALU] |104| 
     328              $C$DW$35        .dwtag  DW_TAG_TI_branch
     329                      .dwattr $C$DW$35, DW_AT_low_pc(0x00)
     330                      .dwattr $C$DW$35, DW_AT_name("_OS_CPU_SR_Restore")
     331                      .dwattr $C$DW$35, DW_AT_TI_call
     332              
     333 00000043 7640!         LCR       #_OS_CPU_SR_Restore   ; [CPU_ALU] |104| 
         00000044 0000 
     334                      ; call occurs [#_OS_CPU_SR_Restore] ; [] |104| 
     335                      .dwpsn  file "C:/ti/Workspace/PLC_certificate/Software/uCOS-II/Source/os_q.c",line 105,column 5,is_st
     336 00000045 8A46          MOVL      XAR4,*-SP[6]          ; [CPU_ALU] |105| 
     337 00000046       $C$L6:    
     338                      .dwpsn  file "C:/ti/Workspace/PLC_certificate/Software/uCOS-II/Source/os_q.c",line 106,column 1,is_st
     339 00000046 FE8A          SUBB      SP,#10                ; [CPU_ARAU] 
     340                      .dwcfi  cfa_offset, -2
     341              $C$DW$36        .dwtag  DW_TAG_TI_branch
     342                      .dwattr $C$DW$36, DW_AT_low_pc(0x00)
     343                      .dwattr $C$DW$36, DW_AT_TI_return
     344              
     345 00000047 0006          LRETR     ; [CPU_ALU] 
     346                      ; return occurs ; [] 
     347                      .dwattr $C$DW$26, DW_AT_TI_end_file("C:/ti/Workspace/PLC_certificate/Software/uCOS-II/Source/os_q.c")
     348                      .dwattr $C$DW$26, DW_AT_TI_end_line(0x6a)
     349                      .dwattr $C$DW$26, DW_AT_TI_end_column(0x01)
     350                      .dwendentry
     351                      .dwendtag $C$DW$26
     352              
     353 00000048               .sect   ".text"
     354                      .clink
     355                      .global _OSQCreate
     356              
     357              $C$DW$37        .dwtag  DW_TAG_subprogram
     358                      .dwattr $C$DW$37, DW_AT_name("OSQCreate")
     359                      .dwattr $C$DW$37, DW_AT_low_pc(_OSQCreate)
     360                      .dwattr $C$DW$37, DW_AT_high_pc(0x00)
     361                      .dwattr $C$DW$37, DW_AT_TI_symbol_name("_OSQCreate")
     362                      .dwattr $C$DW$37, DW_AT_external
     363                      .dwattr $C$DW$37, DW_AT_type(*$C$DW$T$36)
     364                      .dwattr $C$DW$37, DW_AT_TI_begin_file("C:/ti/Workspace/PLC_certificate/Software/uCOS-II/Source/os_q.c
     365                      .dwattr $C$DW$37, DW_AT_TI_begin_line(0x80)
     366                      .dwattr $C$DW$37, DW_AT_TI_begin_column(0x0c)
     367                      .dwattr $C$DW$37, DW_AT_TI_max_frame_size(-10)
     368                      .dwpsn  file "C:/ti/Workspace/PLC_certificate/Software/uCOS-II/Source/os_q.c",line 130,column 1,is_st
     369              
     370                      .dwfde $C$DW$CIE, _OSQCreate
     371              $C$DW$38        .dwtag  DW_TAG_formal_parameter
     372                      .dwattr $C$DW$38, DW_AT_name("start")
     373                      .dwattr $C$DW$38, DW_AT_TI_symbol_name("_start")
     374                      .dwattr $C$DW$38, DW_AT_type(*$C$DW$T$28)
     375                      .dwattr $C$DW$38, DW_AT_location[DW_OP_reg12]
     376              
     377              $C$DW$39        .dwtag  DW_TAG_formal_parameter
     378                      .dwattr $C$DW$39, DW_AT_name("size")
     379                      .dwattr $C$DW$39, DW_AT_TI_symbol_name("_size")
     380                      .dwattr $C$DW$39, DW_AT_type(*$C$DW$T$20)
TMS320C2000 Assembler PC v20.2.1 Mon Jan 11 16:45:38 2021

Copyright (c) 1996-2018 Texas Instruments Incorporated
os_q.asm                                                             PAGE    8

     381                      .dwattr $C$DW$39, DW_AT_location[DW_OP_reg0]
     382              
     383              
     384              ;***************************************************************
     385              ;* FNAME: _OSQCreate                    FR SIZE:   8           *
     386              ;*                                                             *
     387              ;* FUNCTION ENVIRONMENT                                        *
     388              ;*                                                             *
     389              ;* FUNCTION PROPERTIES                                         *
     390              ;*                            0 Parameter,  8 Auto,  0 SOE     *
     391              ;***************************************************************
     392              
     393 00000048       _OSQCreate:
     394                      .dwcfi  cfa_offset, -2
     395                      .dwcfi  save_reg_to_mem, 26, 0
     396 00000048 FE08          ADDB      SP,#8                 ; [CPU_ARAU] 
     397                      .dwcfi  cfa_offset, -10
     398              $C$DW$40        .dwtag  DW_TAG_variable
     399                      .dwattr $C$DW$40, DW_AT_name("start")
     400                      .dwattr $C$DW$40, DW_AT_TI_symbol_name("_start")
     401                      .dwattr $C$DW$40, DW_AT_type(*$C$DW$T$28)
     402                      .dwattr $C$DW$40, DW_AT_location[DW_OP_breg20 -2]
     403              
     404              $C$DW$41        .dwtag  DW_TAG_variable
     405                      .dwattr $C$DW$41, DW_AT_name("pevent")
     406                      .dwattr $C$DW$41, DW_AT_TI_symbol_name("_pevent")
     407                      .dwattr $C$DW$41, DW_AT_type(*$C$DW$T$36)
     408                      .dwattr $C$DW$41, DW_AT_location[DW_OP_breg20 -4]
     409              
     410              $C$DW$42        .dwtag  DW_TAG_variable
     411                      .dwattr $C$DW$42, DW_AT_name("pq")
     412                      .dwattr $C$DW$42, DW_AT_TI_symbol_name("_pq")
     413                      .dwattr $C$DW$42, DW_AT_type(*$C$DW$T$75)
     414                      .dwattr $C$DW$42, DW_AT_location[DW_OP_breg20 -6]
     415              
     416              $C$DW$43        .dwtag  DW_TAG_variable
     417                      .dwattr $C$DW$43, DW_AT_name("size")
     418                      .dwattr $C$DW$43, DW_AT_TI_symbol_name("_size")
     419                      .dwattr $C$DW$43, DW_AT_type(*$C$DW$T$20)
     420                      .dwattr $C$DW$43, DW_AT_location[DW_OP_breg20 -7]
     421              
     422              $C$DW$44        .dwtag  DW_TAG_variable
     423                      .dwattr $C$DW$44, DW_AT_name("cpu_sr")
     424                      .dwattr $C$DW$44, DW_AT_TI_symbol_name("_cpu_sr")
     425                      .dwattr $C$DW$44, DW_AT_type(*$C$DW$T$44)
     426                      .dwattr $C$DW$44, DW_AT_location[DW_OP_breg20 -8]
     427              
     428 00000049 9647          MOV       *-SP[7],AL            ; [CPU_ALU] |130| 
     429 0000004a A842          MOVL      *-SP[2],XAR4          ; [CPU_ALU] |130| 
     430                      .dwpsn  file "C:/ti/Workspace/PLC_certificate/Software/uCOS-II/Source/os_q.c",line 134,column 23,is_s
     431 0000004b 2B48          MOV       *-SP[8],#0            ; [CPU_ALU] |134| 
     432                      .dwpsn  file "C:/ti/Workspace/PLC_certificate/Software/uCOS-II/Source/os_q.c",line 146,column 5,is_st
     433 0000004c 761F!         MOVW      DP,#_OSIntNesting     ; [CPU_ARAU] 
         0000004d 0000 
     434 0000004e 9200!         MOV       AL,@_OSIntNesting     ; [CPU_ALU] |146| 
TMS320C2000 Assembler PC v20.2.1 Mon Jan 11 16:45:38 2021

Copyright (c) 1996-2018 Texas Instruments Incorporated
os_q.asm                                                             PAGE    9

     435 0000004f 6103          B         $C$L7,EQ              ; [CPU_ALU] |146| 
     436                      ; branchcc occurs ; [] |146| 
     437                      .dwpsn  file "C:/ti/Workspace/PLC_certificate/Software/uCOS-II/Source/os_q.c",line 147,column 9,is_st
     438 00000050 D400          MOVB      XAR4,#0               ; [CPU_ALU] |147| 
     439 00000051 6F5A          B         $C$L11,UNC            ; [CPU_ALU] |147| 
     440                      ; branch occurs ; [] |147| 
     441 00000052       $C$L7:    
     442                      .dwpsn  file "C:/ti/Workspace/PLC_certificate/Software/uCOS-II/Source/os_q.c",line 149,column 5,is_st
     443              $C$DW$45        .dwtag  DW_TAG_TI_branch
     444                      .dwattr $C$DW$45, DW_AT_low_pc(0x00)
     445                      .dwattr $C$DW$45, DW_AT_name("_OS_CPU_SR_Save")
     446                      .dwattr $C$DW$45, DW_AT_TI_call
     447              
     448 00000052 7640!         LCR       #_OS_CPU_SR_Save      ; [CPU_ALU] |149| 
         00000053 0000 
     449                      ; call occurs [#_OS_CPU_SR_Save] ; [] |149| 
     450 00000054 9648          MOV       *-SP[8],AL            ; [CPU_ALU] |149| 
     451                      .dwpsn  file "C:/ti/Workspace/PLC_certificate/Software/uCOS-II/Source/os_q.c",line 150,column 5,is_st
     452 00000055 761F!         MOVW      DP,#_OSEventFreeList  ; [CPU_ARAU] 
         00000056 0000 
     453 00000057 0600!         MOVL      ACC,@_OSEventFreeList ; [CPU_ALU] |150| 
     454 00000058 1E44          MOVL      *-SP[4],ACC           ; [CPU_ALU] |150| 
     455                      .dwpsn  file "C:/ti/Workspace/PLC_certificate/Software/uCOS-II/Source/os_q.c",line 151,column 5,is_st
     456 00000059 0600!         MOVL      ACC,@_OSEventFreeList ; [CPU_ALU] |151| 
     457 0000005a 6104          B         $C$L8,EQ              ; [CPU_ALU] |151| 
     458                      ; branchcc occurs ; [] |151| 
     459                      .dwpsn  file "C:/ti/Workspace/PLC_certificate/Software/uCOS-II/Source/os_q.c",line 152,column 9,is_st
     460 0000005b 8A00!         MOVL      XAR4,@_OSEventFreeList ; [CPU_ALU] |152| 
     461 0000005c 06D4          MOVL      ACC,*+XAR4[2]         ; [CPU_ALU] |152| 
     462 0000005d 1E00!         MOVL      @_OSEventFreeList,ACC ; [CPU_ALU] |152| 
     463 0000005e       $C$L8:    
     464                      .dwpsn  file "C:/ti/Workspace/PLC_certificate/Software/uCOS-II/Source/os_q.c",line 154,column 5,is_st
     465 0000005e 9248          MOV       AL,*-SP[8]            ; [CPU_ALU] |154| 
     466              $C$DW$46        .dwtag  DW_TAG_TI_branch
     467                      .dwattr $C$DW$46, DW_AT_low_pc(0x00)
     468                      .dwattr $C$DW$46, DW_AT_name("_OS_CPU_SR_Restore")
     469                      .dwattr $C$DW$46, DW_AT_TI_call
     470              
     471 0000005f 7640!         LCR       #_OS_CPU_SR_Restore   ; [CPU_ALU] |154| 
         00000060 0000 
     472                      ; call occurs [#_OS_CPU_SR_Restore] ; [] |154| 
     473                      .dwpsn  file "C:/ti/Workspace/PLC_certificate/Software/uCOS-II/Source/os_q.c",line 155,column 5,is_st
     474 00000061 0644          MOVL      ACC,*-SP[4]           ; [CPU_ALU] |155| 
     475 00000062 6148          B         $C$L10,EQ             ; [CPU_ALU] |155| 
     476                      ; branchcc occurs ; [] |155| 
     477                      .dwpsn  file "C:/ti/Workspace/PLC_certificate/Software/uCOS-II/Source/os_q.c",line 156,column 9,is_st
     478              $C$DW$47        .dwtag  DW_TAG_TI_branch
     479                      .dwattr $C$DW$47, DW_AT_low_pc(0x00)
     480                      .dwattr $C$DW$47, DW_AT_name("_OS_CPU_SR_Save")
     481                      .dwattr $C$DW$47, DW_AT_TI_call
     482              
     483 00000063 7640!         LCR       #_OS_CPU_SR_Save      ; [CPU_ALU] |156| 
         00000064 0000 
     484                      ; call occurs [#_OS_CPU_SR_Save] ; [] |156| 
     485 00000065 9648          MOV       *-SP[8],AL            ; [CPU_ALU] |156| 
TMS320C2000 Assembler PC v20.2.1 Mon Jan 11 16:45:38 2021

Copyright (c) 1996-2018 Texas Instruments Incorporated
os_q.asm                                                             PAGE   10

     486                      .dwpsn  file "C:/ti/Workspace/PLC_certificate/Software/uCOS-II/Source/os_q.c",line 157,column 9,is_st
     487 00000066 761F!         MOVW      DP,#_OSQFreeList      ; [CPU_ARAU] 
         00000067 0000 
     488 00000068 0600!         MOVL      ACC,@_OSQFreeList     ; [CPU_ALU] |157| 
     489 00000069 1E46          MOVL      *-SP[6],ACC           ; [CPU_ALU] |157| 
     490                      .dwpsn  file "C:/ti/Workspace/PLC_certificate/Software/uCOS-II/Source/os_q.c",line 158,column 9,is_st
     491 0000006a 0646          MOVL      ACC,*-SP[6]           ; [CPU_ALU] |158| 
     492 0000006b 6133          B         $C$L9,EQ              ; [CPU_ALU] |158| 
     493                      ; branchcc occurs ; [] |158| 
     494                      .dwpsn  file "C:/ti/Workspace/PLC_certificate/Software/uCOS-II/Source/os_q.c",line 159,column 13,is_s
     495 0000006c 8A00!         MOVL      XAR4,@_OSQFreeList    ; [CPU_ALU] |159| 
     496 0000006d 06C4          MOVL      ACC,*+XAR4[0]         ; [CPU_ALU] |159| 
     497 0000006e 1E00!         MOVL      @_OSQFreeList,ACC     ; [CPU_ALU] |159| 
     498                      .dwpsn  file "C:/ti/Workspace/PLC_certificate/Software/uCOS-II/Source/os_q.c",line 160,column 13,is_s
     499 0000006f 9248          MOV       AL,*-SP[8]            ; [CPU_ALU] |160| 
     500              $C$DW$48        .dwtag  DW_TAG_TI_branch
     501                      .dwattr $C$DW$48, DW_AT_low_pc(0x00)
     502                      .dwattr $C$DW$48, DW_AT_name("_OS_CPU_SR_Restore")
     503                      .dwattr $C$DW$48, DW_AT_TI_call
     504              
     505 00000070 7640!         LCR       #_OS_CPU_SR_Restore   ; [CPU_ALU] |160| 
         00000071 0000 
     506                      ; call occurs [#_OS_CPU_SR_Restore] ; [] |160| 
     507                      .dwpsn  file "C:/ti/Workspace/PLC_certificate/Software/uCOS-II/Source/os_q.c",line 161,column 13,is_s
     508 00000072 8A46          MOVL      XAR4,*-SP[6]          ; [CPU_ALU] |161| 
     509 00000073 0642          MOVL      ACC,*-SP[2]           ; [CPU_ALU] |161| 
     510 00000074 1ED4          MOVL      *+XAR4[2],ACC         ; [CPU_ALU] |161| 
     511                      .dwpsn  file "C:/ti/Workspace/PLC_certificate/Software/uCOS-II/Source/os_q.c",line 162,column 13,is_s
     512 00000075 8A46          MOVL      XAR4,*-SP[6]          ; [CPU_ALU] |162| 
     513 00000076 2901          CLRC      SXM                   ; [CPU_ALU] 
     514 00000077 5603          MOV       ACC,*-SP[7] << 1      ; [CPU_ALU] |162| 
         00000078 0147 
     515 00000079 0742          ADDL      ACC,*-SP[2]           ; [CPU_ALU] |162| 
     516 0000007a 1EE4          MOVL      *+XAR4[4],ACC         ; [CPU_ALU] |162| 
     517                      .dwpsn  file "C:/ti/Workspace/PLC_certificate/Software/uCOS-II/Source/os_q.c",line 163,column 13,is_s
     518 0000007b 8A46          MOVL      XAR4,*-SP[6]          ; [CPU_ALU] |163| 
     519 0000007c 0642          MOVL      ACC,*-SP[2]           ; [CPU_ALU] |163| 
     520 0000007d 1EF4          MOVL      *+XAR4[6],ACC         ; [CPU_ALU] |163| 
     521                      .dwpsn  file "C:/ti/Workspace/PLC_certificate/Software/uCOS-II/Source/os_q.c",line 164,column 13,is_s
     522 0000007e C442          MOVL      XAR6,*-SP[2]          ; [CPU_ALU] |164| 
     523 0000007f 0208          MOVB      ACC,#8                ; [CPU_ALU] |164| 
     524 00000080 0746          ADDL      ACC,*-SP[6]           ; [CPU_ALU] |164| 
     525 00000081 8AA9          MOVL      XAR4,ACC              ; [CPU_ALU] |164| 
     526 00000082 C2C4          MOVL      *+XAR4[0],XAR6        ; [CPU_ALU] |164| 
     527                      .dwpsn  file "C:/ti/Workspace/PLC_certificate/Software/uCOS-II/Source/os_q.c",line 165,column 13,is_s
     528 00000083 020A          MOVB      ACC,#10               ; [CPU_ALU] |165| 
     529 00000084 0746          ADDL      ACC,*-SP[6]           ; [CPU_ALU] |165| 
     530 00000085 1EA7          MOVL      XAR7,ACC              ; [CPU_ALU] |165| 
     531 00000086 9247          MOV       AL,*-SP[7]            ; [CPU_ALU] |165| 
     532 00000087 96C7          MOV       *+XAR7[0],AL          ; [CPU_ALU] |165| 
     533                      .dwpsn  file "C:/ti/Workspace/PLC_certificate/Software/uCOS-II/Source/os_q.c",line 166,column 13,is_s
     534 00000088 020B          MOVB      ACC,#11               ; [CPU_ALU] |166| 
     535 00000089 0746          ADDL      ACC,*-SP[6]           ; [CPU_ALU] |166| 
     536 0000008a 8AA9          MOVL      XAR4,ACC              ; [CPU_ALU] |166| 
     537 0000008b 2BC4          MOV       *+XAR4[0],#0          ; [CPU_ALU] |166| 
TMS320C2000 Assembler PC v20.2.1 Mon Jan 11 16:45:38 2021

Copyright (c) 1996-2018 Texas Instruments Incorporated
os_q.asm                                                             PAGE   11

     538                      .dwpsn  file "C:/ti/Workspace/PLC_certificate/Software/uCOS-II/Source/os_q.c",line 167,column 13,is_s
     539 0000008c 8A44          MOVL      XAR4,*-SP[4]          ; [CPU_ALU] |167| 
     540 0000008d 56BF          MOVB      *+XAR4[0],#2,UNC      ; [CPU_ALU] |167| 
         0000008e 02C4 
     541                      .dwpsn  file "C:/ti/Workspace/PLC_certificate/Software/uCOS-II/Source/os_q.c",line 168,column 13,is_s
     542 0000008f 8A44          MOVL      XAR4,*-SP[4]          ; [CPU_ALU] |168| 
     543 00000090 2BE4          MOV       *+XAR4[4],#0          ; [CPU_ALU] |168| 
     544                      .dwpsn  file "C:/ti/Workspace/PLC_certificate/Software/uCOS-II/Source/os_q.c",line 169,column 13,is_s
     545 00000091 8A44          MOVL      XAR4,*-SP[4]          ; [CPU_ALU] |169| 
     546 00000092 0646          MOVL      ACC,*-SP[6]           ; [CPU_ALU] |169| 
     547 00000093 1ED4          MOVL      *+XAR4[2],ACC         ; [CPU_ALU] |169| 
     548                      .dwpsn  file "C:/ti/Workspace/PLC_certificate/Software/uCOS-II/Source/os_q.c",line 171,column 13,is_s
     549 00000094 020E          MOVB      ACC,#14               ; [CPU_ALU] |171| 
     550 00000095 0744          ADDL      ACC,*-SP[4]           ; [CPU_ALU] |171| 
     551 00000096 8AA9          MOVL      XAR4,ACC              ; [CPU_ALU] |171| 
     552 00000097 8F40+         MOVL      XAR5,#$C$FSL1         ; [CPU_ARAU] |171| 
         00000098 0000 
     553 00000099 A0C4          MOVL      *+XAR4[0],XAR5        ; [CPU_ALU] |171| 
     554                      .dwpsn  file "C:/ti/Workspace/PLC_certificate/Software/uCOS-II/Source/os_q.c",line 173,column 13,is_s
     555 0000009a 8A44          MOVL      XAR4,*-SP[4]          ; [CPU_ALU] |173| 
     556              $C$DW$49        .dwtag  DW_TAG_TI_branch
     557                      .dwattr $C$DW$49, DW_AT_low_pc(0x00)
     558                      .dwattr $C$DW$49, DW_AT_name("_OS_EventWaitListInit")
     559                      .dwattr $C$DW$49, DW_AT_TI_call
     560              
     561 0000009b 7640!         LCR       #_OS_EventWaitListInit ; [CPU_ALU] |173| 
         0000009c 0000 
     562                      ; call occurs [#_OS_EventWaitListInit] ; [] |173| 
     563 0000009d 6F0D          B         $C$L10,UNC            ; [CPU_ALU] 
     564                      ; branch occurs ; [] 
     565 0000009e       $C$L9:    
     566                      .dwpsn  file "C:/ti/Workspace/PLC_certificate/Software/uCOS-II/Source/os_q.c",line 175,column 13,is_s
     567 0000009e 8A44          MOVL      XAR4,*-SP[4]          ; [CPU_ALU] |175| 
     568 0000009f 761F!         MOVW      DP,#_OSEventFreeList  ; [CPU_ARAU] 
         000000a0 0000 
     569 000000a1 0600!         MOVL      ACC,@_OSEventFreeList ; [CPU_ALU] |175| 
     570 000000a2 1ED4          MOVL      *+XAR4[2],ACC         ; [CPU_ALU] |175| 
     571                      .dwpsn  file "C:/ti/Workspace/PLC_certificate/Software/uCOS-II/Source/os_q.c",line 176,column 13,is_s
     572 000000a3 0644          MOVL      ACC,*-SP[4]           ; [CPU_ALU] |176| 
     573 000000a4 1E00!         MOVL      @_OSEventFreeList,ACC ; [CPU_ALU] |176| 
     574                      .dwpsn  file "C:/ti/Workspace/PLC_certificate/Software/uCOS-II/Source/os_q.c",line 177,column 13,is_s
     575 000000a5 9248          MOV       AL,*-SP[8]            ; [CPU_ALU] |177| 
     576              $C$DW$50        .dwtag  DW_TAG_TI_branch
     577                      .dwattr $C$DW$50, DW_AT_low_pc(0x00)
     578                      .dwattr $C$DW$50, DW_AT_name("_OS_CPU_SR_Restore")
     579                      .dwattr $C$DW$50, DW_AT_TI_call
     580              
     581 000000a6 7640!         LCR       #_OS_CPU_SR_Restore   ; [CPU_ALU] |177| 
         000000a7 0000 
     582                      ; call occurs [#_OS_CPU_SR_Restore] ; [] |177| 
     583                      .dwpsn  file "C:/ti/Workspace/PLC_certificate/Software/uCOS-II/Source/os_q.c",line 178,column 13,is_s
     584 000000a8 0200          MOVB      ACC,#0                ; [CPU_ALU] |178| 
     585 000000a9 1E44          MOVL      *-SP[4],ACC           ; [CPU_ALU] |178| 
     586 000000aa       $C$L10:    
     587                      .dwpsn  file "C:/ti/Workspace/PLC_certificate/Software/uCOS-II/Source/os_q.c",line 181,column 5,is_st
TMS320C2000 Assembler PC v20.2.1 Mon Jan 11 16:45:38 2021

Copyright (c) 1996-2018 Texas Instruments Incorporated
os_q.asm                                                             PAGE   12

     588 000000aa 8A44          MOVL      XAR4,*-SP[4]          ; [CPU_ALU] |181| 
     589 000000ab       $C$L11:    
     590                      .dwpsn  file "C:/ti/Workspace/PLC_certificate/Software/uCOS-II/Source/os_q.c",line 182,column 1,is_st
     591 000000ab FE88          SUBB      SP,#8                 ; [CPU_ARAU] 
     592                      .dwcfi  cfa_offset, -2
     593              $C$DW$51        .dwtag  DW_TAG_TI_branch
     594                      .dwattr $C$DW$51, DW_AT_low_pc(0x00)
     595                      .dwattr $C$DW$51, DW_AT_TI_return
     596              
     597 000000ac 0006          LRETR     ; [CPU_ALU] 
     598                      ; return occurs ; [] 
     599                      .dwattr $C$DW$37, DW_AT_TI_end_file("C:/ti/Workspace/PLC_certificate/Software/uCOS-II/Source/os_q.c")
     600                      .dwattr $C$DW$37, DW_AT_TI_end_line(0xb6)
     601                      .dwattr $C$DW$37, DW_AT_TI_end_column(0x01)
     602                      .dwendentry
     603                      .dwendtag $C$DW$37
     604              
     605 000000ad               .sect   ".text"
     606                      .clink
     607                      .global _OSQDel
     608              
     609              $C$DW$52        .dwtag  DW_TAG_subprogram
     610                      .dwattr $C$DW$52, DW_AT_name("OSQDel")
     611                      .dwattr $C$DW$52, DW_AT_low_pc(_OSQDel)
     612                      .dwattr $C$DW$52, DW_AT_high_pc(0x00)
     613                      .dwattr $C$DW$52, DW_AT_TI_symbol_name("_OSQDel")
     614                      .dwattr $C$DW$52, DW_AT_external
     615                      .dwattr $C$DW$52, DW_AT_type(*$C$DW$T$36)
     616                      .dwattr $C$DW$52, DW_AT_TI_begin_file("C:/ti/Workspace/PLC_certificate/Software/uCOS-II/Source/os_q.c
     617                      .dwattr $C$DW$52, DW_AT_TI_begin_line(0xe4)
     618                      .dwattr $C$DW$52, DW_AT_TI_begin_column(0x0c)
     619                      .dwattr $C$DW$52, DW_AT_TI_max_frame_size(-14)
     620                      .dwpsn  file "C:/ti/Workspace/PLC_certificate/Software/uCOS-II/Source/os_q.c",line 231,column 1,is_st
     621              
     622                      .dwfde $C$DW$CIE, _OSQDel
     623              $C$DW$53        .dwtag  DW_TAG_formal_parameter
     624                      .dwattr $C$DW$53, DW_AT_name("pevent")
     625                      .dwattr $C$DW$53, DW_AT_TI_symbol_name("_pevent")
     626                      .dwattr $C$DW$53, DW_AT_type(*$C$DW$T$36)
     627                      .dwattr $C$DW$53, DW_AT_location[DW_OP_reg12]
     628              
     629              $C$DW$54        .dwtag  DW_TAG_formal_parameter
     630                      .dwattr $C$DW$54, DW_AT_name("opt")
     631                      .dwattr $C$DW$54, DW_AT_TI_symbol_name("_opt")
     632                      .dwattr $C$DW$54, DW_AT_type(*$C$DW$T$19)
     633                      .dwattr $C$DW$54, DW_AT_location[DW_OP_reg0]
     634              
     635              $C$DW$55        .dwtag  DW_TAG_formal_parameter
     636                      .dwattr $C$DW$55, DW_AT_name("perr")
     637                      .dwattr $C$DW$55, DW_AT_TI_symbol_name("_perr")
     638                      .dwattr $C$DW$55, DW_AT_type(*$C$DW$T$23)
     639                      .dwattr $C$DW$55, DW_AT_location[DW_OP_reg14]
     640              
     641              
     642              ;***************************************************************
TMS320C2000 Assembler PC v20.2.1 Mon Jan 11 16:45:38 2021

Copyright (c) 1996-2018 Texas Instruments Incorporated
os_q.asm                                                             PAGE   13

     643              ;* FNAME: _OSQDel                       FR SIZE:  12           *
     644              ;*                                                             *
     645              ;* FUNCTION ENVIRONMENT                                        *
     646              ;*                                                             *
     647              ;* FUNCTION PROPERTIES                                         *
     648              ;*                            0 Parameter, 11 Auto,  0 SOE     *
     649              ;***************************************************************
     650              
     651 000000ad       _OSQDel:
     652                      .dwcfi  cfa_offset, -2
     653                      .dwcfi  save_reg_to_mem, 26, 0
     654 000000ad FE0C          ADDB      SP,#12                ; [CPU_ARAU] 
     655                      .dwcfi  cfa_offset, -14
     656              $C$DW$56        .dwtag  DW_TAG_variable
     657                      .dwattr $C$DW$56, DW_AT_name("pevent")
     658                      .dwattr $C$DW$56, DW_AT_TI_symbol_name("_pevent")
     659                      .dwattr $C$DW$56, DW_AT_type(*$C$DW$T$36)
     660                      .dwattr $C$DW$56, DW_AT_location[DW_OP_breg20 -2]
     661              
     662              $C$DW$57        .dwtag  DW_TAG_variable
     663                      .dwattr $C$DW$57, DW_AT_name("perr")
     664                      .dwattr $C$DW$57, DW_AT_TI_symbol_name("_perr")
     665                      .dwattr $C$DW$57, DW_AT_type(*$C$DW$T$23)
     666                      .dwattr $C$DW$57, DW_AT_location[DW_OP_breg20 -4]
     667              
     668              $C$DW$58        .dwtag  DW_TAG_variable
     669                      .dwattr $C$DW$58, DW_AT_name("pevent_return")
     670                      .dwattr $C$DW$58, DW_AT_TI_symbol_name("_pevent_return")
     671                      .dwattr $C$DW$58, DW_AT_type(*$C$DW$T$36)
     672                      .dwattr $C$DW$58, DW_AT_location[DW_OP_breg20 -6]
     673              
     674              $C$DW$59        .dwtag  DW_TAG_variable
     675                      .dwattr $C$DW$59, DW_AT_name("pq")
     676                      .dwattr $C$DW$59, DW_AT_TI_symbol_name("_pq")
     677                      .dwattr $C$DW$59, DW_AT_type(*$C$DW$T$75)
     678                      .dwattr $C$DW$59, DW_AT_location[DW_OP_breg20 -8]
     679              
     680              $C$DW$60        .dwtag  DW_TAG_variable
     681                      .dwattr $C$DW$60, DW_AT_name("opt")
     682                      .dwattr $C$DW$60, DW_AT_TI_symbol_name("_opt")
     683                      .dwattr $C$DW$60, DW_AT_type(*$C$DW$T$19)
     684                      .dwattr $C$DW$60, DW_AT_location[DW_OP_breg20 -9]
     685              
     686              $C$DW$61        .dwtag  DW_TAG_variable
     687                      .dwattr $C$DW$61, DW_AT_name("tasks_waiting")
     688                      .dwattr $C$DW$61, DW_AT_TI_symbol_name("_tasks_waiting")
     689                      .dwattr $C$DW$61, DW_AT_type(*$C$DW$T$57)
     690                      .dwattr $C$DW$61, DW_AT_location[DW_OP_breg20 -10]
     691              
     692              $C$DW$62        .dwtag  DW_TAG_variable
     693                      .dwattr $C$DW$62, DW_AT_name("cpu_sr")
     694                      .dwattr $C$DW$62, DW_AT_TI_symbol_name("_cpu_sr")
     695                      .dwattr $C$DW$62, DW_AT_type(*$C$DW$T$44)
     696                      .dwattr $C$DW$62, DW_AT_location[DW_OP_breg20 -11]
     697              
TMS320C2000 Assembler PC v20.2.1 Mon Jan 11 16:45:38 2021

Copyright (c) 1996-2018 Texas Instruments Incorporated
os_q.asm                                                             PAGE   14

     698 000000ae A044          MOVL      *-SP[4],XAR5          ; [CPU_ALU] |231| 
     699 000000af 9649          MOV       *-SP[9],AL            ; [CPU_ALU] |231| 
     700 000000b0 A842          MOVL      *-SP[2],XAR4          ; [CPU_ALU] |231| 
     701                      .dwpsn  file "C:/ti/Workspace/PLC_certificate/Software/uCOS-II/Source/os_q.c",line 236,column 23,is_s
     702 000000b1 2B4B          MOV       *-SP[11],#0           ; [CPU_ALU] |236| 
     703                      .dwpsn  file "C:/ti/Workspace/PLC_certificate/Software/uCOS-II/Source/os_q.c",line 249,column 5,is_st
     704 000000b2 0642          MOVL      ACC,*-SP[2]           ; [CPU_ALU] |249| 
     705 000000b3 6007          B         $C$L12,NEQ            ; [CPU_ALU] |249| 
     706                      ; branchcc occurs ; [] |249| 
     707                      .dwpsn  file "C:/ti/Workspace/PLC_certificate/Software/uCOS-II/Source/os_q.c",line 250,column 9,is_st
     708 000000b4 8A44          MOVL      XAR4,*-SP[4]          ; [CPU_ALU] |250| 
     709 000000b5 56BF          MOVB      *+XAR4[0],#4,UNC      ; [CPU_ALU] |250| 
         000000b6 04C4 
     710                      .dwpsn  file "C:/ti/Workspace/PLC_certificate/Software/uCOS-II/Source/os_q.c",line 251,column 9,is_st
     711 000000b7 8A42          MOVL      XAR4,*-SP[2]          ; [CPU_ALU] |251| 
     712 000000b8 FFEF          B         $C$L24,UNC            ; [CPU_ALU] |251| 
         000000b9 008C 
     713                      ; branch occurs ; [] |251| 
     714 000000ba       $C$L12:    
     715                      .dwpsn  file "C:/ti/Workspace/PLC_certificate/Software/uCOS-II/Source/os_q.c",line 254,column 5,is_st
     716 000000ba 92C4          MOV       AL,*+XAR4[0]          ; [CPU_ALU] |254| 
     717 000000bb 5202          CMPB      AL,#2                 ; [CPU_ALU] |254| 
     718 000000bc 6107          B         $C$L13,EQ             ; [CPU_ALU] |254| 
     719                      ; branchcc occurs ; [] |254| 
     720                      .dwpsn  file "C:/ti/Workspace/PLC_certificate/Software/uCOS-II/Source/os_q.c",line 255,column 9,is_st
     721 000000bd 8A44          MOVL      XAR4,*-SP[4]          ; [CPU_ALU] |255| 
     722 000000be 56BF          MOVB      *+XAR4[0],#1,UNC      ; [CPU_ALU] |255| 
         000000bf 01C4 
     723                      .dwpsn  file "C:/ti/Workspace/PLC_certificate/Software/uCOS-II/Source/os_q.c",line 256,column 9,is_st
     724 000000c0 8A42          MOVL      XAR4,*-SP[2]          ; [CPU_ALU] |256| 
     725 000000c1 FFEF          B         $C$L24,UNC            ; [CPU_ALU] |256| 
         000000c2 0083 
     726                      ; branch occurs ; [] |256| 
     727 000000c3       $C$L13:    
     728                      .dwpsn  file "C:/ti/Workspace/PLC_certificate/Software/uCOS-II/Source/os_q.c",line 258,column 5,is_st
     729 000000c3 761F!         MOVW      DP,#_OSIntNesting     ; [CPU_ARAU] 
         000000c4 0000 
     730 000000c5 9200!         MOV       AL,@_OSIntNesting     ; [CPU_ALU] |258| 
     731 000000c6 6106          B         $C$L14,EQ             ; [CPU_ALU] |258| 
     732                      ; branchcc occurs ; [] |258| 
     733                      .dwpsn  file "C:/ti/Workspace/PLC_certificate/Software/uCOS-II/Source/os_q.c",line 259,column 9,is_st
     734 000000c7 8A44          MOVL      XAR4,*-SP[4]          ; [CPU_ALU] |259| 
     735 000000c8 56BF          MOVB      *+XAR4[0],#15,UNC     ; [CPU_ALU] |259| 
         000000c9 0FC4 
     736                      .dwpsn  file "C:/ti/Workspace/PLC_certificate/Software/uCOS-II/Source/os_q.c",line 260,column 9,is_st
     737 000000ca 8A42          MOVL      XAR4,*-SP[2]          ; [CPU_ALU] |260| 
     738 000000cb 6F79          B         $C$L24,UNC            ; [CPU_ALU] |260| 
     739                      ; branch occurs ; [] |260| 
     740 000000cc       $C$L14:    
     741                      .dwpsn  file "C:/ti/Workspace/PLC_certificate/Software/uCOS-II/Source/os_q.c",line 262,column 5,is_st
     742              $C$DW$63        .dwtag  DW_TAG_TI_branch
     743                      .dwattr $C$DW$63, DW_AT_low_pc(0x00)
     744                      .dwattr $C$DW$63, DW_AT_name("_OS_CPU_SR_Save")
     745                      .dwattr $C$DW$63, DW_AT_TI_call
     746              
TMS320C2000 Assembler PC v20.2.1 Mon Jan 11 16:45:38 2021

Copyright (c) 1996-2018 Texas Instruments Incorporated
os_q.asm                                                             PAGE   15

     747 000000cc 7640!         LCR       #_OS_CPU_SR_Save      ; [CPU_ALU] |262| 
         000000cd 0000 
     748                      ; call occurs [#_OS_CPU_SR_Save] ; [] |262| 
     749 000000ce 964B          MOV       *-SP[11],AL           ; [CPU_ALU] |262| 
     750                      .dwpsn  file "C:/ti/Workspace/PLC_certificate/Software/uCOS-II/Source/os_q.c",line 263,column 5,is_st
     751 000000cf 8A42          MOVL      XAR4,*-SP[2]          ; [CPU_ALU] |263| 
     752 000000d0 92EC          MOV       AL,*+XAR4[5]          ; [CPU_ALU] |263| 
     753 000000d1 6104          B         $C$L15,EQ             ; [CPU_ALU] |263| 
     754                      ; branchcc occurs ; [] |263| 
     755                      .dwpsn  file "C:/ti/Workspace/PLC_certificate/Software/uCOS-II/Source/os_q.c",line 264,column 9,is_st
     756 000000d2 56BF          MOVB      *-SP[10],#1,UNC       ; [CPU_ALU] |264| 
         000000d3 014A 
     757 000000d4 6F6A          B         $C$L22,UNC            ; [CPU_ALU] 
     758                      ; branch occurs ; [] 
     759 000000d5       $C$L15:    
     760                      .dwpsn  file "C:/ti/Workspace/PLC_certificate/Software/uCOS-II/Source/os_q.c",line 266,column 9,is_st
     761 000000d5 2B4A          MOV       *-SP[10],#0           ; [CPU_ALU] |266| 
     762                      .dwpsn  file "C:/ti/Workspace/PLC_certificate/Software/uCOS-II/Source/os_q.c",line 268,column 5,is_st
     763 000000d6 6F68          B         $C$L22,UNC            ; [CPU_ALU] |268| 
     764                      ; branch occurs ; [] |268| 
     765 000000d7       $C$L16:    
     766                      .dwpsn  file "C:/ti/Workspace/PLC_certificate/Software/uCOS-II/Source/os_q.c",line 270,column 14,is_s
     767 000000d7 924A          MOV       AL,*-SP[10]           ; [CPU_ALU] |270| 
     768 000000d8 6024          B         $C$L17,NEQ            ; [CPU_ALU] |270| 
     769                      ; branchcc occurs ; [] |270| 
     770                      .dwpsn  file "C:/ti/Workspace/PLC_certificate/Software/uCOS-II/Source/os_q.c",line 272,column 18,is_s
     771 000000d9 020E          MOVB      ACC,#14               ; [CPU_ALU] |272| 
     772 000000da 0742          ADDL      ACC,*-SP[2]           ; [CPU_ALU] |272| 
     773 000000db 8AA9          MOVL      XAR4,ACC              ; [CPU_ALU] |272| 
     774 000000dc 8F40+         MOVL      XAR5,#$C$FSL1         ; [CPU_ARAU] |272| 
         000000dd 0000 
     775 000000de A0C4          MOVL      *+XAR4[0],XAR5        ; [CPU_ALU] |272| 
     776                      .dwpsn  file "C:/ti/Workspace/PLC_certificate/Software/uCOS-II/Source/os_q.c",line 274,column 18,is_s
     777 000000df 8A42          MOVL      XAR4,*-SP[2]          ; [CPU_ALU] |274| 
     778 000000e0 06D4          MOVL      ACC,*+XAR4[2]         ; [CPU_ALU] |274| 
     779 000000e1 1E48          MOVL      *-SP[8],ACC           ; [CPU_ALU] |274| 
     780                      .dwpsn  file "C:/ti/Workspace/PLC_certificate/Software/uCOS-II/Source/os_q.c",line 275,column 18,is_s
     781 000000e2 8A48          MOVL      XAR4,*-SP[8]          ; [CPU_ALU] |275| 
     782 000000e3 761F!         MOVW      DP,#_OSQFreeList      ; [CPU_ARAU] 
         000000e4 0000 
     783 000000e5 0600!         MOVL      ACC,@_OSQFreeList     ; [CPU_ALU] |275| 
     784 000000e6 1EC4          MOVL      *+XAR4[0],ACC         ; [CPU_ALU] |275| 
     785                      .dwpsn  file "C:/ti/Workspace/PLC_certificate/Software/uCOS-II/Source/os_q.c",line 276,column 18,is_s
     786 000000e7 0648          MOVL      ACC,*-SP[8]           ; [CPU_ALU] |276| 
     787 000000e8 1E00!         MOVL      @_OSQFreeList,ACC     ; [CPU_ALU] |276| 
     788                      .dwpsn  file "C:/ti/Workspace/PLC_certificate/Software/uCOS-II/Source/os_q.c",line 277,column 18,is_s
     789 000000e9 8A42          MOVL      XAR4,*-SP[2]          ; [CPU_ALU] |277| 
     790 000000ea 2BC4          MOV       *+XAR4[0],#0          ; [CPU_ALU] |277| 
     791                      .dwpsn  file "C:/ti/Workspace/PLC_certificate/Software/uCOS-II/Source/os_q.c",line 278,column 18,is_s
     792 000000eb 8A42          MOVL      XAR4,*-SP[2]          ; [CPU_ALU] |278| 
     793 000000ec 761F!         MOVW      DP,#_OSEventFreeList  ; [CPU_ARAU] 
         000000ed 0000 
     794 000000ee 0600!         MOVL      ACC,@_OSEventFreeList ; [CPU_ALU] |278| 
     795 000000ef 1ED4          MOVL      *+XAR4[2],ACC         ; [CPU_ALU] |278| 
     796                      .dwpsn  file "C:/ti/Workspace/PLC_certificate/Software/uCOS-II/Source/os_q.c",line 279,column 18,is_s
TMS320C2000 Assembler PC v20.2.1 Mon Jan 11 16:45:38 2021

Copyright (c) 1996-2018 Texas Instruments Incorporated
os_q.asm                                                             PAGE   16

     797 000000f0 8A42          MOVL      XAR4,*-SP[2]          ; [CPU_ALU] |279| 
     798 000000f1 2BE4          MOV       *+XAR4[4],#0          ; [CPU_ALU] |279| 
     799                      .dwpsn  file "C:/ti/Workspace/PLC_certificate/Software/uCOS-II/Source/os_q.c",line 280,column 18,is_s
     800 000000f2 0642          MOVL      ACC,*-SP[2]           ; [CPU_ALU] |280| 
     801 000000f3 1E00!         MOVL      @_OSEventFreeList,ACC ; [CPU_ALU] |280| 
     802                      .dwpsn  file "C:/ti/Workspace/PLC_certificate/Software/uCOS-II/Source/os_q.c",line 281,column 18,is_s
     803 000000f4 924B          MOV       AL,*-SP[11]           ; [CPU_ALU] |281| 
     804              $C$DW$64        .dwtag  DW_TAG_TI_branch
     805                      .dwattr $C$DW$64, DW_AT_low_pc(0x00)
     806                      .dwattr $C$DW$64, DW_AT_name("_OS_CPU_SR_Restore")
     807                      .dwattr $C$DW$64, DW_AT_TI_call
     808              
     809 000000f5 7640!         LCR       #_OS_CPU_SR_Restore   ; [CPU_ALU] |281| 
         000000f6 0000 
     810                      ; call occurs [#_OS_CPU_SR_Restore] ; [] |281| 
     811                      .dwpsn  file "C:/ti/Workspace/PLC_certificate/Software/uCOS-II/Source/os_q.c",line 282,column 18,is_s
     812 000000f7 8A44          MOVL      XAR4,*-SP[4]          ; [CPU_ALU] |282| 
     813 000000f8 2BC4          MOV       *+XAR4[0],#0          ; [CPU_ALU] |282| 
     814                      .dwpsn  file "C:/ti/Workspace/PLC_certificate/Software/uCOS-II/Source/os_q.c",line 283,column 18,is_s
     815 000000f9 0200          MOVB      ACC,#0                ; [CPU_ALU] |283| 
     816 000000fa 1E46          MOVL      *-SP[6],ACC           ; [CPU_ALU] |283| 
     817 000000fb 6F48          B         $C$L23,UNC            ; [CPU_ALU] 
     818                      ; branch occurs ; [] 
     819 000000fc       $C$L17:    
     820                      .dwpsn  file "C:/ti/Workspace/PLC_certificate/Software/uCOS-II/Source/os_q.c",line 285,column 18,is_s
     821 000000fc 924B          MOV       AL,*-SP[11]           ; [CPU_ALU] |285| 
     822              $C$DW$65        .dwtag  DW_TAG_TI_branch
     823                      .dwattr $C$DW$65, DW_AT_low_pc(0x00)
     824                      .dwattr $C$DW$65, DW_AT_name("_OS_CPU_SR_Restore")
     825                      .dwattr $C$DW$65, DW_AT_TI_call
     826              
     827 000000fd 7640!         LCR       #_OS_CPU_SR_Restore   ; [CPU_ALU] |285| 
         000000fe 0000 
     828                      ; call occurs [#_OS_CPU_SR_Restore] ; [] |285| 
     829                      .dwpsn  file "C:/ti/Workspace/PLC_certificate/Software/uCOS-II/Source/os_q.c",line 286,column 18,is_s
     830 000000ff 8A44          MOVL      XAR4,*-SP[4]          ; [CPU_ALU] |286| 
     831 00000100 56BF          MOVB      *+XAR4[0],#73,UNC     ; [CPU_ALU] |286| 
         00000101 49C4 
     832                      .dwpsn  file "C:/ti/Workspace/PLC_certificate/Software/uCOS-II/Source/os_q.c",line 287,column 18,is_s
     833 00000102 0642          MOVL      ACC,*-SP[2]           ; [CPU_ALU] |287| 
     834 00000103 1E46          MOVL      *-SP[6],ACC           ; [CPU_ALU] |287| 
     835                      .dwpsn  file "C:/ti/Workspace/PLC_certificate/Software/uCOS-II/Source/os_q.c",line 289,column 14,is_s
     836 00000104 6F3F          B         $C$L23,UNC            ; [CPU_ALU] |289| 
     837                      ; branch occurs ; [] |289| 
     838 00000105       $C$L18:    
     839                      .dwpsn  file "C:/ti/Workspace/PLC_certificate/Software/uCOS-II/Source/os_q.c",line 293,column 18,is_s
     840 00000105 D500          MOVB      XAR5,#0               ; [CPU_ALU] |293| 
     841 00000106 9A04          MOVB      AL,#4                 ; [CPU_ALU] |293| 
     842 00000107 9B02          MOVB      AH,#2                 ; [CPU_ALU] |293| 
     843              $C$DW$66        .dwtag  DW_TAG_TI_branch
     844                      .dwattr $C$DW$66, DW_AT_low_pc(0x00)
     845                      .dwattr $C$DW$66, DW_AT_name("_OS_EventTaskRdy")
     846                      .dwattr $C$DW$66, DW_AT_TI_call
     847              
     848 00000108 7640!         LCR       #_OS_EventTaskRdy     ; [CPU_ALU] |293| 
TMS320C2000 Assembler PC v20.2.1 Mon Jan 11 16:45:38 2021

Copyright (c) 1996-2018 Texas Instruments Incorporated
os_q.asm                                                             PAGE   17

         00000109 0000 
     849                      ; call occurs [#_OS_EventTaskRdy] ; [] |293| 
     850 0000010a       $C$L19:    
     851                      .dwpsn  file "C:/ti/Workspace/PLC_certificate/Software/uCOS-II/Source/os_q.c",line 292,column 21,is_s
     852 0000010a 8A42          MOVL      XAR4,*-SP[2]          ; [CPU_ALU] |292| 
     853 0000010b 92EC          MOV       AL,*+XAR4[5]          ; [CPU_ALU] |292| 
     854 0000010c 60F9          B         $C$L18,NEQ            ; [CPU_ALU] |292| 
     855                      ; branchcc occurs ; [] |292| 
     856                      .dwpsn  file "C:/ti/Workspace/PLC_certificate/Software/uCOS-II/Source/os_q.c",line 296,column 14,is_s
     857 0000010d 020E          MOVB      ACC,#14               ; [CPU_ALU] |296| 
     858 0000010e 0742          ADDL      ACC,*-SP[2]           ; [CPU_ALU] |296| 
     859 0000010f 8AA9          MOVL      XAR4,ACC              ; [CPU_ALU] |296| 
     860 00000110 8F40+         MOVL      XAR5,#$C$FSL1         ; [CPU_ARAU] |296| 
         00000111 0000 
     861 00000112 A0C4          MOVL      *+XAR4[0],XAR5        ; [CPU_ALU] |296| 
     862                      .dwpsn  file "C:/ti/Workspace/PLC_certificate/Software/uCOS-II/Source/os_q.c",line 298,column 14,is_s
     863 00000113 8A42          MOVL      XAR4,*-SP[2]          ; [CPU_ALU] |298| 
     864 00000114 06D4          MOVL      ACC,*+XAR4[2]         ; [CPU_ALU] |298| 
     865 00000115 1E48          MOVL      *-SP[8],ACC           ; [CPU_ALU] |298| 
     866                      .dwpsn  file "C:/ti/Workspace/PLC_certificate/Software/uCOS-II/Source/os_q.c",line 299,column 14,is_s
     867 00000116 8A48          MOVL      XAR4,*-SP[8]          ; [CPU_ALU] |299| 
     868 00000117 761F!         MOVW      DP,#_OSQFreeList      ; [CPU_ARAU] 
         00000118 0000 
     869 00000119 0600!         MOVL      ACC,@_OSQFreeList     ; [CPU_ALU] |299| 
     870 0000011a 1EC4          MOVL      *+XAR4[0],ACC         ; [CPU_ALU] |299| 
     871                      .dwpsn  file "C:/ti/Workspace/PLC_certificate/Software/uCOS-II/Source/os_q.c",line 300,column 14,is_s
     872 0000011b 0648          MOVL      ACC,*-SP[8]           ; [CPU_ALU] |300| 
     873 0000011c 1E00!         MOVL      @_OSQFreeList,ACC     ; [CPU_ALU] |300| 
     874                      .dwpsn  file "C:/ti/Workspace/PLC_certificate/Software/uCOS-II/Source/os_q.c",line 301,column 14,is_s
     875 0000011d 8A42          MOVL      XAR4,*-SP[2]          ; [CPU_ALU] |301| 
     876 0000011e 2BC4          MOV       *+XAR4[0],#0          ; [CPU_ALU] |301| 
     877                      .dwpsn  file "C:/ti/Workspace/PLC_certificate/Software/uCOS-II/Source/os_q.c",line 302,column 14,is_s
     878 0000011f 8A42          MOVL      XAR4,*-SP[2]          ; [CPU_ALU] |302| 
     879 00000120 761F!         MOVW      DP,#_OSEventFreeList  ; [CPU_ARAU] 
         00000121 0000 
     880 00000122 0600!         MOVL      ACC,@_OSEventFreeList ; [CPU_ALU] |302| 
     881 00000123 1ED4          MOVL      *+XAR4[2],ACC         ; [CPU_ALU] |302| 
     882                      .dwpsn  file "C:/ti/Workspace/PLC_certificate/Software/uCOS-II/Source/os_q.c",line 303,column 14,is_s
     883 00000124 8A42          MOVL      XAR4,*-SP[2]          ; [CPU_ALU] |303| 
     884 00000125 2BE4          MOV       *+XAR4[4],#0          ; [CPU_ALU] |303| 
     885                      .dwpsn  file "C:/ti/Workspace/PLC_certificate/Software/uCOS-II/Source/os_q.c",line 304,column 14,is_s
     886 00000126 0642          MOVL      ACC,*-SP[2]           ; [CPU_ALU] |304| 
     887 00000127 1E00!         MOVL      @_OSEventFreeList,ACC ; [CPU_ALU] |304| 
     888                      .dwpsn  file "C:/ti/Workspace/PLC_certificate/Software/uCOS-II/Source/os_q.c",line 305,column 14,is_s
     889 00000128 924B          MOV       AL,*-SP[11]           ; [CPU_ALU] |305| 
     890              $C$DW$67        .dwtag  DW_TAG_TI_branch
     891                      .dwattr $C$DW$67, DW_AT_low_pc(0x00)
     892                      .dwattr $C$DW$67, DW_AT_name("_OS_CPU_SR_Restore")
     893                      .dwattr $C$DW$67, DW_AT_TI_call
     894              
     895 00000129 7640!         LCR       #_OS_CPU_SR_Restore   ; [CPU_ALU] |305| 
         0000012a 0000 
     896                      ; call occurs [#_OS_CPU_SR_Restore] ; [] |305| 
     897                      .dwpsn  file "C:/ti/Workspace/PLC_certificate/Software/uCOS-II/Source/os_q.c",line 306,column 14,is_s
     898 0000012b 924A          MOV       AL,*-SP[10]           ; [CPU_ALU] |306| 
TMS320C2000 Assembler PC v20.2.1 Mon Jan 11 16:45:38 2021

Copyright (c) 1996-2018 Texas Instruments Incorporated
os_q.asm                                                             PAGE   18

     899 0000012c 5201          CMPB      AL,#1                 ; [CPU_ALU] |306| 
     900 0000012d 6003          B         $C$L20,NEQ            ; [CPU_ALU] |306| 
     901                      ; branchcc occurs ; [] |306| 
     902                      .dwpsn  file "C:/ti/Workspace/PLC_certificate/Software/uCOS-II/Source/os_q.c",line 307,column 18,is_s
     903              $C$DW$68        .dwtag  DW_TAG_TI_branch
     904                      .dwattr $C$DW$68, DW_AT_low_pc(0x00)
     905                      .dwattr $C$DW$68, DW_AT_name("_OS_Sched")
     906                      .dwattr $C$DW$68, DW_AT_TI_call
     907              
     908 0000012e 7640!         LCR       #_OS_Sched            ; [CPU_ALU] |307| 
         0000012f 0000 
     909                      ; call occurs [#_OS_Sched] ; [] |307| 
     910 00000130       $C$L20:    
     911                      .dwpsn  file "C:/ti/Workspace/PLC_certificate/Software/uCOS-II/Source/os_q.c",line 309,column 14,is_s
     912 00000130 8A44          MOVL      XAR4,*-SP[4]          ; [CPU_ALU] |309| 
     913 00000131 2BC4          MOV       *+XAR4[0],#0          ; [CPU_ALU] |309| 
     914                      .dwpsn  file "C:/ti/Workspace/PLC_certificate/Software/uCOS-II/Source/os_q.c",line 310,column 14,is_s
     915 00000132 0200          MOVB      ACC,#0                ; [CPU_ALU] |310| 
     916 00000133 1E46          MOVL      *-SP[6],ACC           ; [CPU_ALU] |310| 
     917                      .dwpsn  file "C:/ti/Workspace/PLC_certificate/Software/uCOS-II/Source/os_q.c",line 311,column 14,is_s
     918 00000134 6F0F          B         $C$L23,UNC            ; [CPU_ALU] |311| 
     919                      ; branch occurs ; [] |311| 
     920 00000135       $C$L21:    
     921                      .dwpsn  file "C:/ti/Workspace/PLC_certificate/Software/uCOS-II/Source/os_q.c",line 314,column 14,is_s
     922 00000135 924B          MOV       AL,*-SP[11]           ; [CPU_ALU] |314| 
     923              $C$DW$69        .dwtag  DW_TAG_TI_branch
     924                      .dwattr $C$DW$69, DW_AT_low_pc(0x00)
     925                      .dwattr $C$DW$69, DW_AT_name("_OS_CPU_SR_Restore")
     926                      .dwattr $C$DW$69, DW_AT_TI_call
     927              
     928 00000136 7640!         LCR       #_OS_CPU_SR_Restore   ; [CPU_ALU] |314| 
         00000137 0000 
     929                      ; call occurs [#_OS_CPU_SR_Restore] ; [] |314| 
     930                      .dwpsn  file "C:/ti/Workspace/PLC_certificate/Software/uCOS-II/Source/os_q.c",line 315,column 14,is_s
     931 00000138 8A44          MOVL      XAR4,*-SP[4]          ; [CPU_ALU] |315| 
     932 00000139 56BF          MOVB      *+XAR4[0],#7,UNC      ; [CPU_ALU] |315| 
         0000013a 07C4 
     933                      .dwpsn  file "C:/ti/Workspace/PLC_certificate/Software/uCOS-II/Source/os_q.c",line 316,column 14,is_s
     934 0000013b 0642          MOVL      ACC,*-SP[2]           ; [CPU_ALU] |316| 
     935 0000013c 1E46          MOVL      *-SP[6],ACC           ; [CPU_ALU] |316| 
     936                      .dwpsn  file "C:/ti/Workspace/PLC_certificate/Software/uCOS-II/Source/os_q.c",line 317,column 14,is_s
     937 0000013d 6F06          B         $C$L23,UNC            ; [CPU_ALU] |317| 
     938                      ; branch occurs ; [] |317| 
     939 0000013e       $C$L22:    
     940                      .dwpsn  file "C:/ti/Workspace/PLC_certificate/Software/uCOS-II/Source/os_q.c",line 268,column 5,is_st
     941 0000013e 9249          MOV       AL,*-SP[9]            ; [CPU_ALU] |268| 
     942 0000013f 6198          B         $C$L16,EQ             ; [CPU_ALU] |268| 
     943                      ; branchcc occurs ; [] |268| 
     944 00000140 5201          CMPB      AL,#1                 ; [CPU_ALU] |268| 
     945 00000141 61C9          B         $C$L19,EQ             ; [CPU_ALU] |268| 
     946                      ; branchcc occurs ; [] |268| 
     947 00000142 6FF3          B         $C$L21,UNC            ; [CPU_ALU] |268| 
     948                      ; branch occurs ; [] |268| 
     949 00000143       $C$L23:    
     950                      .dwpsn  file "C:/ti/Workspace/PLC_certificate/Software/uCOS-II/Source/os_q.c",line 319,column 5,is_st
TMS320C2000 Assembler PC v20.2.1 Mon Jan 11 16:45:38 2021

Copyright (c) 1996-2018 Texas Instruments Incorporated
os_q.asm                                                             PAGE   19

     951 00000143 8A46          MOVL      XAR4,*-SP[6]          ; [CPU_ALU] |319| 
     952 00000144       $C$L24:    
     953                      .dwpsn  file "C:/ti/Workspace/PLC_certificate/Software/uCOS-II/Source/os_q.c",line 320,column 1,is_st
     954 00000144 FE8C          SUBB      SP,#12                ; [CPU_ARAU] 
     955                      .dwcfi  cfa_offset, -2
     956              $C$DW$70        .dwtag  DW_TAG_TI_branch
     957                      .dwattr $C$DW$70, DW_AT_low_pc(0x00)
     958                      .dwattr $C$DW$70, DW_AT_TI_return
     959              
     960 00000145 0006          LRETR     ; [CPU_ALU] 
     961                      ; return occurs ; [] 
     962                      .dwattr $C$DW$52, DW_AT_TI_end_file("C:/ti/Workspace/PLC_certificate/Software/uCOS-II/Source/os_q.c")
     963                      .dwattr $C$DW$52, DW_AT_TI_end_line(0x140)
     964                      .dwattr $C$DW$52, DW_AT_TI_end_column(0x01)
     965                      .dwendentry
     966                      .dwendtag $C$DW$52
     967              
     968 00000146               .sect   ".text"
     969                      .clink
     970                      .global _OSQFlush
     971              
     972              $C$DW$71        .dwtag  DW_TAG_subprogram
     973                      .dwattr $C$DW$71, DW_AT_name("OSQFlush")
     974                      .dwattr $C$DW$71, DW_AT_low_pc(_OSQFlush)
     975                      .dwattr $C$DW$71, DW_AT_high_pc(0x00)
     976                      .dwattr $C$DW$71, DW_AT_TI_symbol_name("_OSQFlush")
     977                      .dwattr $C$DW$71, DW_AT_external
     978                      .dwattr $C$DW$71, DW_AT_type(*$C$DW$T$19)
     979                      .dwattr $C$DW$71, DW_AT_TI_begin_file("C:/ti/Workspace/PLC_certificate/Software/uCOS-II/Source/os_q.c
     980                      .dwattr $C$DW$71, DW_AT_TI_begin_line(0x158)
     981                      .dwattr $C$DW$71, DW_AT_TI_begin_column(0x08)
     982                      .dwattr $C$DW$71, DW_AT_TI_max_frame_size(-8)
     983                      .dwpsn  file "C:/ti/Workspace/PLC_certificate/Software/uCOS-II/Source/os_q.c",line 345,column 1,is_st
     984              
     985                      .dwfde $C$DW$CIE, _OSQFlush
     986              $C$DW$72        .dwtag  DW_TAG_formal_parameter
     987                      .dwattr $C$DW$72, DW_AT_name("pevent")
     988                      .dwattr $C$DW$72, DW_AT_TI_symbol_name("_pevent")
     989                      .dwattr $C$DW$72, DW_AT_type(*$C$DW$T$36)
     990                      .dwattr $C$DW$72, DW_AT_location[DW_OP_reg12]
     991              
     992              
     993              ;***************************************************************
     994              ;* FNAME: _OSQFlush                     FR SIZE:   6           *
     995              ;*                                                             *
     996              ;* FUNCTION ENVIRONMENT                                        *
     997              ;*                                                             *
     998              ;* FUNCTION PROPERTIES                                         *
     999              ;*                            0 Parameter,  5 Auto,  0 SOE     *
    1000              ;***************************************************************
    1001              
    1002 00000146       _OSQFlush:
    1003                      .dwcfi  cfa_offset, -2
    1004                      .dwcfi  save_reg_to_mem, 26, 0
    1005 00000146 FE06          ADDB      SP,#6                 ; [CPU_ARAU] 
TMS320C2000 Assembler PC v20.2.1 Mon Jan 11 16:45:38 2021

Copyright (c) 1996-2018 Texas Instruments Incorporated
os_q.asm                                                             PAGE   20

    1006                      .dwcfi  cfa_offset, -8
    1007              $C$DW$73        .dwtag  DW_TAG_variable
    1008                      .dwattr $C$DW$73, DW_AT_name("pevent")
    1009                      .dwattr $C$DW$73, DW_AT_TI_symbol_name("_pevent")
    1010                      .dwattr $C$DW$73, DW_AT_type(*$C$DW$T$36)
    1011                      .dwattr $C$DW$73, DW_AT_location[DW_OP_breg20 -2]
    1012              
    1013              $C$DW$74        .dwtag  DW_TAG_variable
    1014                      .dwattr $C$DW$74, DW_AT_name("pq")
    1015                      .dwattr $C$DW$74, DW_AT_TI_symbol_name("_pq")
    1016                      .dwattr $C$DW$74, DW_AT_type(*$C$DW$T$75)
    1017                      .dwattr $C$DW$74, DW_AT_location[DW_OP_breg20 -4]
    1018              
    1019              $C$DW$75        .dwtag  DW_TAG_variable
    1020                      .dwattr $C$DW$75, DW_AT_name("cpu_sr")
    1021                      .dwattr $C$DW$75, DW_AT_TI_symbol_name("_cpu_sr")
    1022                      .dwattr $C$DW$75, DW_AT_type(*$C$DW$T$44)
    1023                      .dwattr $C$DW$75, DW_AT_location[DW_OP_breg20 -5]
    1024              
    1025 00000147 A842          MOVL      *-SP[2],XAR4          ; [CPU_ALU] |345| 
    1026                      .dwpsn  file "C:/ti/Workspace/PLC_certificate/Software/uCOS-II/Source/os_q.c",line 348,column 23,is_s
    1027 00000148 2B45          MOV       *-SP[5],#0            ; [CPU_ALU] |348| 
    1028                      .dwpsn  file "C:/ti/Workspace/PLC_certificate/Software/uCOS-II/Source/os_q.c",line 354,column 5,is_st
    1029 00000149 0642          MOVL      ACC,*-SP[2]           ; [CPU_ALU] |354| 
    1030 0000014a 6003          B         $C$L25,NEQ            ; [CPU_ALU] |354| 
    1031                      ; branchcc occurs ; [] |354| 
    1032                      .dwpsn  file "C:/ti/Workspace/PLC_certificate/Software/uCOS-II/Source/os_q.c",line 355,column 9,is_st
    1033 0000014b 9A04          MOVB      AL,#4                 ; [CPU_ALU] |355| 
    1034 0000014c 6F1D          B         $C$L27,UNC            ; [CPU_ALU] |355| 
    1035                      ; branch occurs ; [] |355| 
    1036 0000014d       $C$L25:    
    1037                      .dwpsn  file "C:/ti/Workspace/PLC_certificate/Software/uCOS-II/Source/os_q.c",line 357,column 5,is_st
    1038 0000014d 92C4          MOV       AL,*+XAR4[0]          ; [CPU_ALU] |357| 
    1039 0000014e 5202          CMPB      AL,#2                 ; [CPU_ALU] |357| 
    1040 0000014f 6103          B         $C$L26,EQ             ; [CPU_ALU] |357| 
    1041                      ; branchcc occurs ; [] |357| 
    1042                      .dwpsn  file "C:/ti/Workspace/PLC_certificate/Software/uCOS-II/Source/os_q.c",line 358,column 9,is_st
    1043 00000150 9A01          MOVB      AL,#1                 ; [CPU_ALU] |358| 
    1044 00000151 6F18          B         $C$L27,UNC            ; [CPU_ALU] |358| 
    1045                      ; branch occurs ; [] |358| 
    1046 00000152       $C$L26:    
    1047                      .dwpsn  file "C:/ti/Workspace/PLC_certificate/Software/uCOS-II/Source/os_q.c",line 361,column 5,is_st
    1048              $C$DW$76        .dwtag  DW_TAG_TI_branch
    1049                      .dwattr $C$DW$76, DW_AT_low_pc(0x00)
    1050                      .dwattr $C$DW$76, DW_AT_name("_OS_CPU_SR_Save")
    1051                      .dwattr $C$DW$76, DW_AT_TI_call
    1052              
    1053 00000152 7640!         LCR       #_OS_CPU_SR_Save      ; [CPU_ALU] |361| 
         00000153 0000 
    1054                      ; call occurs [#_OS_CPU_SR_Save] ; [] |361| 
    1055 00000154 9645          MOV       *-SP[5],AL            ; [CPU_ALU] |361| 
    1056                      .dwpsn  file "C:/ti/Workspace/PLC_certificate/Software/uCOS-II/Source/os_q.c",line 362,column 5,is_st
    1057 00000155 8A42          MOVL      XAR4,*-SP[2]          ; [CPU_ALU] |362| 
    1058 00000156 06D4          MOVL      ACC,*+XAR4[2]         ; [CPU_ALU] |362| 
    1059 00000157 1E44          MOVL      *-SP[4],ACC           ; [CPU_ALU] |362| 
TMS320C2000 Assembler PC v20.2.1 Mon Jan 11 16:45:38 2021

Copyright (c) 1996-2018 Texas Instruments Incorporated
os_q.asm                                                             PAGE   21

    1060                      .dwpsn  file "C:/ti/Workspace/PLC_certificate/Software/uCOS-II/Source/os_q.c",line 363,column 5,is_st
    1061 00000158 8A44          MOVL      XAR4,*-SP[4]          ; [CPU_ALU] |363| 
    1062 00000159 06D4          MOVL      ACC,*+XAR4[2]         ; [CPU_ALU] |363| 
    1063 0000015a 1EF4          MOVL      *+XAR4[6],ACC         ; [CPU_ALU] |363| 
    1064                      .dwpsn  file "C:/ti/Workspace/PLC_certificate/Software/uCOS-II/Source/os_q.c",line 364,column 5,is_st
    1065 0000015b 8A44          MOVL      XAR4,*-SP[4]          ; [CPU_ALU] |364| 
    1066 0000015c C4D4          MOVL      XAR6,*+XAR4[2]        ; [CPU_ALU] |364| 
    1067 0000015d 0208          MOVB      ACC,#8                ; [CPU_ALU] |364| 
    1068 0000015e 0744          ADDL      ACC,*-SP[4]           ; [CPU_ALU] |364| 
    1069 0000015f 8AA9          MOVL      XAR4,ACC              ; [CPU_ALU] |364| 
    1070 00000160 C2C4          MOVL      *+XAR4[0],XAR6        ; [CPU_ALU] |364| 
    1071                      .dwpsn  file "C:/ti/Workspace/PLC_certificate/Software/uCOS-II/Source/os_q.c",line 365,column 5,is_st
    1072 00000161 020B          MOVB      ACC,#11               ; [CPU_ALU] |365| 
    1073 00000162 0744          ADDL      ACC,*-SP[4]           ; [CPU_ALU] |365| 
    1074 00000163 8AA9          MOVL      XAR4,ACC              ; [CPU_ALU] |365| 
    1075 00000164 2BC4          MOV       *+XAR4[0],#0          ; [CPU_ALU] |365| 
    1076                      .dwpsn  file "C:/ti/Workspace/PLC_certificate/Software/uCOS-II/Source/os_q.c",line 366,column 5,is_st
    1077 00000165 9245          MOV       AL,*-SP[5]            ; [CPU_ALU] |366| 
    1078              $C$DW$77        .dwtag  DW_TAG_TI_branch
    1079                      .dwattr $C$DW$77, DW_AT_low_pc(0x00)
    1080                      .dwattr $C$DW$77, DW_AT_name("_OS_CPU_SR_Restore")
    1081                      .dwattr $C$DW$77, DW_AT_TI_call
    1082              
    1083 00000166 7640!         LCR       #_OS_CPU_SR_Restore   ; [CPU_ALU] |366| 
         00000167 0000 
    1084                      ; call occurs [#_OS_CPU_SR_Restore] ; [] |366| 
    1085                      .dwpsn  file "C:/ti/Workspace/PLC_certificate/Software/uCOS-II/Source/os_q.c",line 367,column 5,is_st
    1086 00000168 9A00          MOVB      AL,#0                 ; [CPU_ALU] |367| 
    1087 00000169       $C$L27:    
    1088                      .dwpsn  file "C:/ti/Workspace/PLC_certificate/Software/uCOS-II/Source/os_q.c",line 368,column 1,is_st
    1089 00000169 FE86          SUBB      SP,#6                 ; [CPU_ARAU] 
    1090                      .dwcfi  cfa_offset, -2
    1091              $C$DW$78        .dwtag  DW_TAG_TI_branch
    1092                      .dwattr $C$DW$78, DW_AT_low_pc(0x00)
    1093                      .dwattr $C$DW$78, DW_AT_TI_return
    1094              
    1095 0000016a 0006          LRETR     ; [CPU_ALU] 
    1096                      ; return occurs ; [] 
    1097                      .dwattr $C$DW$71, DW_AT_TI_end_file("C:/ti/Workspace/PLC_certificate/Software/uCOS-II/Source/os_q.c")
    1098                      .dwattr $C$DW$71, DW_AT_TI_end_line(0x170)
    1099                      .dwattr $C$DW$71, DW_AT_TI_end_column(0x01)
    1100                      .dwendentry
    1101                      .dwendtag $C$DW$71
    1102              
    1103 0000016b               .sect   ".text"
    1104                      .clink
    1105                      .global _OSQPend
    1106              
    1107              $C$DW$79        .dwtag  DW_TAG_subprogram
    1108                      .dwattr $C$DW$79, DW_AT_name("OSQPend")
    1109                      .dwattr $C$DW$79, DW_AT_low_pc(_OSQPend)
    1110                      .dwattr $C$DW$79, DW_AT_high_pc(0x00)
    1111                      .dwattr $C$DW$79, DW_AT_TI_symbol_name("_OSQPend")
    1112                      .dwattr $C$DW$79, DW_AT_external
    1113                      .dwattr $C$DW$79, DW_AT_type(*$C$DW$T$3)
TMS320C2000 Assembler PC v20.2.1 Mon Jan 11 16:45:38 2021

Copyright (c) 1996-2018 Texas Instruments Incorporated
os_q.asm                                                             PAGE   22

    1114                      .dwattr $C$DW$79, DW_AT_TI_begin_file("C:/ti/Workspace/PLC_certificate/Software/uCOS-II/Source/os_q.c
    1115                      .dwattr $C$DW$79, DW_AT_TI_begin_line(0x198)
    1116                      .dwattr $C$DW$79, DW_AT_TI_begin_column(0x08)
    1117                      .dwattr $C$DW$79, DW_AT_TI_max_frame_size(-14)
    1118                      .dwpsn  file "C:/ti/Workspace/PLC_certificate/Software/uCOS-II/Source/os_q.c",line 411,column 1,is_st
    1119              
    1120                      .dwfde $C$DW$CIE, _OSQPend
    1121              $C$DW$80        .dwtag  DW_TAG_formal_parameter
    1122                      .dwattr $C$DW$80, DW_AT_name("pevent")
    1123                      .dwattr $C$DW$80, DW_AT_TI_symbol_name("_pevent")
    1124                      .dwattr $C$DW$80, DW_AT_type(*$C$DW$T$36)
    1125                      .dwattr $C$DW$80, DW_AT_location[DW_OP_reg12]
    1126              
    1127              $C$DW$81        .dwtag  DW_TAG_formal_parameter
    1128                      .dwattr $C$DW$81, DW_AT_name("timeout")
    1129                      .dwattr $C$DW$81, DW_AT_TI_symbol_name("_timeout")
    1130                      .dwattr $C$DW$81, DW_AT_type(*$C$DW$T$33)
    1131                      .dwattr $C$DW$81, DW_AT_location[DW_OP_reg0]
    1132              
    1133              $C$DW$82        .dwtag  DW_TAG_formal_parameter
    1134                      .dwattr $C$DW$82, DW_AT_name("perr")
    1135                      .dwattr $C$DW$82, DW_AT_TI_symbol_name("_perr")
    1136                      .dwattr $C$DW$82, DW_AT_type(*$C$DW$T$23)
    1137                      .dwattr $C$DW$82, DW_AT_location[DW_OP_reg14]
    1138              
    1139              
    1140              ;***************************************************************
    1141              ;* FNAME: _OSQPend                      FR SIZE:  12           *
    1142              ;*                                                             *
    1143              ;* FUNCTION ENVIRONMENT                                        *
    1144              ;*                                                             *
    1145              ;* FUNCTION PROPERTIES                                         *
    1146              ;*                            0 Parameter, 11 Auto,  0 SOE     *
    1147              ;***************************************************************
    1148              
    1149 0000016b       _OSQPend:
    1150                      .dwcfi  cfa_offset, -2
    1151                      .dwcfi  save_reg_to_mem, 26, 0
    1152 0000016b FE0C          ADDB      SP,#12                ; [CPU_ARAU] 
    1153                      .dwcfi  cfa_offset, -14
    1154              $C$DW$83        .dwtag  DW_TAG_variable
    1155                      .dwattr $C$DW$83, DW_AT_name("pevent")
    1156                      .dwattr $C$DW$83, DW_AT_TI_symbol_name("_pevent")
    1157                      .dwattr $C$DW$83, DW_AT_type(*$C$DW$T$36)
    1158                      .dwattr $C$DW$83, DW_AT_location[DW_OP_breg20 -2]
    1159              
    1160              $C$DW$84        .dwtag  DW_TAG_variable
    1161                      .dwattr $C$DW$84, DW_AT_name("timeout")
    1162                      .dwattr $C$DW$84, DW_AT_TI_symbol_name("_timeout")
    1163                      .dwattr $C$DW$84, DW_AT_type(*$C$DW$T$33)
    1164                      .dwattr $C$DW$84, DW_AT_location[DW_OP_breg20 -4]
    1165              
    1166              $C$DW$85        .dwtag  DW_TAG_variable
    1167                      .dwattr $C$DW$85, DW_AT_name("perr")
    1168                      .dwattr $C$DW$85, DW_AT_TI_symbol_name("_perr")
TMS320C2000 Assembler PC v20.2.1 Mon Jan 11 16:45:38 2021

Copyright (c) 1996-2018 Texas Instruments Incorporated
os_q.asm                                                             PAGE   23

    1169                      .dwattr $C$DW$85, DW_AT_type(*$C$DW$T$23)
    1170                      .dwattr $C$DW$85, DW_AT_location[DW_OP_breg20 -6]
    1171              
    1172              $C$DW$86        .dwtag  DW_TAG_variable
    1173                      .dwattr $C$DW$86, DW_AT_name("pmsg")
    1174                      .dwattr $C$DW$86, DW_AT_TI_symbol_name("_pmsg")
    1175                      .dwattr $C$DW$86, DW_AT_type(*$C$DW$T$3)
    1176                      .dwattr $C$DW$86, DW_AT_location[DW_OP_breg20 -8]
    1177              
    1178              $C$DW$87        .dwtag  DW_TAG_variable
    1179                      .dwattr $C$DW$87, DW_AT_name("pq")
    1180                      .dwattr $C$DW$87, DW_AT_TI_symbol_name("_pq")
    1181                      .dwattr $C$DW$87, DW_AT_type(*$C$DW$T$75)
    1182                      .dwattr $C$DW$87, DW_AT_location[DW_OP_breg20 -10]
    1183              
    1184              $C$DW$88        .dwtag  DW_TAG_variable
    1185                      .dwattr $C$DW$88, DW_AT_name("cpu_sr")
    1186                      .dwattr $C$DW$88, DW_AT_TI_symbol_name("_cpu_sr")
    1187                      .dwattr $C$DW$88, DW_AT_type(*$C$DW$T$44)
    1188                      .dwattr $C$DW$88, DW_AT_location[DW_OP_breg20 -11]
    1189              
    1190 0000016c A046          MOVL      *-SP[6],XAR5          ; [CPU_ALU] |411| 
    1191 0000016d 1E44          MOVL      *-SP[4],ACC           ; [CPU_ALU] |411| 
    1192 0000016e A842          MOVL      *-SP[2],XAR4          ; [CPU_ALU] |411| 
    1193                      .dwpsn  file "C:/ti/Workspace/PLC_certificate/Software/uCOS-II/Source/os_q.c",line 415,column 23,is_s
    1194 0000016f 2B4B          MOV       *-SP[11],#0           ; [CPU_ALU] |415| 
    1195                      .dwpsn  file "C:/ti/Workspace/PLC_certificate/Software/uCOS-II/Source/os_q.c",line 428,column 5,is_st
    1196 00000170 0642          MOVL      ACC,*-SP[2]           ; [CPU_ALU] |428| 
    1197 00000171 6007          B         $C$L28,NEQ            ; [CPU_ALU] |428| 
    1198                      ; branchcc occurs ; [] |428| 
    1199                      .dwpsn  file "C:/ti/Workspace/PLC_certificate/Software/uCOS-II/Source/os_q.c",line 429,column 9,is_st
    1200 00000172 8A46          MOVL      XAR4,*-SP[6]          ; [CPU_ALU] |429| 
    1201 00000173 56BF          MOVB      *+XAR4[0],#4,UNC      ; [CPU_ALU] |429| 
         00000174 04C4 
    1202                      .dwpsn  file "C:/ti/Workspace/PLC_certificate/Software/uCOS-II/Source/os_q.c",line 430,column 9,is_st
    1203 00000175 D400          MOVB      XAR4,#0               ; [CPU_ALU] |430| 
    1204 00000176 FFEF          B         $C$L39,UNC            ; [CPU_ALU] |430| 
         00000177 00A8 
    1205                      ; branch occurs ; [] |430| 
    1206 00000178       $C$L28:    
    1207                      .dwpsn  file "C:/ti/Workspace/PLC_certificate/Software/uCOS-II/Source/os_q.c",line 433,column 5,is_st
    1208 00000178 92C4          MOV       AL,*+XAR4[0]          ; [CPU_ALU] |433| 
    1209 00000179 5202          CMPB      AL,#2                 ; [CPU_ALU] |433| 
    1210 0000017a 6107          B         $C$L29,EQ             ; [CPU_ALU] |433| 
    1211                      ; branchcc occurs ; [] |433| 
    1212                      .dwpsn  file "C:/ti/Workspace/PLC_certificate/Software/uCOS-II/Source/os_q.c",line 434,column 9,is_st
    1213 0000017b 8A46          MOVL      XAR4,*-SP[6]          ; [CPU_ALU] |434| 
    1214 0000017c 56BF          MOVB      *+XAR4[0],#1,UNC      ; [CPU_ALU] |434| 
         0000017d 01C4 
    1215                      .dwpsn  file "C:/ti/Workspace/PLC_certificate/Software/uCOS-II/Source/os_q.c",line 435,column 9,is_st
    1216 0000017e D400          MOVB      XAR4,#0               ; [CPU_ALU] |435| 
    1217 0000017f FFEF          B         $C$L39,UNC            ; [CPU_ALU] |435| 
         00000180 009F 
    1218                      ; branch occurs ; [] |435| 
    1219 00000181       $C$L29:    
TMS320C2000 Assembler PC v20.2.1 Mon Jan 11 16:45:38 2021

Copyright (c) 1996-2018 Texas Instruments Incorporated
os_q.asm                                                             PAGE   24

    1220                      .dwpsn  file "C:/ti/Workspace/PLC_certificate/Software/uCOS-II/Source/os_q.c",line 437,column 5,is_st
    1221 00000181 761F!         MOVW      DP,#_OSIntNesting     ; [CPU_ARAU] 
         00000182 0000 
    1222 00000183 9200!         MOV       AL,@_OSIntNesting     ; [CPU_ALU] |437| 
    1223 00000184 6107          B         $C$L30,EQ             ; [CPU_ALU] |437| 
    1224                      ; branchcc occurs ; [] |437| 
    1225                      .dwpsn  file "C:/ti/Workspace/PLC_certificate/Software/uCOS-II/Source/os_q.c",line 438,column 9,is_st
    1226 00000185 8A46          MOVL      XAR4,*-SP[6]          ; [CPU_ALU] |438| 
    1227 00000186 56BF          MOVB      *+XAR4[0],#2,UNC      ; [CPU_ALU] |438| 
         00000187 02C4 
    1228                      .dwpsn  file "C:/ti/Workspace/PLC_certificate/Software/uCOS-II/Source/os_q.c",line 439,column 9,is_st
    1229 00000188 D400          MOVB      XAR4,#0               ; [CPU_ALU] |439| 
    1230 00000189 FFEF          B         $C$L39,UNC            ; [CPU_ALU] |439| 
         0000018a 0095 
    1231                      ; branch occurs ; [] |439| 
    1232 0000018b       $C$L30:    
    1233                      .dwpsn  file "C:/ti/Workspace/PLC_certificate/Software/uCOS-II/Source/os_q.c",line 441,column 5,is_st
    1234 0000018b 761F!         MOVW      DP,#_OSLockNesting    ; [CPU_ARAU] 
         0000018c 0000 
    1235 0000018d 9200!         MOV       AL,@_OSLockNesting    ; [CPU_ALU] |441| 
    1236 0000018e 6107          B         $C$L31,EQ             ; [CPU_ALU] |441| 
    1237                      ; branchcc occurs ; [] |441| 
    1238                      .dwpsn  file "C:/ti/Workspace/PLC_certificate/Software/uCOS-II/Source/os_q.c",line 442,column 9,is_st
    1239 0000018f 8A46          MOVL      XAR4,*-SP[6]          ; [CPU_ALU] |442| 
    1240 00000190 56BF          MOVB      *+XAR4[0],#13,UNC     ; [CPU_ALU] |442| 
         00000191 0DC4 
    1241                      .dwpsn  file "C:/ti/Workspace/PLC_certificate/Software/uCOS-II/Source/os_q.c",line 443,column 9,is_st
    1242 00000192 D400          MOVB      XAR4,#0               ; [CPU_ALU] |443| 
    1243 00000193 FFEF          B         $C$L39,UNC            ; [CPU_ALU] |443| 
         00000194 008B 
    1244                      ; branch occurs ; [] |443| 
    1245 00000195       $C$L31:    
    1246                      .dwpsn  file "C:/ti/Workspace/PLC_certificate/Software/uCOS-II/Source/os_q.c",line 445,column 5,is_st
    1247              $C$DW$89        .dwtag  DW_TAG_TI_branch
    1248                      .dwattr $C$DW$89, DW_AT_low_pc(0x00)
    1249                      .dwattr $C$DW$89, DW_AT_name("_OS_CPU_SR_Save")
    1250                      .dwattr $C$DW$89, DW_AT_TI_call
    1251              
    1252 00000195 7640!         LCR       #_OS_CPU_SR_Save      ; [CPU_ALU] |445| 
         00000196 0000 
    1253                      ; call occurs [#_OS_CPU_SR_Save] ; [] |445| 
    1254 00000197 964B          MOV       *-SP[11],AL           ; [CPU_ALU] |445| 
    1255                      .dwpsn  file "C:/ti/Workspace/PLC_certificate/Software/uCOS-II/Source/os_q.c",line 446,column 5,is_st
    1256 00000198 8A42          MOVL      XAR4,*-SP[2]          ; [CPU_ALU] |446| 
    1257 00000199 06D4          MOVL      ACC,*+XAR4[2]         ; [CPU_ALU] |446| 
    1258 0000019a 1E4A          MOVL      *-SP[10],ACC          ; [CPU_ALU] |446| 
    1259                      .dwpsn  file "C:/ti/Workspace/PLC_certificate/Software/uCOS-II/Source/os_q.c",line 447,column 5,is_st
    1260 0000019b 020B          MOVB      ACC,#11               ; [CPU_ALU] |447| 
    1261 0000019c 074A          ADDL      ACC,*-SP[10]          ; [CPU_ALU] |447| 
    1262 0000019d 8AA9          MOVL      XAR4,ACC              ; [CPU_ALU] |447| 
    1263 0000019e 92C4          MOV       AL,*+XAR4[0]          ; [CPU_ALU] |447| 
    1264 0000019f 6124          B         $C$L33,EQ             ; [CPU_ALU] |447| 
    1265                      ; branchcc occurs ; [] |447| 
    1266                      .dwpsn  file "C:/ti/Workspace/PLC_certificate/Software/uCOS-II/Source/os_q.c",line 448,column 9,is_st
    1267 000001a0 0208          MOVB      ACC,#8                ; [CPU_ALU] |448| 
TMS320C2000 Assembler PC v20.2.1 Mon Jan 11 16:45:38 2021

Copyright (c) 1996-2018 Texas Instruments Incorporated
os_q.asm                                                             PAGE   25

    1268 000001a1 074A          ADDL      ACC,*-SP[10]          ; [CPU_ALU] |448| 
    1269 000001a2 8AA9          MOVL      XAR4,ACC              ; [CPU_ALU] |448| 
    1270 000001a3 83C4          MOVL      XAR5,*+XAR4[0]        ; [CPU_ALU] |448| 
    1271 000001a4 0208          MOVB      ACC,#8                ; [CPU_ALU] |448| 
    1272 000001a5 074A          ADDL      ACC,*-SP[10]          ; [CPU_ALU] |448| 
    1273 000001a6 8AA9          MOVL      XAR4,ACC              ; [CPU_ALU] |448| 
    1274 000001a7 C485          MOVL      XAR6,*XAR5++          ; [CPU_ALU] |448| 
    1275 000001a8 A0C4          MOVL      *+XAR4[0],XAR5        ; [CPU_ALU] |448| 
    1276 000001a9 C248          MOVL      *-SP[8],XAR6          ; [CPU_ALU] |448| 
    1277                      .dwpsn  file "C:/ti/Workspace/PLC_certificate/Software/uCOS-II/Source/os_q.c",line 449,column 9,is_st
    1278 000001aa 020B          MOVB      ACC,#11               ; [CPU_ALU] |449| 
    1279 000001ab 074A          ADDL      ACC,*-SP[10]          ; [CPU_ALU] |449| 
    1280 000001ac 8AA9          MOVL      XAR4,ACC              ; [CPU_ALU] |449| 
    1281 000001ad 0BC4          DEC       *+XAR4[0]             ; [CPU_ALU] |449| 
    1282                      .dwpsn  file "C:/ti/Workspace/PLC_certificate/Software/uCOS-II/Source/os_q.c",line 450,column 9,is_st
    1283 000001ae 8A4A          MOVL      XAR4,*-SP[10]         ; [CPU_ALU] |450| 
    1284 000001af C4E4          MOVL      XAR6,*+XAR4[4]        ; [CPU_ALU] |450| 
    1285 000001b0 0208          MOVB      ACC,#8                ; [CPU_ALU] |450| 
    1286 000001b1 074A          ADDL      ACC,*-SP[10]          ; [CPU_ALU] |450| 
    1287 000001b2 8AA9          MOVL      XAR4,ACC              ; [CPU_ALU] |450| 
    1288 000001b3 06A6          MOVL      ACC,XAR6              ; [CPU_ALU] |450| 
    1289 000001b4 0FC4          CMPL      ACC,*+XAR4[0]         ; [CPU_ALU] |450| 
    1290 000001b5 6007          B         $C$L32,NEQ            ; [CPU_ALU] |450| 
    1291                      ; branchcc occurs ; [] |450| 
    1292                      .dwpsn  file "C:/ti/Workspace/PLC_certificate/Software/uCOS-II/Source/os_q.c",line 451,column 13,is_s
    1293 000001b6 8A4A          MOVL      XAR4,*-SP[10]         ; [CPU_ALU] |451| 
    1294 000001b7 C4D4          MOVL      XAR6,*+XAR4[2]        ; [CPU_ALU] |451| 
    1295 000001b8 0208          MOVB      ACC,#8                ; [CPU_ALU] |451| 
    1296 000001b9 074A          ADDL      ACC,*-SP[10]          ; [CPU_ALU] |451| 
    1297 000001ba 8AA9          MOVL      XAR4,ACC              ; [CPU_ALU] |451| 
    1298 000001bb C2C4          MOVL      *+XAR4[0],XAR6        ; [CPU_ALU] |451| 
    1299 000001bc       $C$L32:    
    1300                      .dwpsn  file "C:/ti/Workspace/PLC_certificate/Software/uCOS-II/Source/os_q.c",line 453,column 9,is_st
    1301 000001bc 924B          MOV       AL,*-SP[11]           ; [CPU_ALU] |453| 
    1302              $C$DW$90        .dwtag  DW_TAG_TI_branch
    1303                      .dwattr $C$DW$90, DW_AT_low_pc(0x00)
    1304                      .dwattr $C$DW$90, DW_AT_name("_OS_CPU_SR_Restore")
    1305                      .dwattr $C$DW$90, DW_AT_TI_call
    1306              
    1307 000001bd 7640!         LCR       #_OS_CPU_SR_Restore   ; [CPU_ALU] |453| 
         000001be 0000 
    1308                      ; call occurs [#_OS_CPU_SR_Restore] ; [] |453| 
    1309                      .dwpsn  file "C:/ti/Workspace/PLC_certificate/Software/uCOS-II/Source/os_q.c",line 454,column 9,is_st
    1310 000001bf 8A46          MOVL      XAR4,*-SP[6]          ; [CPU_ALU] |454| 
    1311 000001c0 2BC4          MOV       *+XAR4[0],#0          ; [CPU_ALU] |454| 
    1312                      .dwpsn  file "C:/ti/Workspace/PLC_certificate/Software/uCOS-II/Source/os_q.c",line 455,column 9,is_st
    1313 000001c1 8A48          MOVL      XAR4,*-SP[8]          ; [CPU_ALU] |455| 
    1314 000001c2 6F5C          B         $C$L39,UNC            ; [CPU_ALU] |455| 
    1315                      ; branch occurs ; [] |455| 
    1316 000001c3       $C$L33:    
    1317                      .dwpsn  file "C:/ti/Workspace/PLC_certificate/Software/uCOS-II/Source/os_q.c",line 457,column 5,is_st
    1318 000001c3 021A          MOVB      ACC,#26               ; [CPU_ALU] |457| 
    1319 000001c4 761F!         MOVW      DP,#_OSTCBCur         ; [CPU_ARAU] 
         000001c5 0000 
    1320 000001c6 0700!         ADDL      ACC,@_OSTCBCur        ; [CPU_ALU] |457| 
TMS320C2000 Assembler PC v20.2.1 Mon Jan 11 16:45:38 2021

Copyright (c) 1996-2018 Texas Instruments Incorporated
os_q.asm                                                             PAGE   26

    1321 000001c7 8AA9          MOVL      XAR4,ACC              ; [CPU_ALU] |457| 
    1322 000001c8 1AC4          OR        *+XAR4[0],#0x0004     ; [CPU_ALU] |457| 
         000001c9 0004 
    1323                      .dwpsn  file "C:/ti/Workspace/PLC_certificate/Software/uCOS-II/Source/os_q.c",line 458,column 5,is_st
    1324 000001ca 021B          MOVB      ACC,#27               ; [CPU_ALU] |458| 
    1325 000001cb 0700!         ADDL      ACC,@_OSTCBCur        ; [CPU_ALU] |458| 
    1326 000001cc 8AA9          MOVL      XAR4,ACC              ; [CPU_ALU] |458| 
    1327 000001cd 2BC4          MOV       *+XAR4[0],#0          ; [CPU_ALU] |458| 
    1328                      .dwpsn  file "C:/ti/Workspace/PLC_certificate/Software/uCOS-II/Source/os_q.c",line 459,column 5,is_st
    1329 000001ce C444          MOVL      XAR6,*-SP[4]          ; [CPU_ALU] |459| 
    1330 000001cf 0218          MOVB      ACC,#24               ; [CPU_ALU] |459| 
    1331 000001d0 0700!         ADDL      ACC,@_OSTCBCur        ; [CPU_ALU] |459| 
    1332 000001d1 8AA9          MOVL      XAR4,ACC              ; [CPU_ALU] |459| 
    1333 000001d2 C2C4          MOVL      *+XAR4[0],XAR6        ; [CPU_ALU] |459| 
    1334                      .dwpsn  file "C:/ti/Workspace/PLC_certificate/Software/uCOS-II/Source/os_q.c",line 460,column 5,is_st
    1335 000001d3 8A42          MOVL      XAR4,*-SP[2]          ; [CPU_ALU] |460| 
    1336              $C$DW$91        .dwtag  DW_TAG_TI_branch
    1337                      .dwattr $C$DW$91, DW_AT_low_pc(0x00)
    1338                      .dwattr $C$DW$91, DW_AT_name("_OS_EventTaskWait")
    1339                      .dwattr $C$DW$91, DW_AT_TI_call
    1340              
    1341 000001d4 7640!         LCR       #_OS_EventTaskWait    ; [CPU_ALU] |460| 
         000001d5 0000 
    1342                      ; call occurs [#_OS_EventTaskWait] ; [] |460| 
    1343                      .dwpsn  file "C:/ti/Workspace/PLC_certificate/Software/uCOS-II/Source/os_q.c",line 461,column 5,is_st
    1344 000001d6 924B          MOV       AL,*-SP[11]           ; [CPU_ALU] |461| 
    1345              $C$DW$92        .dwtag  DW_TAG_TI_branch
    1346                      .dwattr $C$DW$92, DW_AT_low_pc(0x00)
    1347                      .dwattr $C$DW$92, DW_AT_name("_OS_CPU_SR_Restore")
    1348                      .dwattr $C$DW$92, DW_AT_TI_call
    1349              
    1350 000001d7 7640!         LCR       #_OS_CPU_SR_Restore   ; [CPU_ALU] |461| 
         000001d8 0000 
    1351                      ; call occurs [#_OS_CPU_SR_Restore] ; [] |461| 
    1352                      .dwpsn  file "C:/ti/Workspace/PLC_certificate/Software/uCOS-II/Source/os_q.c",line 462,column 5,is_st
    1353              $C$DW$93        .dwtag  DW_TAG_TI_branch
    1354                      .dwattr $C$DW$93, DW_AT_low_pc(0x00)
    1355                      .dwattr $C$DW$93, DW_AT_name("_OS_Sched")
    1356                      .dwattr $C$DW$93, DW_AT_TI_call
    1357              
    1358 000001d9 7640!         LCR       #_OS_Sched            ; [CPU_ALU] |462| 
         000001da 0000 
    1359                      ; call occurs [#_OS_Sched] ; [] |462| 
    1360                      .dwpsn  file "C:/ti/Workspace/PLC_certificate/Software/uCOS-II/Source/os_q.c",line 463,column 5,is_st
    1361              $C$DW$94        .dwtag  DW_TAG_TI_branch
    1362                      .dwattr $C$DW$94, DW_AT_low_pc(0x00)
    1363                      .dwattr $C$DW$94, DW_AT_name("_OS_CPU_SR_Save")
    1364                      .dwattr $C$DW$94, DW_AT_TI_call
    1365              
    1366 000001db 7640!         LCR       #_OS_CPU_SR_Save      ; [CPU_ALU] |463| 
         000001dc 0000 
    1367                      ; call occurs [#_OS_CPU_SR_Save] ; [] |463| 
    1368 000001dd 964B          MOV       *-SP[11],AL           ; [CPU_ALU] |463| 
    1369                      .dwpsn  file "C:/ti/Workspace/PLC_certificate/Software/uCOS-II/Source/os_q.c",line 464,column 5,is_st
    1370 000001de 6F19          B         $C$L37,UNC            ; [CPU_ALU] |464| 
TMS320C2000 Assembler PC v20.2.1 Mon Jan 11 16:45:38 2021

Copyright (c) 1996-2018 Texas Instruments Incorporated
os_q.asm                                                             PAGE   27

    1371                      ; branch occurs ; [] |464| 
    1372 000001df       $C$L34:    
    1373                      .dwpsn  file "C:/ti/Workspace/PLC_certificate/Software/uCOS-II/Source/os_q.c",line 466,column 14,is_s
    1374 000001df 0212          MOVB      ACC,#18               ; [CPU_ALU] |466| 
    1375 000001e0 0700!         ADDL      ACC,@_OSTCBCur        ; [CPU_ALU] |466| 
    1376 000001e1 8AA9          MOVL      XAR4,ACC              ; [CPU_ALU] |466| 
    1377 000001e2 06C4          MOVL      ACC,*+XAR4[0]         ; [CPU_ALU] |466| 
    1378 000001e3 1E48          MOVL      *-SP[8],ACC           ; [CPU_ALU] |466| 
    1379                      .dwpsn  file "C:/ti/Workspace/PLC_certificate/Software/uCOS-II/Source/os_q.c",line 467,column 13,is_s
    1380 000001e4 8A46          MOVL      XAR4,*-SP[6]          ; [CPU_ALU] |467| 
    1381 000001e5 2BC4          MOV       *+XAR4[0],#0          ; [CPU_ALU] |467| 
    1382                      .dwpsn  file "C:/ti/Workspace/PLC_certificate/Software/uCOS-II/Source/os_q.c",line 468,column 14,is_s
    1383 000001e6 6F1D          B         $C$L38,UNC            ; [CPU_ALU] |468| 
    1384                      ; branch occurs ; [] |468| 
    1385 000001e7       $C$L35:    
    1386                      .dwpsn  file "C:/ti/Workspace/PLC_certificate/Software/uCOS-II/Source/os_q.c",line 471,column 14,is_s
    1387 000001e7 0200          MOVB      ACC,#0                ; [CPU_ALU] |471| 
    1388 000001e8 1E48          MOVL      *-SP[8],ACC           ; [CPU_ALU] |471| 
    1389                      .dwpsn  file "C:/ti/Workspace/PLC_certificate/Software/uCOS-II/Source/os_q.c",line 472,column 13,is_s
    1390 000001e9 8A46          MOVL      XAR4,*-SP[6]          ; [CPU_ALU] |472| 
    1391 000001ea 56BF          MOVB      *+XAR4[0],#14,UNC     ; [CPU_ALU] |472| 
         000001eb 0EC4 
    1392                      .dwpsn  file "C:/ti/Workspace/PLC_certificate/Software/uCOS-II/Source/os_q.c",line 473,column 14,is_s
    1393 000001ec 6F17          B         $C$L38,UNC            ; [CPU_ALU] |473| 
    1394                      ; branch occurs ; [] |473| 
    1395 000001ed       $C$L36:    
    1396                      .dwpsn  file "C:/ti/Workspace/PLC_certificate/Software/uCOS-II/Source/os_q.c",line 477,column 14,is_s
    1397 000001ed 8A00!         MOVL      XAR4,@_OSTCBCur       ; [CPU_ALU] |477| 
    1398 000001ee 8342          MOVL      XAR5,*-SP[2]          ; [CPU_ALU] |477| 
    1399              $C$DW$95        .dwtag  DW_TAG_TI_branch
    1400                      .dwattr $C$DW$95, DW_AT_low_pc(0x00)
    1401                      .dwattr $C$DW$95, DW_AT_name("_OS_EventTaskRemove")
    1402                      .dwattr $C$DW$95, DW_AT_TI_call
    1403              
    1404 000001ef 7640!         LCR       #_OS_EventTaskRemove  ; [CPU_ALU] |477| 
         000001f0 0000 
    1405                      ; call occurs [#_OS_EventTaskRemove] ; [] |477| 
    1406                      .dwpsn  file "C:/ti/Workspace/PLC_certificate/Software/uCOS-II/Source/os_q.c",line 478,column 14,is_s
    1407 000001f1 0200          MOVB      ACC,#0                ; [CPU_ALU] |478| 
    1408 000001f2 1E48          MOVL      *-SP[8],ACC           ; [CPU_ALU] |478| 
    1409                      .dwpsn  file "C:/ti/Workspace/PLC_certificate/Software/uCOS-II/Source/os_q.c",line 479,column 13,is_s
    1410 000001f3 8A46          MOVL      XAR4,*-SP[6]          ; [CPU_ALU] |479| 
    1411 000001f4 56BF          MOVB      *+XAR4[0],#10,UNC     ; [CPU_ALU] |479| 
         000001f5 0AC4 
    1412                      .dwpsn  file "C:/ti/Workspace/PLC_certificate/Software/uCOS-II/Source/os_q.c",line 480,column 14,is_s
    1413 000001f6 6F0D          B         $C$L38,UNC            ; [CPU_ALU] |480| 
    1414                      ; branch occurs ; [] |480| 
    1415 000001f7       $C$L37:    
    1416                      .dwpsn  file "C:/ti/Workspace/PLC_certificate/Software/uCOS-II/Source/os_q.c",line 464,column 5,is_st
    1417 000001f7 021B          MOVB      ACC,#27               ; [CPU_ALU] |464| 
    1418 000001f8 761F!         MOVW      DP,#_OSTCBCur         ; [CPU_ARAU] 
         000001f9 0000 
    1419 000001fa 0700!         ADDL      ACC,@_OSTCBCur        ; [CPU_ALU] |464| 
    1420 000001fb 8AA9          MOVL      XAR4,ACC              ; [CPU_ALU] |464| 
    1421 000001fc 92C4          MOV       AL,*+XAR4[0]          ; [CPU_ALU] |464| 
TMS320C2000 Assembler PC v20.2.1 Mon Jan 11 16:45:38 2021

Copyright (c) 1996-2018 Texas Instruments Incorporated
os_q.asm                                                             PAGE   28

    1422 000001fd 61E2          B         $C$L34,EQ             ; [CPU_ALU] |464| 
    1423                      ; branchcc occurs ; [] |464| 
    1424 000001fe 5201          CMPB      AL,#1                 ; [CPU_ALU] |464| 
    1425 000001ff 61EE          B         $C$L36,EQ             ; [CPU_ALU] |464| 
    1426                      ; branchcc occurs ; [] |464| 
    1427 00000200 5202          CMPB      AL,#2                 ; [CPU_ALU] |464| 
    1428 00000201 61E6          B         $C$L35,EQ             ; [CPU_ALU] |464| 
    1429                      ; branchcc occurs ; [] |464| 
    1430 00000202 6FEB          B         $C$L36,UNC            ; [CPU_ALU] |464| 
    1431                      ; branch occurs ; [] |464| 
    1432 00000203       $C$L38:    
    1433                      .dwpsn  file "C:/ti/Workspace/PLC_certificate/Software/uCOS-II/Source/os_q.c",line 482,column 5,is_st
    1434 00000203 021A          MOVB      ACC,#26               ; [CPU_ALU] |482| 
    1435 00000204 761F!         MOVW      DP,#_OSTCBCur         ; [CPU_ARAU] 
         00000205 0000 
    1436 00000206 0700!         ADDL      ACC,@_OSTCBCur        ; [CPU_ALU] |482| 
    1437 00000207 8AA9          MOVL      XAR4,ACC              ; [CPU_ALU] |482| 
    1438 00000208 2BC4          MOV       *+XAR4[0],#0          ; [CPU_ALU] |482| 
    1439                      .dwpsn  file "C:/ti/Workspace/PLC_certificate/Software/uCOS-II/Source/os_q.c",line 483,column 5,is_st
    1440 00000209 021B          MOVB      ACC,#27               ; [CPU_ALU] |483| 
    1441 0000020a 0700!         ADDL      ACC,@_OSTCBCur        ; [CPU_ALU] |483| 
    1442 0000020b 8AA9          MOVL      XAR4,ACC              ; [CPU_ALU] |483| 
    1443 0000020c 2BC4          MOV       *+XAR4[0],#0          ; [CPU_ALU] |483| 
    1444                      .dwpsn  file "C:/ti/Workspace/PLC_certificate/Software/uCOS-II/Source/os_q.c",line 484,column 5,is_st
    1445 0000020d BE00          MOVB      XAR6,#0               ; [CPU_ALU] |484| 
    1446 0000020e 020E          MOVB      ACC,#14               ; [CPU_ALU] |484| 
    1447 0000020f 0700!         ADDL      ACC,@_OSTCBCur        ; [CPU_ALU] |484| 
    1448 00000210 8AA9          MOVL      XAR4,ACC              ; [CPU_ALU] |484| 
    1449 00000211 C2C4          MOVL      *+XAR4[0],XAR6        ; [CPU_ALU] |484| 
    1450                      .dwpsn  file "C:/ti/Workspace/PLC_certificate/Software/uCOS-II/Source/os_q.c",line 486,column 5,is_st
    1451 00000212 0210          MOVB      ACC,#16               ; [CPU_ALU] |486| 
    1452 00000213 0700!         ADDL      ACC,@_OSTCBCur        ; [CPU_ALU] |486| 
    1453 00000214 8AA9          MOVL      XAR4,ACC              ; [CPU_ALU] |486| 
    1454 00000215 C2C4          MOVL      *+XAR4[0],XAR6        ; [CPU_ALU] |486| 
    1455                      .dwpsn  file "C:/ti/Workspace/PLC_certificate/Software/uCOS-II/Source/os_q.c",line 488,column 5,is_st
    1456 00000216 0212          MOVB      ACC,#18               ; [CPU_ALU] |488| 
    1457 00000217 0700!         ADDL      ACC,@_OSTCBCur        ; [CPU_ALU] |488| 
    1458 00000218 8AA9          MOVL      XAR4,ACC              ; [CPU_ALU] |488| 
    1459 00000219 C2C4          MOVL      *+XAR4[0],XAR6        ; [CPU_ALU] |488| 
    1460                      .dwpsn  file "C:/ti/Workspace/PLC_certificate/Software/uCOS-II/Source/os_q.c",line 489,column 5,is_st
    1461 0000021a 924B          MOV       AL,*-SP[11]           ; [CPU_ALU] |489| 
    1462              $C$DW$96        .dwtag  DW_TAG_TI_branch
    1463                      .dwattr $C$DW$96, DW_AT_low_pc(0x00)
    1464                      .dwattr $C$DW$96, DW_AT_name("_OS_CPU_SR_Restore")
    1465                      .dwattr $C$DW$96, DW_AT_TI_call
    1466              
    1467 0000021b 7640!         LCR       #_OS_CPU_SR_Restore   ; [CPU_ALU] |489| 
         0000021c 0000 
    1468                      ; call occurs [#_OS_CPU_SR_Restore] ; [] |489| 
    1469                      .dwpsn  file "C:/ti/Workspace/PLC_certificate/Software/uCOS-II/Source/os_q.c",line 490,column 5,is_st
    1470 0000021d 8A48          MOVL      XAR4,*-SP[8]          ; [CPU_ALU] |490| 
    1471 0000021e       $C$L39:    
    1472                      .dwpsn  file "C:/ti/Workspace/PLC_certificate/Software/uCOS-II/Source/os_q.c",line 491,column 1,is_st
    1473 0000021e FE8C          SUBB      SP,#12                ; [CPU_ARAU] 
    1474                      .dwcfi  cfa_offset, -2
TMS320C2000 Assembler PC v20.2.1 Mon Jan 11 16:45:38 2021

Copyright (c) 1996-2018 Texas Instruments Incorporated
os_q.asm                                                             PAGE   29

    1475              $C$DW$97        .dwtag  DW_TAG_TI_branch
    1476                      .dwattr $C$DW$97, DW_AT_low_pc(0x00)
    1477                      .dwattr $C$DW$97, DW_AT_TI_return
    1478              
    1479 0000021f 0006          LRETR     ; [CPU_ALU] 
    1480                      ; return occurs ; [] 
    1481                      .dwattr $C$DW$79, DW_AT_TI_end_file("C:/ti/Workspace/PLC_certificate/Software/uCOS-II/Source/os_q.c")
    1482                      .dwattr $C$DW$79, DW_AT_TI_end_line(0x1eb)
    1483                      .dwattr $C$DW$79, DW_AT_TI_end_column(0x01)
    1484                      .dwendentry
    1485                      .dwendtag $C$DW$79
    1486              
    1487 00000220               .sect   ".text"
    1488                      .clink
    1489                      .global _OSQPendAbort
    1490              
    1491              $C$DW$98        .dwtag  DW_TAG_subprogram
    1492                      .dwattr $C$DW$98, DW_AT_name("OSQPendAbort")
    1493                      .dwattr $C$DW$98, DW_AT_low_pc(_OSQPendAbort)
    1494                      .dwattr $C$DW$98, DW_AT_high_pc(0x00)
    1495                      .dwattr $C$DW$98, DW_AT_TI_symbol_name("_OSQPendAbort")
    1496                      .dwattr $C$DW$98, DW_AT_external
    1497                      .dwattr $C$DW$98, DW_AT_type(*$C$DW$T$19)
    1498                      .dwattr $C$DW$98, DW_AT_TI_begin_file("C:/ti/Workspace/PLC_certificate/Software/uCOS-II/Source/os_q.c
    1499                      .dwattr $C$DW$98, DW_AT_TI_begin_line(0x20e)
    1500                      .dwattr $C$DW$98, DW_AT_TI_begin_column(0x08)
    1501                      .dwattr $C$DW$98, DW_AT_TI_max_frame_size(-10)
    1502                      .dwpsn  file "C:/ti/Workspace/PLC_certificate/Software/uCOS-II/Source/os_q.c",line 529,column 1,is_st
    1503              
    1504                      .dwfde $C$DW$CIE, _OSQPendAbort
    1505              $C$DW$99        .dwtag  DW_TAG_formal_parameter
    1506                      .dwattr $C$DW$99, DW_AT_name("pevent")
    1507                      .dwattr $C$DW$99, DW_AT_TI_symbol_name("_pevent")
    1508                      .dwattr $C$DW$99, DW_AT_type(*$C$DW$T$36)
    1509                      .dwattr $C$DW$99, DW_AT_location[DW_OP_reg12]
    1510              
    1511              $C$DW$100       .dwtag  DW_TAG_formal_parameter
    1512                      .dwattr $C$DW$100, DW_AT_name("opt")
    1513                      .dwattr $C$DW$100, DW_AT_TI_symbol_name("_opt")
    1514                      .dwattr $C$DW$100, DW_AT_type(*$C$DW$T$19)
    1515                      .dwattr $C$DW$100, DW_AT_location[DW_OP_reg0]
    1516              
    1517              $C$DW$101       .dwtag  DW_TAG_formal_parameter
    1518                      .dwattr $C$DW$101, DW_AT_name("perr")
    1519                      .dwattr $C$DW$101, DW_AT_TI_symbol_name("_perr")
    1520                      .dwattr $C$DW$101, DW_AT_type(*$C$DW$T$23)
    1521                      .dwattr $C$DW$101, DW_AT_location[DW_OP_reg14]
    1522              
    1523              
    1524              ;***************************************************************
    1525              ;* FNAME: _OSQPendAbort                 FR SIZE:   8           *
    1526              ;*                                                             *
    1527              ;* FUNCTION ENVIRONMENT                                        *
    1528              ;*                                                             *
    1529              ;* FUNCTION PROPERTIES                                         *
TMS320C2000 Assembler PC v20.2.1 Mon Jan 11 16:45:38 2021

Copyright (c) 1996-2018 Texas Instruments Incorporated
os_q.asm                                                             PAGE   30

    1530              ;*                            0 Parameter,  7 Auto,  0 SOE     *
    1531              ;***************************************************************
    1532              
    1533 00000220       _OSQPendAbort:
    1534                      .dwcfi  cfa_offset, -2
    1535                      .dwcfi  save_reg_to_mem, 26, 0
    1536 00000220 FE08          ADDB      SP,#8                 ; [CPU_ARAU] 
    1537                      .dwcfi  cfa_offset, -10
    1538              $C$DW$102       .dwtag  DW_TAG_variable
    1539                      .dwattr $C$DW$102, DW_AT_name("pevent")
    1540                      .dwattr $C$DW$102, DW_AT_TI_symbol_name("_pevent")
    1541                      .dwattr $C$DW$102, DW_AT_type(*$C$DW$T$36)
    1542                      .dwattr $C$DW$102, DW_AT_location[DW_OP_breg20 -2]
    1543              
    1544              $C$DW$103       .dwtag  DW_TAG_variable
    1545                      .dwattr $C$DW$103, DW_AT_name("perr")
    1546                      .dwattr $C$DW$103, DW_AT_TI_symbol_name("_perr")
    1547                      .dwattr $C$DW$103, DW_AT_type(*$C$DW$T$23)
    1548                      .dwattr $C$DW$103, DW_AT_location[DW_OP_breg20 -4]
    1549              
    1550              $C$DW$104       .dwtag  DW_TAG_variable
    1551                      .dwattr $C$DW$104, DW_AT_name("opt")
    1552                      .dwattr $C$DW$104, DW_AT_TI_symbol_name("_opt")
    1553                      .dwattr $C$DW$104, DW_AT_type(*$C$DW$T$19)
    1554                      .dwattr $C$DW$104, DW_AT_location[DW_OP_breg20 -5]
    1555              
    1556              $C$DW$105       .dwtag  DW_TAG_variable
    1557                      .dwattr $C$DW$105, DW_AT_name("nbr_tasks")
    1558                      .dwattr $C$DW$105, DW_AT_TI_symbol_name("_nbr_tasks")
    1559                      .dwattr $C$DW$105, DW_AT_type(*$C$DW$T$19)
    1560                      .dwattr $C$DW$105, DW_AT_location[DW_OP_breg20 -6]
    1561              
    1562              $C$DW$106       .dwtag  DW_TAG_variable
    1563                      .dwattr $C$DW$106, DW_AT_name("cpu_sr")
    1564                      .dwattr $C$DW$106, DW_AT_TI_symbol_name("_cpu_sr")
    1565                      .dwattr $C$DW$106, DW_AT_type(*$C$DW$T$44)
    1566                      .dwattr $C$DW$106, DW_AT_location[DW_OP_breg20 -7]
    1567              
    1568 00000221 A044          MOVL      *-SP[4],XAR5          ; [CPU_ALU] |529| 
    1569 00000222 9645          MOV       *-SP[5],AL            ; [CPU_ALU] |529| 
    1570 00000223 A842          MOVL      *-SP[2],XAR4          ; [CPU_ALU] |529| 
    1571                      .dwpsn  file "C:/ti/Workspace/PLC_certificate/Software/uCOS-II/Source/os_q.c",line 532,column 23,is_s
    1572 00000224 2B47          MOV       *-SP[7],#0            ; [CPU_ALU] |532| 
    1573                      .dwpsn  file "C:/ti/Workspace/PLC_certificate/Software/uCOS-II/Source/os_q.c",line 545,column 5,is_st
    1574 00000225 0642          MOVL      ACC,*-SP[2]           ; [CPU_ALU] |545| 
    1575 00000226 6006          B         $C$L40,NEQ            ; [CPU_ALU] |545| 
    1576                      ; branchcc occurs ; [] |545| 
    1577                      .dwpsn  file "C:/ti/Workspace/PLC_certificate/Software/uCOS-II/Source/os_q.c",line 546,column 9,is_st
    1578 00000227 8A44          MOVL      XAR4,*-SP[4]          ; [CPU_ALU] |546| 
    1579 00000228 56BF          MOVB      *+XAR4[0],#4,UNC      ; [CPU_ALU] |546| 
         00000229 04C4 
    1580                      .dwpsn  file "C:/ti/Workspace/PLC_certificate/Software/uCOS-II/Source/os_q.c",line 547,column 9,is_st
    1581 0000022a 9A00          MOVB      AL,#0                 ; [CPU_ALU] |547| 
    1582 0000022b 6F37          B         $C$L48,UNC            ; [CPU_ALU] |547| 
    1583                      ; branch occurs ; [] |547| 
TMS320C2000 Assembler PC v20.2.1 Mon Jan 11 16:45:38 2021

Copyright (c) 1996-2018 Texas Instruments Incorporated
os_q.asm                                                             PAGE   31

    1584 0000022c       $C$L40:    
    1585                      .dwpsn  file "C:/ti/Workspace/PLC_certificate/Software/uCOS-II/Source/os_q.c",line 550,column 5,is_st
    1586 0000022c 92C4          MOV       AL,*+XAR4[0]          ; [CPU_ALU] |550| 
    1587 0000022d 5202          CMPB      AL,#2                 ; [CPU_ALU] |550| 
    1588 0000022e 6106          B         $C$L41,EQ             ; [CPU_ALU] |550| 
    1589                      ; branchcc occurs ; [] |550| 
    1590                      .dwpsn  file "C:/ti/Workspace/PLC_certificate/Software/uCOS-II/Source/os_q.c",line 551,column 9,is_st
    1591 0000022f 8A44          MOVL      XAR4,*-SP[4]          ; [CPU_ALU] |551| 
    1592 00000230 56BF          MOVB      *+XAR4[0],#1,UNC      ; [CPU_ALU] |551| 
         00000231 01C4 
    1593                      .dwpsn  file "C:/ti/Workspace/PLC_certificate/Software/uCOS-II/Source/os_q.c",line 552,column 9,is_st
    1594 00000232 9A00          MOVB      AL,#0                 ; [CPU_ALU] |552| 
    1595 00000233 6F2F          B         $C$L48,UNC            ; [CPU_ALU] |552| 
    1596                      ; branch occurs ; [] |552| 
    1597 00000234       $C$L41:    
    1598                      .dwpsn  file "C:/ti/Workspace/PLC_certificate/Software/uCOS-II/Source/os_q.c",line 554,column 5,is_st
    1599              $C$DW$107       .dwtag  DW_TAG_TI_branch
    1600                      .dwattr $C$DW$107, DW_AT_low_pc(0x00)
    1601                      .dwattr $C$DW$107, DW_AT_name("_OS_CPU_SR_Save")
    1602                      .dwattr $C$DW$107, DW_AT_TI_call
    1603              
    1604 00000234 7640!         LCR       #_OS_CPU_SR_Save      ; [CPU_ALU] |554| 
         00000235 0000 
    1605                      ; call occurs [#_OS_CPU_SR_Save] ; [] |554| 
    1606 00000236 9647          MOV       *-SP[7],AL            ; [CPU_ALU] |554| 
    1607                      .dwpsn  file "C:/ti/Workspace/PLC_certificate/Software/uCOS-II/Source/os_q.c",line 555,column 5,is_st
    1608 00000237 8A42          MOVL      XAR4,*-SP[2]          ; [CPU_ALU] |555| 
    1609 00000238 92EC          MOV       AL,*+XAR4[5]          ; [CPU_ALU] |555| 
    1610 00000239 6123          B         $C$L47,EQ             ; [CPU_ALU] |555| 
    1611                      ; branchcc occurs ; [] |555| 
    1612                      .dwpsn  file "C:/ti/Workspace/PLC_certificate/Software/uCOS-II/Source/os_q.c",line 556,column 9,is_st
    1613 0000023a 2B46          MOV       *-SP[6],#0            ; [CPU_ALU] |556| 
    1614                      .dwpsn  file "C:/ti/Workspace/PLC_certificate/Software/uCOS-II/Source/os_q.c",line 557,column 9,is_st
    1615 0000023b 6F12          B         $C$L45,UNC            ; [CPU_ALU] |557| 
    1616                      ; branch occurs ; [] |557| 
    1617 0000023c       $C$L42:    
    1618                      .dwpsn  file "C:/ti/Workspace/PLC_certificate/Software/uCOS-II/Source/os_q.c",line 560,column 22,is_s
    1619 0000023c D500          MOVB      XAR5,#0               ; [CPU_ALU] |560| 
    1620 0000023d 9A04          MOVB      AL,#4                 ; [CPU_ALU] |560| 
    1621 0000023e 9B02          MOVB      AH,#2                 ; [CPU_ALU] |560| 
    1622              $C$DW$108       .dwtag  DW_TAG_TI_branch
    1623                      .dwattr $C$DW$108, DW_AT_low_pc(0x00)
    1624                      .dwattr $C$DW$108, DW_AT_name("_OS_EventTaskRdy")
    1625                      .dwattr $C$DW$108, DW_AT_TI_call
    1626              
    1627 0000023f 7640!         LCR       #_OS_EventTaskRdy     ; [CPU_ALU] |560| 
         00000240 0000 
    1628                      ; call occurs [#_OS_EventTaskRdy] ; [] |560| 
    1629                      .dwpsn  file "C:/ti/Workspace/PLC_certificate/Software/uCOS-II/Source/os_q.c",line 561,column 22,is_s
    1630 00000241 0A46          INC       *-SP[6]               ; [CPU_ALU] |561| 
    1631 00000242       $C$L43:    
    1632                      .dwpsn  file "C:/ti/Workspace/PLC_certificate/Software/uCOS-II/Source/os_q.c",line 559,column 25,is_s
    1633 00000242 8A42          MOVL      XAR4,*-SP[2]          ; [CPU_ALU] |559| 
    1634 00000243 92EC          MOV       AL,*+XAR4[5]          ; [CPU_ALU] |559| 
    1635 00000244 60F8          B         $C$L42,NEQ            ; [CPU_ALU] |559| 
TMS320C2000 Assembler PC v20.2.1 Mon Jan 11 16:45:38 2021

Copyright (c) 1996-2018 Texas Instruments Incorporated
os_q.asm                                                             PAGE   32

    1636                      ; branchcc occurs ; [] |559| 
    1637                      .dwpsn  file "C:/ti/Workspace/PLC_certificate/Software/uCOS-II/Source/os_q.c",line 563,column 18,is_s
    1638 00000245 6F0D          B         $C$L46,UNC            ; [CPU_ALU] |563| 
    1639                      ; branch occurs ; [] |563| 
    1640 00000246       $C$L44:    
    1641                      .dwpsn  file "C:/ti/Workspace/PLC_certificate/Software/uCOS-II/Source/os_q.c",line 567,column 18,is_s
    1642 00000246 D500          MOVB      XAR5,#0               ; [CPU_ALU] |567| 
    1643 00000247 9A04          MOVB      AL,#4                 ; [CPU_ALU] |567| 
    1644 00000248 9B02          MOVB      AH,#2                 ; [CPU_ALU] |567| 
    1645              $C$DW$109       .dwtag  DW_TAG_TI_branch
    1646                      .dwattr $C$DW$109, DW_AT_low_pc(0x00)
    1647                      .dwattr $C$DW$109, DW_AT_name("_OS_EventTaskRdy")
    1648                      .dwattr $C$DW$109, DW_AT_TI_call
    1649              
    1650 00000249 7640!         LCR       #_OS_EventTaskRdy     ; [CPU_ALU] |567| 
         0000024a 0000 
    1651                      ; call occurs [#_OS_EventTaskRdy] ; [] |567| 
    1652                      .dwpsn  file "C:/ti/Workspace/PLC_certificate/Software/uCOS-II/Source/os_q.c",line 568,column 18,is_s
    1653 0000024b 0A46          INC       *-SP[6]               ; [CPU_ALU] |568| 
    1654                      .dwpsn  file "C:/ti/Workspace/PLC_certificate/Software/uCOS-II/Source/os_q.c",line 569,column 18,is_s
    1655 0000024c 6F06          B         $C$L46,UNC            ; [CPU_ALU] |569| 
    1656                      ; branch occurs ; [] |569| 
    1657 0000024d       $C$L45:    
    1658                      .dwpsn  file "C:/ti/Workspace/PLC_certificate/Software/uCOS-II/Source/os_q.c",line 557,column 9,is_st
    1659 0000024d 9245          MOV       AL,*-SP[5]            ; [CPU_ALU] |557| 
    1660 0000024e 61F8          B         $C$L44,EQ             ; [CPU_ALU] |557| 
    1661                      ; branchcc occurs ; [] |557| 
    1662 0000024f 5201          CMPB      AL,#1                 ; [CPU_ALU] |557| 
    1663 00000250 61F2          B         $C$L43,EQ             ; [CPU_ALU] |557| 
    1664                      ; branchcc occurs ; [] |557| 
    1665 00000251 6FF5          B         $C$L44,UNC            ; [CPU_ALU] |557| 
    1666                      ; branch occurs ; [] |557| 
    1667 00000252       $C$L46:    
    1668                      .dwpsn  file "C:/ti/Workspace/PLC_certificate/Software/uCOS-II/Source/os_q.c",line 571,column 9,is_st
    1669 00000252 9247          MOV       AL,*-SP[7]            ; [CPU_ALU] |571| 
    1670              $C$DW$110       .dwtag  DW_TAG_TI_branch
    1671                      .dwattr $C$DW$110, DW_AT_low_pc(0x00)
    1672                      .dwattr $C$DW$110, DW_AT_name("_OS_CPU_SR_Restore")
    1673                      .dwattr $C$DW$110, DW_AT_TI_call
    1674              
    1675 00000253 7640!         LCR       #_OS_CPU_SR_Restore   ; [CPU_ALU] |571| 
         00000254 0000 
    1676                      ; call occurs [#_OS_CPU_SR_Restore] ; [] |571| 
    1677                      .dwpsn  file "C:/ti/Workspace/PLC_certificate/Software/uCOS-II/Source/os_q.c",line 572,column 9,is_st
    1678              $C$DW$111       .dwtag  DW_TAG_TI_branch
    1679                      .dwattr $C$DW$111, DW_AT_low_pc(0x00)
    1680                      .dwattr $C$DW$111, DW_AT_name("_OS_Sched")
    1681                      .dwattr $C$DW$111, DW_AT_TI_call
    1682              
    1683 00000255 7640!         LCR       #_OS_Sched            ; [CPU_ALU] |572| 
         00000256 0000 
    1684                      ; call occurs [#_OS_Sched] ; [] |572| 
    1685                      .dwpsn  file "C:/ti/Workspace/PLC_certificate/Software/uCOS-II/Source/os_q.c",line 573,column 9,is_st
    1686 00000257 8A44          MOVL      XAR4,*-SP[4]          ; [CPU_ALU] |573| 
    1687 00000258 56BF          MOVB      *+XAR4[0],#14,UNC     ; [CPU_ALU] |573| 
TMS320C2000 Assembler PC v20.2.1 Mon Jan 11 16:45:38 2021

Copyright (c) 1996-2018 Texas Instruments Incorporated
os_q.asm                                                             PAGE   33

         00000259 0EC4 
    1688                      .dwpsn  file "C:/ti/Workspace/PLC_certificate/Software/uCOS-II/Source/os_q.c",line 574,column 9,is_st
    1689 0000025a 9246          MOV       AL,*-SP[6]            ; [CPU_ALU] |574| 
    1690 0000025b 6F07          B         $C$L48,UNC            ; [CPU_ALU] |574| 
    1691                      ; branch occurs ; [] |574| 
    1692 0000025c       $C$L47:    
    1693                      .dwpsn  file "C:/ti/Workspace/PLC_certificate/Software/uCOS-II/Source/os_q.c",line 576,column 5,is_st
    1694 0000025c 9247          MOV       AL,*-SP[7]            ; [CPU_ALU] |576| 
    1695              $C$DW$112       .dwtag  DW_TAG_TI_branch
    1696                      .dwattr $C$DW$112, DW_AT_low_pc(0x00)
    1697                      .dwattr $C$DW$112, DW_AT_name("_OS_CPU_SR_Restore")
    1698                      .dwattr $C$DW$112, DW_AT_TI_call
    1699              
    1700 0000025d 7640!         LCR       #_OS_CPU_SR_Restore   ; [CPU_ALU] |576| 
         0000025e 0000 
    1701                      ; call occurs [#_OS_CPU_SR_Restore] ; [] |576| 
    1702                      .dwpsn  file "C:/ti/Workspace/PLC_certificate/Software/uCOS-II/Source/os_q.c",line 577,column 5,is_st
    1703 0000025f 8A44          MOVL      XAR4,*-SP[4]          ; [CPU_ALU] |577| 
    1704 00000260 2BC4          MOV       *+XAR4[0],#0          ; [CPU_ALU] |577| 
    1705                      .dwpsn  file "C:/ti/Workspace/PLC_certificate/Software/uCOS-II/Source/os_q.c",line 578,column 5,is_st
    1706 00000261 9A00          MOVB      AL,#0                 ; [CPU_ALU] |578| 
    1707 00000262       $C$L48:    
    1708                      .dwpsn  file "C:/ti/Workspace/PLC_certificate/Software/uCOS-II/Source/os_q.c",line 579,column 1,is_st
    1709 00000262 FE88          SUBB      SP,#8                 ; [CPU_ARAU] 
    1710                      .dwcfi  cfa_offset, -2
    1711              $C$DW$113       .dwtag  DW_TAG_TI_branch
    1712                      .dwattr $C$DW$113, DW_AT_low_pc(0x00)
    1713                      .dwattr $C$DW$113, DW_AT_TI_return
    1714              
    1715 00000263 0006          LRETR     ; [CPU_ALU] 
    1716                      ; return occurs ; [] 
    1717                      .dwattr $C$DW$98, DW_AT_TI_end_file("C:/ti/Workspace/PLC_certificate/Software/uCOS-II/Source/os_q.c")
    1718                      .dwattr $C$DW$98, DW_AT_TI_end_line(0x243)
    1719                      .dwattr $C$DW$98, DW_AT_TI_end_column(0x01)
    1720                      .dwendentry
    1721                      .dwendtag $C$DW$98
    1722              
    1723 00000264               .sect   ".text"
    1724                      .clink
    1725                      .global _OSQPost
    1726              
    1727              $C$DW$114       .dwtag  DW_TAG_subprogram
    1728                      .dwattr $C$DW$114, DW_AT_name("OSQPost")
    1729                      .dwattr $C$DW$114, DW_AT_low_pc(_OSQPost)
    1730                      .dwattr $C$DW$114, DW_AT_high_pc(0x00)
    1731                      .dwattr $C$DW$114, DW_AT_TI_symbol_name("_OSQPost")
    1732                      .dwattr $C$DW$114, DW_AT_external
    1733                      .dwattr $C$DW$114, DW_AT_type(*$C$DW$T$19)
    1734                      .dwattr $C$DW$114, DW_AT_TI_begin_file("C:/ti/Workspace/PLC_certificate/Software/uCOS-II/Source/os_q.
    1735                      .dwattr $C$DW$114, DW_AT_TI_begin_line(0x25b)
    1736                      .dwattr $C$DW$114, DW_AT_TI_begin_column(0x08)
    1737                      .dwattr $C$DW$114, DW_AT_TI_max_frame_size(-10)
    1738                      .dwpsn  file "C:/ti/Workspace/PLC_certificate/Software/uCOS-II/Source/os_q.c",line 605,column 1,is_st
    1739              
    1740                      .dwfde $C$DW$CIE, _OSQPost
TMS320C2000 Assembler PC v20.2.1 Mon Jan 11 16:45:38 2021

Copyright (c) 1996-2018 Texas Instruments Incorporated
os_q.asm                                                             PAGE   34

    1741              $C$DW$115       .dwtag  DW_TAG_formal_parameter
    1742                      .dwattr $C$DW$115, DW_AT_name("pevent")
    1743                      .dwattr $C$DW$115, DW_AT_TI_symbol_name("_pevent")
    1744                      .dwattr $C$DW$115, DW_AT_type(*$C$DW$T$36)
    1745                      .dwattr $C$DW$115, DW_AT_location[DW_OP_reg12]
    1746              
    1747              $C$DW$116       .dwtag  DW_TAG_formal_parameter
    1748                      .dwattr $C$DW$116, DW_AT_name("pmsg")
    1749                      .dwattr $C$DW$116, DW_AT_TI_symbol_name("_pmsg")
    1750                      .dwattr $C$DW$116, DW_AT_type(*$C$DW$T$3)
    1751                      .dwattr $C$DW$116, DW_AT_location[DW_OP_reg14]
    1752              
    1753              
    1754              ;***************************************************************
    1755              ;* FNAME: _OSQPost                      FR SIZE:   8           *
    1756              ;*                                                             *
    1757              ;* FUNCTION ENVIRONMENT                                        *
    1758              ;*                                                             *
    1759              ;* FUNCTION PROPERTIES                                         *
    1760              ;*                            0 Parameter,  7 Auto,  0 SOE     *
    1761              ;***************************************************************
    1762              
    1763 00000264       _OSQPost:
    1764                      .dwcfi  cfa_offset, -2
    1765                      .dwcfi  save_reg_to_mem, 26, 0
    1766 00000264 FE08          ADDB      SP,#8                 ; [CPU_ARAU] 
    1767                      .dwcfi  cfa_offset, -10
    1768              $C$DW$117       .dwtag  DW_TAG_variable
    1769                      .dwattr $C$DW$117, DW_AT_name("pevent")
    1770                      .dwattr $C$DW$117, DW_AT_TI_symbol_name("_pevent")
    1771                      .dwattr $C$DW$117, DW_AT_type(*$C$DW$T$36)
    1772                      .dwattr $C$DW$117, DW_AT_location[DW_OP_breg20 -2]
    1773              
    1774              $C$DW$118       .dwtag  DW_TAG_variable
    1775                      .dwattr $C$DW$118, DW_AT_name("pmsg")
    1776                      .dwattr $C$DW$118, DW_AT_TI_symbol_name("_pmsg")
    1777                      .dwattr $C$DW$118, DW_AT_type(*$C$DW$T$3)
    1778                      .dwattr $C$DW$118, DW_AT_location[DW_OP_breg20 -4]
    1779              
    1780              $C$DW$119       .dwtag  DW_TAG_variable
    1781                      .dwattr $C$DW$119, DW_AT_name("pq")
    1782                      .dwattr $C$DW$119, DW_AT_TI_symbol_name("_pq")
    1783                      .dwattr $C$DW$119, DW_AT_type(*$C$DW$T$75)
    1784                      .dwattr $C$DW$119, DW_AT_location[DW_OP_breg20 -6]
    1785              
    1786              $C$DW$120       .dwtag  DW_TAG_variable
    1787                      .dwattr $C$DW$120, DW_AT_name("cpu_sr")
    1788                      .dwattr $C$DW$120, DW_AT_TI_symbol_name("_cpu_sr")
    1789                      .dwattr $C$DW$120, DW_AT_type(*$C$DW$T$44)
    1790                      .dwattr $C$DW$120, DW_AT_location[DW_OP_breg20 -7]
    1791              
    1792 00000265 A044          MOVL      *-SP[4],XAR5          ; [CPU_ALU] |605| 
    1793 00000266 A842          MOVL      *-SP[2],XAR4          ; [CPU_ALU] |605| 
    1794                      .dwpsn  file "C:/ti/Workspace/PLC_certificate/Software/uCOS-II/Source/os_q.c",line 608,column 23,is_s
    1795 00000267 2B47          MOV       *-SP[7],#0            ; [CPU_ALU] |608| 
TMS320C2000 Assembler PC v20.2.1 Mon Jan 11 16:45:38 2021

Copyright (c) 1996-2018 Texas Instruments Incorporated
os_q.asm                                                             PAGE   35

    1796                      .dwpsn  file "C:/ti/Workspace/PLC_certificate/Software/uCOS-II/Source/os_q.c",line 614,column 5,is_st
    1797 00000268 0642          MOVL      ACC,*-SP[2]           ; [CPU_ALU] |614| 
    1798 00000269 6003          B         $C$L49,NEQ            ; [CPU_ALU] |614| 
    1799                      ; branchcc occurs ; [] |614| 
    1800                      .dwpsn  file "C:/ti/Workspace/PLC_certificate/Software/uCOS-II/Source/os_q.c",line 615,column 9,is_st
    1801 0000026a 9A04          MOVB      AL,#4                 ; [CPU_ALU] |615| 
    1802 0000026b 6F3E          B         $C$L54,UNC            ; [CPU_ALU] |615| 
    1803                      ; branch occurs ; [] |615| 
    1804 0000026c       $C$L49:    
    1805                      .dwpsn  file "C:/ti/Workspace/PLC_certificate/Software/uCOS-II/Source/os_q.c",line 618,column 5,is_st
    1806 0000026c 92C4          MOV       AL,*+XAR4[0]          ; [CPU_ALU] |618| 
    1807 0000026d 5202          CMPB      AL,#2                 ; [CPU_ALU] |618| 
    1808 0000026e 6103          B         $C$L50,EQ             ; [CPU_ALU] |618| 
    1809                      ; branchcc occurs ; [] |618| 
    1810                      .dwpsn  file "C:/ti/Workspace/PLC_certificate/Software/uCOS-II/Source/os_q.c",line 619,column 9,is_st
    1811 0000026f 9A01          MOVB      AL,#1                 ; [CPU_ALU] |619| 
    1812 00000270 6F39          B         $C$L54,UNC            ; [CPU_ALU] |619| 
    1813                      ; branch occurs ; [] |619| 
    1814 00000271       $C$L50:    
    1815                      .dwpsn  file "C:/ti/Workspace/PLC_certificate/Software/uCOS-II/Source/os_q.c",line 621,column 5,is_st
    1816              $C$DW$121       .dwtag  DW_TAG_TI_branch
    1817                      .dwattr $C$DW$121, DW_AT_low_pc(0x00)
    1818                      .dwattr $C$DW$121, DW_AT_name("_OS_CPU_SR_Save")
    1819                      .dwattr $C$DW$121, DW_AT_TI_call
    1820              
    1821 00000271 7640!         LCR       #_OS_CPU_SR_Save      ; [CPU_ALU] |621| 
         00000272 0000 
    1822                      ; call occurs [#_OS_CPU_SR_Save] ; [] |621| 
    1823 00000273 9647          MOV       *-SP[7],AL            ; [CPU_ALU] |621| 
    1824                      .dwpsn  file "C:/ti/Workspace/PLC_certificate/Software/uCOS-II/Source/os_q.c",line 622,column 5,is_st
    1825 00000274 8A42          MOVL      XAR4,*-SP[2]          ; [CPU_ALU] |622| 
    1826 00000275 92EC          MOV       AL,*+XAR4[5]          ; [CPU_ALU] |622| 
    1827 00000276 610D          B         $C$L51,EQ             ; [CPU_ALU] |622| 
    1828                      ; branchcc occurs ; [] |622| 
    1829                      .dwpsn  file "C:/ti/Workspace/PLC_certificate/Software/uCOS-II/Source/os_q.c",line 624,column 9,is_st
    1830 00000277 8344          MOVL      XAR5,*-SP[4]          ; [CPU_ALU] |624| 
    1831 00000278 9A04          MOVB      AL,#4                 ; [CPU_ALU] |624| 
    1832 00000279 9B00          MOVB      AH,#0                 ; [CPU_ALU] |624| 
    1833              $C$DW$122       .dwtag  DW_TAG_TI_branch
    1834                      .dwattr $C$DW$122, DW_AT_low_pc(0x00)
    1835                      .dwattr $C$DW$122, DW_AT_name("_OS_EventTaskRdy")
    1836                      .dwattr $C$DW$122, DW_AT_TI_call
    1837              
    1838 0000027a 7640!         LCR       #_OS_EventTaskRdy     ; [CPU_ALU] |624| 
         0000027b 0000 
    1839                      ; call occurs [#_OS_EventTaskRdy] ; [] |624| 
    1840                      .dwpsn  file "C:/ti/Workspace/PLC_certificate/Software/uCOS-II/Source/os_q.c",line 625,column 9,is_st
    1841 0000027c 9247          MOV       AL,*-SP[7]            ; [CPU_ALU] |625| 
    1842              $C$DW$123       .dwtag  DW_TAG_TI_branch
    1843                      .dwattr $C$DW$123, DW_AT_low_pc(0x00)
    1844                      .dwattr $C$DW$123, DW_AT_name("_OS_CPU_SR_Restore")
    1845                      .dwattr $C$DW$123, DW_AT_TI_call
    1846              
    1847 0000027d 7640!         LCR       #_OS_CPU_SR_Restore   ; [CPU_ALU] |625| 
         0000027e 0000 
TMS320C2000 Assembler PC v20.2.1 Mon Jan 11 16:45:38 2021

Copyright (c) 1996-2018 Texas Instruments Incorporated
os_q.asm                                                             PAGE   36

    1848                      ; call occurs [#_OS_CPU_SR_Restore] ; [] |625| 
    1849                      .dwpsn  file "C:/ti/Workspace/PLC_certificate/Software/uCOS-II/Source/os_q.c",line 626,column 9,is_st
    1850              $C$DW$124       .dwtag  DW_TAG_TI_branch
    1851                      .dwattr $C$DW$124, DW_AT_low_pc(0x00)
    1852                      .dwattr $C$DW$124, DW_AT_name("_OS_Sched")
    1853                      .dwattr $C$DW$124, DW_AT_TI_call
    1854              
    1855 0000027f 7640!         LCR       #_OS_Sched            ; [CPU_ALU] |626| 
         00000280 0000 
    1856                      ; call occurs [#_OS_Sched] ; [] |626| 
    1857                      .dwpsn  file "C:/ti/Workspace/PLC_certificate/Software/uCOS-II/Source/os_q.c",line 627,column 9,is_st
    1858 00000281 9A00          MOVB      AL,#0                 ; [CPU_ALU] |627| 
    1859 00000282 6F27          B         $C$L54,UNC            ; [CPU_ALU] |627| 
    1860                      ; branch occurs ; [] |627| 
    1861 00000283       $C$L51:    
    1862                      .dwpsn  file "C:/ti/Workspace/PLC_certificate/Software/uCOS-II/Source/os_q.c",line 629,column 5,is_st
    1863 00000283 06D4          MOVL      ACC,*+XAR4[2]         ; [CPU_ALU] |629| 
    1864 00000284 1E46          MOVL      *-SP[6],ACC           ; [CPU_ALU] |629| 
    1865                      .dwpsn  file "C:/ti/Workspace/PLC_certificate/Software/uCOS-II/Source/os_q.c",line 630,column 5,is_st
    1866 00000285 020A          MOVB      ACC,#10               ; [CPU_ALU] |630| 
    1867 00000286 0746          ADDL      ACC,*-SP[6]           ; [CPU_ALU] |630| 
    1868 00000287 8AA9          MOVL      XAR4,ACC              ; [CPU_ALU] |630| 
    1869 00000288 88C4          MOVZ      AR6,*+XAR4[0]         ; [CPU_ALU] |630| 
    1870 00000289 020B          MOVB      ACC,#11               ; [CPU_ALU] |630| 
    1871 0000028a 0746          ADDL      ACC,*-SP[6]           ; [CPU_ALU] |630| 
    1872 0000028b 8AA9          MOVL      XAR4,ACC              ; [CPU_ALU] |630| 
    1873 0000028c 92A6          MOV       AL,AR6                ; [CPU_ALU] |630| 
    1874 0000028d 54C4          CMP       AL,*+XAR4[0]          ; [CPU_ALU] |630| 
    1875 0000028e 6606          B         $C$L52,HI             ; [CPU_ALU] |630| 
    1876                      ; branchcc occurs ; [] |630| 
    1877                      .dwpsn  file "C:/ti/Workspace/PLC_certificate/Software/uCOS-II/Source/os_q.c",line 631,column 9,is_st
    1878 0000028f 9247          MOV       AL,*-SP[7]            ; [CPU_ALU] |631| 
    1879              $C$DW$125       .dwtag  DW_TAG_TI_branch
    1880                      .dwattr $C$DW$125, DW_AT_low_pc(0x00)
    1881                      .dwattr $C$DW$125, DW_AT_name("_OS_CPU_SR_Restore")
    1882                      .dwattr $C$DW$125, DW_AT_TI_call
    1883              
    1884 00000290 7640!         LCR       #_OS_CPU_SR_Restore   ; [CPU_ALU] |631| 
         00000291 0000 
    1885                      ; call occurs [#_OS_CPU_SR_Restore] ; [] |631| 
    1886                      .dwpsn  file "C:/ti/Workspace/PLC_certificate/Software/uCOS-II/Source/os_q.c",line 632,column 9,is_st
    1887 00000292 9A1E          MOVB      AL,#30                ; [CPU_ALU] |632| 
    1888 00000293 6F16          B         $C$L54,UNC            ; [CPU_ALU] |632| 
    1889                      ; branch occurs ; [] |632| 
    1890 00000294       $C$L52:    
    1891                      .dwpsn  file "C:/ti/Workspace/PLC_certificate/Software/uCOS-II/Source/os_q.c",line 634,column 5,is_st
    1892 00000294 8A46          MOVL      XAR4,*-SP[6]          ; [CPU_ALU] |634| 
    1893 00000295 83F4          MOVL      XAR5,*+XAR4[6]        ; [CPU_ALU] |634| 
    1894 00000296 A0A9          MOVL      ACC,XAR5              ; [CPU_ALU] |634| 
    1895 00000297 0902          ADDB      ACC,#2                ; [CPU_ALU] |634| 
    1896 00000298 1EF4          MOVL      *+XAR4[6],ACC         ; [CPU_ALU] |634| 
    1897 00000299 0644          MOVL      ACC,*-SP[4]           ; [CPU_ALU] |634| 
    1898 0000029a 1EC5          MOVL      *+XAR5[0],ACC         ; [CPU_ALU] |634| 
    1899                      .dwpsn  file "C:/ti/Workspace/PLC_certificate/Software/uCOS-II/Source/os_q.c",line 635,column 5,is_st
    1900 0000029b 020B          MOVB      ACC,#11               ; [CPU_ALU] |635| 
TMS320C2000 Assembler PC v20.2.1 Mon Jan 11 16:45:38 2021

Copyright (c) 1996-2018 Texas Instruments Incorporated
os_q.asm                                                             PAGE   37

    1901 0000029c 0746          ADDL      ACC,*-SP[6]           ; [CPU_ALU] |635| 
    1902 0000029d 8AA9          MOVL      XAR4,ACC              ; [CPU_ALU] |635| 
    1903 0000029e 0AC4          INC       *+XAR4[0]             ; [CPU_ALU] |635| 
    1904                      .dwpsn  file "C:/ti/Workspace/PLC_certificate/Software/uCOS-II/Source/os_q.c",line 636,column 5,is_st
    1905 0000029f 8A46          MOVL      XAR4,*-SP[6]          ; [CPU_ALU] |636| 
    1906 000002a0 06E4          MOVL      ACC,*+XAR4[4]         ; [CPU_ALU] |636| 
    1907 000002a1 0FF4          CMPL      ACC,*+XAR4[6]         ; [CPU_ALU] |636| 
    1908 000002a2 6003          B         $C$L53,NEQ            ; [CPU_ALU] |636| 
    1909                      ; branchcc occurs ; [] |636| 
    1910                      .dwpsn  file "C:/ti/Workspace/PLC_certificate/Software/uCOS-II/Source/os_q.c",line 637,column 9,is_st
    1911 000002a3 06D4          MOVL      ACC,*+XAR4[2]         ; [CPU_ALU] |637| 
    1912 000002a4 1EF4          MOVL      *+XAR4[6],ACC         ; [CPU_ALU] |637| 
    1913 000002a5       $C$L53:    
    1914                      .dwpsn  file "C:/ti/Workspace/PLC_certificate/Software/uCOS-II/Source/os_q.c",line 639,column 5,is_st
    1915 000002a5 9247          MOV       AL,*-SP[7]            ; [CPU_ALU] |639| 
    1916              $C$DW$126       .dwtag  DW_TAG_TI_branch
    1917                      .dwattr $C$DW$126, DW_AT_low_pc(0x00)
    1918                      .dwattr $C$DW$126, DW_AT_name("_OS_CPU_SR_Restore")
    1919                      .dwattr $C$DW$126, DW_AT_TI_call
    1920              
    1921 000002a6 7640!         LCR       #_OS_CPU_SR_Restore   ; [CPU_ALU] |639| 
         000002a7 0000 
    1922                      ; call occurs [#_OS_CPU_SR_Restore] ; [] |639| 
    1923                      .dwpsn  file "C:/ti/Workspace/PLC_certificate/Software/uCOS-II/Source/os_q.c",line 640,column 5,is_st
    1924 000002a8 9A00          MOVB      AL,#0                 ; [CPU_ALU] |640| 
    1925 000002a9       $C$L54:    
    1926                      .dwpsn  file "C:/ti/Workspace/PLC_certificate/Software/uCOS-II/Source/os_q.c",line 641,column 1,is_st
    1927 000002a9 FE88          SUBB      SP,#8                 ; [CPU_ARAU] 
    1928                      .dwcfi  cfa_offset, -2
    1929              $C$DW$127       .dwtag  DW_TAG_TI_branch
    1930                      .dwattr $C$DW$127, DW_AT_low_pc(0x00)
    1931                      .dwattr $C$DW$127, DW_AT_TI_return
    1932              
    1933 000002aa 0006          LRETR     ; [CPU_ALU] 
    1934                      ; return occurs ; [] 
    1935                      .dwattr $C$DW$114, DW_AT_TI_end_file("C:/ti/Workspace/PLC_certificate/Software/uCOS-II/Source/os_q.c"
    1936                      .dwattr $C$DW$114, DW_AT_TI_end_line(0x281)
    1937                      .dwattr $C$DW$114, DW_AT_TI_end_column(0x01)
    1938                      .dwendentry
    1939                      .dwendtag $C$DW$114
    1940              
    1941 000002ab               .sect   ".text"
    1942                      .clink
    1943                      .global _OSQPostFront
    1944              
    1945              $C$DW$128       .dwtag  DW_TAG_subprogram
    1946                      .dwattr $C$DW$128, DW_AT_name("OSQPostFront")
    1947                      .dwattr $C$DW$128, DW_AT_low_pc(_OSQPostFront)
    1948                      .dwattr $C$DW$128, DW_AT_high_pc(0x00)
    1949                      .dwattr $C$DW$128, DW_AT_TI_symbol_name("_OSQPostFront")
    1950                      .dwattr $C$DW$128, DW_AT_external
    1951                      .dwattr $C$DW$128, DW_AT_type(*$C$DW$T$19)
    1952                      .dwattr $C$DW$128, DW_AT_TI_begin_file("C:/ti/Workspace/PLC_certificate/Software/uCOS-II/Source/os_q.
    1953                      .dwattr $C$DW$128, DW_AT_TI_begin_line(0x29a)
    1954                      .dwattr $C$DW$128, DW_AT_TI_begin_column(0x08)
TMS320C2000 Assembler PC v20.2.1 Mon Jan 11 16:45:38 2021

Copyright (c) 1996-2018 Texas Instruments Incorporated
os_q.asm                                                             PAGE   38

    1955                      .dwattr $C$DW$128, DW_AT_TI_max_frame_size(-10)
    1956                      .dwpsn  file "C:/ti/Workspace/PLC_certificate/Software/uCOS-II/Source/os_q.c",line 668,column 1,is_st
    1957              
    1958                      .dwfde $C$DW$CIE, _OSQPostFront
    1959              $C$DW$129       .dwtag  DW_TAG_formal_parameter
    1960                      .dwattr $C$DW$129, DW_AT_name("pevent")
    1961                      .dwattr $C$DW$129, DW_AT_TI_symbol_name("_pevent")
    1962                      .dwattr $C$DW$129, DW_AT_type(*$C$DW$T$36)
    1963                      .dwattr $C$DW$129, DW_AT_location[DW_OP_reg12]
    1964              
    1965              $C$DW$130       .dwtag  DW_TAG_formal_parameter
    1966                      .dwattr $C$DW$130, DW_AT_name("pmsg")
    1967                      .dwattr $C$DW$130, DW_AT_TI_symbol_name("_pmsg")
    1968                      .dwattr $C$DW$130, DW_AT_type(*$C$DW$T$3)
    1969                      .dwattr $C$DW$130, DW_AT_location[DW_OP_reg14]
    1970              
    1971              
    1972              ;***************************************************************
    1973              ;* FNAME: _OSQPostFront                 FR SIZE:   8           *
    1974              ;*                                                             *
    1975              ;* FUNCTION ENVIRONMENT                                        *
    1976              ;*                                                             *
    1977              ;* FUNCTION PROPERTIES                                         *
    1978              ;*                            0 Parameter,  7 Auto,  0 SOE     *
    1979              ;***************************************************************
    1980              
    1981 000002ab       _OSQPostFront:
    1982                      .dwcfi  cfa_offset, -2
    1983                      .dwcfi  save_reg_to_mem, 26, 0
    1984 000002ab FE08          ADDB      SP,#8                 ; [CPU_ARAU] 
    1985                      .dwcfi  cfa_offset, -10
    1986              $C$DW$131       .dwtag  DW_TAG_variable
    1987                      .dwattr $C$DW$131, DW_AT_name("pevent")
    1988                      .dwattr $C$DW$131, DW_AT_TI_symbol_name("_pevent")
    1989                      .dwattr $C$DW$131, DW_AT_type(*$C$DW$T$36)
    1990                      .dwattr $C$DW$131, DW_AT_location[DW_OP_breg20 -2]
    1991              
    1992              $C$DW$132       .dwtag  DW_TAG_variable
    1993                      .dwattr $C$DW$132, DW_AT_name("pmsg")
    1994                      .dwattr $C$DW$132, DW_AT_TI_symbol_name("_pmsg")
    1995                      .dwattr $C$DW$132, DW_AT_type(*$C$DW$T$3)
    1996                      .dwattr $C$DW$132, DW_AT_location[DW_OP_breg20 -4]
    1997              
    1998              $C$DW$133       .dwtag  DW_TAG_variable
    1999                      .dwattr $C$DW$133, DW_AT_name("pq")
    2000                      .dwattr $C$DW$133, DW_AT_TI_symbol_name("_pq")
    2001                      .dwattr $C$DW$133, DW_AT_type(*$C$DW$T$75)
    2002                      .dwattr $C$DW$133, DW_AT_location[DW_OP_breg20 -6]
    2003              
    2004              $C$DW$134       .dwtag  DW_TAG_variable
    2005                      .dwattr $C$DW$134, DW_AT_name("cpu_sr")
    2006                      .dwattr $C$DW$134, DW_AT_TI_symbol_name("_cpu_sr")
    2007                      .dwattr $C$DW$134, DW_AT_type(*$C$DW$T$44)
    2008                      .dwattr $C$DW$134, DW_AT_location[DW_OP_breg20 -7]
    2009              
TMS320C2000 Assembler PC v20.2.1 Mon Jan 11 16:45:38 2021

Copyright (c) 1996-2018 Texas Instruments Incorporated
os_q.asm                                                             PAGE   39

    2010 000002ac A044          MOVL      *-SP[4],XAR5          ; [CPU_ALU] |668| 
    2011 000002ad A842          MOVL      *-SP[2],XAR4          ; [CPU_ALU] |668| 
    2012                      .dwpsn  file "C:/ti/Workspace/PLC_certificate/Software/uCOS-II/Source/os_q.c",line 671,column 23,is_s
    2013 000002ae 2B47          MOV       *-SP[7],#0            ; [CPU_ALU] |671| 
    2014                      .dwpsn  file "C:/ti/Workspace/PLC_certificate/Software/uCOS-II/Source/os_q.c",line 677,column 5,is_st
    2015 000002af 0642          MOVL      ACC,*-SP[2]           ; [CPU_ALU] |677| 
    2016 000002b0 6003          B         $C$L55,NEQ            ; [CPU_ALU] |677| 
    2017                      ; branchcc occurs ; [] |677| 
    2018                      .dwpsn  file "C:/ti/Workspace/PLC_certificate/Software/uCOS-II/Source/os_q.c",line 678,column 9,is_st
    2019 000002b1 9A04          MOVB      AL,#4                 ; [CPU_ALU] |678| 
    2020 000002b2 6F4B          B         $C$L60,UNC            ; [CPU_ALU] |678| 
    2021                      ; branch occurs ; [] |678| 
    2022 000002b3       $C$L55:    
    2023                      .dwpsn  file "C:/ti/Workspace/PLC_certificate/Software/uCOS-II/Source/os_q.c",line 681,column 5,is_st
    2024 000002b3 92C4          MOV       AL,*+XAR4[0]          ; [CPU_ALU] |681| 
    2025 000002b4 5202          CMPB      AL,#2                 ; [CPU_ALU] |681| 
    2026 000002b5 6103          B         $C$L56,EQ             ; [CPU_ALU] |681| 
    2027                      ; branchcc occurs ; [] |681| 
    2028                      .dwpsn  file "C:/ti/Workspace/PLC_certificate/Software/uCOS-II/Source/os_q.c",line 682,column 9,is_st
    2029 000002b6 9A01          MOVB      AL,#1                 ; [CPU_ALU] |682| 
    2030 000002b7 6F46          B         $C$L60,UNC            ; [CPU_ALU] |682| 
    2031                      ; branch occurs ; [] |682| 
    2032 000002b8       $C$L56:    
    2033                      .dwpsn  file "C:/ti/Workspace/PLC_certificate/Software/uCOS-II/Source/os_q.c",line 684,column 5,is_st
    2034              $C$DW$135       .dwtag  DW_TAG_TI_branch
    2035                      .dwattr $C$DW$135, DW_AT_low_pc(0x00)
    2036                      .dwattr $C$DW$135, DW_AT_name("_OS_CPU_SR_Save")
    2037                      .dwattr $C$DW$135, DW_AT_TI_call
    2038              
    2039 000002b8 7640!         LCR       #_OS_CPU_SR_Save      ; [CPU_ALU] |684| 
         000002b9 0000 
    2040                      ; call occurs [#_OS_CPU_SR_Save] ; [] |684| 
    2041 000002ba 9647          MOV       *-SP[7],AL            ; [CPU_ALU] |684| 
    2042                      .dwpsn  file "C:/ti/Workspace/PLC_certificate/Software/uCOS-II/Source/os_q.c",line 685,column 5,is_st
    2043 000002bb 8A42          MOVL      XAR4,*-SP[2]          ; [CPU_ALU] |685| 
    2044 000002bc 92EC          MOV       AL,*+XAR4[5]          ; [CPU_ALU] |685| 
    2045 000002bd 610D          B         $C$L57,EQ             ; [CPU_ALU] |685| 
    2046                      ; branchcc occurs ; [] |685| 
    2047                      .dwpsn  file "C:/ti/Workspace/PLC_certificate/Software/uCOS-II/Source/os_q.c",line 687,column 9,is_st
    2048 000002be 8344          MOVL      XAR5,*-SP[4]          ; [CPU_ALU] |687| 
    2049 000002bf 9A04          MOVB      AL,#4                 ; [CPU_ALU] |687| 
    2050 000002c0 9B00          MOVB      AH,#0                 ; [CPU_ALU] |687| 
    2051              $C$DW$136       .dwtag  DW_TAG_TI_branch
    2052                      .dwattr $C$DW$136, DW_AT_low_pc(0x00)
    2053                      .dwattr $C$DW$136, DW_AT_name("_OS_EventTaskRdy")
    2054                      .dwattr $C$DW$136, DW_AT_TI_call
    2055              
    2056 000002c1 7640!         LCR       #_OS_EventTaskRdy     ; [CPU_ALU] |687| 
         000002c2 0000 
    2057                      ; call occurs [#_OS_EventTaskRdy] ; [] |687| 
    2058                      .dwpsn  file "C:/ti/Workspace/PLC_certificate/Software/uCOS-II/Source/os_q.c",line 688,column 9,is_st
    2059 000002c3 9247          MOV       AL,*-SP[7]            ; [CPU_ALU] |688| 
    2060              $C$DW$137       .dwtag  DW_TAG_TI_branch
    2061                      .dwattr $C$DW$137, DW_AT_low_pc(0x00)
    2062                      .dwattr $C$DW$137, DW_AT_name("_OS_CPU_SR_Restore")
TMS320C2000 Assembler PC v20.2.1 Mon Jan 11 16:45:38 2021

Copyright (c) 1996-2018 Texas Instruments Incorporated
os_q.asm                                                             PAGE   40

    2063                      .dwattr $C$DW$137, DW_AT_TI_call
    2064              
    2065 000002c4 7640!         LCR       #_OS_CPU_SR_Restore   ; [CPU_ALU] |688| 
         000002c5 0000 
    2066                      ; call occurs [#_OS_CPU_SR_Restore] ; [] |688| 
    2067                      .dwpsn  file "C:/ti/Workspace/PLC_certificate/Software/uCOS-II/Source/os_q.c",line 689,column 9,is_st
    2068              $C$DW$138       .dwtag  DW_TAG_TI_branch
    2069                      .dwattr $C$DW$138, DW_AT_low_pc(0x00)
    2070                      .dwattr $C$DW$138, DW_AT_name("_OS_Sched")
    2071                      .dwattr $C$DW$138, DW_AT_TI_call
    2072              
    2073 000002c6 7640!         LCR       #_OS_Sched            ; [CPU_ALU] |689| 
         000002c7 0000 
    2074                      ; call occurs [#_OS_Sched] ; [] |689| 
    2075                      .dwpsn  file "C:/ti/Workspace/PLC_certificate/Software/uCOS-II/Source/os_q.c",line 690,column 9,is_st
    2076 000002c8 9A00          MOVB      AL,#0                 ; [CPU_ALU] |690| 
    2077 000002c9 6F34          B         $C$L60,UNC            ; [CPU_ALU] |690| 
    2078                      ; branch occurs ; [] |690| 
    2079 000002ca       $C$L57:    
    2080                      .dwpsn  file "C:/ti/Workspace/PLC_certificate/Software/uCOS-II/Source/os_q.c",line 692,column 5,is_st
    2081 000002ca 06D4          MOVL      ACC,*+XAR4[2]         ; [CPU_ALU] |692| 
    2082 000002cb 1E46          MOVL      *-SP[6],ACC           ; [CPU_ALU] |692| 
    2083                      .dwpsn  file "C:/ti/Workspace/PLC_certificate/Software/uCOS-II/Source/os_q.c",line 693,column 5,is_st
    2084 000002cc 020A          MOVB      ACC,#10               ; [CPU_ALU] |693| 
    2085 000002cd 0746          ADDL      ACC,*-SP[6]           ; [CPU_ALU] |693| 
    2086 000002ce 8AA9          MOVL      XAR4,ACC              ; [CPU_ALU] |693| 
    2087 000002cf 88C4          MOVZ      AR6,*+XAR4[0]         ; [CPU_ALU] |693| 
    2088 000002d0 020B          MOVB      ACC,#11               ; [CPU_ALU] |693| 
    2089 000002d1 0746          ADDL      ACC,*-SP[6]           ; [CPU_ALU] |693| 
    2090 000002d2 8AA9          MOVL      XAR4,ACC              ; [CPU_ALU] |693| 
    2091 000002d3 92A6          MOV       AL,AR6                ; [CPU_ALU] |693| 
    2092 000002d4 54C4          CMP       AL,*+XAR4[0]          ; [CPU_ALU] |693| 
    2093 000002d5 6606          B         $C$L58,HI             ; [CPU_ALU] |693| 
    2094                      ; branchcc occurs ; [] |693| 
    2095                      .dwpsn  file "C:/ti/Workspace/PLC_certificate/Software/uCOS-II/Source/os_q.c",line 694,column 9,is_st
    2096 000002d6 9247          MOV       AL,*-SP[7]            ; [CPU_ALU] |694| 
    2097              $C$DW$139       .dwtag  DW_TAG_TI_branch
    2098                      .dwattr $C$DW$139, DW_AT_low_pc(0x00)
    2099                      .dwattr $C$DW$139, DW_AT_name("_OS_CPU_SR_Restore")
    2100                      .dwattr $C$DW$139, DW_AT_TI_call
    2101              
    2102 000002d7 7640!         LCR       #_OS_CPU_SR_Restore   ; [CPU_ALU] |694| 
         000002d8 0000 
    2103                      ; call occurs [#_OS_CPU_SR_Restore] ; [] |694| 
    2104                      .dwpsn  file "C:/ti/Workspace/PLC_certificate/Software/uCOS-II/Source/os_q.c",line 695,column 9,is_st
    2105 000002d9 9A1E          MOVB      AL,#30                ; [CPU_ALU] |695| 
    2106 000002da 6F23          B         $C$L60,UNC            ; [CPU_ALU] |695| 
    2107                      ; branch occurs ; [] |695| 
    2108 000002db       $C$L58:    
    2109                      .dwpsn  file "C:/ti/Workspace/PLC_certificate/Software/uCOS-II/Source/os_q.c",line 697,column 5,is_st
    2110 000002db 8A46          MOVL      XAR4,*-SP[6]          ; [CPU_ALU] |697| 
    2111 000002dc C4D4          MOVL      XAR6,*+XAR4[2]        ; [CPU_ALU] |697| 
    2112 000002dd 0208          MOVB      ACC,#8                ; [CPU_ALU] |697| 
    2113 000002de 0746          ADDL      ACC,*-SP[6]           ; [CPU_ALU] |697| 
    2114 000002df 8AA9          MOVL      XAR4,ACC              ; [CPU_ALU] |697| 
TMS320C2000 Assembler PC v20.2.1 Mon Jan 11 16:45:38 2021

Copyright (c) 1996-2018 Texas Instruments Incorporated
os_q.asm                                                             PAGE   41

    2115 000002e0 06A6          MOVL      ACC,XAR6              ; [CPU_ALU] |697| 
    2116 000002e1 0FC4          CMPL      ACC,*+XAR4[0]         ; [CPU_ALU] |697| 
    2117 000002e2 6007          B         $C$L59,NEQ            ; [CPU_ALU] |697| 
    2118                      ; branchcc occurs ; [] |697| 
    2119                      .dwpsn  file "C:/ti/Workspace/PLC_certificate/Software/uCOS-II/Source/os_q.c",line 698,column 9,is_st
    2120 000002e3 8A46          MOVL      XAR4,*-SP[6]          ; [CPU_ALU] |698| 
    2121 000002e4 C4E4          MOVL      XAR6,*+XAR4[4]        ; [CPU_ALU] |698| 
    2122 000002e5 0208          MOVB      ACC,#8                ; [CPU_ALU] |698| 
    2123 000002e6 0746          ADDL      ACC,*-SP[6]           ; [CPU_ALU] |698| 
    2124 000002e7 8AA9          MOVL      XAR4,ACC              ; [CPU_ALU] |698| 
    2125 000002e8 C2C4          MOVL      *+XAR4[0],XAR6        ; [CPU_ALU] |698| 
    2126 000002e9       $C$L59:    
    2127                      .dwpsn  file "C:/ti/Workspace/PLC_certificate/Software/uCOS-II/Source/os_q.c",line 700,column 5,is_st
    2128 000002e9 0208          MOVB      ACC,#8                ; [CPU_ALU] |700| 
    2129 000002ea 0746          ADDL      ACC,*-SP[6]           ; [CPU_ALU] |700| 
    2130 000002eb 8AA9          MOVL      XAR4,ACC              ; [CPU_ALU] |700| 
    2131 000002ec 0202          MOVB      ACC,#2                ; [CPU_ALU] |700| 
    2132 000002ed 5641          SUBL      *+XAR4[0],ACC         ; [CPU_ALU] |700| 
         000002ee 00C4 
    2133                      .dwpsn  file "C:/ti/Workspace/PLC_certificate/Software/uCOS-II/Source/os_q.c",line 701,column 5,is_st
    2134 000002ef 0208          MOVB      ACC,#8                ; [CPU_ALU] |701| 
    2135 000002f0 0746          ADDL      ACC,*-SP[6]           ; [CPU_ALU] |701| 
    2136 000002f1 8AA9          MOVL      XAR4,ACC              ; [CPU_ALU] |701| 
    2137 000002f2 C444          MOVL      XAR6,*-SP[4]          ; [CPU_ALU] |701| 
    2138 000002f3 8AC4          MOVL      XAR4,*+XAR4[0]        ; [CPU_ALU] |701| 
    2139 000002f4 C2C4          MOVL      *+XAR4[0],XAR6        ; [CPU_ALU] |701| 
    2140                      .dwpsn  file "C:/ti/Workspace/PLC_certificate/Software/uCOS-II/Source/os_q.c",line 702,column 5,is_st
    2141 000002f5 020B          MOVB      ACC,#11               ; [CPU_ALU] |702| 
    2142 000002f6 0746          ADDL      ACC,*-SP[6]           ; [CPU_ALU] |702| 
    2143 000002f7 8AA9          MOVL      XAR4,ACC              ; [CPU_ALU] |702| 
    2144 000002f8 0AC4          INC       *+XAR4[0]             ; [CPU_ALU] |702| 
    2145                      .dwpsn  file "C:/ti/Workspace/PLC_certificate/Software/uCOS-II/Source/os_q.c",line 703,column 5,is_st
    2146 000002f9 9247          MOV       AL,*-SP[7]            ; [CPU_ALU] |703| 
    2147              $C$DW$140       .dwtag  DW_TAG_TI_branch
    2148                      .dwattr $C$DW$140, DW_AT_low_pc(0x00)
    2149                      .dwattr $C$DW$140, DW_AT_name("_OS_CPU_SR_Restore")
    2150                      .dwattr $C$DW$140, DW_AT_TI_call
    2151              
    2152 000002fa 7640!         LCR       #_OS_CPU_SR_Restore   ; [CPU_ALU] |703| 
         000002fb 0000 
    2153                      ; call occurs [#_OS_CPU_SR_Restore] ; [] |703| 
    2154                      .dwpsn  file "C:/ti/Workspace/PLC_certificate/Software/uCOS-II/Source/os_q.c",line 704,column 5,is_st
    2155 000002fc 9A00          MOVB      AL,#0                 ; [CPU_ALU] |704| 
    2156 000002fd       $C$L60:    
    2157                      .dwpsn  file "C:/ti/Workspace/PLC_certificate/Software/uCOS-II/Source/os_q.c",line 705,column 1,is_st
    2158 000002fd FE88          SUBB      SP,#8                 ; [CPU_ARAU] 
    2159                      .dwcfi  cfa_offset, -2
    2160              $C$DW$141       .dwtag  DW_TAG_TI_branch
    2161                      .dwattr $C$DW$141, DW_AT_low_pc(0x00)
    2162                      .dwattr $C$DW$141, DW_AT_TI_return
    2163              
    2164 000002fe 0006          LRETR     ; [CPU_ALU] 
    2165                      ; return occurs ; [] 
    2166                      .dwattr $C$DW$128, DW_AT_TI_end_file("C:/ti/Workspace/PLC_certificate/Software/uCOS-II/Source/os_q.c"
    2167                      .dwattr $C$DW$128, DW_AT_TI_end_line(0x2c1)
TMS320C2000 Assembler PC v20.2.1 Mon Jan 11 16:45:38 2021

Copyright (c) 1996-2018 Texas Instruments Incorporated
os_q.asm                                                             PAGE   42

    2168                      .dwattr $C$DW$128, DW_AT_TI_end_column(0x01)
    2169                      .dwendentry
    2170                      .dwendtag $C$DW$128
    2171              
    2172 000002ff               .sect   ".text"
    2173                      .clink
    2174                      .global _OSQPostOpt
    2175              
    2176              $C$DW$142       .dwtag  DW_TAG_subprogram
    2177                      .dwattr $C$DW$142, DW_AT_name("OSQPostOpt")
    2178                      .dwattr $C$DW$142, DW_AT_low_pc(_OSQPostOpt)
    2179                      .dwattr $C$DW$142, DW_AT_high_pc(0x00)
    2180                      .dwattr $C$DW$142, DW_AT_TI_symbol_name("_OSQPostOpt")
    2181                      .dwattr $C$DW$142, DW_AT_external
    2182                      .dwattr $C$DW$142, DW_AT_type(*$C$DW$T$19)
    2183                      .dwattr $C$DW$142, DW_AT_TI_begin_file("C:/ti/Workspace/PLC_certificate/Software/uCOS-II/Source/os_q.
    2184                      .dwattr $C$DW$142, DW_AT_TI_begin_line(0x2e2)
    2185                      .dwattr $C$DW$142, DW_AT_TI_begin_column(0x08)
    2186                      .dwattr $C$DW$142, DW_AT_TI_max_frame_size(-10)
    2187                      .dwpsn  file "C:/ti/Workspace/PLC_certificate/Software/uCOS-II/Source/os_q.c",line 741,column 1,is_st
    2188              
    2189                      .dwfde $C$DW$CIE, _OSQPostOpt
    2190              $C$DW$143       .dwtag  DW_TAG_formal_parameter
    2191                      .dwattr $C$DW$143, DW_AT_name("pevent")
    2192                      .dwattr $C$DW$143, DW_AT_TI_symbol_name("_pevent")
    2193                      .dwattr $C$DW$143, DW_AT_type(*$C$DW$T$36)
    2194                      .dwattr $C$DW$143, DW_AT_location[DW_OP_reg12]
    2195              
    2196              $C$DW$144       .dwtag  DW_TAG_formal_parameter
    2197                      .dwattr $C$DW$144, DW_AT_name("pmsg")
    2198                      .dwattr $C$DW$144, DW_AT_TI_symbol_name("_pmsg")
    2199                      .dwattr $C$DW$144, DW_AT_type(*$C$DW$T$3)
    2200                      .dwattr $C$DW$144, DW_AT_location[DW_OP_reg14]
    2201              
    2202              $C$DW$145       .dwtag  DW_TAG_formal_parameter
    2203                      .dwattr $C$DW$145, DW_AT_name("opt")
    2204                      .dwattr $C$DW$145, DW_AT_TI_symbol_name("_opt")
    2205                      .dwattr $C$DW$145, DW_AT_type(*$C$DW$T$19)
    2206                      .dwattr $C$DW$145, DW_AT_location[DW_OP_reg0]
    2207              
    2208              
    2209              ;***************************************************************
    2210              ;* FNAME: _OSQPostOpt                   FR SIZE:   8           *
    2211              ;*                                                             *
    2212              ;* FUNCTION ENVIRONMENT                                        *
    2213              ;*                                                             *
    2214              ;* FUNCTION PROPERTIES                                         *
    2215              ;*                            0 Parameter,  8 Auto,  0 SOE     *
    2216              ;***************************************************************
    2217              
    2218 000002ff       _OSQPostOpt:
    2219                      .dwcfi  cfa_offset, -2
    2220                      .dwcfi  save_reg_to_mem, 26, 0
    2221 000002ff FE08          ADDB      SP,#8                 ; [CPU_ARAU] 
    2222                      .dwcfi  cfa_offset, -10
TMS320C2000 Assembler PC v20.2.1 Mon Jan 11 16:45:38 2021

Copyright (c) 1996-2018 Texas Instruments Incorporated
os_q.asm                                                             PAGE   43

    2223              $C$DW$146       .dwtag  DW_TAG_variable
    2224                      .dwattr $C$DW$146, DW_AT_name("pevent")
    2225                      .dwattr $C$DW$146, DW_AT_TI_symbol_name("_pevent")
    2226                      .dwattr $C$DW$146, DW_AT_type(*$C$DW$T$36)
    2227                      .dwattr $C$DW$146, DW_AT_location[DW_OP_breg20 -2]
    2228              
    2229              $C$DW$147       .dwtag  DW_TAG_variable
    2230                      .dwattr $C$DW$147, DW_AT_name("pmsg")
    2231                      .dwattr $C$DW$147, DW_AT_TI_symbol_name("_pmsg")
    2232                      .dwattr $C$DW$147, DW_AT_type(*$C$DW$T$3)
    2233                      .dwattr $C$DW$147, DW_AT_location[DW_OP_breg20 -4]
    2234              
    2235              $C$DW$148       .dwtag  DW_TAG_variable
    2236                      .dwattr $C$DW$148, DW_AT_name("pq")
    2237                      .dwattr $C$DW$148, DW_AT_TI_symbol_name("_pq")
    2238                      .dwattr $C$DW$148, DW_AT_type(*$C$DW$T$75)
    2239                      .dwattr $C$DW$148, DW_AT_location[DW_OP_breg20 -6]
    2240              
    2241              $C$DW$149       .dwtag  DW_TAG_variable
    2242                      .dwattr $C$DW$149, DW_AT_name("opt")
    2243                      .dwattr $C$DW$149, DW_AT_TI_symbol_name("_opt")
    2244                      .dwattr $C$DW$149, DW_AT_type(*$C$DW$T$19)
    2245                      .dwattr $C$DW$149, DW_AT_location[DW_OP_breg20 -7]
    2246              
    2247              $C$DW$150       .dwtag  DW_TAG_variable
    2248                      .dwattr $C$DW$150, DW_AT_name("cpu_sr")
    2249                      .dwattr $C$DW$150, DW_AT_TI_symbol_name("_cpu_sr")
    2250                      .dwattr $C$DW$150, DW_AT_type(*$C$DW$T$44)
    2251                      .dwattr $C$DW$150, DW_AT_location[DW_OP_breg20 -8]
    2252              
    2253 00000300 9647          MOV       *-SP[7],AL            ; [CPU_ALU] |741| 
    2254 00000301 A044          MOVL      *-SP[4],XAR5          ; [CPU_ALU] |741| 
    2255 00000302 A842          MOVL      *-SP[2],XAR4          ; [CPU_ALU] |741| 
    2256                      .dwpsn  file "C:/ti/Workspace/PLC_certificate/Software/uCOS-II/Source/os_q.c",line 744,column 23,is_s
    2257 00000303 2B48          MOV       *-SP[8],#0            ; [CPU_ALU] |744| 
    2258                      .dwpsn  file "C:/ti/Workspace/PLC_certificate/Software/uCOS-II/Source/os_q.c",line 750,column 5,is_st
    2259 00000304 0642          MOVL      ACC,*-SP[2]           ; [CPU_ALU] |750| 
    2260 00000305 6003          B         $C$L61,NEQ            ; [CPU_ALU] |750| 
    2261                      ; branchcc occurs ; [] |750| 
    2262                      .dwpsn  file "C:/ti/Workspace/PLC_certificate/Software/uCOS-II/Source/os_q.c",line 751,column 9,is_st
    2263 00000306 9A04          MOVB      AL,#4                 ; [CPU_ALU] |751| 
    2264 00000307 6F69          B         $C$L73,UNC            ; [CPU_ALU] |751| 
    2265                      ; branch occurs ; [] |751| 
    2266 00000308       $C$L61:    
    2267                      .dwpsn  file "C:/ti/Workspace/PLC_certificate/Software/uCOS-II/Source/os_q.c",line 754,column 5,is_st
    2268 00000308 92C4          MOV       AL,*+XAR4[0]          ; [CPU_ALU] |754| 
    2269 00000309 5202          CMPB      AL,#2                 ; [CPU_ALU] |754| 
    2270 0000030a 6103          B         $C$L62,EQ             ; [CPU_ALU] |754| 
    2271                      ; branchcc occurs ; [] |754| 
    2272                      .dwpsn  file "C:/ti/Workspace/PLC_certificate/Software/uCOS-II/Source/os_q.c",line 755,column 9,is_st
    2273 0000030b 9A01          MOVB      AL,#1                 ; [CPU_ALU] |755| 
    2274 0000030c 6F64          B         $C$L73,UNC            ; [CPU_ALU] |755| 
    2275                      ; branch occurs ; [] |755| 
    2276 0000030d       $C$L62:    
    2277                      .dwpsn  file "C:/ti/Workspace/PLC_certificate/Software/uCOS-II/Source/os_q.c",line 757,column 5,is_st
TMS320C2000 Assembler PC v20.2.1 Mon Jan 11 16:45:38 2021

Copyright (c) 1996-2018 Texas Instruments Incorporated
os_q.asm                                                             PAGE   44

    2278              $C$DW$151       .dwtag  DW_TAG_TI_branch
    2279                      .dwattr $C$DW$151, DW_AT_low_pc(0x00)
    2280                      .dwattr $C$DW$151, DW_AT_name("_OS_CPU_SR_Save")
    2281                      .dwattr $C$DW$151, DW_AT_TI_call
    2282              
    2283 0000030d 7640!         LCR       #_OS_CPU_SR_Save      ; [CPU_ALU] |757| 
         0000030e 0000 
    2284                      ; call occurs [#_OS_CPU_SR_Save] ; [] |757| 
    2285 0000030f 9648          MOV       *-SP[8],AL            ; [CPU_ALU] |757| 
    2286                      .dwpsn  file "C:/ti/Workspace/PLC_certificate/Software/uCOS-II/Source/os_q.c",line 758,column 5,is_st
    2287 00000310 8A42          MOVL      XAR4,*-SP[2]          ; [CPU_ALU] |758| 
    2288 00000311 92EC          MOV       AL,*+XAR4[5]          ; [CPU_ALU] |758| 
    2289 00000312 611B          B         $C$L68,EQ             ; [CPU_ALU] |758| 
    2290                      ; branchcc occurs ; [] |758| 
    2291                      .dwpsn  file "C:/ti/Workspace/PLC_certificate/Software/uCOS-II/Source/os_q.c",line 759,column 9,is_st
    2292 00000313 4047          TBIT      *-SP[7],#0            ; [CPU_ALU] |759| 
    2293 00000314 6C0B          B         $C$L65,NTC            ; [CPU_ALU] |759| 
    2294                      ; branchcc occurs ; [] |759| 
    2295                      .dwpsn  file "C:/ti/Workspace/PLC_certificate/Software/uCOS-II/Source/os_q.c",line 760,column 13,is_s
    2296 00000315 6F06          B         $C$L64,UNC            ; [CPU_ALU] |760| 
    2297                      ; branch occurs ; [] |760| 
    2298 00000316       $C$L63:    
    2299                      .dwpsn  file "C:/ti/Workspace/PLC_certificate/Software/uCOS-II/Source/os_q.c",line 761,column 17,is_s
    2300 00000316 8344          MOVL      XAR5,*-SP[4]          ; [CPU_ALU] |761| 
    2301 00000317 9A04          MOVB      AL,#4                 ; [CPU_ALU] |761| 
    2302 00000318 9B00          MOVB      AH,#0                 ; [CPU_ALU] |761| 
    2303              $C$DW$152       .dwtag  DW_TAG_TI_branch
    2304                      .dwattr $C$DW$152, DW_AT_low_pc(0x00)
    2305                      .dwattr $C$DW$152, DW_AT_name("_OS_EventTaskRdy")
    2306                      .dwattr $C$DW$152, DW_AT_TI_call
    2307              
    2308 00000319 7640!         LCR       #_OS_EventTaskRdy     ; [CPU_ALU] |761| 
         0000031a 0000 
    2309                      ; call occurs [#_OS_EventTaskRdy] ; [] |761| 
    2310 0000031b       $C$L64:    
    2311                      .dwpsn  file "C:/ti/Workspace/PLC_certificate/Software/uCOS-II/Source/os_q.c",line 760,column 20,is_s
    2312 0000031b 8A42          MOVL      XAR4,*-SP[2]          ; [CPU_ALU] |760| 
    2313 0000031c 92EC          MOV       AL,*+XAR4[5]          ; [CPU_ALU] |760| 
    2314 0000031d 60F9          B         $C$L63,NEQ            ; [CPU_ALU] |760| 
    2315                      ; branchcc occurs ; [] |760| 
    2316 0000031e 6F06          B         $C$L66,UNC            ; [CPU_ALU] 
    2317                      ; branch occurs ; [] 
    2318 0000031f       $C$L65:    
    2319                      .dwpsn  file "C:/ti/Workspace/PLC_certificate/Software/uCOS-II/Source/os_q.c",line 764,column 13,is_s
    2320 0000031f 8344          MOVL      XAR5,*-SP[4]          ; [CPU_ALU] |764| 
    2321 00000320 9A04          MOVB      AL,#4                 ; [CPU_ALU] |764| 
    2322 00000321 9B00          MOVB      AH,#0                 ; [CPU_ALU] |764| 
    2323              $C$DW$153       .dwtag  DW_TAG_TI_branch
    2324                      .dwattr $C$DW$153, DW_AT_low_pc(0x00)
    2325                      .dwattr $C$DW$153, DW_AT_name("_OS_EventTaskRdy")
    2326                      .dwattr $C$DW$153, DW_AT_TI_call
    2327              
    2328 00000322 7640!         LCR       #_OS_EventTaskRdy     ; [CPU_ALU] |764| 
         00000323 0000 
    2329                      ; call occurs [#_OS_EventTaskRdy] ; [] |764| 
TMS320C2000 Assembler PC v20.2.1 Mon Jan 11 16:45:38 2021

Copyright (c) 1996-2018 Texas Instruments Incorporated
os_q.asm                                                             PAGE   45

    2330 00000324       $C$L66:    
    2331                      .dwpsn  file "C:/ti/Workspace/PLC_certificate/Software/uCOS-II/Source/os_q.c",line 766,column 9,is_st
    2332 00000324 9248          MOV       AL,*-SP[8]            ; [CPU_ALU] |766| 
    2333              $C$DW$154       .dwtag  DW_TAG_TI_branch
    2334                      .dwattr $C$DW$154, DW_AT_low_pc(0x00)
    2335                      .dwattr $C$DW$154, DW_AT_name("_OS_CPU_SR_Restore")
    2336                      .dwattr $C$DW$154, DW_AT_TI_call
    2337              
    2338 00000325 7640!         LCR       #_OS_CPU_SR_Restore   ; [CPU_ALU] |766| 
         00000326 0000 
    2339                      ; call occurs [#_OS_CPU_SR_Restore] ; [] |766| 
    2340                      .dwpsn  file "C:/ti/Workspace/PLC_certificate/Software/uCOS-II/Source/os_q.c",line 767,column 9,is_st
    2341 00000327 4247          TBIT      *-SP[7],#2            ; [CPU_ALU] |767| 
    2342 00000328 6D03          B         $C$L67,TC             ; [CPU_ALU] |767| 
    2343                      ; branchcc occurs ; [] |767| 
    2344                      .dwpsn  file "C:/ti/Workspace/PLC_certificate/Software/uCOS-II/Source/os_q.c",line 768,column 13,is_s
    2345              $C$DW$155       .dwtag  DW_TAG_TI_branch
    2346                      .dwattr $C$DW$155, DW_AT_low_pc(0x00)
    2347                      .dwattr $C$DW$155, DW_AT_name("_OS_Sched")
    2348                      .dwattr $C$DW$155, DW_AT_TI_call
    2349              
    2350 00000329 7640!         LCR       #_OS_Sched            ; [CPU_ALU] |768| 
         0000032a 0000 
    2351                      ; call occurs [#_OS_Sched] ; [] |768| 
    2352 0000032b       $C$L67:    
    2353                      .dwpsn  file "C:/ti/Workspace/PLC_certificate/Software/uCOS-II/Source/os_q.c",line 770,column 9,is_st
    2354 0000032b 9A00          MOVB      AL,#0                 ; [CPU_ALU] |770| 
    2355 0000032c 6F44          B         $C$L73,UNC            ; [CPU_ALU] |770| 
    2356                      ; branch occurs ; [] |770| 
    2357 0000032d       $C$L68:    
    2358                      .dwpsn  file "C:/ti/Workspace/PLC_certificate/Software/uCOS-II/Source/os_q.c",line 772,column 5,is_st
    2359 0000032d 06D4          MOVL      ACC,*+XAR4[2]         ; [CPU_ALU] |772| 
    2360 0000032e 1E46          MOVL      *-SP[6],ACC           ; [CPU_ALU] |772| 
    2361                      .dwpsn  file "C:/ti/Workspace/PLC_certificate/Software/uCOS-II/Source/os_q.c",line 773,column 5,is_st
    2362 0000032f 020A          MOVB      ACC,#10               ; [CPU_ALU] |773| 
    2363 00000330 0746          ADDL      ACC,*-SP[6]           ; [CPU_ALU] |773| 
    2364 00000331 8AA9          MOVL      XAR4,ACC              ; [CPU_ALU] |773| 
    2365 00000332 88C4          MOVZ      AR6,*+XAR4[0]         ; [CPU_ALU] |773| 
    2366 00000333 020B          MOVB      ACC,#11               ; [CPU_ALU] |773| 
    2367 00000334 0746          ADDL      ACC,*-SP[6]           ; [CPU_ALU] |773| 
    2368 00000335 8AA9          MOVL      XAR4,ACC              ; [CPU_ALU] |773| 
    2369 00000336 92A6          MOV       AL,AR6                ; [CPU_ALU] |773| 
    2370 00000337 54C4          CMP       AL,*+XAR4[0]          ; [CPU_ALU] |773| 
    2371 00000338 6606          B         $C$L69,HI             ; [CPU_ALU] |773| 
    2372                      ; branchcc occurs ; [] |773| 
    2373                      .dwpsn  file "C:/ti/Workspace/PLC_certificate/Software/uCOS-II/Source/os_q.c",line 774,column 9,is_st
    2374 00000339 9248          MOV       AL,*-SP[8]            ; [CPU_ALU] |774| 
    2375              $C$DW$156       .dwtag  DW_TAG_TI_branch
    2376                      .dwattr $C$DW$156, DW_AT_low_pc(0x00)
    2377                      .dwattr $C$DW$156, DW_AT_name("_OS_CPU_SR_Restore")
    2378                      .dwattr $C$DW$156, DW_AT_TI_call
    2379              
    2380 0000033a 7640!         LCR       #_OS_CPU_SR_Restore   ; [CPU_ALU] |774| 
         0000033b 0000 
    2381                      ; call occurs [#_OS_CPU_SR_Restore] ; [] |774| 
TMS320C2000 Assembler PC v20.2.1 Mon Jan 11 16:45:38 2021

Copyright (c) 1996-2018 Texas Instruments Incorporated
os_q.asm                                                             PAGE   46

    2382                      .dwpsn  file "C:/ti/Workspace/PLC_certificate/Software/uCOS-II/Source/os_q.c",line 775,column 9,is_st
    2383 0000033c 9A1E          MOVB      AL,#30                ; [CPU_ALU] |775| 
    2384 0000033d 6F33          B         $C$L73,UNC            ; [CPU_ALU] |775| 
    2385                      ; branch occurs ; [] |775| 
    2386 0000033e       $C$L69:    
    2387                      .dwpsn  file "C:/ti/Workspace/PLC_certificate/Software/uCOS-II/Source/os_q.c",line 777,column 5,is_st
    2388 0000033e 4147          TBIT      *-SP[7],#1            ; [CPU_ALU] |777| 
    2389 0000033f 6C1C          B         $C$L71,NTC            ; [CPU_ALU] |777| 
    2390                      ; branchcc occurs ; [] |777| 
    2391                      .dwpsn  file "C:/ti/Workspace/PLC_certificate/Software/uCOS-II/Source/os_q.c",line 778,column 9,is_st
    2392 00000340 8A46          MOVL      XAR4,*-SP[6]          ; [CPU_ALU] |778| 
    2393 00000341 C4D4          MOVL      XAR6,*+XAR4[2]        ; [CPU_ALU] |778| 
    2394 00000342 0208          MOVB      ACC,#8                ; [CPU_ALU] |778| 
    2395 00000343 0746          ADDL      ACC,*-SP[6]           ; [CPU_ALU] |778| 
    2396 00000344 8AA9          MOVL      XAR4,ACC              ; [CPU_ALU] |778| 
    2397 00000345 06A6          MOVL      ACC,XAR6              ; [CPU_ALU] |778| 
    2398 00000346 0FC4          CMPL      ACC,*+XAR4[0]         ; [CPU_ALU] |778| 
    2399 00000347 6007          B         $C$L70,NEQ            ; [CPU_ALU] |778| 
    2400                      ; branchcc occurs ; [] |778| 
    2401                      .dwpsn  file "C:/ti/Workspace/PLC_certificate/Software/uCOS-II/Source/os_q.c",line 779,column 13,is_s
    2402 00000348 8A46          MOVL      XAR4,*-SP[6]          ; [CPU_ALU] |779| 
    2403 00000349 C4E4          MOVL      XAR6,*+XAR4[4]        ; [CPU_ALU] |779| 
    2404 0000034a 0208          MOVB      ACC,#8                ; [CPU_ALU] |779| 
    2405 0000034b 0746          ADDL      ACC,*-SP[6]           ; [CPU_ALU] |779| 
    2406 0000034c 8AA9          MOVL      XAR4,ACC              ; [CPU_ALU] |779| 
    2407 0000034d C2C4          MOVL      *+XAR4[0],XAR6        ; [CPU_ALU] |779| 
    2408 0000034e       $C$L70:    
    2409                      .dwpsn  file "C:/ti/Workspace/PLC_certificate/Software/uCOS-II/Source/os_q.c",line 781,column 9,is_st
    2410 0000034e 0208          MOVB      ACC,#8                ; [CPU_ALU] |781| 
    2411 0000034f 0746          ADDL      ACC,*-SP[6]           ; [CPU_ALU] |781| 
    2412 00000350 8AA9          MOVL      XAR4,ACC              ; [CPU_ALU] |781| 
    2413 00000351 0202          MOVB      ACC,#2                ; [CPU_ALU] |781| 
    2414 00000352 5641          SUBL      *+XAR4[0],ACC         ; [CPU_ALU] |781| 
         00000353 00C4 
    2415                      .dwpsn  file "C:/ti/Workspace/PLC_certificate/Software/uCOS-II/Source/os_q.c",line 782,column 9,is_st
    2416 00000354 0208          MOVB      ACC,#8                ; [CPU_ALU] |782| 
    2417 00000355 0746          ADDL      ACC,*-SP[6]           ; [CPU_ALU] |782| 
    2418 00000356 8AA9          MOVL      XAR4,ACC              ; [CPU_ALU] |782| 
    2419 00000357 C444          MOVL      XAR6,*-SP[4]          ; [CPU_ALU] |782| 
    2420 00000358 8AC4          MOVL      XAR4,*+XAR4[0]        ; [CPU_ALU] |782| 
    2421 00000359 C2C4          MOVL      *+XAR4[0],XAR6        ; [CPU_ALU] |782| 
    2422 0000035a 6F0E          B         $C$L72,UNC            ; [CPU_ALU] 
    2423                      ; branch occurs ; [] 
    2424 0000035b       $C$L71:    
    2425                      .dwpsn  file "C:/ti/Workspace/PLC_certificate/Software/uCOS-II/Source/os_q.c",line 784,column 9,is_st
    2426 0000035b 8A46          MOVL      XAR4,*-SP[6]          ; [CPU_ALU] |784| 
    2427 0000035c 83F4          MOVL      XAR5,*+XAR4[6]        ; [CPU_ALU] |784| 
    2428 0000035d A0A9          MOVL      ACC,XAR5              ; [CPU_ALU] |784| 
    2429 0000035e 0902          ADDB      ACC,#2                ; [CPU_ALU] |784| 
    2430 0000035f 1EF4          MOVL      *+XAR4[6],ACC         ; [CPU_ALU] |784| 
    2431 00000360 0644          MOVL      ACC,*-SP[4]           ; [CPU_ALU] |784| 
    2432 00000361 1EC5          MOVL      *+XAR5[0],ACC         ; [CPU_ALU] |784| 
    2433                      .dwpsn  file "C:/ti/Workspace/PLC_certificate/Software/uCOS-II/Source/os_q.c",line 785,column 9,is_st
    2434 00000362 8A46          MOVL      XAR4,*-SP[6]          ; [CPU_ALU] |785| 
    2435 00000363 06E4          MOVL      ACC,*+XAR4[4]         ; [CPU_ALU] |785| 
TMS320C2000 Assembler PC v20.2.1 Mon Jan 11 16:45:38 2021

Copyright (c) 1996-2018 Texas Instruments Incorporated
os_q.asm                                                             PAGE   47

    2436 00000364 0FF4          CMPL      ACC,*+XAR4[6]         ; [CPU_ALU] |785| 
    2437 00000365 6003          B         $C$L72,NEQ            ; [CPU_ALU] |785| 
    2438                      ; branchcc occurs ; [] |785| 
    2439                      .dwpsn  file "C:/ti/Workspace/PLC_certificate/Software/uCOS-II/Source/os_q.c",line 786,column 13,is_s
    2440 00000366 06D4          MOVL      ACC,*+XAR4[2]         ; [CPU_ALU] |786| 
    2441 00000367 1EF4          MOVL      *+XAR4[6],ACC         ; [CPU_ALU] |786| 
    2442 00000368       $C$L72:    
    2443                      .dwpsn  file "C:/ti/Workspace/PLC_certificate/Software/uCOS-II/Source/os_q.c",line 789,column 5,is_st
    2444 00000368 020B          MOVB      ACC,#11               ; [CPU_ALU] |789| 
    2445 00000369 0746          ADDL      ACC,*-SP[6]           ; [CPU_ALU] |789| 
    2446 0000036a 8AA9          MOVL      XAR4,ACC              ; [CPU_ALU] |789| 
    2447 0000036b 0AC4          INC       *+XAR4[0]             ; [CPU_ALU] |789| 
    2448                      .dwpsn  file "C:/ti/Workspace/PLC_certificate/Software/uCOS-II/Source/os_q.c",line 790,column 5,is_st
    2449 0000036c 9248          MOV       AL,*-SP[8]            ; [CPU_ALU] |790| 
    2450              $C$DW$157       .dwtag  DW_TAG_TI_branch
    2451                      .dwattr $C$DW$157, DW_AT_low_pc(0x00)
    2452                      .dwattr $C$DW$157, DW_AT_name("_OS_CPU_SR_Restore")
    2453                      .dwattr $C$DW$157, DW_AT_TI_call
    2454              
    2455 0000036d 7640!         LCR       #_OS_CPU_SR_Restore   ; [CPU_ALU] |790| 
         0000036e 0000 
    2456                      ; call occurs [#_OS_CPU_SR_Restore] ; [] |790| 
    2457                      .dwpsn  file "C:/ti/Workspace/PLC_certificate/Software/uCOS-II/Source/os_q.c",line 791,column 5,is_st
    2458 0000036f 9A00          MOVB      AL,#0                 ; [CPU_ALU] |791| 
    2459 00000370       $C$L73:    
    2460                      .dwpsn  file "C:/ti/Workspace/PLC_certificate/Software/uCOS-II/Source/os_q.c",line 792,column 1,is_st
    2461 00000370 FE88          SUBB      SP,#8                 ; [CPU_ARAU] 
    2462                      .dwcfi  cfa_offset, -2
    2463              $C$DW$158       .dwtag  DW_TAG_TI_branch
    2464                      .dwattr $C$DW$158, DW_AT_low_pc(0x00)
    2465                      .dwattr $C$DW$158, DW_AT_TI_return
    2466              
    2467 00000371 0006          LRETR     ; [CPU_ALU] 
    2468                      ; return occurs ; [] 
    2469                      .dwattr $C$DW$142, DW_AT_TI_end_file("C:/ti/Workspace/PLC_certificate/Software/uCOS-II/Source/os_q.c"
    2470                      .dwattr $C$DW$142, DW_AT_TI_end_line(0x318)
    2471                      .dwattr $C$DW$142, DW_AT_TI_end_column(0x01)
    2472                      .dwendentry
    2473                      .dwendtag $C$DW$142
    2474              
    2475 00000372               .sect   ".text"
    2476                      .clink
    2477                      .global _OSQQuery
    2478              
    2479              $C$DW$159       .dwtag  DW_TAG_subprogram
    2480                      .dwattr $C$DW$159, DW_AT_name("OSQQuery")
    2481                      .dwattr $C$DW$159, DW_AT_low_pc(_OSQQuery)
    2482                      .dwattr $C$DW$159, DW_AT_high_pc(0x00)
    2483                      .dwattr $C$DW$159, DW_AT_TI_symbol_name("_OSQQuery")
    2484                      .dwattr $C$DW$159, DW_AT_external
    2485                      .dwattr $C$DW$159, DW_AT_type(*$C$DW$T$19)
    2486                      .dwattr $C$DW$159, DW_AT_TI_begin_file("C:/ti/Workspace/PLC_certificate/Software/uCOS-II/Source/os_q.
    2487                      .dwattr $C$DW$159, DW_AT_TI_begin_line(0x32e)
    2488                      .dwattr $C$DW$159, DW_AT_TI_begin_column(0x08)
    2489                      .dwattr $C$DW$159, DW_AT_TI_max_frame_size(-14)
TMS320C2000 Assembler PC v20.2.1 Mon Jan 11 16:45:38 2021

Copyright (c) 1996-2018 Texas Instruments Incorporated
os_q.asm                                                             PAGE   48

    2490                      .dwpsn  file "C:/ti/Workspace/PLC_certificate/Software/uCOS-II/Source/os_q.c",line 816,column 1,is_st
    2491              
    2492                      .dwfde $C$DW$CIE, _OSQQuery
    2493              $C$DW$160       .dwtag  DW_TAG_formal_parameter
    2494                      .dwattr $C$DW$160, DW_AT_name("pevent")
    2495                      .dwattr $C$DW$160, DW_AT_TI_symbol_name("_pevent")
    2496                      .dwattr $C$DW$160, DW_AT_type(*$C$DW$T$36)
    2497                      .dwattr $C$DW$160, DW_AT_location[DW_OP_reg12]
    2498              
    2499              $C$DW$161       .dwtag  DW_TAG_formal_parameter
    2500                      .dwattr $C$DW$161, DW_AT_name("p_q_data")
    2501                      .dwattr $C$DW$161, DW_AT_TI_symbol_name("_p_q_data")
    2502                      .dwattr $C$DW$161, DW_AT_type(*$C$DW$T$66)
    2503                      .dwattr $C$DW$161, DW_AT_location[DW_OP_reg14]
    2504              
    2505              
    2506              ;***************************************************************
    2507              ;* FNAME: _OSQQuery                     FR SIZE:  12           *
    2508              ;*                                                             *
    2509              ;* FUNCTION ENVIRONMENT                                        *
    2510              ;*                                                             *
    2511              ;* FUNCTION PROPERTIES                                         *
    2512              ;*                            0 Parameter, 12 Auto,  0 SOE     *
    2513              ;***************************************************************
    2514              
    2515 00000372       _OSQQuery:
    2516                      .dwcfi  cfa_offset, -2
    2517                      .dwcfi  save_reg_to_mem, 26, 0
    2518 00000372 FE0C          ADDB      SP,#12                ; [CPU_ARAU] 
    2519                      .dwcfi  cfa_offset, -14
    2520              $C$DW$162       .dwtag  DW_TAG_variable
    2521                      .dwattr $C$DW$162, DW_AT_name("pevent")
    2522                      .dwattr $C$DW$162, DW_AT_TI_symbol_name("_pevent")
    2523                      .dwattr $C$DW$162, DW_AT_type(*$C$DW$T$36)
    2524                      .dwattr $C$DW$162, DW_AT_location[DW_OP_breg20 -2]
    2525              
    2526              $C$DW$163       .dwtag  DW_TAG_variable
    2527                      .dwattr $C$DW$163, DW_AT_name("p_q_data")
    2528                      .dwattr $C$DW$163, DW_AT_TI_symbol_name("_p_q_data")
    2529                      .dwattr $C$DW$163, DW_AT_type(*$C$DW$T$66)
    2530                      .dwattr $C$DW$163, DW_AT_location[DW_OP_breg20 -4]
    2531              
    2532              $C$DW$164       .dwtag  DW_TAG_variable
    2533                      .dwattr $C$DW$164, DW_AT_name("pq")
    2534                      .dwattr $C$DW$164, DW_AT_TI_symbol_name("_pq")
    2535                      .dwattr $C$DW$164, DW_AT_type(*$C$DW$T$75)
    2536                      .dwattr $C$DW$164, DW_AT_location[DW_OP_breg20 -6]
    2537              
    2538              $C$DW$165       .dwtag  DW_TAG_variable
    2539                      .dwattr $C$DW$165, DW_AT_name("psrc")
    2540                      .dwattr $C$DW$165, DW_AT_TI_symbol_name("_psrc")
    2541                      .dwattr $C$DW$165, DW_AT_type(*$C$DW$T$58)
    2542                      .dwattr $C$DW$165, DW_AT_location[DW_OP_breg20 -8]
    2543              
    2544              $C$DW$166       .dwtag  DW_TAG_variable
TMS320C2000 Assembler PC v20.2.1 Mon Jan 11 16:45:38 2021

Copyright (c) 1996-2018 Texas Instruments Incorporated
os_q.asm                                                             PAGE   49

    2545                      .dwattr $C$DW$166, DW_AT_name("pdest")
    2546                      .dwattr $C$DW$166, DW_AT_TI_symbol_name("_pdest")
    2547                      .dwattr $C$DW$166, DW_AT_type(*$C$DW$T$58)
    2548                      .dwattr $C$DW$166, DW_AT_location[DW_OP_breg20 -10]
    2549              
    2550              $C$DW$167       .dwtag  DW_TAG_variable
    2551                      .dwattr $C$DW$167, DW_AT_name("i")
    2552                      .dwattr $C$DW$167, DW_AT_TI_symbol_name("_i")
    2553                      .dwattr $C$DW$167, DW_AT_type(*$C$DW$T$19)
    2554                      .dwattr $C$DW$167, DW_AT_location[DW_OP_breg20 -11]
    2555              
    2556              $C$DW$168       .dwtag  DW_TAG_variable
    2557                      .dwattr $C$DW$168, DW_AT_name("cpu_sr")
    2558                      .dwattr $C$DW$168, DW_AT_TI_symbol_name("_cpu_sr")
    2559                      .dwattr $C$DW$168, DW_AT_type(*$C$DW$T$44)
    2560                      .dwattr $C$DW$168, DW_AT_location[DW_OP_breg20 -12]
    2561              
    2562 00000373 A044          MOVL      *-SP[4],XAR5          ; [CPU_ALU] |816| 
    2563 00000374 A842          MOVL      *-SP[2],XAR4          ; [CPU_ALU] |816| 
    2564                      .dwpsn  file "C:/ti/Workspace/PLC_certificate/Software/uCOS-II/Source/os_q.c",line 822,column 24,is_s
    2565 00000375 2B4C          MOV       *-SP[12],#0           ; [CPU_ALU] |822| 
    2566                      .dwpsn  file "C:/ti/Workspace/PLC_certificate/Software/uCOS-II/Source/os_q.c",line 828,column 5,is_st
    2567 00000376 0642          MOVL      ACC,*-SP[2]           ; [CPU_ALU] |828| 
    2568 00000377 6003          B         $C$L74,NEQ            ; [CPU_ALU] |828| 
    2569                      ; branchcc occurs ; [] |828| 
    2570                      .dwpsn  file "C:/ti/Workspace/PLC_certificate/Software/uCOS-II/Source/os_q.c",line 829,column 9,is_st
    2571 00000378 9A04          MOVB      AL,#4                 ; [CPU_ALU] |829| 
    2572 00000379 6F4C          B         $C$L81,UNC            ; [CPU_ALU] |829| 
    2573                      ; branch occurs ; [] |829| 
    2574 0000037a       $C$L74:    
    2575                      .dwpsn  file "C:/ti/Workspace/PLC_certificate/Software/uCOS-II/Source/os_q.c",line 831,column 5,is_st
    2576 0000037a 0644          MOVL      ACC,*-SP[4]           ; [CPU_ALU] |831| 
    2577 0000037b 6003          B         $C$L75,NEQ            ; [CPU_ALU] |831| 
    2578                      ; branchcc occurs ; [] |831| 
    2579                      .dwpsn  file "C:/ti/Workspace/PLC_certificate/Software/uCOS-II/Source/os_q.c",line 832,column 9,is_st
    2580 0000037c 9A09          MOVB      AL,#9                 ; [CPU_ALU] |832| 
    2581 0000037d 6F48          B         $C$L81,UNC            ; [CPU_ALU] |832| 
    2582                      ; branch occurs ; [] |832| 
    2583 0000037e       $C$L75:    
    2584                      .dwpsn  file "C:/ti/Workspace/PLC_certificate/Software/uCOS-II/Source/os_q.c",line 835,column 5,is_st
    2585 0000037e 92C4          MOV       AL,*+XAR4[0]          ; [CPU_ALU] |835| 
    2586 0000037f 5202          CMPB      AL,#2                 ; [CPU_ALU] |835| 
    2587 00000380 6103          B         $C$L76,EQ             ; [CPU_ALU] |835| 
    2588                      ; branchcc occurs ; [] |835| 
    2589                      .dwpsn  file "C:/ti/Workspace/PLC_certificate/Software/uCOS-II/Source/os_q.c",line 836,column 9,is_st
    2590 00000381 9A01          MOVB      AL,#1                 ; [CPU_ALU] |836| 
    2591 00000382 6F43          B         $C$L81,UNC            ; [CPU_ALU] |836| 
    2592                      ; branch occurs ; [] |836| 
    2593 00000383       $C$L76:    
    2594                      .dwpsn  file "C:/ti/Workspace/PLC_certificate/Software/uCOS-II/Source/os_q.c",line 838,column 5,is_st
    2595              $C$DW$169       .dwtag  DW_TAG_TI_branch
    2596                      .dwattr $C$DW$169, DW_AT_low_pc(0x00)
    2597                      .dwattr $C$DW$169, DW_AT_name("_OS_CPU_SR_Save")
    2598                      .dwattr $C$DW$169, DW_AT_TI_call
    2599              
TMS320C2000 Assembler PC v20.2.1 Mon Jan 11 16:45:38 2021

Copyright (c) 1996-2018 Texas Instruments Incorporated
os_q.asm                                                             PAGE   50

    2600 00000383 7640!         LCR       #_OS_CPU_SR_Save      ; [CPU_ALU] |838| 
         00000384 0000 
    2601                      ; call occurs [#_OS_CPU_SR_Save] ; [] |838| 
    2602 00000385 964C          MOV       *-SP[12],AL           ; [CPU_ALU] |838| 
    2603                      .dwpsn  file "C:/ti/Workspace/PLC_certificate/Software/uCOS-II/Source/os_q.c",line 839,column 5,is_st
    2604 00000386 8A42          MOVL      XAR4,*-SP[2]          ; [CPU_ALU] |839| 
    2605 00000387 020C          MOVB      ACC,#12               ; [CPU_ALU] |839| 
    2606 00000388 0744          ADDL      ACC,*-SP[4]           ; [CPU_ALU] |839| 
    2607 00000389 1EA7          MOVL      XAR7,ACC              ; [CPU_ALU] |839| 
    2608 0000038a 92EC          MOV       AL,*+XAR4[5]          ; [CPU_ALU] |839| 
    2609 0000038b 96C7          MOV       *+XAR7[0],AL          ; [CPU_ALU] |839| 
    2610                      .dwpsn  file "C:/ti/Workspace/PLC_certificate/Software/uCOS-II/Source/os_q.c",line 840,column 5,is_st
    2611 0000038c 0206          MOVB      ACC,#6                ; [CPU_ALU] |840| 
    2612 0000038d 0742          ADDL      ACC,*-SP[2]           ; [CPU_ALU] |840| 
    2613 0000038e 1E48          MOVL      *-SP[8],ACC           ; [CPU_ALU] |840| 
    2614                      .dwpsn  file "C:/ti/Workspace/PLC_certificate/Software/uCOS-II/Source/os_q.c",line 841,column 5,is_st
    2615 0000038f 0204          MOVB      ACC,#4                ; [CPU_ALU] |841| 
    2616 00000390 0744          ADDL      ACC,*-SP[4]           ; [CPU_ALU] |841| 
    2617 00000391 1E4A          MOVL      *-SP[10],ACC          ; [CPU_ALU] |841| 
    2618                      .dwpsn  file "C:/ti/Workspace/PLC_certificate/Software/uCOS-II/Source/os_q.c",line 842,column 10,is_s
    2619 00000392 2B4B          MOV       *-SP[11],#0           ; [CPU_ALU] |842| 
    2620                      .dwpsn  file "C:/ti/Workspace/PLC_certificate/Software/uCOS-II/Source/os_q.c",line 842,column 18,is_s
    2621 00000393 924B          MOV       AL,*-SP[11]           ; [CPU_ALU] |842| 
    2622 00000394 5208          CMPB      AL,#8                 ; [CPU_ALU] |842| 
    2623 00000395 670D          B         $C$L78,HIS            ; [CPU_ALU] |842| 
    2624                      ; branchcc occurs ; [] |842| 
    2625 00000396       $C$L77:    
    2626                      .dwpsn  file "C:/ti/Workspace/PLC_certificate/Software/uCOS-II/Source/os_q.c",line 843,column 9,is_st
    2627 00000396 8A48          MOVL      XAR4,*-SP[8]          ; [CPU_ALU] |843| 
    2628 00000397 9284          MOV       AL,*XAR4++            ; [CPU_ALU] |843| 
    2629 00000398 A848          MOVL      *-SP[8],XAR4          ; [CPU_ALU] |843| 
    2630 00000399 8A4A          MOVL      XAR4,*-SP[10]         ; [CPU_ALU] |843| 
    2631 0000039a C4A4          MOVL      XAR6,XAR4             ; [CPU_ALU] |843| 
    2632 0000039b DE01          ADDB      XAR6,#1               ; [CPU_ALU] |843| 
    2633 0000039c C24A          MOVL      *-SP[10],XAR6         ; [CPU_ALU] |843| 
    2634 0000039d 96C4          MOV       *+XAR4[0],AL          ; [CPU_ALU] |843| 
    2635                      .dwpsn  file "C:/ti/Workspace/PLC_certificate/Software/uCOS-II/Source/os_q.c",line 842,column 41,is_s
    2636 0000039e 0A4B          INC       *-SP[11]              ; [CPU_ALU] |842| 
    2637                      .dwpsn  file "C:/ti/Workspace/PLC_certificate/Software/uCOS-II/Source/os_q.c",line 842,column 18,is_s
    2638 0000039f 924B          MOV       AL,*-SP[11]           ; [CPU_ALU] |842| 
    2639 000003a0 5208          CMPB      AL,#8                 ; [CPU_ALU] |842| 
    2640 000003a1 68F5          B         $C$L77,LO             ; [CPU_ALU] |842| 
    2641                      ; branchcc occurs ; [] |842| 
    2642 000003a2       $C$L78:    
    2643                      .dwpsn  file "C:/ti/Workspace/PLC_certificate/Software/uCOS-II/Source/os_q.c",line 845,column 5,is_st
    2644 000003a2 8A42          MOVL      XAR4,*-SP[2]          ; [CPU_ALU] |845| 
    2645 000003a3 06D4          MOVL      ACC,*+XAR4[2]         ; [CPU_ALU] |845| 
    2646 000003a4 1E46          MOVL      *-SP[6],ACC           ; [CPU_ALU] |845| 
    2647                      .dwpsn  file "C:/ti/Workspace/PLC_certificate/Software/uCOS-II/Source/os_q.c",line 846,column 5,is_st
    2648 000003a5 020B          MOVB      ACC,#11               ; [CPU_ALU] |846| 
    2649 000003a6 0746          ADDL      ACC,*-SP[6]           ; [CPU_ALU] |846| 
    2650 000003a7 8AA9          MOVL      XAR4,ACC              ; [CPU_ALU] |846| 
    2651 000003a8 92C4          MOV       AL,*+XAR4[0]          ; [CPU_ALU] |846| 
    2652 000003a9 6109          B         $C$L79,EQ             ; [CPU_ALU] |846| 
    2653                      ; branchcc occurs ; [] |846| 
TMS320C2000 Assembler PC v20.2.1 Mon Jan 11 16:45:38 2021

Copyright (c) 1996-2018 Texas Instruments Incorporated
os_q.asm                                                             PAGE   51

    2654                      .dwpsn  file "C:/ti/Workspace/PLC_certificate/Software/uCOS-II/Source/os_q.c",line 847,column 9,is_st
    2655 000003aa 0208          MOVB      ACC,#8                ; [CPU_ALU] |847| 
    2656 000003ab 0746          ADDL      ACC,*-SP[6]           ; [CPU_ALU] |847| 
    2657 000003ac 8AA9          MOVL      XAR4,ACC              ; [CPU_ALU] |847| 
    2658 000003ad 8AC4          MOVL      XAR4,*+XAR4[0]        ; [CPU_ALU] |847| 
    2659 000003ae 06C4          MOVL      ACC,*+XAR4[0]         ; [CPU_ALU] |847| 
    2660 000003af 8A44          MOVL      XAR4,*-SP[4]          ; [CPU_ALU] |847| 
    2661 000003b0 1EC4          MOVL      *+XAR4[0],ACC         ; [CPU_ALU] |847| 
    2662 000003b1 6F04          B         $C$L80,UNC            ; [CPU_ALU] 
    2663                      ; branch occurs ; [] 
    2664 000003b2       $C$L79:    
    2665                      .dwpsn  file "C:/ti/Workspace/PLC_certificate/Software/uCOS-II/Source/os_q.c",line 849,column 9,is_st
    2666 000003b2 8A44          MOVL      XAR4,*-SP[4]          ; [CPU_ALU] |849| 
    2667 000003b3 0200          MOVB      ACC,#0                ; [CPU_ALU] |849| 
    2668 000003b4 1EC4          MOVL      *+XAR4[0],ACC         ; [CPU_ALU] |849| 
    2669 000003b5       $C$L80:    
    2670                      .dwpsn  file "C:/ti/Workspace/PLC_certificate/Software/uCOS-II/Source/os_q.c",line 851,column 5,is_st
    2671 000003b5 020B          MOVB      ACC,#11               ; [CPU_ALU] |851| 
    2672 000003b6 0746          ADDL      ACC,*-SP[6]           ; [CPU_ALU] |851| 
    2673 000003b7 1EA7          MOVL      XAR7,ACC              ; [CPU_ALU] |851| 
    2674 000003b8 8A44          MOVL      XAR4,*-SP[4]          ; [CPU_ALU] |851| 
    2675 000003b9 92C7          MOV       AL,*+XAR7[0]          ; [CPU_ALU] |851| 
    2676 000003ba 96D4          MOV       *+XAR4[2],AL          ; [CPU_ALU] |851| 
    2677                      .dwpsn  file "C:/ti/Workspace/PLC_certificate/Software/uCOS-II/Source/os_q.c",line 852,column 5,is_st
    2678 000003bb 020A          MOVB      ACC,#10               ; [CPU_ALU] |852| 
    2679 000003bc 0746          ADDL      ACC,*-SP[6]           ; [CPU_ALU] |852| 
    2680 000003bd 1EA7          MOVL      XAR7,ACC              ; [CPU_ALU] |852| 
    2681 000003be 8A44          MOVL      XAR4,*-SP[4]          ; [CPU_ALU] |852| 
    2682 000003bf 92C7          MOV       AL,*+XAR7[0]          ; [CPU_ALU] |852| 
    2683 000003c0 96DC          MOV       *+XAR4[3],AL          ; [CPU_ALU] |852| 
    2684                      .dwpsn  file "C:/ti/Workspace/PLC_certificate/Software/uCOS-II/Source/os_q.c",line 853,column 5,is_st
    2685 000003c1 924C          MOV       AL,*-SP[12]           ; [CPU_ALU] |853| 
    2686              $C$DW$170       .dwtag  DW_TAG_TI_branch
    2687                      .dwattr $C$DW$170, DW_AT_low_pc(0x00)
    2688                      .dwattr $C$DW$170, DW_AT_name("_OS_CPU_SR_Restore")
    2689                      .dwattr $C$DW$170, DW_AT_TI_call
    2690              
    2691 000003c2 7640!         LCR       #_OS_CPU_SR_Restore   ; [CPU_ALU] |853| 
         000003c3 0000 
    2692                      ; call occurs [#_OS_CPU_SR_Restore] ; [] |853| 
    2693                      .dwpsn  file "C:/ti/Workspace/PLC_certificate/Software/uCOS-II/Source/os_q.c",line 854,column 5,is_st
    2694 000003c4 9A00          MOVB      AL,#0                 ; [CPU_ALU] |854| 
    2695 000003c5       $C$L81:    
    2696                      .dwpsn  file "C:/ti/Workspace/PLC_certificate/Software/uCOS-II/Source/os_q.c",line 855,column 1,is_st
    2697 000003c5 FE8C          SUBB      SP,#12                ; [CPU_ARAU] 
    2698                      .dwcfi  cfa_offset, -2
    2699              $C$DW$171       .dwtag  DW_TAG_TI_branch
    2700                      .dwattr $C$DW$171, DW_AT_low_pc(0x00)
    2701                      .dwattr $C$DW$171, DW_AT_TI_return
    2702              
    2703 000003c6 0006          LRETR     ; [CPU_ALU] 
    2704                      ; return occurs ; [] 
    2705                      .dwattr $C$DW$159, DW_AT_TI_end_file("C:/ti/Workspace/PLC_certificate/Software/uCOS-II/Source/os_q.c"
    2706                      .dwattr $C$DW$159, DW_AT_TI_end_line(0x357)
    2707                      .dwattr $C$DW$159, DW_AT_TI_end_column(0x01)
TMS320C2000 Assembler PC v20.2.1 Mon Jan 11 16:45:38 2021

Copyright (c) 1996-2018 Texas Instruments Incorporated
os_q.asm                                                             PAGE   52

    2708                      .dwendentry
    2709                      .dwendtag $C$DW$159
    2710              
    2711 000003c7               .sect   ".text"
    2712                      .clink
    2713                      .global _OS_QInit
    2714              
    2715              $C$DW$172       .dwtag  DW_TAG_subprogram
    2716                      .dwattr $C$DW$172, DW_AT_name("OS_QInit")
    2717                      .dwattr $C$DW$172, DW_AT_low_pc(_OS_QInit)
    2718                      .dwattr $C$DW$172, DW_AT_high_pc(0x00)
    2719                      .dwattr $C$DW$172, DW_AT_TI_symbol_name("_OS_QInit")
    2720                      .dwattr $C$DW$172, DW_AT_external
    2721                      .dwattr $C$DW$172, DW_AT_TI_begin_file("C:/ti/Workspace/PLC_certificate/Software/uCOS-II/Source/os_q.
    2722                      .dwattr $C$DW$172, DW_AT_TI_begin_line(0x36a)
    2723                      .dwattr $C$DW$172, DW_AT_TI_begin_column(0x07)
    2724                      .dwattr $C$DW$172, DW_AT_TI_max_frame_size(-8)
    2725                      .dwpsn  file "C:/ti/Workspace/PLC_certificate/Software/uCOS-II/Source/os_q.c",line 875,column 1,is_st
    2726              
    2727                      .dwfde $C$DW$CIE, _OS_QInit
    2728              
    2729              ;***************************************************************
    2730              ;* FNAME: _OS_QInit                     FR SIZE:   6           *
    2731              ;*                                                             *
    2732              ;* FUNCTION ENVIRONMENT                                        *
    2733              ;*                                                             *
    2734              ;* FUNCTION PROPERTIES                                         *
    2735              ;*                            0 Parameter,  6 Auto,  0 SOE     *
    2736              ;***************************************************************
    2737              
    2738 000003c7       _OS_QInit:
    2739                      .dwcfi  cfa_offset, -2
    2740                      .dwcfi  save_reg_to_mem, 26, 0
    2741 000003c7 FE06          ADDB      SP,#6                 ; [CPU_ARAU] 
    2742                      .dwcfi  cfa_offset, -8
    2743              $C$DW$173       .dwtag  DW_TAG_variable
    2744                      .dwattr $C$DW$173, DW_AT_name("pq1")
    2745                      .dwattr $C$DW$173, DW_AT_TI_symbol_name("_pq1")
    2746                      .dwattr $C$DW$173, DW_AT_type(*$C$DW$T$75)
    2747                      .dwattr $C$DW$173, DW_AT_location[DW_OP_breg20 -2]
    2748              
    2749              $C$DW$174       .dwtag  DW_TAG_variable
    2750                      .dwattr $C$DW$174, DW_AT_name("pq2")
    2751                      .dwattr $C$DW$174, DW_AT_TI_symbol_name("_pq2")
    2752                      .dwattr $C$DW$174, DW_AT_type(*$C$DW$T$75)
    2753                      .dwattr $C$DW$174, DW_AT_location[DW_OP_breg20 -4]
    2754              
    2755              $C$DW$175       .dwtag  DW_TAG_variable
    2756                      .dwattr $C$DW$175, DW_AT_name("ix")
    2757                      .dwattr $C$DW$175, DW_AT_TI_symbol_name("_ix")
    2758                      .dwattr $C$DW$175, DW_AT_type(*$C$DW$T$20)
    2759                      .dwattr $C$DW$175, DW_AT_location[DW_OP_breg20 -5]
    2760              
    2761              $C$DW$176       .dwtag  DW_TAG_variable
    2762                      .dwattr $C$DW$176, DW_AT_name("ix_next")
TMS320C2000 Assembler PC v20.2.1 Mon Jan 11 16:45:38 2021

Copyright (c) 1996-2018 Texas Instruments Incorporated
os_q.asm                                                             PAGE   53

    2763                      .dwattr $C$DW$176, DW_AT_TI_symbol_name("_ix_next")
    2764                      .dwattr $C$DW$176, DW_AT_type(*$C$DW$T$20)
    2765                      .dwattr $C$DW$176, DW_AT_location[DW_OP_breg20 -6]
    2766              
    2767                      .dwpsn  file "C:/ti/Workspace/PLC_certificate/Software/uCOS-II/Source/os_q.c",line 889,column 5,is_st
    2768 000003c8 8F00!         MOVL      XAR4,#_OSQTbl         ; [CPU_ARAU] |889| 
         000003c9 0000 
    2769 000003ca 9A30          MOVB      AL,#48                ; [CPU_ALU] |889| 
    2770              $C$DW$177       .dwtag  DW_TAG_TI_branch
    2771                      .dwattr $C$DW$177, DW_AT_low_pc(0x00)
    2772                      .dwattr $C$DW$177, DW_AT_name("_OS_MemClr")
    2773                      .dwattr $C$DW$177, DW_AT_TI_call
    2774              
    2775 000003cb 7640!         LCR       #_OS_MemClr           ; [CPU_ALU] |889| 
         000003cc 0000 
    2776                      ; call occurs [#_OS_MemClr] ; [] |889| 
    2777                      .dwpsn  file "C:/ti/Workspace/PLC_certificate/Software/uCOS-II/Source/os_q.c",line 890,column 10,is_s
    2778 000003cd 2B45          MOV       *-SP[5],#0            ; [CPU_ALU] |890| 
    2779                      .dwpsn  file "C:/ti/Workspace/PLC_certificate/Software/uCOS-II/Source/os_q.c",line 890,column 19,is_s
    2780 000003ce 9245          MOV       AL,*-SP[5]            ; [CPU_ALU] |890| 
    2781 000003cf 5203          CMPB      AL,#3                 ; [CPU_ALU] |890| 
    2782 000003d0 6718          B         $C$L83,HIS            ; [CPU_ALU] |890| 
    2783                      ; branchcc occurs ; [] |890| 
    2784 000003d1 28AC          MOV       T,#12                 ; [CPU_ALU] |892| 
         000003d2 000C 
    2785 000003d3       $C$L82:    
    2786                      .dwpsn  file "C:/ti/Workspace/PLC_certificate/Software/uCOS-II/Source/os_q.c",line 891,column 9,is_st
    2787 000003d3 9C01          ADDB      AL,#1                 ; [CPU_ALU] |891| 
    2788 000003d4 9646          MOV       *-SP[6],AL            ; [CPU_ALU] |891| 
    2789                      .dwpsn  file "C:/ti/Workspace/PLC_certificate/Software/uCOS-II/Source/os_q.c",line 892,column 9,is_st
    2790 000003d5 8F00!         MOVL      XAR4,#_OSQTbl         ; [CPU_ARAU] |892| 
         000003d6 0000 
    2791 000003d7 3045          MPYXU     ACC,T,*-SP[5]         ; [CPU_ALU] |892| 
    2792 000003d8 5601          ADDL      XAR4,ACC              ; [CPU_ALU] |892| 
         000003d9 00A4 
    2793 000003da A842          MOVL      *-SP[2],XAR4          ; [CPU_ALU] |892| 
    2794                      .dwpsn  file "C:/ti/Workspace/PLC_certificate/Software/uCOS-II/Source/os_q.c",line 893,column 9,is_st
    2795 000003db 3046          MPYXU     ACC,T,*-SP[6]         ; [CPU_ALU] |893| 
    2796 000003dc 8F00!         MOVL      XAR4,#_OSQTbl         ; [CPU_ARAU] |893| 
         000003dd 0000 
    2797 000003de 5601          ADDL      XAR4,ACC              ; [CPU_ALU] |893| 
         000003df 00A4 
    2798 000003e0 A844          MOVL      *-SP[4],XAR4          ; [CPU_ALU] |893| 
    2799                      .dwpsn  file "C:/ti/Workspace/PLC_certificate/Software/uCOS-II/Source/os_q.c",line 894,column 9,is_st
    2800 000003e1 8A42          MOVL      XAR4,*-SP[2]          ; [CPU_ALU] |894| 
    2801 000003e2 0644          MOVL      ACC,*-SP[4]           ; [CPU_ALU] |894| 
    2802 000003e3 1EC4          MOVL      *+XAR4[0],ACC         ; [CPU_ALU] |894| 
    2803                      .dwpsn  file "C:/ti/Workspace/PLC_certificate/Software/uCOS-II/Source/os_q.c",line 890,column 42,is_s
    2804 000003e4 0A45          INC       *-SP[5]               ; [CPU_ALU] |890| 
    2805                      .dwpsn  file "C:/ti/Workspace/PLC_certificate/Software/uCOS-II/Source/os_q.c",line 890,column 19,is_s
    2806 000003e5 9245          MOV       AL,*-SP[5]            ; [CPU_ALU] |890| 
    2807 000003e6 5203          CMPB      AL,#3                 ; [CPU_ALU] |890| 
    2808 000003e7 68EC          B         $C$L82,LO             ; [CPU_ALU] |890| 
    2809                      ; branchcc occurs ; [] |890| 
    2810 000003e8       $C$L83:    
TMS320C2000 Assembler PC v20.2.1 Mon Jan 11 16:45:38 2021

Copyright (c) 1996-2018 Texas Instruments Incorporated
os_q.asm                                                             PAGE   54

    2811                      .dwpsn  file "C:/ti/Workspace/PLC_certificate/Software/uCOS-II/Source/os_q.c",line 896,column 5,is_st
    2812 000003e8 28AC          MOV       T,#12                 ; [CPU_ALU] |896| 
         000003e9 000C 
    2813 000003ea 8F00!         MOVL      XAR4,#_OSQTbl         ; [CPU_ARAU] |896| 
         000003eb 0000 
    2814 000003ec 3045          MPYXU     ACC,T,*-SP[5]         ; [CPU_ALU] |896| 
    2815 000003ed 5601          ADDL      XAR4,ACC              ; [CPU_ALU] |896| 
         000003ee 00A4 
    2816 000003ef A842          MOVL      *-SP[2],XAR4          ; [CPU_ALU] |896| 
    2817                      .dwpsn  file "C:/ti/Workspace/PLC_certificate/Software/uCOS-II/Source/os_q.c",line 897,column 5,is_st
    2818 000003f0 0200          MOVB      ACC,#0                ; [CPU_ALU] |897| 
    2819 000003f1 1EC4          MOVL      *+XAR4[0],ACC         ; [CPU_ALU] |897| 
    2820                      .dwpsn  file "C:/ti/Workspace/PLC_certificate/Software/uCOS-II/Source/os_q.c",line 898,column 5,is_st
    2821 000003f2 761F!         MOVW      DP,#_OSQFreeList      ; [CPU_ARAU] 
         000003f3 0000 
    2822 000003f4 8F00!         MOVL      XAR4,#_OSQTbl         ; [CPU_ARAU] |898| 
         000003f5 0000 
    2823 000003f6 A800!         MOVL      @_OSQFreeList,XAR4    ; [CPU_ALU] |898| 
    2824                      .dwpsn  file "C:/ti/Workspace/PLC_certificate/Software/uCOS-II/Source/os_q.c",line 900,column 1,is_st
    2825 000003f7 FE86          SUBB      SP,#6                 ; [CPU_ARAU] 
    2826                      .dwcfi  cfa_offset, -2
    2827              $C$DW$178       .dwtag  DW_TAG_TI_branch
    2828                      .dwattr $C$DW$178, DW_AT_low_pc(0x00)
    2829                      .dwattr $C$DW$178, DW_AT_TI_return
    2830              
    2831 000003f8 0006          LRETR     ; [CPU_ALU] 
    2832                      ; return occurs ; [] 
    2833                      .dwattr $C$DW$172, DW_AT_TI_end_file("C:/ti/Workspace/PLC_certificate/Software/uCOS-II/Source/os_q.c"
    2834                      .dwattr $C$DW$172, DW_AT_TI_end_line(0x384)
    2835                      .dwattr $C$DW$172, DW_AT_TI_end_column(0x01)
    2836                      .dwendentry
    2837                      .dwendtag $C$DW$172
    2838              
    2839              ;***************************************************************
    2840              ;* FAR STRINGS                                                 *
    2841              ;***************************************************************
    2842 00000000               .sect   ".econst:.string"
    2843                      .align  2
    2844 00000000 003F  $C$FSL1:        .string "?",0
         00000001 0000 
    2845              ;**************************************************************
    2846              ;* UNDEFINED EXTERNAL REFERENCES                              *
    2847              ;**************************************************************
    2848                      .global _OS_CPU_SR_Restore
    2849                      .global _OS_EventWaitListInit
    2850                      .global _OS_Sched
    2851                      .global _OS_EventTaskWait
    2852                      .global _OS_EventTaskRemove
    2853                      .global _OS_MemClr
    2854                      .global _OSIntNesting
    2855                      .global _OSLockNesting
    2856                      .global _OS_CPU_SR_Save
    2857                      .global _OS_EventTaskRdy
    2858                      .global _OSEventFreeList
    2859                      .global _OSTCBCur
TMS320C2000 Assembler PC v20.2.1 Mon Jan 11 16:45:38 2021

Copyright (c) 1996-2018 Texas Instruments Incorporated
os_q.asm                                                             PAGE   55

    2860                      .global _OSQFreeList
    2861                      .global _OSQTbl
    2862              
    2863              ;***************************************************************
    2864              ;* TYPE INFORMATION                                            *
    2865              ;***************************************************************
    2866              $C$DW$T$2       .dwtag  DW_TAG_unspecified_type
    2867                      .dwattr $C$DW$T$2, DW_AT_name("void")
    2868              
    2869              $C$DW$T$3       .dwtag  DW_TAG_pointer_type
    2870                      .dwattr $C$DW$T$3, DW_AT_type(*$C$DW$T$2)
    2871                      .dwattr $C$DW$T$3, DW_AT_address_class(0x20)
    2872              
    2873              $C$DW$T$28      .dwtag  DW_TAG_pointer_type
    2874                      .dwattr $C$DW$T$28, DW_AT_type(*$C$DW$T$3)
    2875                      .dwattr $C$DW$T$28, DW_AT_address_class(0x20)
    2876              
    2877              $C$DW$T$4       .dwtag  DW_TAG_base_type
    2878                      .dwattr $C$DW$T$4, DW_AT_encoding(DW_ATE_boolean)
    2879                      .dwattr $C$DW$T$4, DW_AT_name("bool")
    2880                      .dwattr $C$DW$T$4, DW_AT_byte_size(0x01)
    2881              
    2882              $C$DW$T$5       .dwtag  DW_TAG_base_type
    2883                      .dwattr $C$DW$T$5, DW_AT_encoding(DW_ATE_signed_char)
    2884                      .dwattr $C$DW$T$5, DW_AT_name("signed char")
    2885                      .dwattr $C$DW$T$5, DW_AT_byte_size(0x01)
    2886              
    2887              $C$DW$T$6       .dwtag  DW_TAG_base_type
    2888                      .dwattr $C$DW$T$6, DW_AT_encoding(DW_ATE_unsigned_char)
    2889                      .dwattr $C$DW$T$6, DW_AT_name("unsigned char")
    2890                      .dwattr $C$DW$T$6, DW_AT_byte_size(0x01)
    2891              
    2892              $C$DW$T$57      .dwtag  DW_TAG_typedef
    2893                      .dwattr $C$DW$T$57, DW_AT_name("BOOLEAN")
    2894                      .dwattr $C$DW$T$57, DW_AT_type(*$C$DW$T$6)
    2895                      .dwattr $C$DW$T$57, DW_AT_language(DW_LANG_C)
    2896              
    2897              $C$DW$T$19      .dwtag  DW_TAG_typedef
    2898                      .dwattr $C$DW$T$19, DW_AT_name("INT8U")
    2899                      .dwattr $C$DW$T$19, DW_AT_type(*$C$DW$T$6)
    2900                      .dwattr $C$DW$T$19, DW_AT_language(DW_LANG_C)
    2901              
    2902              $C$DW$T$21      .dwtag  DW_TAG_typedef
    2903                      .dwattr $C$DW$T$21, DW_AT_name("OS_PRIO")
    2904                      .dwattr $C$DW$T$21, DW_AT_type(*$C$DW$T$19)
    2905                      .dwattr $C$DW$T$21, DW_AT_language(DW_LANG_C)
    2906              
    2907              
    2908              $C$DW$T$22      .dwtag  DW_TAG_array_type
    2909                      .dwattr $C$DW$T$22, DW_AT_type(*$C$DW$T$21)
    2910                      .dwattr $C$DW$T$22, DW_AT_language(DW_LANG_C)
    2911                      .dwattr $C$DW$T$22, DW_AT_byte_size(0x08)
    2912              $C$DW$179       .dwtag  DW_TAG_subrange_type
    2913                      .dwattr $C$DW$179, DW_AT_upper_bound(0x07)
    2914              
TMS320C2000 Assembler PC v20.2.1 Mon Jan 11 16:45:38 2021

Copyright (c) 1996-2018 Texas Instruments Incorporated
os_q.asm                                                             PAGE   56

    2915                      .dwendtag $C$DW$T$22
    2916              
    2917              $C$DW$T$58      .dwtag  DW_TAG_pointer_type
    2918                      .dwattr $C$DW$T$58, DW_AT_type(*$C$DW$T$21)
    2919                      .dwattr $C$DW$T$58, DW_AT_address_class(0x20)
    2920              
    2921              $C$DW$T$23      .dwtag  DW_TAG_pointer_type
    2922                      .dwattr $C$DW$T$23, DW_AT_type(*$C$DW$T$19)
    2923                      .dwattr $C$DW$T$23, DW_AT_address_class(0x20)
    2924              
    2925              $C$DW$T$7       .dwtag  DW_TAG_base_type
    2926                      .dwattr $C$DW$T$7, DW_AT_encoding(DW_ATE_signed_char)
    2927                      .dwattr $C$DW$T$7, DW_AT_name("wchar_t")
    2928                      .dwattr $C$DW$T$7, DW_AT_byte_size(0x01)
    2929              
    2930              $C$DW$T$8       .dwtag  DW_TAG_base_type
    2931                      .dwattr $C$DW$T$8, DW_AT_encoding(DW_ATE_signed)
    2932                      .dwattr $C$DW$T$8, DW_AT_name("short")
    2933                      .dwattr $C$DW$T$8, DW_AT_byte_size(0x01)
    2934              
    2935              $C$DW$T$9       .dwtag  DW_TAG_base_type
    2936                      .dwattr $C$DW$T$9, DW_AT_encoding(DW_ATE_unsigned)
    2937                      .dwattr $C$DW$T$9, DW_AT_name("unsigned short")
    2938                      .dwattr $C$DW$T$9, DW_AT_byte_size(0x01)
    2939              
    2940              $C$DW$T$20      .dwtag  DW_TAG_typedef
    2941                      .dwattr $C$DW$T$20, DW_AT_name("INT16U")
    2942                      .dwattr $C$DW$T$20, DW_AT_type(*$C$DW$T$9)
    2943                      .dwattr $C$DW$T$20, DW_AT_language(DW_LANG_C)
    2944              
    2945              $C$DW$T$25      .dwtag  DW_TAG_typedef
    2946                      .dwattr $C$DW$T$25, DW_AT_name("OS_FLAGS")
    2947                      .dwattr $C$DW$T$25, DW_AT_type(*$C$DW$T$20)
    2948                      .dwattr $C$DW$T$25, DW_AT_language(DW_LANG_C)
    2949              
    2950              $C$DW$T$44      .dwtag  DW_TAG_typedef
    2951                      .dwattr $C$DW$T$44, DW_AT_name("OS_CPU_SR")
    2952                      .dwattr $C$DW$T$44, DW_AT_type(*$C$DW$T$9)
    2953                      .dwattr $C$DW$T$44, DW_AT_language(DW_LANG_C)
    2954              
    2955              $C$DW$T$31      .dwtag  DW_TAG_typedef
    2956                      .dwattr $C$DW$T$31, DW_AT_name("OS_STK")
    2957                      .dwattr $C$DW$T$31, DW_AT_type(*$C$DW$T$9)
    2958                      .dwattr $C$DW$T$31, DW_AT_language(DW_LANG_C)
    2959              
    2960              $C$DW$T$32      .dwtag  DW_TAG_pointer_type
    2961                      .dwattr $C$DW$T$32, DW_AT_type(*$C$DW$T$31)
    2962                      .dwattr $C$DW$T$32, DW_AT_address_class(0x20)
    2963              
    2964              $C$DW$T$10      .dwtag  DW_TAG_base_type
    2965                      .dwattr $C$DW$T$10, DW_AT_encoding(DW_ATE_signed)
    2966                      .dwattr $C$DW$T$10, DW_AT_name("int")
    2967                      .dwattr $C$DW$T$10, DW_AT_byte_size(0x01)
    2968              
    2969              $C$DW$T$11      .dwtag  DW_TAG_base_type
TMS320C2000 Assembler PC v20.2.1 Mon Jan 11 16:45:38 2021

Copyright (c) 1996-2018 Texas Instruments Incorporated
os_q.asm                                                             PAGE   57

    2970                      .dwattr $C$DW$T$11, DW_AT_encoding(DW_ATE_unsigned)
    2971                      .dwattr $C$DW$T$11, DW_AT_name("unsigned int")
    2972                      .dwattr $C$DW$T$11, DW_AT_byte_size(0x01)
    2973              
    2974              $C$DW$T$12      .dwtag  DW_TAG_base_type
    2975                      .dwattr $C$DW$T$12, DW_AT_encoding(DW_ATE_signed)
    2976                      .dwattr $C$DW$T$12, DW_AT_name("long")
    2977                      .dwattr $C$DW$T$12, DW_AT_byte_size(0x02)
    2978              
    2979              $C$DW$T$13      .dwtag  DW_TAG_base_type
    2980                      .dwattr $C$DW$T$13, DW_AT_encoding(DW_ATE_unsigned)
    2981                      .dwattr $C$DW$T$13, DW_AT_name("unsigned long")
    2982                      .dwattr $C$DW$T$13, DW_AT_byte_size(0x02)
    2983              
    2984              $C$DW$T$33      .dwtag  DW_TAG_typedef
    2985                      .dwattr $C$DW$T$33, DW_AT_name("INT32U")
    2986                      .dwattr $C$DW$T$33, DW_AT_type(*$C$DW$T$13)
    2987                      .dwattr $C$DW$T$33, DW_AT_language(DW_LANG_C)
    2988              
    2989              
    2990              $C$DW$T$40      .dwtag  DW_TAG_array_type
    2991                      .dwattr $C$DW$T$40, DW_AT_type(*$C$DW$T$33)
    2992                      .dwattr $C$DW$T$40, DW_AT_language(DW_LANG_C)
    2993                      .dwattr $C$DW$T$40, DW_AT_byte_size(0x02)
    2994              $C$DW$180       .dwtag  DW_TAG_subrange_type
    2995                      .dwattr $C$DW$180, DW_AT_upper_bound(0x00)
    2996              
    2997                      .dwendtag $C$DW$T$40
    2998              
    2999              $C$DW$T$14      .dwtag  DW_TAG_base_type
    3000                      .dwattr $C$DW$T$14, DW_AT_encoding(DW_ATE_signed)
    3001                      .dwattr $C$DW$T$14, DW_AT_name("long long")
    3002                      .dwattr $C$DW$T$14, DW_AT_byte_size(0x04)
    3003              
    3004              $C$DW$T$15      .dwtag  DW_TAG_base_type
    3005                      .dwattr $C$DW$T$15, DW_AT_encoding(DW_ATE_unsigned)
    3006                      .dwattr $C$DW$T$15, DW_AT_name("unsigned long long")
    3007                      .dwattr $C$DW$T$15, DW_AT_byte_size(0x04)
    3008              
    3009              $C$DW$T$16      .dwtag  DW_TAG_base_type
    3010                      .dwattr $C$DW$T$16, DW_AT_encoding(DW_ATE_float)
    3011                      .dwattr $C$DW$T$16, DW_AT_name("float")
    3012                      .dwattr $C$DW$T$16, DW_AT_byte_size(0x02)
    3013              
    3014              $C$DW$T$17      .dwtag  DW_TAG_base_type
    3015                      .dwattr $C$DW$T$17, DW_AT_encoding(DW_ATE_float)
    3016                      .dwattr $C$DW$T$17, DW_AT_name("double")
    3017                      .dwattr $C$DW$T$17, DW_AT_byte_size(0x02)
    3018              
    3019              $C$DW$T$18      .dwtag  DW_TAG_base_type
    3020                      .dwattr $C$DW$T$18, DW_AT_encoding(DW_ATE_float)
    3021                      .dwattr $C$DW$T$18, DW_AT_name("long double")
    3022                      .dwattr $C$DW$T$18, DW_AT_byte_size(0x04)
    3023              
    3024              
TMS320C2000 Assembler PC v20.2.1 Mon Jan 11 16:45:38 2021

Copyright (c) 1996-2018 Texas Instruments Incorporated
os_q.asm                                                             PAGE   58

    3025              $C$DW$T$24      .dwtag  DW_TAG_structure_type
    3026                      .dwattr $C$DW$T$24, DW_AT_name("os_event")
    3027                      .dwattr $C$DW$T$24, DW_AT_byte_size(0x10)
    3028              $C$DW$181       .dwtag  DW_TAG_member
    3029                      .dwattr $C$DW$181, DW_AT_type(*$C$DW$T$19)
    3030                      .dwattr $C$DW$181, DW_AT_name("OSEventType")
    3031                      .dwattr $C$DW$181, DW_AT_TI_symbol_name("_OSEventType")
    3032                      .dwattr $C$DW$181, DW_AT_data_member_location[DW_OP_plus_uconst 0x0]
    3033                      .dwattr $C$DW$181, DW_AT_accessibility(DW_ACCESS_public)
    3034              
    3035              $C$DW$182       .dwtag  DW_TAG_member
    3036                      .dwattr $C$DW$182, DW_AT_type(*$C$DW$T$3)
    3037                      .dwattr $C$DW$182, DW_AT_name("OSEventPtr")
    3038                      .dwattr $C$DW$182, DW_AT_TI_symbol_name("_OSEventPtr")
    3039                      .dwattr $C$DW$182, DW_AT_data_member_location[DW_OP_plus_uconst 0x2]
    3040                      .dwattr $C$DW$182, DW_AT_accessibility(DW_ACCESS_public)
    3041              
    3042              $C$DW$183       .dwtag  DW_TAG_member
    3043                      .dwattr $C$DW$183, DW_AT_type(*$C$DW$T$20)
    3044                      .dwattr $C$DW$183, DW_AT_name("OSEventCnt")
    3045                      .dwattr $C$DW$183, DW_AT_TI_symbol_name("_OSEventCnt")
    3046                      .dwattr $C$DW$183, DW_AT_data_member_location[DW_OP_plus_uconst 0x4]
    3047                      .dwattr $C$DW$183, DW_AT_accessibility(DW_ACCESS_public)
    3048              
    3049              $C$DW$184       .dwtag  DW_TAG_member
    3050                      .dwattr $C$DW$184, DW_AT_type(*$C$DW$T$21)
    3051                      .dwattr $C$DW$184, DW_AT_name("OSEventGrp")
    3052                      .dwattr $C$DW$184, DW_AT_TI_symbol_name("_OSEventGrp")
    3053                      .dwattr $C$DW$184, DW_AT_data_member_location[DW_OP_plus_uconst 0x5]
    3054                      .dwattr $C$DW$184, DW_AT_accessibility(DW_ACCESS_public)
    3055              
    3056              $C$DW$185       .dwtag  DW_TAG_member
    3057                      .dwattr $C$DW$185, DW_AT_type(*$C$DW$T$22)
    3058                      .dwattr $C$DW$185, DW_AT_name("OSEventTbl")
    3059                      .dwattr $C$DW$185, DW_AT_TI_symbol_name("_OSEventTbl")
    3060                      .dwattr $C$DW$185, DW_AT_data_member_location[DW_OP_plus_uconst 0x6]
    3061                      .dwattr $C$DW$185, DW_AT_accessibility(DW_ACCESS_public)
    3062              
    3063              $C$DW$186       .dwtag  DW_TAG_member
    3064                      .dwattr $C$DW$186, DW_AT_type(*$C$DW$T$23)
    3065                      .dwattr $C$DW$186, DW_AT_name("OSEventName")
    3066                      .dwattr $C$DW$186, DW_AT_TI_symbol_name("_OSEventName")
    3067                      .dwattr $C$DW$186, DW_AT_data_member_location[DW_OP_plus_uconst 0xe]
    3068                      .dwattr $C$DW$186, DW_AT_accessibility(DW_ACCESS_public)
    3069              
    3070                      .dwendtag $C$DW$T$24
    3071              
    3072              $C$DW$T$35      .dwtag  DW_TAG_typedef
    3073                      .dwattr $C$DW$T$35, DW_AT_name("OS_EVENT")
    3074                      .dwattr $C$DW$T$35, DW_AT_type(*$C$DW$T$24)
    3075                      .dwattr $C$DW$T$35, DW_AT_language(DW_LANG_C)
    3076              
    3077              $C$DW$T$36      .dwtag  DW_TAG_pointer_type
    3078                      .dwattr $C$DW$T$36, DW_AT_type(*$C$DW$T$35)
    3079                      .dwattr $C$DW$T$36, DW_AT_address_class(0x20)
TMS320C2000 Assembler PC v20.2.1 Mon Jan 11 16:45:38 2021

Copyright (c) 1996-2018 Texas Instruments Incorporated
os_q.asm                                                             PAGE   59

    3080              
    3081              $C$DW$T$37      .dwtag  DW_TAG_pointer_type
    3082                      .dwattr $C$DW$T$37, DW_AT_type(*$C$DW$T$36)
    3083                      .dwattr $C$DW$T$37, DW_AT_address_class(0x20)
    3084              
    3085              
    3086              $C$DW$T$26      .dwtag  DW_TAG_structure_type
    3087                      .dwattr $C$DW$T$26, DW_AT_name("os_flag_node")
    3088                      .dwattr $C$DW$T$26, DW_AT_byte_size(0x0a)
    3089              $C$DW$187       .dwtag  DW_TAG_member
    3090                      .dwattr $C$DW$187, DW_AT_type(*$C$DW$T$3)
    3091                      .dwattr $C$DW$187, DW_AT_name("OSFlagNodeNext")
    3092                      .dwattr $C$DW$187, DW_AT_TI_symbol_name("_OSFlagNodeNext")
    3093                      .dwattr $C$DW$187, DW_AT_data_member_location[DW_OP_plus_uconst 0x0]
    3094                      .dwattr $C$DW$187, DW_AT_accessibility(DW_ACCESS_public)
    3095              
    3096              $C$DW$188       .dwtag  DW_TAG_member
    3097                      .dwattr $C$DW$188, DW_AT_type(*$C$DW$T$3)
    3098                      .dwattr $C$DW$188, DW_AT_name("OSFlagNodePrev")
    3099                      .dwattr $C$DW$188, DW_AT_TI_symbol_name("_OSFlagNodePrev")
    3100                      .dwattr $C$DW$188, DW_AT_data_member_location[DW_OP_plus_uconst 0x2]
    3101                      .dwattr $C$DW$188, DW_AT_accessibility(DW_ACCESS_public)
    3102              
    3103              $C$DW$189       .dwtag  DW_TAG_member
    3104                      .dwattr $C$DW$189, DW_AT_type(*$C$DW$T$3)
    3105                      .dwattr $C$DW$189, DW_AT_name("OSFlagNodeTCB")
    3106                      .dwattr $C$DW$189, DW_AT_TI_symbol_name("_OSFlagNodeTCB")
    3107                      .dwattr $C$DW$189, DW_AT_data_member_location[DW_OP_plus_uconst 0x4]
    3108                      .dwattr $C$DW$189, DW_AT_accessibility(DW_ACCESS_public)
    3109              
    3110              $C$DW$190       .dwtag  DW_TAG_member
    3111                      .dwattr $C$DW$190, DW_AT_type(*$C$DW$T$3)
    3112                      .dwattr $C$DW$190, DW_AT_name("OSFlagNodeFlagGrp")
    3113                      .dwattr $C$DW$190, DW_AT_TI_symbol_name("_OSFlagNodeFlagGrp")
    3114                      .dwattr $C$DW$190, DW_AT_data_member_location[DW_OP_plus_uconst 0x6]
    3115                      .dwattr $C$DW$190, DW_AT_accessibility(DW_ACCESS_public)
    3116              
    3117              $C$DW$191       .dwtag  DW_TAG_member
    3118                      .dwattr $C$DW$191, DW_AT_type(*$C$DW$T$25)
    3119                      .dwattr $C$DW$191, DW_AT_name("OSFlagNodeFlags")
    3120                      .dwattr $C$DW$191, DW_AT_TI_symbol_name("_OSFlagNodeFlags")
    3121                      .dwattr $C$DW$191, DW_AT_data_member_location[DW_OP_plus_uconst 0x8]
    3122                      .dwattr $C$DW$191, DW_AT_accessibility(DW_ACCESS_public)
    3123              
    3124              $C$DW$192       .dwtag  DW_TAG_member
    3125                      .dwattr $C$DW$192, DW_AT_type(*$C$DW$T$19)
    3126                      .dwattr $C$DW$192, DW_AT_name("OSFlagNodeWaitType")
    3127                      .dwattr $C$DW$192, DW_AT_TI_symbol_name("_OSFlagNodeWaitType")
    3128                      .dwattr $C$DW$192, DW_AT_data_member_location[DW_OP_plus_uconst 0x9]
    3129                      .dwattr $C$DW$192, DW_AT_accessibility(DW_ACCESS_public)
    3130              
    3131                      .dwendtag $C$DW$T$26
    3132              
    3133              $C$DW$T$38      .dwtag  DW_TAG_typedef
    3134                      .dwattr $C$DW$T$38, DW_AT_name("OS_FLAG_NODE")
TMS320C2000 Assembler PC v20.2.1 Mon Jan 11 16:45:38 2021

Copyright (c) 1996-2018 Texas Instruments Incorporated
os_q.asm                                                             PAGE   60

    3135                      .dwattr $C$DW$T$38, DW_AT_type(*$C$DW$T$26)
    3136                      .dwattr $C$DW$T$38, DW_AT_language(DW_LANG_C)
    3137              
    3138              $C$DW$T$39      .dwtag  DW_TAG_pointer_type
    3139                      .dwattr $C$DW$T$39, DW_AT_type(*$C$DW$T$38)
    3140                      .dwattr $C$DW$T$39, DW_AT_address_class(0x20)
    3141              
