TMS320C2000 Assembler PC v20.2.1 Mon Feb  8 19:02:48 2021

Copyright (c) 1996-2018 Texas Instruments Incorporated
os_task.asm                                                          PAGE    1

       1              ;***************************************************************
       2              ;* TMS320C2000 G3 C/C++ Codegen                               PC v20.2.1.LTS *
       3              ;* Date/Time created: Mon Feb  8 19:02:48 2021                 *
       4              ;***************************************************************
       5                      .compiler_opts --abi=coffabi --diag_wrap=off --float_support=softlib --hll_source=on --mem_model:code
       6                      .asg    XAR2, FP
       7              
       8              $C$DW$CU        .dwtag  DW_TAG_compile_unit
       9                      .dwattr $C$DW$CU, DW_AT_name("C:/ti/Workspace/PLC_certificate/Software/uCOS-II/Source/os_task.c")
      10                      .dwattr $C$DW$CU, DW_AT_producer("TI TMS320C2000 G3 C/C++ Codegen PC v20.2.1.LTS Copyright (c) 1996-2
      11                      .dwattr $C$DW$CU, DW_AT_TI_version(0x01)
      12                      .dwattr $C$DW$CU, DW_AT_comp_dir("C:\ti\Workspace\PLC_certificate\Examples\TI\TMDSDOCK28335\OS2\CCS\D
      13              
      14              $C$DW$1 .dwtag  DW_TAG_subprogram
      15                      .dwattr $C$DW$1, DW_AT_name("OS_CPU_SR_Restore")
      16                      .dwattr $C$DW$1, DW_AT_TI_symbol_name("_OS_CPU_SR_Restore")
      17                      .dwattr $C$DW$1, DW_AT_declaration
      18                      .dwattr $C$DW$1, DW_AT_external
      19              $C$DW$2 .dwtag  DW_TAG_formal_parameter
      20                      .dwattr $C$DW$2, DW_AT_type(*$C$DW$T$39)
      21              
      22                      .dwendtag $C$DW$1
      23              
      24              
      25              $C$DW$3 .dwtag  DW_TAG_subprogram
      26                      .dwattr $C$DW$3, DW_AT_name("OS_Sched")
      27                      .dwattr $C$DW$3, DW_AT_TI_symbol_name("_OS_Sched")
      28                      .dwattr $C$DW$3, DW_AT_declaration
      29                      .dwattr $C$DW$3, DW_AT_external
      30                      .dwendtag $C$DW$3
      31              
      32              
      33              $C$DW$4 .dwtag  DW_TAG_subprogram
      34                      .dwattr $C$DW$4, DW_AT_name("OS_EventTaskRemove")
      35                      .dwattr $C$DW$4, DW_AT_TI_symbol_name("_OS_EventTaskRemove")
      36                      .dwattr $C$DW$4, DW_AT_declaration
      37                      .dwattr $C$DW$4, DW_AT_external
      38              $C$DW$5 .dwtag  DW_TAG_formal_parameter
      39                      .dwattr $C$DW$5, DW_AT_type(*$C$DW$T$45)
      40              
      41              $C$DW$6 .dwtag  DW_TAG_formal_parameter
      42                      .dwattr $C$DW$6, DW_AT_type(*$C$DW$T$33)
      43              
      44                      .dwendtag $C$DW$4
      45              
      46              
      47              $C$DW$7 .dwtag  DW_TAG_subprogram
      48                      .dwattr $C$DW$7, DW_AT_name("OS_EventTaskRemoveMulti")
      49                      .dwattr $C$DW$7, DW_AT_TI_symbol_name("_OS_EventTaskRemoveMulti")
      50                      .dwattr $C$DW$7, DW_AT_declaration
      51                      .dwattr $C$DW$7, DW_AT_external
      52              $C$DW$8 .dwtag  DW_TAG_formal_parameter
      53                      .dwattr $C$DW$8, DW_AT_type(*$C$DW$T$45)
      54              
      55              $C$DW$9 .dwtag  DW_TAG_formal_parameter
TMS320C2000 Assembler PC v20.2.1 Mon Feb  8 19:02:48 2021

Copyright (c) 1996-2018 Texas Instruments Incorporated
os_task.asm                                                          PAGE    2

      56                      .dwattr $C$DW$9, DW_AT_type(*$C$DW$T$34)
      57              
      58                      .dwendtag $C$DW$7
      59              
      60              
      61              $C$DW$10        .dwtag  DW_TAG_subprogram
      62                      .dwattr $C$DW$10, DW_AT_name("OS_FlagUnlink")
      63                      .dwattr $C$DW$10, DW_AT_TI_symbol_name("_OS_FlagUnlink")
      64                      .dwattr $C$DW$10, DW_AT_declaration
      65                      .dwattr $C$DW$10, DW_AT_external
      66              $C$DW$11        .dwtag  DW_TAG_formal_parameter
      67                      .dwattr $C$DW$11, DW_AT_type(*$C$DW$T$36)
      68              
      69                      .dwendtag $C$DW$10
      70              
      71              
      72              $C$DW$12        .dwtag  DW_TAG_subprogram
      73                      .dwattr $C$DW$12, DW_AT_name("OS_Dummy")
      74                      .dwattr $C$DW$12, DW_AT_TI_symbol_name("_OS_Dummy")
      75                      .dwattr $C$DW$12, DW_AT_declaration
      76                      .dwattr $C$DW$12, DW_AT_external
      77                      .dwendtag $C$DW$12
      78              
      79              
      80              $C$DW$13        .dwtag  DW_TAG_subprogram
      81                      .dwattr $C$DW$13, DW_AT_name("OSTaskDelHook")
      82                      .dwattr $C$DW$13, DW_AT_TI_symbol_name("_OSTaskDelHook")
      83                      .dwattr $C$DW$13, DW_AT_declaration
      84                      .dwattr $C$DW$13, DW_AT_external
      85              $C$DW$14        .dwtag  DW_TAG_formal_parameter
      86                      .dwattr $C$DW$14, DW_AT_type(*$C$DW$T$45)
      87              
      88                      .dwendtag $C$DW$13
      89              
      90              
      91              $C$DW$15        .dwtag  DW_TAG_subprogram
      92                      .dwattr $C$DW$15, DW_AT_name("OS_MemCopy")
      93                      .dwattr $C$DW$15, DW_AT_TI_symbol_name("_OS_MemCopy")
      94                      .dwattr $C$DW$15, DW_AT_declaration
      95                      .dwattr $C$DW$15, DW_AT_external
      96              $C$DW$16        .dwtag  DW_TAG_formal_parameter
      97                      .dwattr $C$DW$16, DW_AT_type(*$C$DW$T$23)
      98              
      99              $C$DW$17        .dwtag  DW_TAG_formal_parameter
     100                      .dwattr $C$DW$17, DW_AT_type(*$C$DW$T$23)
     101              
     102              $C$DW$18        .dwtag  DW_TAG_formal_parameter
     103                      .dwattr $C$DW$18, DW_AT_type(*$C$DW$T$20)
     104              
     105                      .dwendtag $C$DW$15
     106              
     107              
     108              $C$DW$19        .dwtag  DW_TAG_subprogram
     109                      .dwattr $C$DW$19, DW_AT_name("OSTaskReturnHook")
     110                      .dwattr $C$DW$19, DW_AT_TI_symbol_name("_OSTaskReturnHook")
TMS320C2000 Assembler PC v20.2.1 Mon Feb  8 19:02:48 2021

Copyright (c) 1996-2018 Texas Instruments Incorporated
os_task.asm                                                          PAGE    3

     111                      .dwattr $C$DW$19, DW_AT_declaration
     112                      .dwattr $C$DW$19, DW_AT_external
     113              $C$DW$20        .dwtag  DW_TAG_formal_parameter
     114                      .dwattr $C$DW$20, DW_AT_type(*$C$DW$T$45)
     115              
     116                      .dwendtag $C$DW$19
     117              
     118              $C$DW$21        .dwtag  DW_TAG_variable
     119                      .dwattr $C$DW$21, DW_AT_name("OSIntNesting")
     120                      .dwattr $C$DW$21, DW_AT_TI_symbol_name("_OSIntNesting")
     121                      .dwattr $C$DW$21, DW_AT_type(*$C$DW$T$19)
     122                      .dwattr $C$DW$21, DW_AT_declaration
     123                      .dwattr $C$DW$21, DW_AT_external
     124              
     125              $C$DW$22        .dwtag  DW_TAG_variable
     126                      .dwattr $C$DW$22, DW_AT_name("OSLockNesting")
     127                      .dwattr $C$DW$22, DW_AT_TI_symbol_name("_OSLockNesting")
     128                      .dwattr $C$DW$22, DW_AT_type(*$C$DW$T$19)
     129                      .dwattr $C$DW$22, DW_AT_declaration
     130                      .dwattr $C$DW$22, DW_AT_external
     131              
     132              $C$DW$23        .dwtag  DW_TAG_variable
     133                      .dwattr $C$DW$23, DW_AT_name("OSRdyGrp")
     134                      .dwattr $C$DW$23, DW_AT_TI_symbol_name("_OSRdyGrp")
     135                      .dwattr $C$DW$23, DW_AT_type(*$C$DW$T$21)
     136                      .dwattr $C$DW$23, DW_AT_declaration
     137                      .dwattr $C$DW$23, DW_AT_external
     138              
     139              $C$DW$24        .dwtag  DW_TAG_variable
     140                      .dwattr $C$DW$24, DW_AT_name("OSRunning")
     141                      .dwattr $C$DW$24, DW_AT_TI_symbol_name("_OSRunning")
     142                      .dwattr $C$DW$24, DW_AT_type(*$C$DW$T$62)
     143                      .dwattr $C$DW$24, DW_AT_declaration
     144                      .dwattr $C$DW$24, DW_AT_external
     145              
     146              $C$DW$25        .dwtag  DW_TAG_variable
     147                      .dwattr $C$DW$25, DW_AT_name("OSTaskCtr")
     148                      .dwattr $C$DW$25, DW_AT_TI_symbol_name("_OSTaskCtr")
     149                      .dwattr $C$DW$25, DW_AT_type(*$C$DW$T$19)
     150                      .dwattr $C$DW$25, DW_AT_declaration
     151                      .dwattr $C$DW$25, DW_AT_external
     152              
     153              $C$DW$26        .dwtag  DW_TAG_variable
     154                      .dwattr $C$DW$26, DW_AT_name("OSTaskRegNextAvailID")
     155                      .dwattr $C$DW$26, DW_AT_TI_symbol_name("_OSTaskRegNextAvailID")
     156                      .dwattr $C$DW$26, DW_AT_type(*$C$DW$T$19)
     157                      .dwattr $C$DW$26, DW_AT_declaration
     158                      .dwattr $C$DW$26, DW_AT_external
     159              
     160              
     161              $C$DW$27        .dwtag  DW_TAG_subprogram
     162                      .dwattr $C$DW$27, DW_AT_name("OS_CPU_SR_Save")
     163                      .dwattr $C$DW$27, DW_AT_TI_symbol_name("_OS_CPU_SR_Save")
     164                      .dwattr $C$DW$27, DW_AT_type(*$C$DW$T$39)
     165                      .dwattr $C$DW$27, DW_AT_declaration
TMS320C2000 Assembler PC v20.2.1 Mon Feb  8 19:02:48 2021

Copyright (c) 1996-2018 Texas Instruments Incorporated
os_task.asm                                                          PAGE    4

     166                      .dwattr $C$DW$27, DW_AT_external
     167                      .dwendtag $C$DW$27
     168              
     169              
     170              $C$DW$28        .dwtag  DW_TAG_subprogram
     171                      .dwattr $C$DW$28, DW_AT_name("OS_TCBInit")
     172                      .dwattr $C$DW$28, DW_AT_TI_symbol_name("_OS_TCBInit")
     173                      .dwattr $C$DW$28, DW_AT_type(*$C$DW$T$19)
     174                      .dwattr $C$DW$28, DW_AT_declaration
     175                      .dwattr $C$DW$28, DW_AT_external
     176              $C$DW$29        .dwtag  DW_TAG_formal_parameter
     177                      .dwattr $C$DW$29, DW_AT_type(*$C$DW$T$19)
     178              
     179              $C$DW$30        .dwtag  DW_TAG_formal_parameter
     180                      .dwattr $C$DW$30, DW_AT_type(*$C$DW$T$30)
     181              
     182              $C$DW$31        .dwtag  DW_TAG_formal_parameter
     183                      .dwattr $C$DW$31, DW_AT_type(*$C$DW$T$30)
     184              
     185              $C$DW$32        .dwtag  DW_TAG_formal_parameter
     186                      .dwattr $C$DW$32, DW_AT_type(*$C$DW$T$20)
     187              
     188              $C$DW$33        .dwtag  DW_TAG_formal_parameter
     189                      .dwattr $C$DW$33, DW_AT_type(*$C$DW$T$27)
     190              
     191              $C$DW$34        .dwtag  DW_TAG_formal_parameter
     192                      .dwattr $C$DW$34, DW_AT_type(*$C$DW$T$3)
     193              
     194              $C$DW$35        .dwtag  DW_TAG_formal_parameter
     195                      .dwattr $C$DW$35, DW_AT_type(*$C$DW$T$20)
     196              
     197                      .dwendtag $C$DW$28
     198              
     199              
     200              $C$DW$36        .dwtag  DW_TAG_subprogram
     201                      .dwattr $C$DW$36, DW_AT_name("OS_StrLen")
     202                      .dwattr $C$DW$36, DW_AT_TI_symbol_name("_OS_StrLen")
     203                      .dwattr $C$DW$36, DW_AT_type(*$C$DW$T$19)
     204                      .dwattr $C$DW$36, DW_AT_declaration
     205                      .dwattr $C$DW$36, DW_AT_external
     206              $C$DW$37        .dwtag  DW_TAG_formal_parameter
     207                      .dwattr $C$DW$37, DW_AT_type(*$C$DW$T$23)
     208              
     209                      .dwendtag $C$DW$36
     210              
     211              $C$DW$38        .dwtag  DW_TAG_variable
     212                      .dwattr $C$DW$38, DW_AT_name("OSTCBCur")
     213                      .dwattr $C$DW$38, DW_AT_TI_symbol_name("_OSTCBCur")
     214                      .dwattr $C$DW$38, DW_AT_type(*$C$DW$T$45)
     215                      .dwattr $C$DW$38, DW_AT_declaration
     216                      .dwattr $C$DW$38, DW_AT_external
     217              
     218              $C$DW$39        .dwtag  DW_TAG_variable
     219                      .dwattr $C$DW$39, DW_AT_name("OSTCBFreeList")
     220                      .dwattr $C$DW$39, DW_AT_TI_symbol_name("_OSTCBFreeList")
TMS320C2000 Assembler PC v20.2.1 Mon Feb  8 19:02:48 2021

Copyright (c) 1996-2018 Texas Instruments Incorporated
os_task.asm                                                          PAGE    5

     221                      .dwattr $C$DW$39, DW_AT_type(*$C$DW$T$45)
     222                      .dwattr $C$DW$39, DW_AT_declaration
     223                      .dwattr $C$DW$39, DW_AT_external
     224              
     225              $C$DW$40        .dwtag  DW_TAG_variable
     226                      .dwattr $C$DW$40, DW_AT_name("OSTCBList")
     227                      .dwattr $C$DW$40, DW_AT_TI_symbol_name("_OSTCBList")
     228                      .dwattr $C$DW$40, DW_AT_type(*$C$DW$T$45)
     229                      .dwattr $C$DW$40, DW_AT_declaration
     230                      .dwattr $C$DW$40, DW_AT_external
     231              
     232              
     233              $C$DW$41        .dwtag  DW_TAG_subprogram
     234                      .dwattr $C$DW$41, DW_AT_name("OSTaskStkInit")
     235                      .dwattr $C$DW$41, DW_AT_TI_symbol_name("_OSTaskStkInit")
     236                      .dwattr $C$DW$41, DW_AT_type(*$C$DW$T$30)
     237                      .dwattr $C$DW$41, DW_AT_declaration
     238                      .dwattr $C$DW$41, DW_AT_external
     239              $C$DW$42        .dwtag  DW_TAG_formal_parameter
     240                      .dwattr $C$DW$42, DW_AT_type(*$C$DW$T$57)
     241              
     242              $C$DW$43        .dwtag  DW_TAG_formal_parameter
     243                      .dwattr $C$DW$43, DW_AT_type(*$C$DW$T$3)
     244              
     245              $C$DW$44        .dwtag  DW_TAG_formal_parameter
     246                      .dwattr $C$DW$44, DW_AT_type(*$C$DW$T$30)
     247              
     248              $C$DW$45        .dwtag  DW_TAG_formal_parameter
     249                      .dwattr $C$DW$45, DW_AT_type(*$C$DW$T$20)
     250              
     251                      .dwendtag $C$DW$41
     252              
     253              $C$DW$46        .dwtag  DW_TAG_variable
     254                      .dwattr $C$DW$46, DW_AT_name("OSRdyTbl")
     255                      .dwattr $C$DW$46, DW_AT_TI_symbol_name("_OSRdyTbl")
     256                      .dwattr $C$DW$46, DW_AT_type(*$C$DW$T$22)
     257                      .dwattr $C$DW$46, DW_AT_declaration
     258                      .dwattr $C$DW$46, DW_AT_external
     259              
     260              $C$DW$47        .dwtag  DW_TAG_variable
     261                      .dwattr $C$DW$47, DW_AT_name("OSTCBPrioTbl")
     262                      .dwattr $C$DW$47, DW_AT_TI_symbol_name("_OSTCBPrioTbl")
     263                      .dwattr $C$DW$47, DW_AT_type(*$C$DW$T$87)
     264                      .dwattr $C$DW$47, DW_AT_declaration
     265                      .dwattr $C$DW$47, DW_AT_external
     266              
     267              ;       C:\ti\ccs1011\ccs\tools\compiler\ti-cgt-c2000_20.2.1.LTS\bin\ac2000.exe -@C:\\Users\\LEEKEO~1\\AppDat
     268 00000000               .sect   ".text"
     269                      .clink
     270                      .global _OSTaskChangePrio
     271              
     272              $C$DW$48        .dwtag  DW_TAG_subprogram
     273                      .dwattr $C$DW$48, DW_AT_name("OSTaskChangePrio")
     274                      .dwattr $C$DW$48, DW_AT_low_pc(_OSTaskChangePrio)
     275                      .dwattr $C$DW$48, DW_AT_high_pc(0x00)
TMS320C2000 Assembler PC v20.2.1 Mon Feb  8 19:02:48 2021

Copyright (c) 1996-2018 Texas Instruments Incorporated
os_task.asm                                                          PAGE    6

     276                      .dwattr $C$DW$48, DW_AT_TI_symbol_name("_OSTaskChangePrio")
     277                      .dwattr $C$DW$48, DW_AT_external
     278                      .dwattr $C$DW$48, DW_AT_type(*$C$DW$T$19)
     279                      .dwattr $C$DW$48, DW_AT_TI_begin_file("C:/ti/Workspace/PLC_certificate/Software/uCOS-II/Source/os_tas
     280                      .dwattr $C$DW$48, DW_AT_TI_begin_line(0x35)
     281                      .dwattr $C$DW$48, DW_AT_TI_begin_column(0x08)
     282                      .dwattr $C$DW$48, DW_AT_TI_max_frame_size(-18)
     283                      .dwpsn  file "C:/ti/Workspace/PLC_certificate/Software/uCOS-II/Source/os_task.c",line 55,column 1,is_
     284              
     285                      .dwfde $C$DW$CIE, _OSTaskChangePrio
     286              $C$DW$49        .dwtag  DW_TAG_formal_parameter
     287                      .dwattr $C$DW$49, DW_AT_name("oldprio")
     288                      .dwattr $C$DW$49, DW_AT_TI_symbol_name("_oldprio")
     289                      .dwattr $C$DW$49, DW_AT_type(*$C$DW$T$19)
     290                      .dwattr $C$DW$49, DW_AT_location[DW_OP_reg0]
     291              
     292              $C$DW$50        .dwtag  DW_TAG_formal_parameter
     293                      .dwattr $C$DW$50, DW_AT_name("newprio")
     294                      .dwattr $C$DW$50, DW_AT_TI_symbol_name("_newprio")
     295                      .dwattr $C$DW$50, DW_AT_type(*$C$DW$T$19)
     296                      .dwattr $C$DW$50, DW_AT_location[DW_OP_reg1]
     297              
     298              
     299              ;***************************************************************
     300              ;* FNAME: _OSTaskChangePrio             FR SIZE:  16           *
     301              ;*                                                             *
     302              ;* FUNCTION ENVIRONMENT                                        *
     303              ;*                                                             *
     304              ;* FUNCTION PROPERTIES                                         *
     305              ;*                            0 Parameter, 16 Auto,  0 SOE     *
     306              ;***************************************************************
     307              
     308 00000000       _OSTaskChangePrio:
     309                      .dwcfi  cfa_offset, -2
     310                      .dwcfi  save_reg_to_mem, 26, 0
     311 00000000 FE10          ADDB      SP,#16                ; [CPU_ARAU] 
     312                      .dwcfi  cfa_offset, -18
     313              $C$DW$51        .dwtag  DW_TAG_variable
     314                      .dwattr $C$DW$51, DW_AT_name("pevent")
     315                      .dwattr $C$DW$51, DW_AT_TI_symbol_name("_pevent")
     316                      .dwattr $C$DW$51, DW_AT_type(*$C$DW$T$33)
     317                      .dwattr $C$DW$51, DW_AT_location[DW_OP_breg20 -2]
     318              
     319              $C$DW$52        .dwtag  DW_TAG_variable
     320                      .dwattr $C$DW$52, DW_AT_name("pevents")
     321                      .dwattr $C$DW$52, DW_AT_TI_symbol_name("_pevents")
     322                      .dwattr $C$DW$52, DW_AT_type(*$C$DW$T$34)
     323                      .dwattr $C$DW$52, DW_AT_location[DW_OP_breg20 -4]
     324              
     325              $C$DW$53        .dwtag  DW_TAG_variable
     326                      .dwattr $C$DW$53, DW_AT_name("ptcb")
     327                      .dwattr $C$DW$53, DW_AT_TI_symbol_name("_ptcb")
     328                      .dwattr $C$DW$53, DW_AT_type(*$C$DW$T$45)
     329                      .dwattr $C$DW$53, DW_AT_location[DW_OP_breg20 -6]
     330              
TMS320C2000 Assembler PC v20.2.1 Mon Feb  8 19:02:48 2021

Copyright (c) 1996-2018 Texas Instruments Incorporated
os_task.asm                                                          PAGE    7

     331              $C$DW$54        .dwtag  DW_TAG_variable
     332                      .dwattr $C$DW$54, DW_AT_name("oldprio")
     333                      .dwattr $C$DW$54, DW_AT_TI_symbol_name("_oldprio")
     334                      .dwattr $C$DW$54, DW_AT_type(*$C$DW$T$19)
     335                      .dwattr $C$DW$54, DW_AT_location[DW_OP_breg20 -7]
     336              
     337              $C$DW$55        .dwtag  DW_TAG_variable
     338                      .dwattr $C$DW$55, DW_AT_name("newprio")
     339                      .dwattr $C$DW$55, DW_AT_TI_symbol_name("_newprio")
     340                      .dwattr $C$DW$55, DW_AT_type(*$C$DW$T$19)
     341                      .dwattr $C$DW$55, DW_AT_location[DW_OP_breg20 -8]
     342              
     343              $C$DW$56        .dwtag  DW_TAG_variable
     344                      .dwattr $C$DW$56, DW_AT_name("y_new")
     345                      .dwattr $C$DW$56, DW_AT_TI_symbol_name("_y_new")
     346                      .dwattr $C$DW$56, DW_AT_type(*$C$DW$T$19)
     347                      .dwattr $C$DW$56, DW_AT_location[DW_OP_breg20 -9]
     348              
     349              $C$DW$57        .dwtag  DW_TAG_variable
     350                      .dwattr $C$DW$57, DW_AT_name("x_new")
     351                      .dwattr $C$DW$57, DW_AT_TI_symbol_name("_x_new")
     352                      .dwattr $C$DW$57, DW_AT_type(*$C$DW$T$19)
     353                      .dwattr $C$DW$57, DW_AT_location[DW_OP_breg20 -10]
     354              
     355              $C$DW$58        .dwtag  DW_TAG_variable
     356                      .dwattr $C$DW$58, DW_AT_name("y_old")
     357                      .dwattr $C$DW$58, DW_AT_TI_symbol_name("_y_old")
     358                      .dwattr $C$DW$58, DW_AT_type(*$C$DW$T$19)
     359                      .dwattr $C$DW$58, DW_AT_location[DW_OP_breg20 -11]
     360              
     361              $C$DW$59        .dwtag  DW_TAG_variable
     362                      .dwattr $C$DW$59, DW_AT_name("bity_new")
     363                      .dwattr $C$DW$59, DW_AT_TI_symbol_name("_bity_new")
     364                      .dwattr $C$DW$59, DW_AT_type(*$C$DW$T$21)
     365                      .dwattr $C$DW$59, DW_AT_location[DW_OP_breg20 -12]
     366              
     367              $C$DW$60        .dwtag  DW_TAG_variable
     368                      .dwattr $C$DW$60, DW_AT_name("bitx_new")
     369                      .dwattr $C$DW$60, DW_AT_TI_symbol_name("_bitx_new")
     370                      .dwattr $C$DW$60, DW_AT_type(*$C$DW$T$21)
     371                      .dwattr $C$DW$60, DW_AT_location[DW_OP_breg20 -13]
     372              
     373              $C$DW$61        .dwtag  DW_TAG_variable
     374                      .dwattr $C$DW$61, DW_AT_name("bity_old")
     375                      .dwattr $C$DW$61, DW_AT_TI_symbol_name("_bity_old")
     376                      .dwattr $C$DW$61, DW_AT_type(*$C$DW$T$21)
     377                      .dwattr $C$DW$61, DW_AT_location[DW_OP_breg20 -14]
     378              
     379              $C$DW$62        .dwtag  DW_TAG_variable
     380                      .dwattr $C$DW$62, DW_AT_name("bitx_old")
     381                      .dwattr $C$DW$62, DW_AT_TI_symbol_name("_bitx_old")
     382                      .dwattr $C$DW$62, DW_AT_type(*$C$DW$T$21)
     383                      .dwattr $C$DW$62, DW_AT_location[DW_OP_breg20 -15]
     384              
     385              $C$DW$63        .dwtag  DW_TAG_variable
TMS320C2000 Assembler PC v20.2.1 Mon Feb  8 19:02:48 2021

Copyright (c) 1996-2018 Texas Instruments Incorporated
os_task.asm                                                          PAGE    8

     386                      .dwattr $C$DW$63, DW_AT_name("cpu_sr")
     387                      .dwattr $C$DW$63, DW_AT_TI_symbol_name("_cpu_sr")
     388                      .dwattr $C$DW$63, DW_AT_type(*$C$DW$T$39)
     389                      .dwattr $C$DW$63, DW_AT_location[DW_OP_breg20 -16]
     390              
     391 00000001 9748          MOV       *-SP[8],AH            ; [CPU_ALU] |55| 
     392 00000002 9647          MOV       *-SP[7],AL            ; [CPU_ALU] |55| 
     393                      .dwpsn  file "C:/ti/Workspace/PLC_certificate/Software/uCOS-II/Source/os_task.c",line 71,column 23,is
     394 00000003 2B50          MOV       *-SP[16],#0           ; [CPU_ALU] |71| 
     395                      .dwpsn  file "C:/ti/Workspace/PLC_certificate/Software/uCOS-II/Source/os_task.c",line 77,column 5,is_
     396 00000004 523F          CMPB      AL,#63                ; [CPU_ALU] |77| 
     397 00000005 6806          B         $C$L1,LO              ; [CPU_ALU] |77| 
     398                      ; branchcc occurs ; [] |77| 
     399                      .dwpsn  file "C:/ti/Workspace/PLC_certificate/Software/uCOS-II/Source/os_task.c",line 78,column 9,is_
     400 00000006 52FF          CMPB      AL,#255               ; [CPU_ALU] |78| 
     401 00000007 6104          B         $C$L1,EQ              ; [CPU_ALU] |78| 
     402                      ; branchcc occurs ; [] |78| 
     403                      .dwpsn  file "C:/ti/Workspace/PLC_certificate/Software/uCOS-II/Source/os_task.c",line 79,column 13,is
     404 00000008 9A2A          MOVB      AL,#42                ; [CPU_ALU] |79| 
     405 00000009 FFEF          B         $C$L15,UNC            ; [CPU_ALU] |79| 
         0000000a 00FE 
     406                      ; branch occurs ; [] |79| 
     407 0000000b       $C$L1:    
     408                      .dwpsn  file "C:/ti/Workspace/PLC_certificate/Software/uCOS-II/Source/os_task.c",line 82,column 5,is_
     409 0000000b 9248          MOV       AL,*-SP[8]            ; [CPU_ALU] |82| 
     410 0000000c 523F          CMPB      AL,#63                ; [CPU_ALU] |82| 
     411 0000000d 6804          B         $C$L2,LO              ; [CPU_ALU] |82| 
     412                      ; branchcc occurs ; [] |82| 
     413                      .dwpsn  file "C:/ti/Workspace/PLC_certificate/Software/uCOS-II/Source/os_task.c",line 83,column 9,is_
     414 0000000e 9A2A          MOVB      AL,#42                ; [CPU_ALU] |83| 
     415 0000000f FFEF          B         $C$L15,UNC            ; [CPU_ALU] |83| 
         00000010 00F8 
     416                      ; branch occurs ; [] |83| 
     417 00000011       $C$L2:    
     418                      .dwpsn  file "C:/ti/Workspace/PLC_certificate/Software/uCOS-II/Source/os_task.c",line 86,column 5,is_
     419              $C$DW$64        .dwtag  DW_TAG_TI_branch
     420                      .dwattr $C$DW$64, DW_AT_low_pc(0x00)
     421                      .dwattr $C$DW$64, DW_AT_name("_OS_CPU_SR_Save")
     422                      .dwattr $C$DW$64, DW_AT_TI_call
     423              
     424 00000011 7640!         LCR       #_OS_CPU_SR_Save      ; [CPU_ALU] |86| 
         00000012 0000 
     425                      ; call occurs [#_OS_CPU_SR_Save] ; [] |86| 
     426 00000013 9650          MOV       *-SP[16],AL           ; [CPU_ALU] |86| 
     427                      .dwpsn  file "C:/ti/Workspace/PLC_certificate/Software/uCOS-II/Source/os_task.c",line 87,column 5,is_
     428 00000014 2901          CLRC      SXM                   ; [CPU_ALU] 
     429 00000015 8F00!         MOVL      XAR4,#_OSTCBPrioTbl   ; [CPU_ARAU] |87| 
         00000016 0000 
     430 00000017 5603          MOV       ACC,*-SP[8] << 1      ; [CPU_ALU] |87| 
         00000018 0148 
     431 00000019 5601          ADDL      XAR4,ACC              ; [CPU_ALU] |87| 
         0000001a 00A4 
     432 0000001b 06C4          MOVL      ACC,*+XAR4[0]         ; [CPU_ALU] |87| 
     433 0000001c 6107          B         $C$L3,EQ              ; [CPU_ALU] |87| 
     434                      ; branchcc occurs ; [] |87| 
TMS320C2000 Assembler PC v20.2.1 Mon Feb  8 19:02:48 2021

Copyright (c) 1996-2018 Texas Instruments Incorporated
os_task.asm                                                          PAGE    9

     435                      .dwpsn  file "C:/ti/Workspace/PLC_certificate/Software/uCOS-II/Source/os_task.c",line 88,column 9,is_
     436 0000001d 9250          MOV       AL,*-SP[16]           ; [CPU_ALU] |88| 
     437              $C$DW$65        .dwtag  DW_TAG_TI_branch
     438                      .dwattr $C$DW$65, DW_AT_low_pc(0x00)
     439                      .dwattr $C$DW$65, DW_AT_name("_OS_CPU_SR_Restore")
     440                      .dwattr $C$DW$65, DW_AT_TI_call
     441              
     442 0000001e 7640!         LCR       #_OS_CPU_SR_Restore   ; [CPU_ALU] |88| 
         0000001f 0000 
     443                      ; call occurs [#_OS_CPU_SR_Restore] ; [] |88| 
     444                      .dwpsn  file "C:/ti/Workspace/PLC_certificate/Software/uCOS-II/Source/os_task.c",line 89,column 9,is_
     445 00000020 9A28          MOVB      AL,#40                ; [CPU_ALU] |89| 
     446 00000021 FFEF          B         $C$L15,UNC            ; [CPU_ALU] |89| 
         00000022 00E6 
     447                      ; branch occurs ; [] |89| 
     448 00000023       $C$L3:    
     449                      .dwpsn  file "C:/ti/Workspace/PLC_certificate/Software/uCOS-II/Source/os_task.c",line 91,column 5,is_
     450 00000023 9247          MOV       AL,*-SP[7]            ; [CPU_ALU] |91| 
     451 00000024 52FF          CMPB      AL,#255               ; [CPU_ALU] |91| 
     452 00000025 6008          B         $C$L4,NEQ             ; [CPU_ALU] |91| 
     453                      ; branchcc occurs ; [] |91| 
     454                      .dwpsn  file "C:/ti/Workspace/PLC_certificate/Software/uCOS-II/Source/os_task.c",line 92,column 9,is_
     455 00000026 021C          MOVB      ACC,#28               ; [CPU_ALU] |92| 
     456 00000027 761F!         MOVW      DP,#_OSTCBCur         ; [CPU_ARAU] 
         00000028 0000 
     457 00000029 0700!         ADDL      ACC,@_OSTCBCur        ; [CPU_ALU] |92| 
     458 0000002a 1EA7          MOVL      XAR7,ACC              ; [CPU_ALU] |92| 
     459 0000002b 92C7          MOV       AL,*+XAR7[0]          ; [CPU_ALU] |92| 
     460 0000002c 9647          MOV       *-SP[7],AL            ; [CPU_ALU] |92| 
     461 0000002d       $C$L4:    
     462                      .dwpsn  file "C:/ti/Workspace/PLC_certificate/Software/uCOS-II/Source/os_task.c",line 94,column 5,is_
     463 0000002d 5603          MOV       ACC,*-SP[7] << 1      ; [CPU_ALU] |94| 
         0000002e 0147 
     464 0000002f 8F00!         MOVL      XAR4,#_OSTCBPrioTbl   ; [CPU_ARAU] |94| 
         00000030 0000 
     465 00000031 5601          ADDL      XAR4,ACC              ; [CPU_ALU] |94| 
         00000032 00A4 
     466 00000033 06C4          MOVL      ACC,*+XAR4[0]         ; [CPU_ALU] |94| 
     467 00000034 1E46          MOVL      *-SP[6],ACC           ; [CPU_ALU] |94| 
     468                      .dwpsn  file "C:/ti/Workspace/PLC_certificate/Software/uCOS-II/Source/os_task.c",line 95,column 5,is_
     469 00000035 0646          MOVL      ACC,*-SP[6]           ; [CPU_ALU] |95| 
     470 00000036 6007          B         $C$L5,NEQ             ; [CPU_ALU] |95| 
     471                      ; branchcc occurs ; [] |95| 
     472                      .dwpsn  file "C:/ti/Workspace/PLC_certificate/Software/uCOS-II/Source/os_task.c",line 96,column 9,is_
     473 00000037 9250          MOV       AL,*-SP[16]           ; [CPU_ALU] |96| 
     474              $C$DW$66        .dwtag  DW_TAG_TI_branch
     475                      .dwattr $C$DW$66, DW_AT_low_pc(0x00)
     476                      .dwattr $C$DW$66, DW_AT_name("_OS_CPU_SR_Restore")
     477                      .dwattr $C$DW$66, DW_AT_TI_call
     478              
     479 00000038 7640!         LCR       #_OS_CPU_SR_Restore   ; [CPU_ALU] |96| 
         00000039 0000 
     480                      ; call occurs [#_OS_CPU_SR_Restore] ; [] |96| 
     481                      .dwpsn  file "C:/ti/Workspace/PLC_certificate/Software/uCOS-II/Source/os_task.c",line 97,column 9,is_
     482 0000003a 9A29          MOVB      AL,#41                ; [CPU_ALU] |97| 
TMS320C2000 Assembler PC v20.2.1 Mon Feb  8 19:02:48 2021

Copyright (c) 1996-2018 Texas Instruments Incorporated
os_task.asm                                                          PAGE   10

     483 0000003b FFEF          B         $C$L15,UNC            ; [CPU_ALU] |97| 
         0000003c 00CC 
     484                      ; branch occurs ; [] |97| 
     485 0000003d       $C$L5:    
     486                      .dwpsn  file "C:/ti/Workspace/PLC_certificate/Software/uCOS-II/Source/os_task.c",line 99,column 5,is_
     487 0000003d 0201          MOVB      ACC,#1                ; [CPU_ALU] |99| 
     488 0000003e 0F46          CMPL      ACC,*-SP[6]           ; [CPU_ALU] |99| 
     489 0000003f 6007          B         $C$L6,NEQ             ; [CPU_ALU] |99| 
     490                      ; branchcc occurs ; [] |99| 
     491                      .dwpsn  file "C:/ti/Workspace/PLC_certificate/Software/uCOS-II/Source/os_task.c",line 100,column 9,is
     492 00000040 9250          MOV       AL,*-SP[16]           ; [CPU_ALU] |100| 
     493              $C$DW$67        .dwtag  DW_TAG_TI_branch
     494                      .dwattr $C$DW$67, DW_AT_low_pc(0x00)
     495                      .dwattr $C$DW$67, DW_AT_name("_OS_CPU_SR_Restore")
     496                      .dwattr $C$DW$67, DW_AT_TI_call
     497              
     498 00000041 7640!         LCR       #_OS_CPU_SR_Restore   ; [CPU_ALU] |100| 
         00000042 0000 
     499                      ; call occurs [#_OS_CPU_SR_Restore] ; [] |100| 
     500                      .dwpsn  file "C:/ti/Workspace/PLC_certificate/Software/uCOS-II/Source/os_task.c",line 101,column 9,is
     501 00000043 9A43          MOVB      AL,#67                ; [CPU_ALU] |101| 
     502 00000044 FFEF          B         $C$L15,UNC            ; [CPU_ALU] |101| 
         00000045 00C3 
     503                      ; branch occurs ; [] |101| 
     504 00000046       $C$L6:    
     505                      .dwpsn  file "C:/ti/Workspace/PLC_certificate/Software/uCOS-II/Source/os_task.c",line 104,column 5,is
     506 00000046 9248          MOV       AL,*-SP[8]            ; [CPU_ALU] |104| 
     507 00000047 FFC2          LSR       AL,3                  ; [CPU_ALU] |104| 
     508 00000048 9649          MOV       *-SP[9],AL            ; [CPU_ALU] |104| 
     509                      .dwpsn  file "C:/ti/Workspace/PLC_certificate/Software/uCOS-II/Source/os_task.c",line 105,column 5,is
     510 00000049 9248          MOV       AL,*-SP[8]            ; [CPU_ALU] |105| 
     511 0000004a 9007          ANDB      AL,#0x07              ; [CPU_ALU] |105| 
     512 0000004b 964A          MOV       *-SP[10],AL           ; [CPU_ALU] |105| 
     513                      .dwpsn  file "C:/ti/Workspace/PLC_certificate/Software/uCOS-II/Source/os_task.c",line 110,column 5,is
     514 0000004c 2D49          MOV       T,*-SP[9]             ; [CPU_ALU] |110| 
     515 0000004d 0201          MOVB      ACC,#1                ; [CPU_ALU] |110| 
     516 0000004e 563B          LSLL      ACC,T                 ; [CPU_ALU] |110| 
     517 0000004f 964C          MOV       *-SP[12],AL           ; [CPU_ALU] |110| 
     518                      .dwpsn  file "C:/ti/Workspace/PLC_certificate/Software/uCOS-II/Source/os_task.c",line 111,column 5,is
     519 00000050 0201          MOVB      ACC,#1                ; [CPU_ALU] |111| 
     520 00000051 2D4A          MOV       T,*-SP[10]            ; [CPU_ALU] |111| 
     521 00000052 563B          LSLL      ACC,T                 ; [CPU_ALU] |111| 
     522 00000053 964D          MOV       *-SP[13],AL           ; [CPU_ALU] |111| 
     523                      .dwpsn  file "C:/ti/Workspace/PLC_certificate/Software/uCOS-II/Source/os_task.c",line 113,column 5,is
     524 00000054 8F00!         MOVL      XAR4,#_OSTCBPrioTbl   ; [CPU_ARAU] |113| 
         00000055 0000 
     525 00000056 5603          MOV       ACC,*-SP[7] << 1      ; [CPU_ALU] |113| 
         00000057 0147 
     526 00000058 5601          ADDL      XAR4,ACC              ; [CPU_ALU] |113| 
         00000059 00A4 
     527 0000005a 0200          MOVB      ACC,#0                ; [CPU_ALU] |113| 
     528 0000005b 1EC4          MOVL      *+XAR4[0],ACC         ; [CPU_ALU] |113| 
     529                      .dwpsn  file "C:/ti/Workspace/PLC_certificate/Software/uCOS-II/Source/os_task.c",line 114,column 5,is
     530 0000005c 5603          MOV       ACC,*-SP[8] << 1      ; [CPU_ALU] |114| 
         0000005d 0148 
TMS320C2000 Assembler PC v20.2.1 Mon Feb  8 19:02:48 2021

Copyright (c) 1996-2018 Texas Instruments Incorporated
os_task.asm                                                          PAGE   11

     531 0000005e 8F00!         MOVL      XAR4,#_OSTCBPrioTbl   ; [CPU_ARAU] |114| 
         0000005f 0000 
     532 00000060 5601          ADDL      XAR4,ACC              ; [CPU_ALU] |114| 
         00000061 00A4 
     533 00000062 0646          MOVL      ACC,*-SP[6]           ; [CPU_ALU] |114| 
     534 00000063 1EC4          MOVL      *+XAR4[0],ACC         ; [CPU_ALU] |114| 
     535                      .dwpsn  file "C:/ti/Workspace/PLC_certificate/Software/uCOS-II/Source/os_task.c",line 115,column 5,is
     536 00000064 021E          MOVB      ACC,#30               ; [CPU_ALU] |115| 
     537 00000065 0746          ADDL      ACC,*-SP[6]           ; [CPU_ALU] |115| 
     538 00000066 1EA7          MOVL      XAR7,ACC              ; [CPU_ALU] |115| 
     539 00000067 92C7          MOV       AL,*+XAR7[0]          ; [CPU_ALU] |115| 
     540 00000068 964B          MOV       *-SP[11],AL           ; [CPU_ALU] |115| 
     541                      .dwpsn  file "C:/ti/Workspace/PLC_certificate/Software/uCOS-II/Source/os_task.c",line 116,column 5,is
     542 00000069 0220          MOVB      ACC,#32               ; [CPU_ALU] |116| 
     543 0000006a 0746          ADDL      ACC,*-SP[6]           ; [CPU_ALU] |116| 
     544 0000006b 1EA7          MOVL      XAR7,ACC              ; [CPU_ALU] |116| 
     545 0000006c 92C7          MOV       AL,*+XAR7[0]          ; [CPU_ALU] |116| 
     546 0000006d 964E          MOV       *-SP[14],AL           ; [CPU_ALU] |116| 
     547                      .dwpsn  file "C:/ti/Workspace/PLC_certificate/Software/uCOS-II/Source/os_task.c",line 117,column 5,is
     548 0000006e 021F          MOVB      ACC,#31               ; [CPU_ALU] |117| 
     549 0000006f 0746          ADDL      ACC,*-SP[6]           ; [CPU_ALU] |117| 
     550 00000070 1EA7          MOVL      XAR7,ACC              ; [CPU_ALU] |117| 
     551 00000071 92C7          MOV       AL,*+XAR7[0]          ; [CPU_ALU] |117| 
     552 00000072 964F          MOV       *-SP[15],AL           ; [CPU_ALU] |117| 
     553                      .dwpsn  file "C:/ti/Workspace/PLC_certificate/Software/uCOS-II/Source/os_task.c",line 118,column 5,is
     554 00000073 584B          MOVZ      AR0,*-SP[11]          ; [CPU_ALU] |118| 
     555 00000074 8F00!         MOVL      XAR4,#_OSRdyTbl       ; [CPU_ARAU] |118| 
         00000075 0000 
     556 00000076 CE94          AND       AL,*+XAR4[AR0]        ; [CPU_ALU] |118| 
     557 00000077 611A          B         $C$L8,EQ              ; [CPU_ALU] |118| 
     558                      ; branchcc occurs ; [] |118| 
     559                      .dwpsn  file "C:/ti/Workspace/PLC_certificate/Software/uCOS-II/Source/os_task.c",line 119,column 10,i
     560 00000078 A8A9          MOVL      ACC,XAR4              ; [CPU_ALU] |119| 
     561 00000079 0D4B          ADDU      ACC,*-SP[11]          ; [CPU_ALU] |119| 
     562 0000007a 8AA9          MOVL      XAR4,ACC              ; [CPU_ALU] |119| 
     563 0000007b 924F          MOV       AL,*-SP[15]           ; [CPU_ALU] |119| 
     564 0000007c FF5E          NOT       AL                    ; [CPU_ALU] |119| 
     565 0000007d C0C4          AND       *+XAR4[0],AL          ; [CPU_ALU] |119| 
     566                      .dwpsn  file "C:/ti/Workspace/PLC_certificate/Software/uCOS-II/Source/os_task.c",line 120,column 10,i
     567 0000007e 584B          MOVZ      AR0,*-SP[11]          ; [CPU_ALU] |120| 
     568 0000007f 8F00!         MOVL      XAR4,#_OSRdyTbl       ; [CPU_ARAU] |120| 
         00000080 0000 
     569 00000081 9294          MOV       AL,*+XAR4[AR0]        ; [CPU_ALU] |120| 
     570 00000082 6006          B         $C$L7,NEQ             ; [CPU_ALU] |120| 
     571                      ; branchcc occurs ; [] |120| 
     572                      .dwpsn  file "C:/ti/Workspace/PLC_certificate/Software/uCOS-II/Source/os_task.c",line 121,column 14,i
     573 00000083 924E          MOV       AL,*-SP[14]           ; [CPU_ALU] |121| 
     574 00000084 761F!         MOVW      DP,#_OSRdyGrp         ; [CPU_ARAU] 
         00000085 0000 
     575 00000086 FF5E          NOT       AL                    ; [CPU_ALU] |121| 
     576 00000087 C000!         AND       @_OSRdyGrp,AL         ; [CPU_ALU] |121| 
     577 00000088       $C$L7:    
     578                      .dwpsn  file "C:/ti/Workspace/PLC_certificate/Software/uCOS-II/Source/os_task.c",line 123,column 10,i
     579 00000088 924C          MOV       AL,*-SP[12]           ; [CPU_ALU] |123| 
     580 00000089 761F!         MOVW      DP,#_OSRdyGrp         ; [CPU_ARAU] 
TMS320C2000 Assembler PC v20.2.1 Mon Feb  8 19:02:48 2021

Copyright (c) 1996-2018 Texas Instruments Incorporated
os_task.asm                                                          PAGE   12

         0000008a 0000 
     581 0000008b 9800!         OR        @_OSRdyGrp,AL         ; [CPU_ALU] |123| 
     582                      .dwpsn  file "C:/ti/Workspace/PLC_certificate/Software/uCOS-II/Source/os_task.c",line 124,column 10,i
     583 0000008c A8A9          MOVL      ACC,XAR4              ; [CPU_ALU] |124| 
     584 0000008d 0D49          ADDU      ACC,*-SP[9]           ; [CPU_ALU] |124| 
     585 0000008e 8AA9          MOVL      XAR4,ACC              ; [CPU_ALU] |124| 
     586 0000008f 924D          MOV       AL,*-SP[13]           ; [CPU_ALU] |124| 
     587 00000090 98C4          OR        *+XAR4[0],AL          ; [CPU_ALU] |124| 
     588 00000091       $C$L8:    
     589                      .dwpsn  file "C:/ti/Workspace/PLC_certificate/Software/uCOS-II/Source/os_task.c",line 128,column 5,is
     590 00000091 020E          MOVB      ACC,#14               ; [CPU_ALU] |128| 
     591 00000092 0746          ADDL      ACC,*-SP[6]           ; [CPU_ALU] |128| 
     592 00000093 8AA9          MOVL      XAR4,ACC              ; [CPU_ALU] |128| 
     593 00000094 06C4          MOVL      ACC,*+XAR4[0]         ; [CPU_ALU] |128| 
     594 00000095 1E42          MOVL      *-SP[2],ACC           ; [CPU_ALU] |128| 
     595                      .dwpsn  file "C:/ti/Workspace/PLC_certificate/Software/uCOS-II/Source/os_task.c",line 129,column 5,is
     596 00000096 0642          MOVL      ACC,*-SP[2]           ; [CPU_ALU] |129| 
     597 00000097 611B          B         $C$L10,EQ             ; [CPU_ALU] |129| 
     598                      ; branchcc occurs ; [] |129| 
     599                      .dwpsn  file "C:/ti/Workspace/PLC_certificate/Software/uCOS-II/Source/os_task.c",line 130,column 9,is
     600 00000098 0E4B          MOVU      ACC,*-SP[11]          ; [CPU_ALU] |130| 
     601 00000099 0742          ADDL      ACC,*-SP[2]           ; [CPU_ALU] |130| 
     602 0000009a 0906          ADDB      ACC,#6                ; [CPU_ALU] |130| 
     603 0000009b 8AA9          MOVL      XAR4,ACC              ; [CPU_ALU] |130| 
     604 0000009c 924F          MOV       AL,*-SP[15]           ; [CPU_ALU] |130| 
     605 0000009d FF5E          NOT       AL                    ; [CPU_ALU] |130| 
     606 0000009e C0C4          AND       *+XAR4[0],AL          ; [CPU_ALU] |130| 
     607                      .dwpsn  file "C:/ti/Workspace/PLC_certificate/Software/uCOS-II/Source/os_task.c",line 131,column 9,is
     608 0000009f 5C4B          MOVZ      AR4,*-SP[11]          ; [CPU_ALU] |131| 
     609 000000a0 A8A9          MOVL      ACC,XAR4              ; [CPU_ALU] |131| 
     610 000000a1 0742          ADDL      ACC,*-SP[2]           ; [CPU_ALU] |131| 
     611 000000a2 8AA9          MOVL      XAR4,ACC              ; [CPU_ALU] |131| 
     612 000000a3 92F4          MOV       AL,*+XAR4[6]          ; [CPU_ALU] |131| 
     613 000000a4 6005          B         $C$L9,NEQ             ; [CPU_ALU] |131| 
     614                      ; branchcc occurs ; [] |131| 
     615                      .dwpsn  file "C:/ti/Workspace/PLC_certificate/Software/uCOS-II/Source/os_task.c",line 132,column 13,i
     616 000000a5 8A42          MOVL      XAR4,*-SP[2]          ; [CPU_ALU] |132| 
     617 000000a6 924E          MOV       AL,*-SP[14]           ; [CPU_ALU] |132| 
     618 000000a7 FF5E          NOT       AL                    ; [CPU_ALU] |132| 
     619 000000a8 C0EC          AND       *+XAR4[5],AL          ; [CPU_ALU] |132| 
     620 000000a9       $C$L9:    
     621                      .dwpsn  file "C:/ti/Workspace/PLC_certificate/Software/uCOS-II/Source/os_task.c",line 134,column 9,is
     622 000000a9 8A42          MOVL      XAR4,*-SP[2]          ; [CPU_ALU] |134| 
     623 000000aa 924C          MOV       AL,*-SP[12]           ; [CPU_ALU] |134| 
     624 000000ab 98EC          OR        *+XAR4[5],AL          ; [CPU_ALU] |134| 
     625                      .dwpsn  file "C:/ti/Workspace/PLC_certificate/Software/uCOS-II/Source/os_task.c",line 135,column 9,is
     626 000000ac 0E49          MOVU      ACC,*-SP[9]           ; [CPU_ALU] |135| 
     627 000000ad 0742          ADDL      ACC,*-SP[2]           ; [CPU_ALU] |135| 
     628 000000ae 0906          ADDB      ACC,#6                ; [CPU_ALU] |135| 
     629 000000af 8AA9          MOVL      XAR4,ACC              ; [CPU_ALU] |135| 
     630 000000b0 924D          MOV       AL,*-SP[13]           ; [CPU_ALU] |135| 
     631 000000b1 98C4          OR        *+XAR4[0],AL          ; [CPU_ALU] |135| 
     632 000000b2       $C$L10:    
     633                      .dwpsn  file "C:/ti/Workspace/PLC_certificate/Software/uCOS-II/Source/os_task.c",line 138,column 5,is
     634 000000b2 0210          MOVB      ACC,#16               ; [CPU_ALU] |138| 
TMS320C2000 Assembler PC v20.2.1 Mon Feb  8 19:02:48 2021

Copyright (c) 1996-2018 Texas Instruments Incorporated
os_task.asm                                                          PAGE   13

     635 000000b3 0746          ADDL      ACC,*-SP[6]           ; [CPU_ALU] |138| 
     636 000000b4 8AA9          MOVL      XAR4,ACC              ; [CPU_ALU] |138| 
     637 000000b5 06C4          MOVL      ACC,*+XAR4[0]         ; [CPU_ALU] |138| 
     638 000000b6 612D          B         $C$L13,EQ             ; [CPU_ALU] |138| 
     639                      ; branchcc occurs ; [] |138| 
     640                      .dwpsn  file "C:/ti/Workspace/PLC_certificate/Software/uCOS-II/Source/os_task.c",line 139,column 9,is
     641 000000b7 0210          MOVB      ACC,#16               ; [CPU_ALU] |139| 
     642 000000b8 0746          ADDL      ACC,*-SP[6]           ; [CPU_ALU] |139| 
     643 000000b9 8AA9          MOVL      XAR4,ACC              ; [CPU_ALU] |139| 
     644 000000ba 06C4          MOVL      ACC,*+XAR4[0]         ; [CPU_ALU] |139| 
     645 000000bb 1E44          MOVL      *-SP[4],ACC           ; [CPU_ALU] |139| 
     646                      .dwpsn  file "C:/ti/Workspace/PLC_certificate/Software/uCOS-II/Source/os_task.c",line 140,column 9,is
     647 000000bc 8A44          MOVL      XAR4,*-SP[4]          ; [CPU_ALU] |140| 
     648 000000bd 06C4          MOVL      ACC,*+XAR4[0]         ; [CPU_ALU] |140| 
     649 000000be 1E42          MOVL      *-SP[2],ACC           ; [CPU_ALU] |140| 
     650                      .dwpsn  file "C:/ti/Workspace/PLC_certificate/Software/uCOS-II/Source/os_task.c",line 141,column 16,i
     651 000000bf 0642          MOVL      ACC,*-SP[2]           ; [CPU_ALU] |141| 
     652 000000c0 6123          B         $C$L13,EQ             ; [CPU_ALU] |141| 
     653                      ; branchcc occurs ; [] |141| 
     654 000000c1       $C$L11:    
     655                      .dwpsn  file "C:/ti/Workspace/PLC_certificate/Software/uCOS-II/Source/os_task.c",line 142,column 13,i
     656 000000c1 0E4B          MOVU      ACC,*-SP[11]          ; [CPU_ALU] |142| 
     657 000000c2 0742          ADDL      ACC,*-SP[2]           ; [CPU_ALU] |142| 
     658 000000c3 0906          ADDB      ACC,#6                ; [CPU_ALU] |142| 
     659 000000c4 8AA9          MOVL      XAR4,ACC              ; [CPU_ALU] |142| 
     660 000000c5 924F          MOV       AL,*-SP[15]           ; [CPU_ALU] |142| 
     661 000000c6 FF5E          NOT       AL                    ; [CPU_ALU] |142| 
     662 000000c7 C0C4          AND       *+XAR4[0],AL          ; [CPU_ALU] |142| 
     663                      .dwpsn  file "C:/ti/Workspace/PLC_certificate/Software/uCOS-II/Source/os_task.c",line 143,column 13,i
     664 000000c8 5C4B          MOVZ      AR4,*-SP[11]          ; [CPU_ALU] |143| 
     665 000000c9 A8A9          MOVL      ACC,XAR4              ; [CPU_ALU] |143| 
     666 000000ca 0742          ADDL      ACC,*-SP[2]           ; [CPU_ALU] |143| 
     667 000000cb 8AA9          MOVL      XAR4,ACC              ; [CPU_ALU] |143| 
     668 000000cc 92F4          MOV       AL,*+XAR4[6]          ; [CPU_ALU] |143| 
     669 000000cd 6005          B         $C$L12,NEQ            ; [CPU_ALU] |143| 
     670                      ; branchcc occurs ; [] |143| 
     671                      .dwpsn  file "C:/ti/Workspace/PLC_certificate/Software/uCOS-II/Source/os_task.c",line 144,column 17,i
     672 000000ce 8A42          MOVL      XAR4,*-SP[2]          ; [CPU_ALU] |144| 
     673 000000cf 924E          MOV       AL,*-SP[14]           ; [CPU_ALU] |144| 
     674 000000d0 FF5E          NOT       AL                    ; [CPU_ALU] |144| 
     675 000000d1 C0EC          AND       *+XAR4[5],AL          ; [CPU_ALU] |144| 
     676 000000d2       $C$L12:    
     677                      .dwpsn  file "C:/ti/Workspace/PLC_certificate/Software/uCOS-II/Source/os_task.c",line 146,column 13,i
     678 000000d2 8A42          MOVL      XAR4,*-SP[2]          ; [CPU_ALU] |146| 
     679 000000d3 924C          MOV       AL,*-SP[12]           ; [CPU_ALU] |146| 
     680 000000d4 98EC          OR        *+XAR4[5],AL          ; [CPU_ALU] |146| 
     681                      .dwpsn  file "C:/ti/Workspace/PLC_certificate/Software/uCOS-II/Source/os_task.c",line 147,column 13,i
     682 000000d5 0E49          MOVU      ACC,*-SP[9]           ; [CPU_ALU] |147| 
     683 000000d6 0742          ADDL      ACC,*-SP[2]           ; [CPU_ALU] |147| 
     684 000000d7 0906          ADDB      ACC,#6                ; [CPU_ALU] |147| 
     685 000000d8 8AA9          MOVL      XAR4,ACC              ; [CPU_ALU] |147| 
     686 000000d9 924D          MOV       AL,*-SP[13]           ; [CPU_ALU] |147| 
     687 000000da 98C4          OR        *+XAR4[0],AL          ; [CPU_ALU] |147| 
     688                      .dwpsn  file "C:/ti/Workspace/PLC_certificate/Software/uCOS-II/Source/os_task.c",line 148,column 13,i
     689 000000db 0202          MOVB      ACC,#2                ; [CPU_ALU] |148| 
TMS320C2000 Assembler PC v20.2.1 Mon Feb  8 19:02:48 2021

Copyright (c) 1996-2018 Texas Instruments Incorporated
os_task.asm                                                          PAGE   14

     690 000000dc 0744          ADDL      ACC,*-SP[4]           ; [CPU_ALU] |148| 
     691 000000dd 1E44          MOVL      *-SP[4],ACC           ; [CPU_ALU] |148| 
     692                      .dwpsn  file "C:/ti/Workspace/PLC_certificate/Software/uCOS-II/Source/os_task.c",line 149,column 13,i
     693 000000de 8A44          MOVL      XAR4,*-SP[4]          ; [CPU_ALU] |149| 
     694 000000df 06C4          MOVL      ACC,*+XAR4[0]         ; [CPU_ALU] |149| 
     695 000000e0 1E42          MOVL      *-SP[2],ACC           ; [CPU_ALU] |149| 
     696                      .dwpsn  file "C:/ti/Workspace/PLC_certificate/Software/uCOS-II/Source/os_task.c",line 141,column 16,i
     697 000000e1 0642          MOVL      ACC,*-SP[2]           ; [CPU_ALU] |141| 
     698 000000e2 60DF          B         $C$L11,NEQ            ; [CPU_ALU] |141| 
     699                      ; branchcc occurs ; [] |141| 
     700 000000e3       $C$L13:    
     701                      .dwpsn  file "C:/ti/Workspace/PLC_certificate/Software/uCOS-II/Source/os_task.c",line 155,column 5,is
     702 000000e3 021C          MOVB      ACC,#28               ; [CPU_ALU] |155| 
     703 000000e4 0746          ADDL      ACC,*-SP[6]           ; [CPU_ALU] |155| 
     704 000000e5 1EA7          MOVL      XAR7,ACC              ; [CPU_ALU] |155| 
     705 000000e6 9248          MOV       AL,*-SP[8]            ; [CPU_ALU] |155| 
     706 000000e7 96C7          MOV       *+XAR7[0],AL          ; [CPU_ALU] |155| 
     707                      .dwpsn  file "C:/ti/Workspace/PLC_certificate/Software/uCOS-II/Source/os_task.c",line 156,column 5,is
     708 000000e8 021E          MOVB      ACC,#30               ; [CPU_ALU] |156| 
     709 000000e9 0746          ADDL      ACC,*-SP[6]           ; [CPU_ALU] |156| 
     710 000000ea 1EA7          MOVL      XAR7,ACC              ; [CPU_ALU] |156| 
     711 000000eb 9249          MOV       AL,*-SP[9]            ; [CPU_ALU] |156| 
     712 000000ec 96C7          MOV       *+XAR7[0],AL          ; [CPU_ALU] |156| 
     713                      .dwpsn  file "C:/ti/Workspace/PLC_certificate/Software/uCOS-II/Source/os_task.c",line 157,column 5,is
     714 000000ed 021D          MOVB      ACC,#29               ; [CPU_ALU] |157| 
     715 000000ee 0746          ADDL      ACC,*-SP[6]           ; [CPU_ALU] |157| 
     716 000000ef 1EA7          MOVL      XAR7,ACC              ; [CPU_ALU] |157| 
     717 000000f0 924A          MOV       AL,*-SP[10]           ; [CPU_ALU] |157| 
     718 000000f1 96C7          MOV       *+XAR7[0],AL          ; [CPU_ALU] |157| 
     719                      .dwpsn  file "C:/ti/Workspace/PLC_certificate/Software/uCOS-II/Source/os_task.c",line 158,column 5,is
     720 000000f2 0220          MOVB      ACC,#32               ; [CPU_ALU] |158| 
     721 000000f3 0746          ADDL      ACC,*-SP[6]           ; [CPU_ALU] |158| 
     722 000000f4 1EA7          MOVL      XAR7,ACC              ; [CPU_ALU] |158| 
     723 000000f5 924C          MOV       AL,*-SP[12]           ; [CPU_ALU] |158| 
     724 000000f6 96C7          MOV       *+XAR7[0],AL          ; [CPU_ALU] |158| 
     725                      .dwpsn  file "C:/ti/Workspace/PLC_certificate/Software/uCOS-II/Source/os_task.c",line 159,column 5,is
     726 000000f7 021F          MOVB      ACC,#31               ; [CPU_ALU] |159| 
     727 000000f8 0746          ADDL      ACC,*-SP[6]           ; [CPU_ALU] |159| 
     728 000000f9 1EA7          MOVL      XAR7,ACC              ; [CPU_ALU] |159| 
     729 000000fa 924D          MOV       AL,*-SP[13]           ; [CPU_ALU] |159| 
     730 000000fb 96C7          MOV       *+XAR7[0],AL          ; [CPU_ALU] |159| 
     731                      .dwpsn  file "C:/ti/Workspace/PLC_certificate/Software/uCOS-II/Source/os_task.c",line 160,column 5,is
     732 000000fc 9250          MOV       AL,*-SP[16]           ; [CPU_ALU] |160| 
     733              $C$DW$68        .dwtag  DW_TAG_TI_branch
     734                      .dwattr $C$DW$68, DW_AT_low_pc(0x00)
     735                      .dwattr $C$DW$68, DW_AT_name("_OS_CPU_SR_Restore")
     736                      .dwattr $C$DW$68, DW_AT_TI_call
     737              
     738 000000fd 7640!         LCR       #_OS_CPU_SR_Restore   ; [CPU_ALU] |160| 
         000000fe 0000 
     739                      ; call occurs [#_OS_CPU_SR_Restore] ; [] |160| 
     740                      .dwpsn  file "C:/ti/Workspace/PLC_certificate/Software/uCOS-II/Source/os_task.c",line 161,column 5,is
     741 000000ff 761F!         MOVW      DP,#_OSRunning        ; [CPU_ARAU] 
         00000100 0000 
     742 00000101 9200!         MOV       AL,@_OSRunning        ; [CPU_ALU] |161| 
TMS320C2000 Assembler PC v20.2.1 Mon Feb  8 19:02:48 2021

Copyright (c) 1996-2018 Texas Instruments Incorporated
os_task.asm                                                          PAGE   15

     743 00000102 5201          CMPB      AL,#1                 ; [CPU_ALU] |161| 
     744 00000103 6003          B         $C$L14,NEQ            ; [CPU_ALU] |161| 
     745                      ; branchcc occurs ; [] |161| 
     746                      .dwpsn  file "C:/ti/Workspace/PLC_certificate/Software/uCOS-II/Source/os_task.c",line 162,column 9,is
     747              $C$DW$69        .dwtag  DW_TAG_TI_branch
     748                      .dwattr $C$DW$69, DW_AT_low_pc(0x00)
     749                      .dwattr $C$DW$69, DW_AT_name("_OS_Sched")
     750                      .dwattr $C$DW$69, DW_AT_TI_call
     751              
     752 00000104 7640!         LCR       #_OS_Sched            ; [CPU_ALU] |162| 
         00000105 0000 
     753                      ; call occurs [#_OS_Sched] ; [] |162| 
     754 00000106       $C$L14:    
     755                      .dwpsn  file "C:/ti/Workspace/PLC_certificate/Software/uCOS-II/Source/os_task.c",line 164,column 5,is
     756 00000106 9A00          MOVB      AL,#0                 ; [CPU_ALU] |164| 
     757 00000107       $C$L15:    
     758                      .dwpsn  file "C:/ti/Workspace/PLC_certificate/Software/uCOS-II/Source/os_task.c",line 165,column 1,is
     759 00000107 FE90          SUBB      SP,#16                ; [CPU_ARAU] 
     760                      .dwcfi  cfa_offset, -2
     761              $C$DW$70        .dwtag  DW_TAG_TI_branch
     762                      .dwattr $C$DW$70, DW_AT_low_pc(0x00)
     763                      .dwattr $C$DW$70, DW_AT_TI_return
     764              
     765 00000108 0006          LRETR     ; [CPU_ALU] 
     766                      ; return occurs ; [] 
     767                      .dwattr $C$DW$48, DW_AT_TI_end_file("C:/ti/Workspace/PLC_certificate/Software/uCOS-II/Source/os_task.
     768                      .dwattr $C$DW$48, DW_AT_TI_end_line(0xa5)
     769                      .dwattr $C$DW$48, DW_AT_TI_end_column(0x01)
     770                      .dwendentry
     771                      .dwendtag $C$DW$48
     772              
     773 00000109               .sect   ".text"
     774                      .clink
     775                      .global _OSTaskCreate
     776              
     777              $C$DW$71        .dwtag  DW_TAG_subprogram
     778                      .dwattr $C$DW$71, DW_AT_name("OSTaskCreate")
     779                      .dwattr $C$DW$71, DW_AT_low_pc(_OSTaskCreate)
     780                      .dwattr $C$DW$71, DW_AT_high_pc(0x00)
     781                      .dwattr $C$DW$71, DW_AT_TI_symbol_name("_OSTaskCreate")
     782                      .dwattr $C$DW$71, DW_AT_external
     783                      .dwattr $C$DW$71, DW_AT_type(*$C$DW$T$19)
     784                      .dwattr $C$DW$71, DW_AT_TI_begin_file("C:/ti/Workspace/PLC_certificate/Software/uCOS-II/Source/os_tas
     785                      .dwattr $C$DW$71, DW_AT_TI_begin_line(0xd3)
     786                      .dwattr $C$DW$71, DW_AT_TI_begin_column(0x08)
     787                      .dwattr $C$DW$71, DW_AT_TI_max_frame_size(-18)
     788                      .dwpsn  file "C:/ti/Workspace/PLC_certificate/Software/uCOS-II/Source/os_task.c",line 215,column 1,is
     789              
     790                      .dwfde $C$DW$CIE, _OSTaskCreate
     791              $C$DW$72        .dwtag  DW_TAG_formal_parameter
     792                      .dwattr $C$DW$72, DW_AT_name("task")
     793                      .dwattr $C$DW$72, DW_AT_TI_symbol_name("_task")
     794                      .dwattr $C$DW$72, DW_AT_type(*$C$DW$T$57)
     795                      .dwattr $C$DW$72, DW_AT_location[DW_OP_reg12]
     796              
TMS320C2000 Assembler PC v20.2.1 Mon Feb  8 19:02:48 2021

Copyright (c) 1996-2018 Texas Instruments Incorporated
os_task.asm                                                          PAGE   16

     797              $C$DW$73        .dwtag  DW_TAG_formal_parameter
     798                      .dwattr $C$DW$73, DW_AT_name("p_arg")
     799                      .dwattr $C$DW$73, DW_AT_TI_symbol_name("_p_arg")
     800                      .dwattr $C$DW$73, DW_AT_type(*$C$DW$T$3)
     801                      .dwattr $C$DW$73, DW_AT_location[DW_OP_reg14]
     802              
     803              $C$DW$74        .dwtag  DW_TAG_formal_parameter
     804                      .dwattr $C$DW$74, DW_AT_name("ptos")
     805                      .dwattr $C$DW$74, DW_AT_TI_symbol_name("_ptos")
     806                      .dwattr $C$DW$74, DW_AT_type(*$C$DW$T$30)
     807                      .dwattr $C$DW$74, DW_AT_location[DW_OP_breg20 -20]
     808              
     809              $C$DW$75        .dwtag  DW_TAG_formal_parameter
     810                      .dwattr $C$DW$75, DW_AT_name("prio")
     811                      .dwattr $C$DW$75, DW_AT_TI_symbol_name("_prio")
     812                      .dwattr $C$DW$75, DW_AT_type(*$C$DW$T$19)
     813                      .dwattr $C$DW$75, DW_AT_location[DW_OP_reg0]
     814              
     815              
     816              ;***************************************************************
     817              ;* FNAME: _OSTaskCreate                 FR SIZE:  16           *
     818              ;*                                                             *
     819              ;* FUNCTION ENVIRONMENT                                        *
     820              ;*                                                             *
     821              ;* FUNCTION PROPERTIES                                         *
     822              ;*                            5 Parameter, 10 Auto,  0 SOE     *
     823              ;***************************************************************
     824              
     825 00000109       _OSTaskCreate:
     826                      .dwcfi  cfa_offset, -2
     827                      .dwcfi  save_reg_to_mem, 26, 0
     828 00000109 FE10          ADDB      SP,#16                ; [CPU_ARAU] 
     829                      .dwcfi  cfa_offset, -18
     830              $C$DW$76        .dwtag  DW_TAG_variable
     831                      .dwattr $C$DW$76, DW_AT_name("task")
     832                      .dwattr $C$DW$76, DW_AT_TI_symbol_name("_task")
     833                      .dwattr $C$DW$76, DW_AT_type(*$C$DW$T$57)
     834                      .dwattr $C$DW$76, DW_AT_location[DW_OP_breg20 -8]
     835              
     836              $C$DW$77        .dwtag  DW_TAG_variable
     837                      .dwattr $C$DW$77, DW_AT_name("p_arg")
     838                      .dwattr $C$DW$77, DW_AT_TI_symbol_name("_p_arg")
     839                      .dwattr $C$DW$77, DW_AT_type(*$C$DW$T$3)
     840                      .dwattr $C$DW$77, DW_AT_location[DW_OP_breg20 -10]
     841              
     842              $C$DW$78        .dwtag  DW_TAG_variable
     843                      .dwattr $C$DW$78, DW_AT_name("psp")
     844                      .dwattr $C$DW$78, DW_AT_TI_symbol_name("_psp")
     845                      .dwattr $C$DW$78, DW_AT_type(*$C$DW$T$30)
     846                      .dwattr $C$DW$78, DW_AT_location[DW_OP_breg20 -12]
     847              
     848              $C$DW$79        .dwtag  DW_TAG_variable
     849                      .dwattr $C$DW$79, DW_AT_name("prio")
     850                      .dwattr $C$DW$79, DW_AT_TI_symbol_name("_prio")
     851                      .dwattr $C$DW$79, DW_AT_type(*$C$DW$T$19)
TMS320C2000 Assembler PC v20.2.1 Mon Feb  8 19:02:48 2021

Copyright (c) 1996-2018 Texas Instruments Incorporated
os_task.asm                                                          PAGE   17

     852                      .dwattr $C$DW$79, DW_AT_location[DW_OP_breg20 -13]
     853              
     854              $C$DW$80        .dwtag  DW_TAG_variable
     855                      .dwattr $C$DW$80, DW_AT_name("err")
     856                      .dwattr $C$DW$80, DW_AT_TI_symbol_name("_err")
     857                      .dwattr $C$DW$80, DW_AT_type(*$C$DW$T$19)
     858                      .dwattr $C$DW$80, DW_AT_location[DW_OP_breg20 -14]
     859              
     860              $C$DW$81        .dwtag  DW_TAG_variable
     861                      .dwattr $C$DW$81, DW_AT_name("cpu_sr")
     862                      .dwattr $C$DW$81, DW_AT_TI_symbol_name("_cpu_sr")
     863                      .dwattr $C$DW$81, DW_AT_type(*$C$DW$T$39)
     864                      .dwattr $C$DW$81, DW_AT_location[DW_OP_breg20 -15]
     865              
     866 0000010a 964D          MOV       *-SP[13],AL           ; [CPU_ALU] |215| 
     867 0000010b A04A          MOVL      *-SP[10],XAR5         ; [CPU_ALU] |215| 
     868 0000010c A848          MOVL      *-SP[8],XAR4          ; [CPU_ALU] |215| 
     869                      .dwpsn  file "C:/ti/Workspace/PLC_certificate/Software/uCOS-II/Source/os_task.c",line 219,column 24,i
     870 0000010d 2B4F          MOV       *-SP[15],#0           ; [CPU_ALU] |219| 
     871                      .dwpsn  file "C:/ti/Workspace/PLC_certificate/Software/uCOS-II/Source/os_task.c",line 232,column 5,is
     872 0000010e 523F          CMPB      AL,#63                ; [CPU_ALU] |232| 
     873 0000010f 6903          B         $C$L16,LOS            ; [CPU_ALU] |232| 
     874                      ; branchcc occurs ; [] |232| 
     875                      .dwpsn  file "C:/ti/Workspace/PLC_certificate/Software/uCOS-II/Source/os_task.c",line 233,column 9,is
     876 00000110 9A2A          MOVB      AL,#42                ; [CPU_ALU] |233| 
     877 00000111 6F53          B         $C$L21,UNC            ; [CPU_ALU] |233| 
     878                      ; branch occurs ; [] |233| 
     879 00000112       $C$L16:    
     880                      .dwpsn  file "C:/ti/Workspace/PLC_certificate/Software/uCOS-II/Source/os_task.c",line 236,column 5,is
     881              $C$DW$82        .dwtag  DW_TAG_TI_branch
     882                      .dwattr $C$DW$82, DW_AT_low_pc(0x00)
     883                      .dwattr $C$DW$82, DW_AT_name("_OS_CPU_SR_Save")
     884                      .dwattr $C$DW$82, DW_AT_TI_call
     885              
     886 00000112 7640!         LCR       #_OS_CPU_SR_Save      ; [CPU_ALU] |236| 
         00000113 0000 
     887                      ; call occurs [#_OS_CPU_SR_Save] ; [] |236| 
     888 00000114 964F          MOV       *-SP[15],AL           ; [CPU_ALU] |236| 
     889                      .dwpsn  file "C:/ti/Workspace/PLC_certificate/Software/uCOS-II/Source/os_task.c",line 237,column 5,is
     890 00000115 761F!         MOVW      DP,#_OSIntNesting     ; [CPU_ARAU] 
         00000116 0000 
     891 00000117 9200!         MOV       AL,@_OSIntNesting     ; [CPU_ALU] |237| 
     892 00000118 6106          B         $C$L17,EQ             ; [CPU_ALU] |237| 
     893                      ; branchcc occurs ; [] |237| 
     894                      .dwpsn  file "C:/ti/Workspace/PLC_certificate/Software/uCOS-II/Source/os_task.c",line 238,column 9,is
     895 00000119 924F          MOV       AL,*-SP[15]           ; [CPU_ALU] |238| 
     896              $C$DW$83        .dwtag  DW_TAG_TI_branch
     897                      .dwattr $C$DW$83, DW_AT_low_pc(0x00)
     898                      .dwattr $C$DW$83, DW_AT_name("_OS_CPU_SR_Restore")
     899                      .dwattr $C$DW$83, DW_AT_TI_call
     900              
     901 0000011a 7640!         LCR       #_OS_CPU_SR_Restore   ; [CPU_ALU] |238| 
         0000011b 0000 
     902                      ; call occurs [#_OS_CPU_SR_Restore] ; [] |238| 
     903                      .dwpsn  file "C:/ti/Workspace/PLC_certificate/Software/uCOS-II/Source/os_task.c",line 239,column 9,is
TMS320C2000 Assembler PC v20.2.1 Mon Feb  8 19:02:48 2021

Copyright (c) 1996-2018 Texas Instruments Incorporated
os_task.asm                                                          PAGE   18

     904 0000011c 9A3C          MOVB      AL,#60                ; [CPU_ALU] |239| 
     905 0000011d 6F47          B         $C$L21,UNC            ; [CPU_ALU] |239| 
     906                      ; branch occurs ; [] |239| 
     907 0000011e       $C$L17:    
     908                      .dwpsn  file "C:/ti/Workspace/PLC_certificate/Software/uCOS-II/Source/os_task.c",line 241,column 5,is
     909 0000011e 2901          CLRC      SXM                   ; [CPU_ALU] 
     910 0000011f 8F00!         MOVL      XAR4,#_OSTCBPrioTbl   ; [CPU_ARAU] |241| 
         00000120 0000 
     911 00000121 5603          MOV       ACC,*-SP[13] << 1     ; [CPU_ALU] |241| 
         00000122 014D 
     912 00000123 5601          ADDL      XAR4,ACC              ; [CPU_ALU] |241| 
         00000124 00A4 
     913 00000125 06C4          MOVL      ACC,*+XAR4[0]         ; [CPU_ALU] |241| 
     914 00000126 603A          B         $C$L20,NEQ            ; [CPU_ALU] |241| 
     915                      ; branchcc occurs ; [] |241| 
     916                      .dwpsn  file "C:/ti/Workspace/PLC_certificate/Software/uCOS-II/Source/os_task.c",line 242,column 9,is
     917 00000127 5603          MOV       ACC,*-SP[13] << 1     ; [CPU_ALU] |242| 
         00000128 014D 
     918 00000129 8F00!         MOVL      XAR4,#_OSTCBPrioTbl   ; [CPU_ARAU] |242| 
         0000012a 0000 
     919 0000012b 5601          ADDL      XAR4,ACC              ; [CPU_ALU] |242| 
         0000012c 00A4 
     920 0000012d 0201          MOVB      ACC,#1                ; [CPU_ALU] |242| 
     921 0000012e 1EC4          MOVL      *+XAR4[0],ACC         ; [CPU_ALU] |242| 
     922                      .dwpsn  file "C:/ti/Workspace/PLC_certificate/Software/uCOS-II/Source/os_task.c",line 244,column 9,is
     923 0000012f 924F          MOV       AL,*-SP[15]           ; [CPU_ALU] |244| 
     924              $C$DW$84        .dwtag  DW_TAG_TI_branch
     925                      .dwattr $C$DW$84, DW_AT_low_pc(0x00)
     926                      .dwattr $C$DW$84, DW_AT_name("_OS_CPU_SR_Restore")
     927                      .dwattr $C$DW$84, DW_AT_TI_call
     928              
     929 00000130 7640!         LCR       #_OS_CPU_SR_Restore   ; [CPU_ALU] |244| 
         00000131 0000 
     930                      ; call occurs [#_OS_CPU_SR_Restore] ; [] |244| 
     931                      .dwpsn  file "C:/ti/Workspace/PLC_certificate/Software/uCOS-II/Source/os_task.c",line 245,column 9,is
     932 00000132 0654          MOVL      ACC,*-SP[20]          ; [CPU_ALU] |245| 
     933 00000133 1E42          MOVL      *-SP[2],ACC           ; [CPU_ALU] |245| 
     934 00000134 9A00          MOVB      AL,#0                 ; [CPU_ALU] |245| 
     935 00000135 8A48          MOVL      XAR4,*-SP[8]          ; [CPU_ALU] |245| 
     936 00000136 834A          MOVL      XAR5,*-SP[10]         ; [CPU_ALU] |245| 
     937              $C$DW$85        .dwtag  DW_TAG_TI_branch
     938                      .dwattr $C$DW$85, DW_AT_low_pc(0x00)
     939                      .dwattr $C$DW$85, DW_AT_name("_OSTaskStkInit")
     940                      .dwattr $C$DW$85, DW_AT_TI_call
     941              
     942 00000137 7640!         LCR       #_OSTaskStkInit       ; [CPU_ALU] |245| 
         00000138 0000 
     943                      ; call occurs [#_OSTaskStkInit] ; [] |245| 
     944 00000139 A84C          MOVL      *-SP[12],XAR4         ; [CPU_ALU] |245| 
     945                      .dwpsn  file "C:/ti/Workspace/PLC_certificate/Software/uCOS-II/Source/os_task.c",line 246,column 9,is
     946 0000013a 924D          MOV       AL,*-SP[13]           ; [CPU_ALU] |246| 
     947 0000013b D500          MOVB      XAR5,#0               ; [CPU_ALU] |246| 
     948 0000013c 9641          MOV       *-SP[1],AL            ; [CPU_ALU] |246| 
     949 0000013d 0200          MOVB      ACC,#0                ; [CPU_ALU] |246| 
     950 0000013e 2B42          MOV       *-SP[2],#0            ; [CPU_ALU] |246| 
TMS320C2000 Assembler PC v20.2.1 Mon Feb  8 19:02:48 2021

Copyright (c) 1996-2018 Texas Instruments Incorporated
os_task.asm                                                          PAGE   19

     951 0000013f 1E44          MOVL      *-SP[4],ACC           ; [CPU_ALU] |246| 
     952 00000140 2B45          MOV       *-SP[5],#0            ; [CPU_ALU] |246| 
     953 00000141 8A4C          MOVL      XAR4,*-SP[12]         ; [CPU_ALU] |246| 
     954              $C$DW$86        .dwtag  DW_TAG_TI_branch
     955                      .dwattr $C$DW$86, DW_AT_low_pc(0x00)
     956                      .dwattr $C$DW$86, DW_AT_name("_OS_TCBInit")
     957                      .dwattr $C$DW$86, DW_AT_TI_call
     958              
     959 00000142 7640!         LCR       #_OS_TCBInit          ; [CPU_ALU] |246| 
         00000143 0000 
     960                      ; call occurs [#_OS_TCBInit] ; [] |246| 
     961 00000144 964E          MOV       *-SP[14],AL           ; [CPU_ALU] |246| 
     962                      .dwpsn  file "C:/ti/Workspace/PLC_certificate/Software/uCOS-II/Source/os_task.c",line 247,column 9,is
     963 00000145 5200          CMPB      AL,#0                 ; [CPU_ALU] |247| 
     964 00000146 6009          B         $C$L18,NEQ            ; [CPU_ALU] |247| 
     965                      ; branchcc occurs ; [] |247| 
     966                      .dwpsn  file "C:/ti/Workspace/PLC_certificate/Software/uCOS-II/Source/os_task.c",line 248,column 13,i
     967 00000147 761F!         MOVW      DP,#_OSRunning        ; [CPU_ARAU] 
         00000148 0000 
     968 00000149 9200!         MOV       AL,@_OSRunning        ; [CPU_ALU] |248| 
     969 0000014a 5201          CMPB      AL,#1                 ; [CPU_ALU] |248| 
     970 0000014b 6013          B         $C$L19,NEQ            ; [CPU_ALU] |248| 
     971                      ; branchcc occurs ; [] |248| 
     972                      .dwpsn  file "C:/ti/Workspace/PLC_certificate/Software/uCOS-II/Source/os_task.c",line 249,column 17,i
     973              $C$DW$87        .dwtag  DW_TAG_TI_branch
     974                      .dwattr $C$DW$87, DW_AT_low_pc(0x00)
     975                      .dwattr $C$DW$87, DW_AT_name("_OS_Sched")
     976                      .dwattr $C$DW$87, DW_AT_TI_call
     977              
     978 0000014c 7640!         LCR       #_OS_Sched            ; [CPU_ALU] |249| 
         0000014d 0000 
     979                      ; call occurs [#_OS_Sched] ; [] |249| 
     980 0000014e 6F10          B         $C$L19,UNC            ; [CPU_ALU] 
     981                      ; branch occurs ; [] 
     982 0000014f       $C$L18:    
     983                      .dwpsn  file "C:/ti/Workspace/PLC_certificate/Software/uCOS-II/Source/os_task.c",line 252,column 13,i
     984              $C$DW$88        .dwtag  DW_TAG_TI_branch
     985                      .dwattr $C$DW$88, DW_AT_low_pc(0x00)
     986                      .dwattr $C$DW$88, DW_AT_name("_OS_CPU_SR_Save")
     987                      .dwattr $C$DW$88, DW_AT_TI_call
     988              
     989 0000014f 7640!         LCR       #_OS_CPU_SR_Save      ; [CPU_ALU] |252| 
         00000150 0000 
     990                      ; call occurs [#_OS_CPU_SR_Save] ; [] |252| 
     991 00000151 964F          MOV       *-SP[15],AL           ; [CPU_ALU] |252| 
     992                      .dwpsn  file "C:/ti/Workspace/PLC_certificate/Software/uCOS-II/Source/os_task.c",line 253,column 13,i
     993 00000152 2901          CLRC      SXM                   ; [CPU_ALU] 
     994 00000153 8F00!         MOVL      XAR4,#_OSTCBPrioTbl   ; [CPU_ARAU] |253| 
         00000154 0000 
     995 00000155 5603          MOV       ACC,*-SP[13] << 1     ; [CPU_ALU] |253| 
         00000156 014D 
     996 00000157 5601          ADDL      XAR4,ACC              ; [CPU_ALU] |253| 
         00000158 00A4 
     997 00000159 0200          MOVB      ACC,#0                ; [CPU_ALU] |253| 
     998 0000015a 1EC4          MOVL      *+XAR4[0],ACC         ; [CPU_ALU] |253| 
TMS320C2000 Assembler PC v20.2.1 Mon Feb  8 19:02:48 2021

Copyright (c) 1996-2018 Texas Instruments Incorporated
os_task.asm                                                          PAGE   20

     999                      .dwpsn  file "C:/ti/Workspace/PLC_certificate/Software/uCOS-II/Source/os_task.c",line 254,column 13,i
    1000 0000015b 924F          MOV       AL,*-SP[15]           ; [CPU_ALU] |254| 
    1001              $C$DW$89        .dwtag  DW_TAG_TI_branch
    1002                      .dwattr $C$DW$89, DW_AT_low_pc(0x00)
    1003                      .dwattr $C$DW$89, DW_AT_name("_OS_CPU_SR_Restore")
    1004                      .dwattr $C$DW$89, DW_AT_TI_call
    1005              
    1006 0000015c 7640!         LCR       #_OS_CPU_SR_Restore   ; [CPU_ALU] |254| 
         0000015d 0000 
    1007                      ; call occurs [#_OS_CPU_SR_Restore] ; [] |254| 
    1008 0000015e       $C$L19:    
    1009                      .dwpsn  file "C:/ti/Workspace/PLC_certificate/Software/uCOS-II/Source/os_task.c",line 256,column 9,is
    1010 0000015e 924E          MOV       AL,*-SP[14]           ; [CPU_ALU] |256| 
    1011 0000015f 6F05          B         $C$L21,UNC            ; [CPU_ALU] |256| 
    1012                      ; branch occurs ; [] |256| 
    1013 00000160       $C$L20:    
    1014                      .dwpsn  file "C:/ti/Workspace/PLC_certificate/Software/uCOS-II/Source/os_task.c",line 258,column 5,is
    1015 00000160 924F          MOV       AL,*-SP[15]           ; [CPU_ALU] |258| 
    1016              $C$DW$90        .dwtag  DW_TAG_TI_branch
    1017                      .dwattr $C$DW$90, DW_AT_low_pc(0x00)
    1018                      .dwattr $C$DW$90, DW_AT_name("_OS_CPU_SR_Restore")
    1019                      .dwattr $C$DW$90, DW_AT_TI_call
    1020              
    1021 00000161 7640!         LCR       #_OS_CPU_SR_Restore   ; [CPU_ALU] |258| 
         00000162 0000 
    1022                      ; call occurs [#_OS_CPU_SR_Restore] ; [] |258| 
    1023                      .dwpsn  file "C:/ti/Workspace/PLC_certificate/Software/uCOS-II/Source/os_task.c",line 259,column 5,is
    1024 00000163 9A28          MOVB      AL,#40                ; [CPU_ALU] |259| 
    1025 00000164       $C$L21:    
    1026                      .dwpsn  file "C:/ti/Workspace/PLC_certificate/Software/uCOS-II/Source/os_task.c",line 260,column 1,is
    1027 00000164 FE90          SUBB      SP,#16                ; [CPU_ARAU] 
    1028                      .dwcfi  cfa_offset, -2
    1029              $C$DW$91        .dwtag  DW_TAG_TI_branch
    1030                      .dwattr $C$DW$91, DW_AT_low_pc(0x00)
    1031                      .dwattr $C$DW$91, DW_AT_TI_return
    1032              
    1033 00000165 0006          LRETR     ; [CPU_ALU] 
    1034                      ; return occurs ; [] 
    1035                      .dwattr $C$DW$71, DW_AT_TI_end_file("C:/ti/Workspace/PLC_certificate/Software/uCOS-II/Source/os_task.
    1036                      .dwattr $C$DW$71, DW_AT_TI_end_line(0x104)
    1037                      .dwattr $C$DW$71, DW_AT_TI_end_column(0x01)
    1038                      .dwendentry
    1039                      .dwendtag $C$DW$71
    1040              
    1041 00000166               .sect   ".text"
    1042                      .clink
    1043                      .global _OSTaskCreateExt
    1044              
    1045              $C$DW$92        .dwtag  DW_TAG_subprogram
    1046                      .dwattr $C$DW$92, DW_AT_name("OSTaskCreateExt")
    1047                      .dwattr $C$DW$92, DW_AT_low_pc(_OSTaskCreateExt)
    1048                      .dwattr $C$DW$92, DW_AT_high_pc(0x00)
    1049                      .dwattr $C$DW$92, DW_AT_TI_symbol_name("_OSTaskCreateExt")
    1050                      .dwattr $C$DW$92, DW_AT_external
    1051                      .dwattr $C$DW$92, DW_AT_type(*$C$DW$T$19)
TMS320C2000 Assembler PC v20.2.1 Mon Feb  8 19:02:48 2021

Copyright (c) 1996-2018 Texas Instruments Incorporated
os_task.asm                                                          PAGE   21

    1052                      .dwattr $C$DW$92, DW_AT_TI_begin_file("C:/ti/Workspace/PLC_certificate/Software/uCOS-II/Source/os_tas
    1053                      .dwattr $C$DW$92, DW_AT_TI_begin_line(0x150)
    1054                      .dwattr $C$DW$92, DW_AT_TI_begin_column(0x08)
    1055                      .dwattr $C$DW$92, DW_AT_TI_max_frame_size(-18)
    1056                      .dwpsn  file "C:/ti/Workspace/PLC_certificate/Software/uCOS-II/Source/os_task.c",line 345,column 1,is
    1057              
    1058                      .dwfde $C$DW$CIE, _OSTaskCreateExt
    1059              $C$DW$93        .dwtag  DW_TAG_formal_parameter
    1060                      .dwattr $C$DW$93, DW_AT_name("task")
    1061                      .dwattr $C$DW$93, DW_AT_TI_symbol_name("_task")
    1062                      .dwattr $C$DW$93, DW_AT_type(*$C$DW$T$57)
    1063                      .dwattr $C$DW$93, DW_AT_location[DW_OP_reg12]
    1064              
    1065              $C$DW$94        .dwtag  DW_TAG_formal_parameter
    1066                      .dwattr $C$DW$94, DW_AT_name("p_arg")
    1067                      .dwattr $C$DW$94, DW_AT_TI_symbol_name("_p_arg")
    1068                      .dwattr $C$DW$94, DW_AT_type(*$C$DW$T$3)
    1069                      .dwattr $C$DW$94, DW_AT_location[DW_OP_reg14]
    1070              
    1071              $C$DW$95        .dwtag  DW_TAG_formal_parameter
    1072                      .dwattr $C$DW$95, DW_AT_name("ptos")
    1073                      .dwattr $C$DW$95, DW_AT_TI_symbol_name("_ptos")
    1074                      .dwattr $C$DW$95, DW_AT_type(*$C$DW$T$30)
    1075                      .dwattr $C$DW$95, DW_AT_location[DW_OP_breg20 -20]
    1076              
    1077              $C$DW$96        .dwtag  DW_TAG_formal_parameter
    1078                      .dwattr $C$DW$96, DW_AT_name("prio")
    1079                      .dwattr $C$DW$96, DW_AT_TI_symbol_name("_prio")
    1080                      .dwattr $C$DW$96, DW_AT_type(*$C$DW$T$19)
    1081                      .dwattr $C$DW$96, DW_AT_location[DW_OP_breg20 -21]
    1082              
    1083              $C$DW$97        .dwtag  DW_TAG_formal_parameter
    1084                      .dwattr $C$DW$97, DW_AT_name("id")
    1085                      .dwattr $C$DW$97, DW_AT_TI_symbol_name("_id")
    1086                      .dwattr $C$DW$97, DW_AT_type(*$C$DW$T$20)
    1087                      .dwattr $C$DW$97, DW_AT_location[DW_OP_breg20 -22]
    1088              
    1089              $C$DW$98        .dwtag  DW_TAG_formal_parameter
    1090                      .dwattr $C$DW$98, DW_AT_name("pbos")
    1091                      .dwattr $C$DW$98, DW_AT_TI_symbol_name("_pbos")
    1092                      .dwattr $C$DW$98, DW_AT_type(*$C$DW$T$30)
    1093                      .dwattr $C$DW$98, DW_AT_location[DW_OP_breg20 -24]
    1094              
    1095              $C$DW$99        .dwtag  DW_TAG_formal_parameter
    1096                      .dwattr $C$DW$99, DW_AT_name("stk_size")
    1097                      .dwattr $C$DW$99, DW_AT_TI_symbol_name("_stk_size")
    1098                      .dwattr $C$DW$99, DW_AT_type(*$C$DW$T$27)
    1099                      .dwattr $C$DW$99, DW_AT_location[DW_OP_reg0]
    1100              
    1101              $C$DW$100       .dwtag  DW_TAG_formal_parameter
    1102                      .dwattr $C$DW$100, DW_AT_name("pext")
    1103                      .dwattr $C$DW$100, DW_AT_TI_symbol_name("_pext")
    1104                      .dwattr $C$DW$100, DW_AT_type(*$C$DW$T$3)
    1105                      .dwattr $C$DW$100, DW_AT_location[DW_OP_breg20 -26]
    1106              
TMS320C2000 Assembler PC v20.2.1 Mon Feb  8 19:02:48 2021

Copyright (c) 1996-2018 Texas Instruments Incorporated
os_task.asm                                                          PAGE   22

    1107              $C$DW$101       .dwtag  DW_TAG_formal_parameter
    1108                      .dwattr $C$DW$101, DW_AT_name("opt")
    1109                      .dwattr $C$DW$101, DW_AT_TI_symbol_name("_opt")
    1110                      .dwattr $C$DW$101, DW_AT_type(*$C$DW$T$20)
    1111                      .dwattr $C$DW$101, DW_AT_location[DW_OP_breg20 -27]
    1112              
    1113              
    1114              ;***************************************************************
    1115              ;* FNAME: _OSTaskCreateExt              FR SIZE:  16           *
    1116              ;*                                                             *
    1117              ;* FUNCTION ENVIRONMENT                                        *
    1118              ;*                                                             *
    1119              ;* FUNCTION PROPERTIES                                         *
    1120              ;*                            5 Parameter, 11 Auto,  0 SOE     *
    1121              ;***************************************************************
    1122              
    1123 00000166       _OSTaskCreateExt:
    1124                      .dwcfi  cfa_offset, -2
    1125                      .dwcfi  save_reg_to_mem, 26, 0
    1126 00000166 FE10          ADDB      SP,#16                ; [CPU_ARAU] 
    1127                      .dwcfi  cfa_offset, -18
    1128              $C$DW$102       .dwtag  DW_TAG_variable
    1129                      .dwattr $C$DW$102, DW_AT_name("task")
    1130                      .dwattr $C$DW$102, DW_AT_TI_symbol_name("_task")
    1131                      .dwattr $C$DW$102, DW_AT_type(*$C$DW$T$57)
    1132                      .dwattr $C$DW$102, DW_AT_location[DW_OP_breg20 -8]
    1133              
    1134              $C$DW$103       .dwtag  DW_TAG_variable
    1135                      .dwattr $C$DW$103, DW_AT_name("p_arg")
    1136                      .dwattr $C$DW$103, DW_AT_TI_symbol_name("_p_arg")
    1137                      .dwattr $C$DW$103, DW_AT_type(*$C$DW$T$3)
    1138                      .dwattr $C$DW$103, DW_AT_location[DW_OP_breg20 -10]
    1139              
    1140              $C$DW$104       .dwtag  DW_TAG_variable
    1141                      .dwattr $C$DW$104, DW_AT_name("stk_size")
    1142                      .dwattr $C$DW$104, DW_AT_TI_symbol_name("_stk_size")
    1143                      .dwattr $C$DW$104, DW_AT_type(*$C$DW$T$27)
    1144                      .dwattr $C$DW$104, DW_AT_location[DW_OP_breg20 -12]
    1145              
    1146              $C$DW$105       .dwtag  DW_TAG_variable
    1147                      .dwattr $C$DW$105, DW_AT_name("psp")
    1148                      .dwattr $C$DW$105, DW_AT_TI_symbol_name("_psp")
    1149                      .dwattr $C$DW$105, DW_AT_type(*$C$DW$T$30)
    1150                      .dwattr $C$DW$105, DW_AT_location[DW_OP_breg20 -14]
    1151              
    1152              $C$DW$106       .dwtag  DW_TAG_variable
    1153                      .dwattr $C$DW$106, DW_AT_name("err")
    1154                      .dwattr $C$DW$106, DW_AT_TI_symbol_name("_err")
    1155                      .dwattr $C$DW$106, DW_AT_type(*$C$DW$T$19)
    1156                      .dwattr $C$DW$106, DW_AT_location[DW_OP_breg20 -15]
    1157              
    1158              $C$DW$107       .dwtag  DW_TAG_variable
    1159                      .dwattr $C$DW$107, DW_AT_name("cpu_sr")
    1160                      .dwattr $C$DW$107, DW_AT_TI_symbol_name("_cpu_sr")
    1161                      .dwattr $C$DW$107, DW_AT_type(*$C$DW$T$39)
TMS320C2000 Assembler PC v20.2.1 Mon Feb  8 19:02:48 2021

Copyright (c) 1996-2018 Texas Instruments Incorporated
os_task.asm                                                          PAGE   23

    1162                      .dwattr $C$DW$107, DW_AT_location[DW_OP_breg20 -16]
    1163              
    1164 00000167 1E4C          MOVL      *-SP[12],ACC          ; [CPU_ALU] |345| 
    1165 00000168 A04A          MOVL      *-SP[10],XAR5         ; [CPU_ALU] |345| 
    1166 00000169 A848          MOVL      *-SP[8],XAR4          ; [CPU_ALU] |345| 
    1167                      .dwpsn  file "C:/ti/Workspace/PLC_certificate/Software/uCOS-II/Source/os_task.c",line 349,column 24,i
    1168 0000016a 2B50          MOV       *-SP[16],#0           ; [CPU_ALU] |349| 
    1169                      .dwpsn  file "C:/ti/Workspace/PLC_certificate/Software/uCOS-II/Source/os_task.c",line 362,column 5,is
    1170 0000016b 9255          MOV       AL,*-SP[21]           ; [CPU_ALU] |362| 
    1171 0000016c 523F          CMPB      AL,#63                ; [CPU_ALU] |362| 
    1172 0000016d 6903          B         $C$L22,LOS            ; [CPU_ALU] |362| 
    1173                      ; branchcc occurs ; [] |362| 
    1174                      .dwpsn  file "C:/ti/Workspace/PLC_certificate/Software/uCOS-II/Source/os_task.c",line 363,column 9,is
    1175 0000016e 9A2A          MOVB      AL,#42                ; [CPU_ALU] |363| 
    1176 0000016f 6F5B          B         $C$L27,UNC            ; [CPU_ALU] |363| 
    1177                      ; branch occurs ; [] |363| 
    1178 00000170       $C$L22:    
    1179                      .dwpsn  file "C:/ti/Workspace/PLC_certificate/Software/uCOS-II/Source/os_task.c",line 366,column 5,is
    1180              $C$DW$108       .dwtag  DW_TAG_TI_branch
    1181                      .dwattr $C$DW$108, DW_AT_low_pc(0x00)
    1182                      .dwattr $C$DW$108, DW_AT_name("_OS_CPU_SR_Save")
    1183                      .dwattr $C$DW$108, DW_AT_TI_call
    1184              
    1185 00000170 7640!         LCR       #_OS_CPU_SR_Save      ; [CPU_ALU] |366| 
         00000171 0000 
    1186                      ; call occurs [#_OS_CPU_SR_Save] ; [] |366| 
    1187 00000172 9650          MOV       *-SP[16],AL           ; [CPU_ALU] |366| 
    1188                      .dwpsn  file "C:/ti/Workspace/PLC_certificate/Software/uCOS-II/Source/os_task.c",line 367,column 5,is
    1189 00000173 761F!         MOVW      DP,#_OSIntNesting     ; [CPU_ARAU] 
         00000174 0000 
    1190 00000175 9200!         MOV       AL,@_OSIntNesting     ; [CPU_ALU] |367| 
    1191 00000176 6106          B         $C$L23,EQ             ; [CPU_ALU] |367| 
    1192                      ; branchcc occurs ; [] |367| 
    1193                      .dwpsn  file "C:/ti/Workspace/PLC_certificate/Software/uCOS-II/Source/os_task.c",line 368,column 9,is
    1194 00000177 9250          MOV       AL,*-SP[16]           ; [CPU_ALU] |368| 
    1195              $C$DW$109       .dwtag  DW_TAG_TI_branch
    1196                      .dwattr $C$DW$109, DW_AT_low_pc(0x00)
    1197                      .dwattr $C$DW$109, DW_AT_name("_OS_CPU_SR_Restore")
    1198                      .dwattr $C$DW$109, DW_AT_TI_call
    1199              
    1200 00000178 7640!         LCR       #_OS_CPU_SR_Restore   ; [CPU_ALU] |368| 
         00000179 0000 
    1201                      ; call occurs [#_OS_CPU_SR_Restore] ; [] |368| 
    1202                      .dwpsn  file "C:/ti/Workspace/PLC_certificate/Software/uCOS-II/Source/os_task.c",line 369,column 9,is
    1203 0000017a 9A3C          MOVB      AL,#60                ; [CPU_ALU] |369| 
    1204 0000017b 6F4F          B         $C$L27,UNC            ; [CPU_ALU] |369| 
    1205                      ; branch occurs ; [] |369| 
    1206 0000017c       $C$L23:    
    1207                      .dwpsn  file "C:/ti/Workspace/PLC_certificate/Software/uCOS-II/Source/os_task.c",line 371,column 5,is
    1208 0000017c 2901          CLRC      SXM                   ; [CPU_ALU] 
    1209 0000017d 8F00!         MOVL      XAR4,#_OSTCBPrioTbl   ; [CPU_ARAU] |371| 
         0000017e 0000 
    1210 0000017f 5603          MOV       ACC,*-SP[21] << 1     ; [CPU_ALU] |371| 
         00000180 0155 
    1211 00000181 5601          ADDL      XAR4,ACC              ; [CPU_ALU] |371| 
TMS320C2000 Assembler PC v20.2.1 Mon Feb  8 19:02:48 2021

Copyright (c) 1996-2018 Texas Instruments Incorporated
os_task.asm                                                          PAGE   24

         00000182 00A4 
    1212 00000183 06C4          MOVL      ACC,*+XAR4[0]         ; [CPU_ALU] |371| 
    1213 00000184 6042          B         $C$L26,NEQ            ; [CPU_ALU] |371| 
    1214                      ; branchcc occurs ; [] |371| 
    1215                      .dwpsn  file "C:/ti/Workspace/PLC_certificate/Software/uCOS-II/Source/os_task.c",line 372,column 9,is
    1216 00000185 5603          MOV       ACC,*-SP[21] << 1     ; [CPU_ALU] |372| 
         00000186 0155 
    1217 00000187 8F00!         MOVL      XAR4,#_OSTCBPrioTbl   ; [CPU_ARAU] |372| 
         00000188 0000 
    1218 00000189 5601          ADDL      XAR4,ACC              ; [CPU_ALU] |372| 
         0000018a 00A4 
    1219 0000018b 0201          MOVB      ACC,#1                ; [CPU_ALU] |372| 
    1220 0000018c 1EC4          MOVL      *+XAR4[0],ACC         ; [CPU_ALU] |372| 
    1221                      .dwpsn  file "C:/ti/Workspace/PLC_certificate/Software/uCOS-II/Source/os_task.c",line 374,column 9,is
    1222 0000018d 9250          MOV       AL,*-SP[16]           ; [CPU_ALU] |374| 
    1223              $C$DW$110       .dwtag  DW_TAG_TI_branch
    1224                      .dwattr $C$DW$110, DW_AT_low_pc(0x00)
    1225                      .dwattr $C$DW$110, DW_AT_name("_OS_CPU_SR_Restore")
    1226                      .dwattr $C$DW$110, DW_AT_TI_call
    1227              
    1228 0000018e 7640!         LCR       #_OS_CPU_SR_Restore   ; [CPU_ALU] |374| 
         0000018f 0000 
    1229                      ; call occurs [#_OS_CPU_SR_Restore] ; [] |374| 
    1230                      .dwpsn  file "C:/ti/Workspace/PLC_certificate/Software/uCOS-II/Source/os_task.c",line 377,column 9,is
    1231 00000190 5D5B          MOVZ      AR5,*-SP[27]          ; [CPU_ALU] |377| 
    1232 00000191 8A58          MOVL      XAR4,*-SP[24]         ; [CPU_ALU] |377| 
    1233 00000192 064C          MOVL      ACC,*-SP[12]          ; [CPU_ALU] |377| 
    1234              $C$DW$111       .dwtag  DW_TAG_TI_branch
    1235                      .dwattr $C$DW$111, DW_AT_low_pc(0x00)
    1236                      .dwattr $C$DW$111, DW_AT_name("_OS_TaskStkClr")
    1237                      .dwattr $C$DW$111, DW_AT_TI_call
    1238              
    1239 00000193 7640'         LCR       #_OS_TaskStkClr       ; [CPU_ALU] |377| 
         00000194 05B4 
    1240                      ; call occurs [#_OS_TaskStkClr] ; [] |377| 
    1241                      .dwpsn  file "C:/ti/Workspace/PLC_certificate/Software/uCOS-II/Source/os_task.c",line 380,column 9,is
    1242 00000195 0654          MOVL      ACC,*-SP[20]          ; [CPU_ALU] |380| 
    1243 00000196 1E42          MOVL      *-SP[2],ACC           ; [CPU_ALU] |380| 
    1244 00000197 925B          MOV       AL,*-SP[27]           ; [CPU_ALU] |380| 
    1245 00000198 8A48          MOVL      XAR4,*-SP[8]          ; [CPU_ALU] |380| 
    1246 00000199 834A          MOVL      XAR5,*-SP[10]         ; [CPU_ALU] |380| 
    1247              $C$DW$112       .dwtag  DW_TAG_TI_branch
    1248                      .dwattr $C$DW$112, DW_AT_low_pc(0x00)
    1249                      .dwattr $C$DW$112, DW_AT_name("_OSTaskStkInit")
    1250                      .dwattr $C$DW$112, DW_AT_TI_call
    1251              
    1252 0000019a 7640!         LCR       #_OSTaskStkInit       ; [CPU_ALU] |380| 
         0000019b 0000 
    1253                      ; call occurs [#_OSTaskStkInit] ; [] |380| 
    1254 0000019c A84E          MOVL      *-SP[14],XAR4         ; [CPU_ALU] |380| 
    1255                      .dwpsn  file "C:/ti/Workspace/PLC_certificate/Software/uCOS-II/Source/os_task.c",line 381,column 9,is
    1256 0000019d 9255          MOV       AL,*-SP[21]           ; [CPU_ALU] |381| 
    1257 0000019e 9641          MOV       *-SP[1],AL            ; [CPU_ALU] |381| 
    1258 0000019f 9256          MOV       AL,*-SP[22]           ; [CPU_ALU] |381| 
    1259 000001a0 9642          MOV       *-SP[2],AL            ; [CPU_ALU] |381| 
TMS320C2000 Assembler PC v20.2.1 Mon Feb  8 19:02:48 2021

Copyright (c) 1996-2018 Texas Instruments Incorporated
os_task.asm                                                          PAGE   25

    1260 000001a1 065A          MOVL      ACC,*-SP[26]          ; [CPU_ALU] |381| 
    1261 000001a2 1E44          MOVL      *-SP[4],ACC           ; [CPU_ALU] |381| 
    1262 000001a3 925B          MOV       AL,*-SP[27]           ; [CPU_ALU] |381| 
    1263 000001a4 9645          MOV       *-SP[5],AL            ; [CPU_ALU] |381| 
    1264 000001a5 8358          MOVL      XAR5,*-SP[24]         ; [CPU_ALU] |381| 
    1265 000001a6 064C          MOVL      ACC,*-SP[12]          ; [CPU_ALU] |381| 
    1266 000001a7 8A4E          MOVL      XAR4,*-SP[14]         ; [CPU_ALU] |381| 
    1267              $C$DW$113       .dwtag  DW_TAG_TI_branch
    1268                      .dwattr $C$DW$113, DW_AT_low_pc(0x00)
    1269                      .dwattr $C$DW$113, DW_AT_name("_OS_TCBInit")
    1270                      .dwattr $C$DW$113, DW_AT_TI_call
    1271              
    1272 000001a8 7640!         LCR       #_OS_TCBInit          ; [CPU_ALU] |381| 
         000001a9 0000 
    1273                      ; call occurs [#_OS_TCBInit] ; [] |381| 
    1274 000001aa 964F          MOV       *-SP[15],AL           ; [CPU_ALU] |381| 
    1275                      .dwpsn  file "C:/ti/Workspace/PLC_certificate/Software/uCOS-II/Source/os_task.c",line 382,column 9,is
    1276 000001ab 5200          CMPB      AL,#0                 ; [CPU_ALU] |382| 
    1277 000001ac 6009          B         $C$L24,NEQ            ; [CPU_ALU] |382| 
    1278                      ; branchcc occurs ; [] |382| 
    1279                      .dwpsn  file "C:/ti/Workspace/PLC_certificate/Software/uCOS-II/Source/os_task.c",line 383,column 13,i
    1280 000001ad 761F!         MOVW      DP,#_OSRunning        ; [CPU_ARAU] 
         000001ae 0000 
    1281 000001af 9200!         MOV       AL,@_OSRunning        ; [CPU_ALU] |383| 
    1282 000001b0 5201          CMPB      AL,#1                 ; [CPU_ALU] |383| 
    1283 000001b1 6013          B         $C$L25,NEQ            ; [CPU_ALU] |383| 
    1284                      ; branchcc occurs ; [] |383| 
    1285                      .dwpsn  file "C:/ti/Workspace/PLC_certificate/Software/uCOS-II/Source/os_task.c",line 384,column 17,i
    1286              $C$DW$114       .dwtag  DW_TAG_TI_branch
    1287                      .dwattr $C$DW$114, DW_AT_low_pc(0x00)
    1288                      .dwattr $C$DW$114, DW_AT_name("_OS_Sched")
    1289                      .dwattr $C$DW$114, DW_AT_TI_call
    1290              
    1291 000001b2 7640!         LCR       #_OS_Sched            ; [CPU_ALU] |384| 
         000001b3 0000 
    1292                      ; call occurs [#_OS_Sched] ; [] |384| 
    1293 000001b4 6F10          B         $C$L25,UNC            ; [CPU_ALU] 
    1294                      ; branch occurs ; [] 
    1295 000001b5       $C$L24:    
    1296                      .dwpsn  file "C:/ti/Workspace/PLC_certificate/Software/uCOS-II/Source/os_task.c",line 387,column 13,i
    1297              $C$DW$115       .dwtag  DW_TAG_TI_branch
    1298                      .dwattr $C$DW$115, DW_AT_low_pc(0x00)
    1299                      .dwattr $C$DW$115, DW_AT_name("_OS_CPU_SR_Save")
    1300                      .dwattr $C$DW$115, DW_AT_TI_call
    1301              
    1302 000001b5 7640!         LCR       #_OS_CPU_SR_Save      ; [CPU_ALU] |387| 
         000001b6 0000 
    1303                      ; call occurs [#_OS_CPU_SR_Save] ; [] |387| 
    1304 000001b7 9650          MOV       *-SP[16],AL           ; [CPU_ALU] |387| 
    1305                      .dwpsn  file "C:/ti/Workspace/PLC_certificate/Software/uCOS-II/Source/os_task.c",line 388,column 13,i
    1306 000001b8 2901          CLRC      SXM                   ; [CPU_ALU] 
    1307 000001b9 8F00!         MOVL      XAR4,#_OSTCBPrioTbl   ; [CPU_ARAU] |388| 
         000001ba 0000 
    1308 000001bb 5603          MOV       ACC,*-SP[21] << 1     ; [CPU_ALU] |388| 
         000001bc 0155 
TMS320C2000 Assembler PC v20.2.1 Mon Feb  8 19:02:48 2021

Copyright (c) 1996-2018 Texas Instruments Incorporated
os_task.asm                                                          PAGE   26

    1309 000001bd 5601          ADDL      XAR4,ACC              ; [CPU_ALU] |388| 
         000001be 00A4 
    1310 000001bf 0200          MOVB      ACC,#0                ; [CPU_ALU] |388| 
    1311 000001c0 1EC4          MOVL      *+XAR4[0],ACC         ; [CPU_ALU] |388| 
    1312                      .dwpsn  file "C:/ti/Workspace/PLC_certificate/Software/uCOS-II/Source/os_task.c",line 389,column 13,i
    1313 000001c1 9250          MOV       AL,*-SP[16]           ; [CPU_ALU] |389| 
    1314              $C$DW$116       .dwtag  DW_TAG_TI_branch
    1315                      .dwattr $C$DW$116, DW_AT_low_pc(0x00)
    1316                      .dwattr $C$DW$116, DW_AT_name("_OS_CPU_SR_Restore")
    1317                      .dwattr $C$DW$116, DW_AT_TI_call
    1318              
    1319 000001c2 7640!         LCR       #_OS_CPU_SR_Restore   ; [CPU_ALU] |389| 
         000001c3 0000 
    1320                      ; call occurs [#_OS_CPU_SR_Restore] ; [] |389| 
    1321 000001c4       $C$L25:    
    1322                      .dwpsn  file "C:/ti/Workspace/PLC_certificate/Software/uCOS-II/Source/os_task.c",line 391,column 9,is
    1323 000001c4 924F          MOV       AL,*-SP[15]           ; [CPU_ALU] |391| 
    1324 000001c5 6F05          B         $C$L27,UNC            ; [CPU_ALU] |391| 
    1325                      ; branch occurs ; [] |391| 
    1326 000001c6       $C$L26:    
    1327                      .dwpsn  file "C:/ti/Workspace/PLC_certificate/Software/uCOS-II/Source/os_task.c",line 393,column 5,is
    1328 000001c6 9250          MOV       AL,*-SP[16]           ; [CPU_ALU] |393| 
    1329              $C$DW$117       .dwtag  DW_TAG_TI_branch
    1330                      .dwattr $C$DW$117, DW_AT_low_pc(0x00)
    1331                      .dwattr $C$DW$117, DW_AT_name("_OS_CPU_SR_Restore")
    1332                      .dwattr $C$DW$117, DW_AT_TI_call
    1333              
    1334 000001c7 7640!         LCR       #_OS_CPU_SR_Restore   ; [CPU_ALU] |393| 
         000001c8 0000 
    1335                      ; call occurs [#_OS_CPU_SR_Restore] ; [] |393| 
    1336                      .dwpsn  file "C:/ti/Workspace/PLC_certificate/Software/uCOS-II/Source/os_task.c",line 394,column 5,is
    1337 000001c9 9A28          MOVB      AL,#40                ; [CPU_ALU] |394| 
    1338 000001ca       $C$L27:    
    1339                      .dwpsn  file "C:/ti/Workspace/PLC_certificate/Software/uCOS-II/Source/os_task.c",line 395,column 1,is
    1340 000001ca FE90          SUBB      SP,#16                ; [CPU_ARAU] 
    1341                      .dwcfi  cfa_offset, -2
    1342              $C$DW$118       .dwtag  DW_TAG_TI_branch
    1343                      .dwattr $C$DW$118, DW_AT_low_pc(0x00)
    1344                      .dwattr $C$DW$118, DW_AT_TI_return
    1345              
    1346 000001cb 0006          LRETR     ; [CPU_ALU] 
    1347                      ; return occurs ; [] 
    1348                      .dwattr $C$DW$92, DW_AT_TI_end_file("C:/ti/Workspace/PLC_certificate/Software/uCOS-II/Source/os_task.
    1349                      .dwattr $C$DW$92, DW_AT_TI_end_line(0x18b)
    1350                      .dwattr $C$DW$92, DW_AT_TI_end_column(0x01)
    1351                      .dwendentry
    1352                      .dwendtag $C$DW$92
    1353              
    1354 000001cc               .sect   ".text"
    1355                      .clink
    1356                      .global _OSTaskDel
    1357              
    1358              $C$DW$119       .dwtag  DW_TAG_subprogram
    1359                      .dwattr $C$DW$119, DW_AT_name("OSTaskDel")
    1360                      .dwattr $C$DW$119, DW_AT_low_pc(_OSTaskDel)
TMS320C2000 Assembler PC v20.2.1 Mon Feb  8 19:02:48 2021

Copyright (c) 1996-2018 Texas Instruments Incorporated
os_task.asm                                                          PAGE   27

    1361                      .dwattr $C$DW$119, DW_AT_high_pc(0x00)
    1362                      .dwattr $C$DW$119, DW_AT_TI_symbol_name("_OSTaskDel")
    1363                      .dwattr $C$DW$119, DW_AT_external
    1364                      .dwattr $C$DW$119, DW_AT_type(*$C$DW$T$19)
    1365                      .dwattr $C$DW$119, DW_AT_TI_begin_file("C:/ti/Workspace/PLC_certificate/Software/uCOS-II/Source/os_ta
    1366                      .dwattr $C$DW$119, DW_AT_TI_begin_line(0x1b3)
    1367                      .dwattr $C$DW$119, DW_AT_TI_begin_column(0x08)
    1368                      .dwattr $C$DW$119, DW_AT_TI_max_frame_size(-8)
    1369                      .dwpsn  file "C:/ti/Workspace/PLC_certificate/Software/uCOS-II/Source/os_task.c",line 436,column 1,is
    1370              
    1371                      .dwfde $C$DW$CIE, _OSTaskDel
    1372              $C$DW$120       .dwtag  DW_TAG_formal_parameter
    1373                      .dwattr $C$DW$120, DW_AT_name("prio")
    1374                      .dwattr $C$DW$120, DW_AT_TI_symbol_name("_prio")
    1375                      .dwattr $C$DW$120, DW_AT_type(*$C$DW$T$19)
    1376                      .dwattr $C$DW$120, DW_AT_location[DW_OP_reg0]
    1377              
    1378              
    1379              ;***************************************************************
    1380              ;* FNAME: _OSTaskDel                    FR SIZE:   6           *
    1381              ;*                                                             *
    1382              ;* FUNCTION ENVIRONMENT                                        *
    1383              ;*                                                             *
    1384              ;* FUNCTION PROPERTIES                                         *
    1385              ;*                            0 Parameter,  6 Auto,  0 SOE     *
    1386              ;***************************************************************
    1387              
    1388 000001cc       _OSTaskDel:
    1389                      .dwcfi  cfa_offset, -2
    1390                      .dwcfi  save_reg_to_mem, 26, 0
    1391 000001cc FE06          ADDB      SP,#6                 ; [CPU_ARAU] 
    1392                      .dwcfi  cfa_offset, -8
    1393              $C$DW$121       .dwtag  DW_TAG_variable
    1394                      .dwattr $C$DW$121, DW_AT_name("pnode")
    1395                      .dwattr $C$DW$121, DW_AT_TI_symbol_name("_pnode")
    1396                      .dwattr $C$DW$121, DW_AT_type(*$C$DW$T$36)
    1397                      .dwattr $C$DW$121, DW_AT_location[DW_OP_breg20 -2]
    1398              
    1399              $C$DW$122       .dwtag  DW_TAG_variable
    1400                      .dwattr $C$DW$122, DW_AT_name("ptcb")
    1401                      .dwattr $C$DW$122, DW_AT_TI_symbol_name("_ptcb")
    1402                      .dwattr $C$DW$122, DW_AT_type(*$C$DW$T$45)
    1403                      .dwattr $C$DW$122, DW_AT_location[DW_OP_breg20 -4]
    1404              
    1405              $C$DW$123       .dwtag  DW_TAG_variable
    1406                      .dwattr $C$DW$123, DW_AT_name("prio")
    1407                      .dwattr $C$DW$123, DW_AT_TI_symbol_name("_prio")
    1408                      .dwattr $C$DW$123, DW_AT_type(*$C$DW$T$19)
    1409                      .dwattr $C$DW$123, DW_AT_location[DW_OP_breg20 -5]
    1410              
    1411              $C$DW$124       .dwtag  DW_TAG_variable
    1412                      .dwattr $C$DW$124, DW_AT_name("cpu_sr")
    1413                      .dwattr $C$DW$124, DW_AT_TI_symbol_name("_cpu_sr")
    1414                      .dwattr $C$DW$124, DW_AT_type(*$C$DW$T$39)
    1415                      .dwattr $C$DW$124, DW_AT_location[DW_OP_breg20 -6]
TMS320C2000 Assembler PC v20.2.1 Mon Feb  8 19:02:48 2021

Copyright (c) 1996-2018 Texas Instruments Incorporated
os_task.asm                                                          PAGE   28

    1416              
    1417 000001cd 9645          MOV       *-SP[5],AL            ; [CPU_ALU] |436| 
    1418                      .dwpsn  file "C:/ti/Workspace/PLC_certificate/Software/uCOS-II/Source/os_task.c",line 442,column 26,i
    1419 000001ce 2B46          MOV       *-SP[6],#0            ; [CPU_ALU] |442| 
    1420                      .dwpsn  file "C:/ti/Workspace/PLC_certificate/Software/uCOS-II/Source/os_task.c",line 447,column 5,is
    1421 000001cf 761F!         MOVW      DP,#_OSIntNesting     ; [CPU_ARAU] 
         000001d0 0000 
    1422 000001d1 9200!         MOV       AL,@_OSIntNesting     ; [CPU_ALU] |447| 
    1423 000001d2 6104          B         $C$L28,EQ             ; [CPU_ALU] |447| 
    1424                      ; branchcc occurs ; [] |447| 
    1425                      .dwpsn  file "C:/ti/Workspace/PLC_certificate/Software/uCOS-II/Source/os_task.c",line 448,column 9,is
    1426 000001d3 9A40          MOVB      AL,#64                ; [CPU_ALU] |448| 
    1427 000001d4 FFEF          B         $C$L43,UNC            ; [CPU_ALU] |448| 
         000001d5 00EC 
    1428                      ; branch occurs ; [] |448| 
    1429 000001d6       $C$L28:    
    1430                      .dwpsn  file "C:/ti/Workspace/PLC_certificate/Software/uCOS-II/Source/os_task.c",line 450,column 5,is
    1431 000001d6 9245          MOV       AL,*-SP[5]            ; [CPU_ALU] |450| 
    1432 000001d7 523F          CMPB      AL,#63                ; [CPU_ALU] |450| 
    1433 000001d8 6004          B         $C$L29,NEQ            ; [CPU_ALU] |450| 
    1434                      ; branchcc occurs ; [] |450| 
    1435                      .dwpsn  file "C:/ti/Workspace/PLC_certificate/Software/uCOS-II/Source/os_task.c",line 451,column 9,is
    1436 000001d9 9A3E          MOVB      AL,#62                ; [CPU_ALU] |451| 
    1437 000001da FFEF          B         $C$L43,UNC            ; [CPU_ALU] |451| 
         000001db 00E6 
    1438                      ; branch occurs ; [] |451| 
    1439 000001dc       $C$L29:    
    1440                      .dwpsn  file "C:/ti/Workspace/PLC_certificate/Software/uCOS-II/Source/os_task.c",line 454,column 5,is
    1441 000001dc 523F          CMPB      AL,#63                ; [CPU_ALU] |454| 
    1442 000001dd 6806          B         $C$L30,LO             ; [CPU_ALU] |454| 
    1443                      ; branchcc occurs ; [] |454| 
    1444                      .dwpsn  file "C:/ti/Workspace/PLC_certificate/Software/uCOS-II/Source/os_task.c",line 455,column 9,is
    1445 000001de 52FF          CMPB      AL,#255               ; [CPU_ALU] |455| 
    1446 000001df 6104          B         $C$L30,EQ             ; [CPU_ALU] |455| 
    1447                      ; branchcc occurs ; [] |455| 
    1448                      .dwpsn  file "C:/ti/Workspace/PLC_certificate/Software/uCOS-II/Source/os_task.c",line 456,column 13,i
    1449 000001e0 9A2A          MOVB      AL,#42                ; [CPU_ALU] |456| 
    1450 000001e1 FFEF          B         $C$L43,UNC            ; [CPU_ALU] |456| 
         000001e2 00DF 
    1451                      ; branch occurs ; [] |456| 
    1452 000001e3       $C$L30:    
    1453                      .dwpsn  file "C:/ti/Workspace/PLC_certificate/Software/uCOS-II/Source/os_task.c",line 462,column 5,is
    1454              $C$DW$125       .dwtag  DW_TAG_TI_branch
    1455                      .dwattr $C$DW$125, DW_AT_low_pc(0x00)
    1456                      .dwattr $C$DW$125, DW_AT_name("_OS_CPU_SR_Save")
    1457                      .dwattr $C$DW$125, DW_AT_TI_call
    1458              
    1459 000001e3 7640!         LCR       #_OS_CPU_SR_Save      ; [CPU_ALU] |462| 
         000001e4 0000 
    1460                      ; call occurs [#_OS_CPU_SR_Save] ; [] |462| 
    1461 000001e5 9646          MOV       *-SP[6],AL            ; [CPU_ALU] |462| 
    1462                      .dwpsn  file "C:/ti/Workspace/PLC_certificate/Software/uCOS-II/Source/os_task.c",line 463,column 5,is
    1463 000001e6 9245          MOV       AL,*-SP[5]            ; [CPU_ALU] |463| 
    1464 000001e7 52FF          CMPB      AL,#255               ; [CPU_ALU] |463| 
    1465 000001e8 6008          B         $C$L31,NEQ            ; [CPU_ALU] |463| 
TMS320C2000 Assembler PC v20.2.1 Mon Feb  8 19:02:48 2021

Copyright (c) 1996-2018 Texas Instruments Incorporated
os_task.asm                                                          PAGE   29

    1466                      ; branchcc occurs ; [] |463| 
    1467                      .dwpsn  file "C:/ti/Workspace/PLC_certificate/Software/uCOS-II/Source/os_task.c",line 464,column 9,is
    1468 000001e9 021C          MOVB      ACC,#28               ; [CPU_ALU] |464| 
    1469 000001ea 761F!         MOVW      DP,#_OSTCBCur         ; [CPU_ARAU] 
         000001eb 0000 
    1470 000001ec 0700!         ADDL      ACC,@_OSTCBCur        ; [CPU_ALU] |464| 
    1471 000001ed 1EA7          MOVL      XAR7,ACC              ; [CPU_ALU] |464| 
    1472 000001ee 92C7          MOV       AL,*+XAR7[0]          ; [CPU_ALU] |464| 
    1473 000001ef 9645          MOV       *-SP[5],AL            ; [CPU_ALU] |464| 
    1474 000001f0       $C$L31:    
    1475                      .dwpsn  file "C:/ti/Workspace/PLC_certificate/Software/uCOS-II/Source/os_task.c",line 466,column 5,is
    1476 000001f0 2901          CLRC      SXM                   ; [CPU_ALU] 
    1477 000001f1 8F00!         MOVL      XAR4,#_OSTCBPrioTbl   ; [CPU_ARAU] |466| 
         000001f2 0000 
    1478 000001f3 5603          MOV       ACC,*-SP[5] << 1      ; [CPU_ALU] |466| 
         000001f4 0145 
    1479 000001f5 5601          ADDL      XAR4,ACC              ; [CPU_ALU] |466| 
         000001f6 00A4 
    1480 000001f7 06C4          MOVL      ACC,*+XAR4[0]         ; [CPU_ALU] |466| 
    1481 000001f8 1E44          MOVL      *-SP[4],ACC           ; [CPU_ALU] |466| 
    1482                      .dwpsn  file "C:/ti/Workspace/PLC_certificate/Software/uCOS-II/Source/os_task.c",line 467,column 5,is
    1483 000001f9 0644          MOVL      ACC,*-SP[4]           ; [CPU_ALU] |467| 
    1484 000001fa 6007          B         $C$L32,NEQ            ; [CPU_ALU] |467| 
    1485                      ; branchcc occurs ; [] |467| 
    1486                      .dwpsn  file "C:/ti/Workspace/PLC_certificate/Software/uCOS-II/Source/os_task.c",line 468,column 9,is
    1487 000001fb 9246          MOV       AL,*-SP[6]            ; [CPU_ALU] |468| 
    1488              $C$DW$126       .dwtag  DW_TAG_TI_branch
    1489                      .dwattr $C$DW$126, DW_AT_low_pc(0x00)
    1490                      .dwattr $C$DW$126, DW_AT_name("_OS_CPU_SR_Restore")
    1491                      .dwattr $C$DW$126, DW_AT_TI_call
    1492              
    1493 000001fc 7640!         LCR       #_OS_CPU_SR_Restore   ; [CPU_ALU] |468| 
         000001fd 0000 
    1494                      ; call occurs [#_OS_CPU_SR_Restore] ; [] |468| 
    1495                      .dwpsn  file "C:/ti/Workspace/PLC_certificate/Software/uCOS-II/Source/os_task.c",line 469,column 9,is
    1496 000001fe 9A43          MOVB      AL,#67                ; [CPU_ALU] |469| 
    1497 000001ff FFEF          B         $C$L43,UNC            ; [CPU_ALU] |469| 
         00000200 00C1 
    1498                      ; branch occurs ; [] |469| 
    1499 00000201       $C$L32:    
    1500                      .dwpsn  file "C:/ti/Workspace/PLC_certificate/Software/uCOS-II/Source/os_task.c",line 471,column 5,is
    1501 00000201 0201          MOVB      ACC,#1                ; [CPU_ALU] |471| 
    1502 00000202 0F44          CMPL      ACC,*-SP[4]           ; [CPU_ALU] |471| 
    1503 00000203 6007          B         $C$L33,NEQ            ; [CPU_ALU] |471| 
    1504                      ; branchcc occurs ; [] |471| 
    1505                      .dwpsn  file "C:/ti/Workspace/PLC_certificate/Software/uCOS-II/Source/os_task.c",line 472,column 9,is
    1506 00000204 9246          MOV       AL,*-SP[6]            ; [CPU_ALU] |472| 
    1507              $C$DW$127       .dwtag  DW_TAG_TI_branch
    1508                      .dwattr $C$DW$127, DW_AT_low_pc(0x00)
    1509                      .dwattr $C$DW$127, DW_AT_name("_OS_CPU_SR_Restore")
    1510                      .dwattr $C$DW$127, DW_AT_TI_call
    1511              
    1512 00000205 7640!         LCR       #_OS_CPU_SR_Restore   ; [CPU_ALU] |472| 
         00000206 0000 
    1513                      ; call occurs [#_OS_CPU_SR_Restore] ; [] |472| 
TMS320C2000 Assembler PC v20.2.1 Mon Feb  8 19:02:48 2021

Copyright (c) 1996-2018 Texas Instruments Incorporated
os_task.asm                                                          PAGE   30

    1514                      .dwpsn  file "C:/ti/Workspace/PLC_certificate/Software/uCOS-II/Source/os_task.c",line 473,column 9,is
    1515 00000207 9A3D          MOVB      AL,#61                ; [CPU_ALU] |473| 
    1516 00000208 FFEF          B         $C$L43,UNC            ; [CPU_ALU] |473| 
         00000209 00B8 
    1517                      ; branch occurs ; [] |473| 
    1518 0000020a       $C$L33:    
    1519                      .dwpsn  file "C:/ti/Workspace/PLC_certificate/Software/uCOS-II/Source/os_task.c",line 476,column 5,is
    1520 0000020a 021E          MOVB      ACC,#30               ; [CPU_ALU] |476| 
    1521 0000020b 0744          ADDL      ACC,*-SP[4]           ; [CPU_ALU] |476| 
    1522 0000020c 1EA6          MOVL      XAR6,ACC              ; [CPU_ALU] |476| 
    1523 0000020d 8F00!         MOVL      XAR4,#_OSRdyTbl       ; [CPU_ARAU] |476| 
         0000020e 0000 
    1524 0000020f A8A9          MOVL      ACC,XAR4              ; [CPU_ALU] |476| 
    1525 00000210 0DC6          ADDU      ACC,*+XAR6[0]         ; [CPU_ALU] |476| 
    1526 00000211 83A9          MOVL      XAR5,ACC              ; [CPU_ALU] |476| 
    1527 00000212 021F          MOVB      ACC,#31               ; [CPU_ALU] |476| 
    1528 00000213 0744          ADDL      ACC,*-SP[4]           ; [CPU_ALU] |476| 
    1529 00000214 8AA9          MOVL      XAR4,ACC              ; [CPU_ALU] |476| 
    1530 00000215 92C4          MOV       AL,*+XAR4[0]          ; [CPU_ALU] |476| 
    1531 00000216 FF5E          NOT       AL                    ; [CPU_ALU] |476| 
    1532 00000217 C0C5          AND       *+XAR5[0],AL          ; [CPU_ALU] |476| 
    1533                      .dwpsn  file "C:/ti/Workspace/PLC_certificate/Software/uCOS-II/Source/os_task.c",line 477,column 5,is
    1534 00000218 021E          MOVB      ACC,#30               ; [CPU_ALU] |477| 
    1535 00000219 0744          ADDL      ACC,*-SP[4]           ; [CPU_ALU] |477| 
    1536 0000021a 8AA9          MOVL      XAR4,ACC              ; [CPU_ALU] |477| 
    1537 0000021b 58C4          MOVZ      AR0,*+XAR4[0]         ; [CPU_ALU] |477| 
    1538 0000021c 8F00!         MOVL      XAR4,#_OSRdyTbl       ; [CPU_ARAU] |477| 
         0000021d 0000 
    1539 0000021e 9294          MOV       AL,*+XAR4[AR0]        ; [CPU_ALU] |477| 
    1540 0000021f 6009          B         $C$L34,NEQ            ; [CPU_ALU] |477| 
    1541                      ; branchcc occurs ; [] |477| 
    1542                      .dwpsn  file "C:/ti/Workspace/PLC_certificate/Software/uCOS-II/Source/os_task.c",line 478,column 9,is
    1543 00000220 0220          MOVB      ACC,#32               ; [CPU_ALU] |478| 
    1544 00000221 0744          ADDL      ACC,*-SP[4]           ; [CPU_ALU] |478| 
    1545 00000222 8AA9          MOVL      XAR4,ACC              ; [CPU_ALU] |478| 
    1546 00000223 761F!         MOVW      DP,#_OSRdyGrp         ; [CPU_ARAU] 
         00000224 0000 
    1547 00000225 92C4          MOV       AL,*+XAR4[0]          ; [CPU_ALU] |478| 
    1548 00000226 FF5E          NOT       AL                    ; [CPU_ALU] |478| 
    1549 00000227 C000!         AND       @_OSRdyGrp,AL         ; [CPU_ALU] |478| 
    1550 00000228       $C$L34:    
    1551                      .dwpsn  file "C:/ti/Workspace/PLC_certificate/Software/uCOS-II/Source/os_task.c",line 482,column 5,is
    1552 00000228 020E          MOVB      ACC,#14               ; [CPU_ALU] |482| 
    1553 00000229 0744          ADDL      ACC,*-SP[4]           ; [CPU_ALU] |482| 
    1554 0000022a 8AA9          MOVL      XAR4,ACC              ; [CPU_ALU] |482| 
    1555 0000022b 06C4          MOVL      ACC,*+XAR4[0]         ; [CPU_ALU] |482| 
    1556 0000022c 6108          B         $C$L35,EQ             ; [CPU_ALU] |482| 
    1557                      ; branchcc occurs ; [] |482| 
    1558                      .dwpsn  file "C:/ti/Workspace/PLC_certificate/Software/uCOS-II/Source/os_task.c",line 483,column 9,is
    1559 0000022d 020E          MOVB      ACC,#14               ; [CPU_ALU] |483| 
    1560 0000022e 0744          ADDL      ACC,*-SP[4]           ; [CPU_ALU] |483| 
    1561 0000022f 8AA9          MOVL      XAR4,ACC              ; [CPU_ALU] |483| 
    1562 00000230 83C4          MOVL      XAR5,*+XAR4[0]        ; [CPU_ALU] |483| 
    1563 00000231 8A44          MOVL      XAR4,*-SP[4]          ; [CPU_ALU] |483| 
    1564              $C$DW$128       .dwtag  DW_TAG_TI_branch
TMS320C2000 Assembler PC v20.2.1 Mon Feb  8 19:02:48 2021

Copyright (c) 1996-2018 Texas Instruments Incorporated
os_task.asm                                                          PAGE   31

    1565                      .dwattr $C$DW$128, DW_AT_low_pc(0x00)
    1566                      .dwattr $C$DW$128, DW_AT_name("_OS_EventTaskRemove")
    1567                      .dwattr $C$DW$128, DW_AT_TI_call
    1568              
    1569 00000232 7640!         LCR       #_OS_EventTaskRemove  ; [CPU_ALU] |483| 
         00000233 0000 
    1570                      ; call occurs [#_OS_EventTaskRemove] ; [] |483| 
    1571 00000234       $C$L35:    
    1572                      .dwpsn  file "C:/ti/Workspace/PLC_certificate/Software/uCOS-II/Source/os_task.c",line 486,column 5,is
    1573 00000234 0210          MOVB      ACC,#16               ; [CPU_ALU] |486| 
    1574 00000235 0744          ADDL      ACC,*-SP[4]           ; [CPU_ALU] |486| 
    1575 00000236 8AA9          MOVL      XAR4,ACC              ; [CPU_ALU] |486| 
    1576 00000237 06C4          MOVL      ACC,*+XAR4[0]         ; [CPU_ALU] |486| 
    1577 00000238 6108          B         $C$L36,EQ             ; [CPU_ALU] |486| 
    1578                      ; branchcc occurs ; [] |486| 
    1579                      .dwpsn  file "C:/ti/Workspace/PLC_certificate/Software/uCOS-II/Source/os_task.c",line 487,column 9,is
    1580 00000239 0210          MOVB      ACC,#16               ; [CPU_ALU] |487| 
    1581 0000023a 0744          ADDL      ACC,*-SP[4]           ; [CPU_ALU] |487| 
    1582 0000023b 8AA9          MOVL      XAR4,ACC              ; [CPU_ALU] |487| 
    1583 0000023c 83C4          MOVL      XAR5,*+XAR4[0]        ; [CPU_ALU] |487| 
    1584 0000023d 8A44          MOVL      XAR4,*-SP[4]          ; [CPU_ALU] |487| 
    1585              $C$DW$129       .dwtag  DW_TAG_TI_branch
    1586                      .dwattr $C$DW$129, DW_AT_low_pc(0x00)
    1587                      .dwattr $C$DW$129, DW_AT_name("_OS_EventTaskRemoveMulti")
    1588                      .dwattr $C$DW$129, DW_AT_TI_call
    1589              
    1590 0000023e 7640!         LCR       #_OS_EventTaskRemoveMulti ; [CPU_ALU] |487| 
         0000023f 0000 
    1591                      ; call occurs [#_OS_EventTaskRemoveMulti] ; [] |487| 
    1592 00000240       $C$L36:    
    1593                      .dwpsn  file "C:/ti/Workspace/PLC_certificate/Software/uCOS-II/Source/os_task.c",line 493,column 5,is
    1594 00000240 0214          MOVB      ACC,#20               ; [CPU_ALU] |493| 
    1595 00000241 0744          ADDL      ACC,*-SP[4]           ; [CPU_ALU] |493| 
    1596 00000242 8AA9          MOVL      XAR4,ACC              ; [CPU_ALU] |493| 
    1597 00000243 06C4          MOVL      ACC,*+XAR4[0]         ; [CPU_ALU] |493| 
    1598 00000244 1E42          MOVL      *-SP[2],ACC           ; [CPU_ALU] |493| 
    1599                      .dwpsn  file "C:/ti/Workspace/PLC_certificate/Software/uCOS-II/Source/os_task.c",line 494,column 5,is
    1600 00000245 0642          MOVL      ACC,*-SP[2]           ; [CPU_ALU] |494| 
    1601 00000246 6104          B         $C$L37,EQ             ; [CPU_ALU] |494| 
    1602                      ; branchcc occurs ; [] |494| 
    1603                      .dwpsn  file "C:/ti/Workspace/PLC_certificate/Software/uCOS-II/Source/os_task.c",line 495,column 9,is
    1604 00000247 8A42          MOVL      XAR4,*-SP[2]          ; [CPU_ALU] |495| 
    1605              $C$DW$130       .dwtag  DW_TAG_TI_branch
    1606                      .dwattr $C$DW$130, DW_AT_low_pc(0x00)
    1607                      .dwattr $C$DW$130, DW_AT_name("_OS_FlagUnlink")
    1608                      .dwattr $C$DW$130, DW_AT_TI_call
    1609              
    1610 00000248 7640!         LCR       #_OS_FlagUnlink       ; [CPU_ALU] |495| 
         00000249 0000 
    1611                      ; call occurs [#_OS_FlagUnlink] ; [] |495| 
    1612 0000024a       $C$L37:    
    1613                      .dwpsn  file "C:/ti/Workspace/PLC_certificate/Software/uCOS-II/Source/os_task.c",line 499,column 5,is
    1614 0000024a BE00          MOVB      XAR6,#0               ; [CPU_ALU] |499| 
    1615 0000024b 0218          MOVB      ACC,#24               ; [CPU_ALU] |499| 
    1616 0000024c 0744          ADDL      ACC,*-SP[4]           ; [CPU_ALU] |499| 
TMS320C2000 Assembler PC v20.2.1 Mon Feb  8 19:02:48 2021

Copyright (c) 1996-2018 Texas Instruments Incorporated
os_task.asm                                                          PAGE   32

    1617 0000024d 8AA9          MOVL      XAR4,ACC              ; [CPU_ALU] |499| 
    1618 0000024e C2C4          MOVL      *+XAR4[0],XAR6        ; [CPU_ALU] |499| 
    1619                      .dwpsn  file "C:/ti/Workspace/PLC_certificate/Software/uCOS-II/Source/os_task.c",line 500,column 5,is
    1620 0000024f 021A          MOVB      ACC,#26               ; [CPU_ALU] |500| 
    1621 00000250 0744          ADDL      ACC,*-SP[4]           ; [CPU_ALU] |500| 
    1622 00000251 8AA9          MOVL      XAR4,ACC              ; [CPU_ALU] |500| 
    1623 00000252 2BC4          MOV       *+XAR4[0],#0          ; [CPU_ALU] |500| 
    1624                      .dwpsn  file "C:/ti/Workspace/PLC_certificate/Software/uCOS-II/Source/os_task.c",line 501,column 5,is
    1625 00000253 021B          MOVB      ACC,#27               ; [CPU_ALU] |501| 
    1626 00000254 0744          ADDL      ACC,*-SP[4]           ; [CPU_ALU] |501| 
    1627 00000255 8AA9          MOVL      XAR4,ACC              ; [CPU_ALU] |501| 
    1628 00000256 2BC4          MOV       *+XAR4[0],#0          ; [CPU_ALU] |501| 
    1629                      .dwpsn  file "C:/ti/Workspace/PLC_certificate/Software/uCOS-II/Source/os_task.c",line 502,column 5,is
    1630 00000257 761F!         MOVW      DP,#_OSLockNesting    ; [CPU_ARAU] 
         00000258 0000 
    1631 00000259 9200!         MOV       AL,@_OSLockNesting    ; [CPU_ALU] |502| 
    1632 0000025a 52FF          CMPB      AL,#255               ; [CPU_ALU] |502| 
    1633 0000025b 6702          B         $C$L38,HIS            ; [CPU_ALU] |502| 
    1634                      ; branchcc occurs ; [] |502| 
    1635                      .dwpsn  file "C:/ti/Workspace/PLC_certificate/Software/uCOS-II/Source/os_task.c",line 503,column 9,is
    1636 0000025c 0A00!         INC       @_OSLockNesting       ; [CPU_ALU] |503| 
    1637 0000025d       $C$L38:    
    1638                      .dwpsn  file "C:/ti/Workspace/PLC_certificate/Software/uCOS-II/Source/os_task.c",line 505,column 5,is
    1639 0000025d 9246          MOV       AL,*-SP[6]            ; [CPU_ALU] |505| 
    1640              $C$DW$131       .dwtag  DW_TAG_TI_branch
    1641                      .dwattr $C$DW$131, DW_AT_low_pc(0x00)
    1642                      .dwattr $C$DW$131, DW_AT_name("_OS_CPU_SR_Restore")
    1643                      .dwattr $C$DW$131, DW_AT_TI_call
    1644              
    1645 0000025e 7640!         LCR       #_OS_CPU_SR_Restore   ; [CPU_ALU] |505| 
         0000025f 0000 
    1646                      ; call occurs [#_OS_CPU_SR_Restore] ; [] |505| 
    1647                      .dwpsn  file "C:/ti/Workspace/PLC_certificate/Software/uCOS-II/Source/os_task.c",line 506,column 5,is
    1648              $C$DW$132       .dwtag  DW_TAG_TI_branch
    1649                      .dwattr $C$DW$132, DW_AT_low_pc(0x00)
    1650                      .dwattr $C$DW$132, DW_AT_name("_OS_Dummy")
    1651                      .dwattr $C$DW$132, DW_AT_TI_call
    1652              
    1653 00000260 7640!         LCR       #_OS_Dummy            ; [CPU_ALU] |506| 
         00000261 0000 
    1654                      ; call occurs [#_OS_Dummy] ; [] |506| 
    1655                      .dwpsn  file "C:/ti/Workspace/PLC_certificate/Software/uCOS-II/Source/os_task.c",line 507,column 5,is
    1656              $C$DW$133       .dwtag  DW_TAG_TI_branch
    1657                      .dwattr $C$DW$133, DW_AT_low_pc(0x00)
    1658                      .dwattr $C$DW$133, DW_AT_name("_OS_CPU_SR_Save")
    1659                      .dwattr $C$DW$133, DW_AT_TI_call
    1660              
    1661 00000262 7640!         LCR       #_OS_CPU_SR_Save      ; [CPU_ALU] |507| 
         00000263 0000 
    1662                      ; call occurs [#_OS_CPU_SR_Save] ; [] |507| 
    1663 00000264 9646          MOV       *-SP[6],AL            ; [CPU_ALU] |507| 
    1664                      .dwpsn  file "C:/ti/Workspace/PLC_certificate/Software/uCOS-II/Source/os_task.c",line 508,column 5,is
    1665 00000265 761F!         MOVW      DP,#_OSLockNesting    ; [CPU_ARAU] 
         00000266 0000 
    1666 00000267 9200!         MOV       AL,@_OSLockNesting    ; [CPU_ALU] |508| 
TMS320C2000 Assembler PC v20.2.1 Mon Feb  8 19:02:48 2021

Copyright (c) 1996-2018 Texas Instruments Incorporated
os_task.asm                                                          PAGE   33

    1667 00000268 6102          B         $C$L39,EQ             ; [CPU_ALU] |508| 
    1668                      ; branchcc occurs ; [] |508| 
    1669                      .dwpsn  file "C:/ti/Workspace/PLC_certificate/Software/uCOS-II/Source/os_task.c",line 509,column 9,is
    1670 00000269 0B00!         DEC       @_OSLockNesting       ; [CPU_ALU] |509| 
    1671 0000026a       $C$L39:    
    1672                      .dwpsn  file "C:/ti/Workspace/PLC_certificate/Software/uCOS-II/Source/os_task.c",line 511,column 5,is
    1673 0000026a 8A44          MOVL      XAR4,*-SP[4]          ; [CPU_ALU] |511| 
    1674              $C$DW$134       .dwtag  DW_TAG_TI_branch
    1675                      .dwattr $C$DW$134, DW_AT_low_pc(0x00)
    1676                      .dwattr $C$DW$134, DW_AT_name("_OSTaskDelHook")
    1677                      .dwattr $C$DW$134, DW_AT_TI_call
    1678              
    1679 0000026b 7640!         LCR       #_OSTaskDelHook       ; [CPU_ALU] |511| 
         0000026c 0000 
    1680                      ; call occurs [#_OSTaskDelHook] ; [] |511| 
    1681                      .dwpsn  file "C:/ti/Workspace/PLC_certificate/Software/uCOS-II/Source/os_task.c",line 519,column 5,is
    1682 0000026d 761F!         MOVW      DP,#_OSTaskCtr        ; [CPU_ARAU] 
         0000026e 0000 
    1683 0000026f 0B00!         DEC       @_OSTaskCtr           ; [CPU_ALU] |519| 
    1684                      .dwpsn  file "C:/ti/Workspace/PLC_certificate/Software/uCOS-II/Source/os_task.c",line 520,column 5,is
    1685 00000270 2901          CLRC      SXM                   ; [CPU_ALU] 
    1686 00000271 8F00!         MOVL      XAR4,#_OSTCBPrioTbl   ; [CPU_ARAU] |520| 
         00000272 0000 
    1687 00000273 5603          MOV       ACC,*-SP[5] << 1      ; [CPU_ALU] |520| 
         00000274 0145 
    1688 00000275 5601          ADDL      XAR4,ACC              ; [CPU_ALU] |520| 
         00000276 00A4 
    1689 00000277 0200          MOVB      ACC,#0                ; [CPU_ALU] |520| 
    1690 00000278 1EC4          MOVL      *+XAR4[0],ACC         ; [CPU_ALU] |520| 
    1691                      .dwpsn  file "C:/ti/Workspace/PLC_certificate/Software/uCOS-II/Source/os_task.c",line 521,column 5,is
    1692 00000279 020C          MOVB      ACC,#12               ; [CPU_ALU] |521| 
    1693 0000027a 0744          ADDL      ACC,*-SP[4]           ; [CPU_ALU] |521| 
    1694 0000027b 8AA9          MOVL      XAR4,ACC              ; [CPU_ALU] |521| 
    1695 0000027c 06C4          MOVL      ACC,*+XAR4[0]         ; [CPU_ALU] |521| 
    1696 0000027d 6011          B         $C$L40,NEQ            ; [CPU_ALU] |521| 
    1697                      ; branchcc occurs ; [] |521| 
    1698                      .dwpsn  file "C:/ti/Workspace/PLC_certificate/Software/uCOS-II/Source/os_task.c",line 522,column 9,is
    1699 0000027e 020A          MOVB      ACC,#10               ; [CPU_ALU] |522| 
    1700 0000027f 0744          ADDL      ACC,*-SP[4]           ; [CPU_ALU] |522| 
    1701 00000280 8AA9          MOVL      XAR4,ACC              ; [CPU_ALU] |522| 
    1702 00000281 BE00          MOVB      XAR6,#0               ; [CPU_ALU] |522| 
    1703 00000282 020C          MOVB      ACC,#12               ; [CPU_ALU] |522| 
    1704 00000283 07C4          ADDL      ACC,*+XAR4[0]         ; [CPU_ALU] |522| 
    1705 00000284 8AA9          MOVL      XAR4,ACC              ; [CPU_ALU] |522| 
    1706 00000285 C2C4          MOVL      *+XAR4[0],XAR6        ; [CPU_ALU] |522| 
    1707                      .dwpsn  file "C:/ti/Workspace/PLC_certificate/Software/uCOS-II/Source/os_task.c",line 523,column 9,is
    1708 00000286 020A          MOVB      ACC,#10               ; [CPU_ALU] |523| 
    1709 00000287 0744          ADDL      ACC,*-SP[4]           ; [CPU_ALU] |523| 
    1710 00000288 8AA9          MOVL      XAR4,ACC              ; [CPU_ALU] |523| 
    1711 00000289 761F!         MOVW      DP,#_OSTCBList        ; [CPU_ARAU] 
         0000028a 0000 
    1712 0000028b 06C4          MOVL      ACC,*+XAR4[0]         ; [CPU_ALU] |523| 
    1713 0000028c 1E00!         MOVL      @_OSTCBList,ACC       ; [CPU_ALU] |523| 
    1714 0000028d 6F19          B         $C$L41,UNC            ; [CPU_ALU] 
    1715                      ; branch occurs ; [] 
TMS320C2000 Assembler PC v20.2.1 Mon Feb  8 19:02:48 2021

Copyright (c) 1996-2018 Texas Instruments Incorporated
os_task.asm                                                          PAGE   34

    1716 0000028e       $C$L40:    
    1717                      .dwpsn  file "C:/ti/Workspace/PLC_certificate/Software/uCOS-II/Source/os_task.c",line 525,column 9,is
    1718 0000028e 020C          MOVB      ACC,#12               ; [CPU_ALU] |525| 
    1719 0000028f 0744          ADDL      ACC,*-SP[4]           ; [CPU_ALU] |525| 
    1720 00000290 8AA9          MOVL      XAR4,ACC              ; [CPU_ALU] |525| 
    1721 00000291 020A          MOVB      ACC,#10               ; [CPU_ALU] |525| 
    1722 00000292 07C4          ADDL      ACC,*+XAR4[0]         ; [CPU_ALU] |525| 
    1723 00000293 1EA6          MOVL      XAR6,ACC              ; [CPU_ALU] |525| 
    1724 00000294 020A          MOVB      ACC,#10               ; [CPU_ALU] |525| 
    1725 00000295 0744          ADDL      ACC,*-SP[4]           ; [CPU_ALU] |525| 
    1726 00000296 8AA9          MOVL      XAR4,ACC              ; [CPU_ALU] |525| 
    1727 00000297 06C4          MOVL      ACC,*+XAR4[0]         ; [CPU_ALU] |525| 
    1728 00000298 8AA6          MOVL      XAR4,XAR6             ; [CPU_ALU] |525| 
    1729 00000299 1EC4          MOVL      *+XAR4[0],ACC         ; [CPU_ALU] |525| 
    1730                      .dwpsn  file "C:/ti/Workspace/PLC_certificate/Software/uCOS-II/Source/os_task.c",line 526,column 9,is
    1731 0000029a 020A          MOVB      ACC,#10               ; [CPU_ALU] |526| 
    1732 0000029b 0744          ADDL      ACC,*-SP[4]           ; [CPU_ALU] |526| 
    1733 0000029c 8AA9          MOVL      XAR4,ACC              ; [CPU_ALU] |526| 
    1734 0000029d 020C          MOVB      ACC,#12               ; [CPU_ALU] |526| 
    1735 0000029e 07C4          ADDL      ACC,*+XAR4[0]         ; [CPU_ALU] |526| 
    1736 0000029f 1EA6          MOVL      XAR6,ACC              ; [CPU_ALU] |526| 
    1737 000002a0 020C          MOVB      ACC,#12               ; [CPU_ALU] |526| 
    1738 000002a1 0744          ADDL      ACC,*-SP[4]           ; [CPU_ALU] |526| 
    1739 000002a2 8AA9          MOVL      XAR4,ACC              ; [CPU_ALU] |526| 
    1740 000002a3 06C4          MOVL      ACC,*+XAR4[0]         ; [CPU_ALU] |526| 
    1741 000002a4 8AA6          MOVL      XAR4,XAR6             ; [CPU_ALU] |526| 
    1742 000002a5 1EC4          MOVL      *+XAR4[0],ACC         ; [CPU_ALU] |526| 
    1743 000002a6       $C$L41:    
    1744                      .dwpsn  file "C:/ti/Workspace/PLC_certificate/Software/uCOS-II/Source/os_task.c",line 528,column 5,is
    1745 000002a6 761F!         MOVW      DP,#_OSTCBFreeList    ; [CPU_ARAU] 
         000002a7 0000 
    1746 000002a8 C400!         MOVL      XAR6,@_OSTCBFreeList  ; [CPU_ALU] |528| 
    1747 000002a9 020A          MOVB      ACC,#10               ; [CPU_ALU] |528| 
    1748 000002aa 0744          ADDL      ACC,*-SP[4]           ; [CPU_ALU] |528| 
    1749 000002ab 8AA9          MOVL      XAR4,ACC              ; [CPU_ALU] |528| 
    1750 000002ac C2C4          MOVL      *+XAR4[0],XAR6        ; [CPU_ALU] |528| 
    1751                      .dwpsn  file "C:/ti/Workspace/PLC_certificate/Software/uCOS-II/Source/os_task.c",line 529,column 5,is
    1752 000002ad 0644          MOVL      ACC,*-SP[4]           ; [CPU_ALU] |529| 
    1753 000002ae 1E00!         MOVL      @_OSTCBFreeList,ACC   ; [CPU_ALU] |529| 
    1754                      .dwpsn  file "C:/ti/Workspace/PLC_certificate/Software/uCOS-II/Source/os_task.c",line 531,column 5,is
    1755 000002af 022C          MOVB      ACC,#44               ; [CPU_ALU] |531| 
    1756 000002b0 0744          ADDL      ACC,*-SP[4]           ; [CPU_ALU] |531| 
    1757 000002b1 8AA9          MOVL      XAR4,ACC              ; [CPU_ALU] |531| 
    1758 000002b2 8F40+         MOVL      XAR5,#$C$FSL1         ; [CPU_ARAU] |531| 
         000002b3 0000 
    1759 000002b4 A0C4          MOVL      *+XAR4[0],XAR5        ; [CPU_ALU] |531| 
    1760                      .dwpsn  file "C:/ti/Workspace/PLC_certificate/Software/uCOS-II/Source/os_task.c",line 533,column 5,is
    1761 000002b5 9246          MOV       AL,*-SP[6]            ; [CPU_ALU] |533| 
    1762              $C$DW$135       .dwtag  DW_TAG_TI_branch
    1763                      .dwattr $C$DW$135, DW_AT_low_pc(0x00)
    1764                      .dwattr $C$DW$135, DW_AT_name("_OS_CPU_SR_Restore")
    1765                      .dwattr $C$DW$135, DW_AT_TI_call
    1766              
    1767 000002b6 7640!         LCR       #_OS_CPU_SR_Restore   ; [CPU_ALU] |533| 
         000002b7 0000 
TMS320C2000 Assembler PC v20.2.1 Mon Feb  8 19:02:48 2021

Copyright (c) 1996-2018 Texas Instruments Incorporated
os_task.asm                                                          PAGE   35

    1768                      ; call occurs [#_OS_CPU_SR_Restore] ; [] |533| 
    1769                      .dwpsn  file "C:/ti/Workspace/PLC_certificate/Software/uCOS-II/Source/os_task.c",line 534,column 5,is
    1770 000002b8 761F!         MOVW      DP,#_OSRunning        ; [CPU_ARAU] 
         000002b9 0000 
    1771 000002ba 9200!         MOV       AL,@_OSRunning        ; [CPU_ALU] |534| 
    1772 000002bb 5201          CMPB      AL,#1                 ; [CPU_ALU] |534| 
    1773 000002bc 6003          B         $C$L42,NEQ            ; [CPU_ALU] |534| 
    1774                      ; branchcc occurs ; [] |534| 
    1775                      .dwpsn  file "C:/ti/Workspace/PLC_certificate/Software/uCOS-II/Source/os_task.c",line 535,column 9,is
    1776              $C$DW$136       .dwtag  DW_TAG_TI_branch
    1777                      .dwattr $C$DW$136, DW_AT_low_pc(0x00)
    1778                      .dwattr $C$DW$136, DW_AT_name("_OS_Sched")
    1779                      .dwattr $C$DW$136, DW_AT_TI_call
    1780              
    1781 000002bd 7640!         LCR       #_OS_Sched            ; [CPU_ALU] |535| 
         000002be 0000 
    1782                      ; call occurs [#_OS_Sched] ; [] |535| 
    1783 000002bf       $C$L42:    
    1784                      .dwpsn  file "C:/ti/Workspace/PLC_certificate/Software/uCOS-II/Source/os_task.c",line 537,column 5,is
    1785 000002bf 9A00          MOVB      AL,#0                 ; [CPU_ALU] |537| 
    1786 000002c0       $C$L43:    
    1787                      .dwpsn  file "C:/ti/Workspace/PLC_certificate/Software/uCOS-II/Source/os_task.c",line 538,column 1,is
    1788 000002c0 FE86          SUBB      SP,#6                 ; [CPU_ARAU] 
    1789                      .dwcfi  cfa_offset, -2
    1790              $C$DW$137       .dwtag  DW_TAG_TI_branch
    1791                      .dwattr $C$DW$137, DW_AT_low_pc(0x00)
    1792                      .dwattr $C$DW$137, DW_AT_TI_return
    1793              
    1794 000002c1 0006          LRETR     ; [CPU_ALU] 
    1795                      ; return occurs ; [] 
    1796                      .dwattr $C$DW$119, DW_AT_TI_end_file("C:/ti/Workspace/PLC_certificate/Software/uCOS-II/Source/os_task
    1797                      .dwattr $C$DW$119, DW_AT_TI_end_line(0x21a)
    1798                      .dwattr $C$DW$119, DW_AT_TI_end_column(0x01)
    1799                      .dwendentry
    1800                      .dwendtag $C$DW$119
    1801              
    1802 000002c2               .sect   ".text"
    1803                      .clink
    1804                      .global _OSTaskDelReq
    1805              
    1806              $C$DW$138       .dwtag  DW_TAG_subprogram
    1807                      .dwattr $C$DW$138, DW_AT_name("OSTaskDelReq")
    1808                      .dwattr $C$DW$138, DW_AT_low_pc(_OSTaskDelReq)
    1809                      .dwattr $C$DW$138, DW_AT_high_pc(0x00)
    1810                      .dwattr $C$DW$138, DW_AT_TI_symbol_name("_OSTaskDelReq")
    1811                      .dwattr $C$DW$138, DW_AT_external
    1812                      .dwattr $C$DW$138, DW_AT_type(*$C$DW$T$19)
    1813                      .dwattr $C$DW$138, DW_AT_TI_begin_file("C:/ti/Workspace/PLC_certificate/Software/uCOS-II/Source/os_ta
    1814                      .dwattr $C$DW$138, DW_AT_TI_begin_line(0x24c)
    1815                      .dwattr $C$DW$138, DW_AT_TI_begin_column(0x08)
    1816                      .dwattr $C$DW$138, DW_AT_TI_max_frame_size(-8)
    1817                      .dwpsn  file "C:/ti/Workspace/PLC_certificate/Software/uCOS-II/Source/os_task.c",line 589,column 1,is
    1818              
    1819                      .dwfde $C$DW$CIE, _OSTaskDelReq
    1820              $C$DW$139       .dwtag  DW_TAG_formal_parameter
TMS320C2000 Assembler PC v20.2.1 Mon Feb  8 19:02:48 2021

Copyright (c) 1996-2018 Texas Instruments Incorporated
os_task.asm                                                          PAGE   36

    1821                      .dwattr $C$DW$139, DW_AT_name("prio")
    1822                      .dwattr $C$DW$139, DW_AT_TI_symbol_name("_prio")
    1823                      .dwattr $C$DW$139, DW_AT_type(*$C$DW$T$19)
    1824                      .dwattr $C$DW$139, DW_AT_location[DW_OP_reg0]
    1825              
    1826              
    1827              ;***************************************************************
    1828              ;* FNAME: _OSTaskDelReq                 FR SIZE:   6           *
    1829              ;*                                                             *
    1830              ;* FUNCTION ENVIRONMENT                                        *
    1831              ;*                                                             *
    1832              ;* FUNCTION PROPERTIES                                         *
    1833              ;*                            0 Parameter,  5 Auto,  0 SOE     *
    1834              ;***************************************************************
    1835              
    1836 000002c2       _OSTaskDelReq:
    1837                      .dwcfi  cfa_offset, -2
    1838                      .dwcfi  save_reg_to_mem, 26, 0
    1839 000002c2 FE06          ADDB      SP,#6                 ; [CPU_ARAU] 
    1840                      .dwcfi  cfa_offset, -8
    1841              $C$DW$140       .dwtag  DW_TAG_variable
    1842                      .dwattr $C$DW$140, DW_AT_name("ptcb")
    1843                      .dwattr $C$DW$140, DW_AT_TI_symbol_name("_ptcb")
    1844                      .dwattr $C$DW$140, DW_AT_type(*$C$DW$T$45)
    1845                      .dwattr $C$DW$140, DW_AT_location[DW_OP_breg20 -2]
    1846              
    1847              $C$DW$141       .dwtag  DW_TAG_variable
    1848                      .dwattr $C$DW$141, DW_AT_name("prio")
    1849                      .dwattr $C$DW$141, DW_AT_TI_symbol_name("_prio")
    1850                      .dwattr $C$DW$141, DW_AT_type(*$C$DW$T$19)
    1851                      .dwattr $C$DW$141, DW_AT_location[DW_OP_breg20 -3]
    1852              
    1853              $C$DW$142       .dwtag  DW_TAG_variable
    1854                      .dwattr $C$DW$142, DW_AT_name("stat")
    1855                      .dwattr $C$DW$142, DW_AT_TI_symbol_name("_stat")
    1856                      .dwattr $C$DW$142, DW_AT_type(*$C$DW$T$19)
    1857                      .dwattr $C$DW$142, DW_AT_location[DW_OP_breg20 -4]
    1858              
    1859              $C$DW$143       .dwtag  DW_TAG_variable
    1860                      .dwattr $C$DW$143, DW_AT_name("cpu_sr")
    1861                      .dwattr $C$DW$143, DW_AT_TI_symbol_name("_cpu_sr")
    1862                      .dwattr $C$DW$143, DW_AT_type(*$C$DW$T$39)
    1863                      .dwattr $C$DW$143, DW_AT_location[DW_OP_breg20 -5]
    1864              
    1865 000002c3 9643          MOV       *-SP[3],AL            ; [CPU_ALU] |589| 
    1866                      .dwpsn  file "C:/ti/Workspace/PLC_certificate/Software/uCOS-II/Source/os_task.c",line 593,column 23,i
    1867 000002c4 2B45          MOV       *-SP[5],#0            ; [CPU_ALU] |593| 
    1868                      .dwpsn  file "C:/ti/Workspace/PLC_certificate/Software/uCOS-II/Source/os_task.c",line 598,column 5,is
    1869 000002c5 523F          CMPB      AL,#63                ; [CPU_ALU] |598| 
    1870 000002c6 6003          B         $C$L44,NEQ            ; [CPU_ALU] |598| 
    1871                      ; branchcc occurs ; [] |598| 
    1872                      .dwpsn  file "C:/ti/Workspace/PLC_certificate/Software/uCOS-II/Source/os_task.c",line 599,column 9,is
    1873 000002c7 9A3E          MOVB      AL,#62                ; [CPU_ALU] |599| 
    1874 000002c8 6F3C          B         $C$L49,UNC            ; [CPU_ALU] |599| 
    1875                      ; branch occurs ; [] |599| 
TMS320C2000 Assembler PC v20.2.1 Mon Feb  8 19:02:48 2021

Copyright (c) 1996-2018 Texas Instruments Incorporated
os_task.asm                                                          PAGE   37

    1876 000002c9       $C$L44:    
    1877                      .dwpsn  file "C:/ti/Workspace/PLC_certificate/Software/uCOS-II/Source/os_task.c",line 602,column 5,is
    1878 000002c9 523F          CMPB      AL,#63                ; [CPU_ALU] |602| 
    1879 000002ca 6805          B         $C$L45,LO             ; [CPU_ALU] |602| 
    1880                      ; branchcc occurs ; [] |602| 
    1881                      .dwpsn  file "C:/ti/Workspace/PLC_certificate/Software/uCOS-II/Source/os_task.c",line 603,column 9,is
    1882 000002cb 52FF          CMPB      AL,#255               ; [CPU_ALU] |603| 
    1883 000002cc 6103          B         $C$L45,EQ             ; [CPU_ALU] |603| 
    1884                      ; branchcc occurs ; [] |603| 
    1885                      .dwpsn  file "C:/ti/Workspace/PLC_certificate/Software/uCOS-II/Source/os_task.c",line 604,column 13,i
    1886 000002cd 9A2A          MOVB      AL,#42                ; [CPU_ALU] |604| 
    1887 000002ce 6F36          B         $C$L49,UNC            ; [CPU_ALU] |604| 
    1888                      ; branch occurs ; [] |604| 
    1889 000002cf       $C$L45:    
    1890                      .dwpsn  file "C:/ti/Workspace/PLC_certificate/Software/uCOS-II/Source/os_task.c",line 608,column 5,is
    1891 000002cf 52FF          CMPB      AL,#255               ; [CPU_ALU] |608| 
    1892 000002d0 6010          B         $C$L46,NEQ            ; [CPU_ALU] |608| 
    1893                      ; branchcc occurs ; [] |608| 
    1894                      .dwpsn  file "C:/ti/Workspace/PLC_certificate/Software/uCOS-II/Source/os_task.c",line 609,column 9,is
    1895              $C$DW$144       .dwtag  DW_TAG_TI_branch
    1896                      .dwattr $C$DW$144, DW_AT_low_pc(0x00)
    1897                      .dwattr $C$DW$144, DW_AT_name("_OS_CPU_SR_Save")
    1898                      .dwattr $C$DW$144, DW_AT_TI_call
    1899              
    1900 000002d1 7640!         LCR       #_OS_CPU_SR_Save      ; [CPU_ALU] |609| 
         000002d2 0000 
    1901                      ; call occurs [#_OS_CPU_SR_Save] ; [] |609| 
    1902 000002d3 9645          MOV       *-SP[5],AL            ; [CPU_ALU] |609| 
    1903                      .dwpsn  file "C:/ti/Workspace/PLC_certificate/Software/uCOS-II/Source/os_task.c",line 610,column 9,is
    1904 000002d4 761F!         MOVW      DP,#_OSTCBCur         ; [CPU_ARAU] 
         000002d5 0000 
    1905 000002d6 0221          MOVB      ACC,#33               ; [CPU_ALU] |610| 
    1906 000002d7 0700!         ADDL      ACC,@_OSTCBCur        ; [CPU_ALU] |610| 
    1907 000002d8 1EA7          MOVL      XAR7,ACC              ; [CPU_ALU] |610| 
    1908 000002d9 92C7          MOV       AL,*+XAR7[0]          ; [CPU_ALU] |610| 
    1909 000002da 9644          MOV       *-SP[4],AL            ; [CPU_ALU] |610| 
    1910                      .dwpsn  file "C:/ti/Workspace/PLC_certificate/Software/uCOS-II/Source/os_task.c",line 611,column 9,is
    1911 000002db 9245          MOV       AL,*-SP[5]            ; [CPU_ALU] |611| 
    1912              $C$DW$145       .dwtag  DW_TAG_TI_branch
    1913                      .dwattr $C$DW$145, DW_AT_low_pc(0x00)
    1914                      .dwattr $C$DW$145, DW_AT_name("_OS_CPU_SR_Restore")
    1915                      .dwattr $C$DW$145, DW_AT_TI_call
    1916              
    1917 000002dc 7640!         LCR       #_OS_CPU_SR_Restore   ; [CPU_ALU] |611| 
         000002dd 0000 
    1918                      ; call occurs [#_OS_CPU_SR_Restore] ; [] |611| 
    1919                      .dwpsn  file "C:/ti/Workspace/PLC_certificate/Software/uCOS-II/Source/os_task.c",line 612,column 9,is
    1920 000002de 9244          MOV       AL,*-SP[4]            ; [CPU_ALU] |612| 
    1921 000002df 6F25          B         $C$L49,UNC            ; [CPU_ALU] |612| 
    1922                      ; branch occurs ; [] |612| 
    1923 000002e0       $C$L46:    
    1924                      .dwpsn  file "C:/ti/Workspace/PLC_certificate/Software/uCOS-II/Source/os_task.c",line 614,column 5,is
    1925              $C$DW$146       .dwtag  DW_TAG_TI_branch
    1926                      .dwattr $C$DW$146, DW_AT_low_pc(0x00)
    1927                      .dwattr $C$DW$146, DW_AT_name("_OS_CPU_SR_Save")
TMS320C2000 Assembler PC v20.2.1 Mon Feb  8 19:02:48 2021

Copyright (c) 1996-2018 Texas Instruments Incorporated
os_task.asm                                                          PAGE   38

    1928                      .dwattr $C$DW$146, DW_AT_TI_call
    1929              
    1930 000002e0 7640!         LCR       #_OS_CPU_SR_Save      ; [CPU_ALU] |614| 
         000002e1 0000 
    1931                      ; call occurs [#_OS_CPU_SR_Save] ; [] |614| 
    1932 000002e2 9645          MOV       *-SP[5],AL            ; [CPU_ALU] |614| 
    1933                      .dwpsn  file "C:/ti/Workspace/PLC_certificate/Software/uCOS-II/Source/os_task.c",line 615,column 5,is
    1934 000002e3 2901          CLRC      SXM                   ; [CPU_ALU] 
    1935 000002e4 8F00!         MOVL      XAR4,#_OSTCBPrioTbl   ; [CPU_ARAU] |615| 
         000002e5 0000 
    1936 000002e6 5603          MOV       ACC,*-SP[3] << 1      ; [CPU_ALU] |615| 
         000002e7 0143 
    1937 000002e8 5601          ADDL      XAR4,ACC              ; [CPU_ALU] |615| 
         000002e9 00A4 
    1938 000002ea 06C4          MOVL      ACC,*+XAR4[0]         ; [CPU_ALU] |615| 
    1939 000002eb 1E42          MOVL      *-SP[2],ACC           ; [CPU_ALU] |615| 
    1940                      .dwpsn  file "C:/ti/Workspace/PLC_certificate/Software/uCOS-II/Source/os_task.c",line 616,column 5,is
    1941 000002ec 0642          MOVL      ACC,*-SP[2]           ; [CPU_ALU] |616| 
    1942 000002ed 6006          B         $C$L47,NEQ            ; [CPU_ALU] |616| 
    1943                      ; branchcc occurs ; [] |616| 
    1944                      .dwpsn  file "C:/ti/Workspace/PLC_certificate/Software/uCOS-II/Source/os_task.c",line 617,column 9,is
    1945 000002ee 9245          MOV       AL,*-SP[5]            ; [CPU_ALU] |617| 
    1946              $C$DW$147       .dwtag  DW_TAG_TI_branch
    1947                      .dwattr $C$DW$147, DW_AT_low_pc(0x00)
    1948                      .dwattr $C$DW$147, DW_AT_name("_OS_CPU_SR_Restore")
    1949                      .dwattr $C$DW$147, DW_AT_TI_call
    1950              
    1951 000002ef 7640!         LCR       #_OS_CPU_SR_Restore   ; [CPU_ALU] |617| 
         000002f0 0000 
    1952                      ; call occurs [#_OS_CPU_SR_Restore] ; [] |617| 
    1953                      .dwpsn  file "C:/ti/Workspace/PLC_certificate/Software/uCOS-II/Source/os_task.c",line 618,column 9,is
    1954 000002f1 9A43          MOVB      AL,#67                ; [CPU_ALU] |618| 
    1955 000002f2 6F12          B         $C$L49,UNC            ; [CPU_ALU] |618| 
    1956                      ; branch occurs ; [] |618| 
    1957 000002f3       $C$L47:    
    1958                      .dwpsn  file "C:/ti/Workspace/PLC_certificate/Software/uCOS-II/Source/os_task.c",line 620,column 5,is
    1959 000002f3 0201          MOVB      ACC,#1                ; [CPU_ALU] |620| 
    1960 000002f4 0F42          CMPL      ACC,*-SP[2]           ; [CPU_ALU] |620| 
    1961 000002f5 6006          B         $C$L48,NEQ            ; [CPU_ALU] |620| 
    1962                      ; branchcc occurs ; [] |620| 
    1963                      .dwpsn  file "C:/ti/Workspace/PLC_certificate/Software/uCOS-II/Source/os_task.c",line 621,column 9,is
    1964 000002f6 9245          MOV       AL,*-SP[5]            ; [CPU_ALU] |621| 
    1965              $C$DW$148       .dwtag  DW_TAG_TI_branch
    1966                      .dwattr $C$DW$148, DW_AT_low_pc(0x00)
    1967                      .dwattr $C$DW$148, DW_AT_name("_OS_CPU_SR_Restore")
    1968                      .dwattr $C$DW$148, DW_AT_TI_call
    1969              
    1970 000002f7 7640!         LCR       #_OS_CPU_SR_Restore   ; [CPU_ALU] |621| 
         000002f8 0000 
    1971                      ; call occurs [#_OS_CPU_SR_Restore] ; [] |621| 
    1972                      .dwpsn  file "C:/ti/Workspace/PLC_certificate/Software/uCOS-II/Source/os_task.c",line 622,column 9,is
    1973 000002f9 9A3D          MOVB      AL,#61                ; [CPU_ALU] |622| 
    1974 000002fa 6F0A          B         $C$L49,UNC            ; [CPU_ALU] |622| 
    1975                      ; branch occurs ; [] |622| 
    1976 000002fb       $C$L48:    
TMS320C2000 Assembler PC v20.2.1 Mon Feb  8 19:02:48 2021

Copyright (c) 1996-2018 Texas Instruments Incorporated
os_task.asm                                                          PAGE   39

    1977                      .dwpsn  file "C:/ti/Workspace/PLC_certificate/Software/uCOS-II/Source/os_task.c",line 624,column 5,is
    1978 000002fb 0221          MOVB      ACC,#33               ; [CPU_ALU] |624| 
    1979 000002fc 0742          ADDL      ACC,*-SP[2]           ; [CPU_ALU] |624| 
    1980 000002fd 8AA9          MOVL      XAR4,ACC              ; [CPU_ALU] |624| 
    1981 000002fe 56BF          MOVB      *+XAR4[0],#63,UNC     ; [CPU_ALU] |624| 
         000002ff 3FC4 
    1982                      .dwpsn  file "C:/ti/Workspace/PLC_certificate/Software/uCOS-II/Source/os_task.c",line 625,column 5,is
    1983 00000300 9245          MOV       AL,*-SP[5]            ; [CPU_ALU] |625| 
    1984              $C$DW$149       .dwtag  DW_TAG_TI_branch
    1985                      .dwattr $C$DW$149, DW_AT_low_pc(0x00)
    1986                      .dwattr $C$DW$149, DW_AT_name("_OS_CPU_SR_Restore")
    1987                      .dwattr $C$DW$149, DW_AT_TI_call
    1988              
    1989 00000301 7640!         LCR       #_OS_CPU_SR_Restore   ; [CPU_ALU] |625| 
         00000302 0000 
    1990                      ; call occurs [#_OS_CPU_SR_Restore] ; [] |625| 
    1991                      .dwpsn  file "C:/ti/Workspace/PLC_certificate/Software/uCOS-II/Source/os_task.c",line 626,column 5,is
    1992 00000303 9A00          MOVB      AL,#0                 ; [CPU_ALU] |626| 
    1993 00000304       $C$L49:    
    1994                      .dwpsn  file "C:/ti/Workspace/PLC_certificate/Software/uCOS-II/Source/os_task.c",line 627,column 1,is
    1995 00000304 FE86          SUBB      SP,#6                 ; [CPU_ARAU] 
    1996                      .dwcfi  cfa_offset, -2
    1997              $C$DW$150       .dwtag  DW_TAG_TI_branch
    1998                      .dwattr $C$DW$150, DW_AT_low_pc(0x00)
    1999                      .dwattr $C$DW$150, DW_AT_TI_return
    2000              
    2001 00000305 0006          LRETR     ; [CPU_ALU] 
    2002                      ; return occurs ; [] 
    2003                      .dwattr $C$DW$138, DW_AT_TI_end_file("C:/ti/Workspace/PLC_certificate/Software/uCOS-II/Source/os_task
    2004                      .dwattr $C$DW$138, DW_AT_TI_end_line(0x273)
    2005                      .dwattr $C$DW$138, DW_AT_TI_end_column(0x01)
    2006                      .dwendentry
    2007                      .dwendtag $C$DW$138
    2008              
    2009 00000306               .sect   ".text"
    2010                      .clink
    2011                      .global _OSTaskNameGet
    2012              
    2013              $C$DW$151       .dwtag  DW_TAG_subprogram
    2014                      .dwattr $C$DW$151, DW_AT_name("OSTaskNameGet")
    2015                      .dwattr $C$DW$151, DW_AT_low_pc(_OSTaskNameGet)
    2016                      .dwattr $C$DW$151, DW_AT_high_pc(0x00)
    2017                      .dwattr $C$DW$151, DW_AT_TI_symbol_name("_OSTaskNameGet")
    2018                      .dwattr $C$DW$151, DW_AT_external
    2019                      .dwattr $C$DW$151, DW_AT_type(*$C$DW$T$19)
    2020                      .dwattr $C$DW$151, DW_AT_TI_begin_file("C:/ti/Workspace/PLC_certificate/Software/uCOS-II/Source/os_ta
    2021                      .dwattr $C$DW$151, DW_AT_TI_begin_line(0x28f)
    2022                      .dwattr $C$DW$151, DW_AT_TI_begin_column(0x08)
    2023                      .dwattr $C$DW$151, DW_AT_TI_max_frame_size(-12)
    2024                      .dwpsn  file "C:/ti/Workspace/PLC_certificate/Software/uCOS-II/Source/os_task.c",line 658,column 1,is
    2025              
    2026                      .dwfde $C$DW$CIE, _OSTaskNameGet
    2027              $C$DW$152       .dwtag  DW_TAG_formal_parameter
    2028                      .dwattr $C$DW$152, DW_AT_name("prio")
    2029                      .dwattr $C$DW$152, DW_AT_TI_symbol_name("_prio")
TMS320C2000 Assembler PC v20.2.1 Mon Feb  8 19:02:48 2021

Copyright (c) 1996-2018 Texas Instruments Incorporated
os_task.asm                                                          PAGE   40

    2030                      .dwattr $C$DW$152, DW_AT_type(*$C$DW$T$19)
    2031                      .dwattr $C$DW$152, DW_AT_location[DW_OP_reg0]
    2032              
    2033              $C$DW$153       .dwtag  DW_TAG_formal_parameter
    2034                      .dwattr $C$DW$153, DW_AT_name("pname")
    2035                      .dwattr $C$DW$153, DW_AT_TI_symbol_name("_pname")
    2036                      .dwattr $C$DW$153, DW_AT_type(*$C$DW$T$64)
    2037                      .dwattr $C$DW$153, DW_AT_location[DW_OP_reg12]
    2038              
    2039              $C$DW$154       .dwtag  DW_TAG_formal_parameter
    2040                      .dwattr $C$DW$154, DW_AT_name("perr")
    2041                      .dwattr $C$DW$154, DW_AT_TI_symbol_name("_perr")
    2042                      .dwattr $C$DW$154, DW_AT_type(*$C$DW$T$23)
    2043                      .dwattr $C$DW$154, DW_AT_location[DW_OP_reg14]
    2044              
    2045              
    2046              ;***************************************************************
    2047              ;* FNAME: _OSTaskNameGet                FR SIZE:  10           *
    2048              ;*                                                             *
    2049              ;* FUNCTION ENVIRONMENT                                        *
    2050              ;*                                                             *
    2051              ;* FUNCTION PROPERTIES                                         *
    2052              ;*                            0 Parameter,  9 Auto,  0 SOE     *
    2053              ;***************************************************************
    2054              
    2055 00000306       _OSTaskNameGet:
    2056                      .dwcfi  cfa_offset, -2
    2057                      .dwcfi  save_reg_to_mem, 26, 0
    2058 00000306 FE0A          ADDB      SP,#10                ; [CPU_ARAU] 
    2059                      .dwcfi  cfa_offset, -12
    2060              $C$DW$155       .dwtag  DW_TAG_variable
    2061                      .dwattr $C$DW$155, DW_AT_name("pname")
    2062                      .dwattr $C$DW$155, DW_AT_TI_symbol_name("_pname")
    2063                      .dwattr $C$DW$155, DW_AT_type(*$C$DW$T$64)
    2064                      .dwattr $C$DW$155, DW_AT_location[DW_OP_breg20 -2]
    2065              
    2066              $C$DW$156       .dwtag  DW_TAG_variable
    2067                      .dwattr $C$DW$156, DW_AT_name("perr")
    2068                      .dwattr $C$DW$156, DW_AT_TI_symbol_name("_perr")
    2069                      .dwattr $C$DW$156, DW_AT_type(*$C$DW$T$23)
    2070                      .dwattr $C$DW$156, DW_AT_location[DW_OP_breg20 -4]
    2071              
    2072              $C$DW$157       .dwtag  DW_TAG_variable
    2073                      .dwattr $C$DW$157, DW_AT_name("ptcb")
    2074                      .dwattr $C$DW$157, DW_AT_TI_symbol_name("_ptcb")
    2075                      .dwattr $C$DW$157, DW_AT_type(*$C$DW$T$45)
    2076                      .dwattr $C$DW$157, DW_AT_location[DW_OP_breg20 -6]
    2077              
    2078              $C$DW$158       .dwtag  DW_TAG_variable
    2079                      .dwattr $C$DW$158, DW_AT_name("prio")
    2080                      .dwattr $C$DW$158, DW_AT_TI_symbol_name("_prio")
    2081                      .dwattr $C$DW$158, DW_AT_type(*$C$DW$T$19)
    2082                      .dwattr $C$DW$158, DW_AT_location[DW_OP_breg20 -7]
    2083              
    2084              $C$DW$159       .dwtag  DW_TAG_variable
TMS320C2000 Assembler PC v20.2.1 Mon Feb  8 19:02:48 2021

Copyright (c) 1996-2018 Texas Instruments Incorporated
os_task.asm                                                          PAGE   41

    2085                      .dwattr $C$DW$159, DW_AT_name("len")
    2086                      .dwattr $C$DW$159, DW_AT_TI_symbol_name("_len")
    2087                      .dwattr $C$DW$159, DW_AT_type(*$C$DW$T$19)
    2088                      .dwattr $C$DW$159, DW_AT_location[DW_OP_breg20 -8]
    2089              
    2090              $C$DW$160       .dwtag  DW_TAG_variable
    2091                      .dwattr $C$DW$160, DW_AT_name("cpu_sr")
    2092                      .dwattr $C$DW$160, DW_AT_TI_symbol_name("_cpu_sr")
    2093                      .dwattr $C$DW$160, DW_AT_type(*$C$DW$T$39)
    2094                      .dwattr $C$DW$160, DW_AT_location[DW_OP_breg20 -9]
    2095              
    2096 00000307 A044          MOVL      *-SP[4],XAR5          ; [CPU_ALU] |658| 
    2097 00000308 A842          MOVL      *-SP[2],XAR4          ; [CPU_ALU] |658| 
    2098 00000309 9647          MOV       *-SP[7],AL            ; [CPU_ALU] |658| 
    2099                      .dwpsn  file "C:/ti/Workspace/PLC_certificate/Software/uCOS-II/Source/os_task.c",line 662,column 23,i
    2100 0000030a 2B49          MOV       *-SP[9],#0            ; [CPU_ALU] |662| 
    2101                      .dwpsn  file "C:/ti/Workspace/PLC_certificate/Software/uCOS-II/Source/os_task.c",line 675,column 5,is
    2102 0000030b 523F          CMPB      AL,#63                ; [CPU_ALU] |675| 
    2103 0000030c 6908          B         $C$L50,LOS            ; [CPU_ALU] |675| 
    2104                      ; branchcc occurs ; [] |675| 
    2105                      .dwpsn  file "C:/ti/Workspace/PLC_certificate/Software/uCOS-II/Source/os_task.c",line 676,column 9,is
    2106 0000030d 52FF          CMPB      AL,#255               ; [CPU_ALU] |676| 
    2107 0000030e 6106          B         $C$L50,EQ             ; [CPU_ALU] |676| 
    2108                      ; branchcc occurs ; [] |676| 
    2109                      .dwpsn  file "C:/ti/Workspace/PLC_certificate/Software/uCOS-II/Source/os_task.c",line 677,column 13,i
    2110 0000030f 8A44          MOVL      XAR4,*-SP[4]          ; [CPU_ALU] |677| 
    2111 00000310 56BF          MOVB      *+XAR4[0],#42,UNC     ; [CPU_ALU] |677| 
         00000311 2AC4 
    2112                      .dwpsn  file "C:/ti/Workspace/PLC_certificate/Software/uCOS-II/Source/os_task.c",line 678,column 13,i
    2113 00000312 9A00          MOVB      AL,#0                 ; [CPU_ALU] |678| 
    2114 00000313 6F4D          B         $C$L56,UNC            ; [CPU_ALU] |678| 
    2115                      ; branch occurs ; [] |678| 
    2116 00000314       $C$L50:    
    2117                      .dwpsn  file "C:/ti/Workspace/PLC_certificate/Software/uCOS-II/Source/os_task.c",line 681,column 5,is
    2118 00000314 0642          MOVL      ACC,*-SP[2]           ; [CPU_ALU] |681| 
    2119 00000315 6006          B         $C$L51,NEQ            ; [CPU_ALU] |681| 
    2120                      ; branchcc occurs ; [] |681| 
    2121                      .dwpsn  file "C:/ti/Workspace/PLC_certificate/Software/uCOS-II/Source/os_task.c",line 682,column 9,is
    2122 00000316 8A44          MOVL      XAR4,*-SP[4]          ; [CPU_ALU] |682| 
    2123 00000317 56BF          MOVB      *+XAR4[0],#12,UNC     ; [CPU_ALU] |682| 
         00000318 0CC4 
    2124                      .dwpsn  file "C:/ti/Workspace/PLC_certificate/Software/uCOS-II/Source/os_task.c",line 683,column 9,is
    2125 00000319 9A00          MOVB      AL,#0                 ; [CPU_ALU] |683| 
    2126 0000031a 6F46          B         $C$L56,UNC            ; [CPU_ALU] |683| 
    2127                      ; branch occurs ; [] |683| 
    2128 0000031b       $C$L51:    
    2129                      .dwpsn  file "C:/ti/Workspace/PLC_certificate/Software/uCOS-II/Source/os_task.c",line 686,column 5,is
    2130 0000031b 761F!         MOVW      DP,#_OSIntNesting     ; [CPU_ARAU] 
         0000031c 0000 
    2131 0000031d 9200!         MOV       AL,@_OSIntNesting     ; [CPU_ALU] |686| 
    2132 0000031e 6106          B         $C$L52,EQ             ; [CPU_ALU] |686| 
    2133                      ; branchcc occurs ; [] |686| 
    2134                      .dwpsn  file "C:/ti/Workspace/PLC_certificate/Software/uCOS-II/Source/os_task.c",line 687,column 9,is
    2135 0000031f 8A44          MOVL      XAR4,*-SP[4]          ; [CPU_ALU] |687| 
    2136 00000320 56BF          MOVB      *+XAR4[0],#17,UNC     ; [CPU_ALU] |687| 
TMS320C2000 Assembler PC v20.2.1 Mon Feb  8 19:02:48 2021

Copyright (c) 1996-2018 Texas Instruments Incorporated
os_task.asm                                                          PAGE   42

         00000321 11C4 
    2137                      .dwpsn  file "C:/ti/Workspace/PLC_certificate/Software/uCOS-II/Source/os_task.c",line 688,column 9,is
    2138 00000322 9A00          MOVB      AL,#0                 ; [CPU_ALU] |688| 
    2139 00000323 6F3D          B         $C$L56,UNC            ; [CPU_ALU] |688| 
    2140                      ; branch occurs ; [] |688| 
    2141 00000324       $C$L52:    
    2142                      .dwpsn  file "C:/ti/Workspace/PLC_certificate/Software/uCOS-II/Source/os_task.c",line 690,column 5,is
    2143              $C$DW$161       .dwtag  DW_TAG_TI_branch
    2144                      .dwattr $C$DW$161, DW_AT_low_pc(0x00)
    2145                      .dwattr $C$DW$161, DW_AT_name("_OS_CPU_SR_Save")
    2146                      .dwattr $C$DW$161, DW_AT_TI_call
    2147              
    2148 00000324 7640!         LCR       #_OS_CPU_SR_Save      ; [CPU_ALU] |690| 
         00000325 0000 
    2149                      ; call occurs [#_OS_CPU_SR_Save] ; [] |690| 
    2150 00000326 9649          MOV       *-SP[9],AL            ; [CPU_ALU] |690| 
    2151                      .dwpsn  file "C:/ti/Workspace/PLC_certificate/Software/uCOS-II/Source/os_task.c",line 691,column 5,is
    2152 00000327 9247          MOV       AL,*-SP[7]            ; [CPU_ALU] |691| 
    2153 00000328 52FF          CMPB      AL,#255               ; [CPU_ALU] |691| 
    2154 00000329 6008          B         $C$L53,NEQ            ; [CPU_ALU] |691| 
    2155                      ; branchcc occurs ; [] |691| 
    2156                      .dwpsn  file "C:/ti/Workspace/PLC_certificate/Software/uCOS-II/Source/os_task.c",line 692,column 9,is
    2157 0000032a 021C          MOVB      ACC,#28               ; [CPU_ALU] |692| 
    2158 0000032b 761F!         MOVW      DP,#_OSTCBCur         ; [CPU_ARAU] 
         0000032c 0000 
    2159 0000032d 0700!         ADDL      ACC,@_OSTCBCur        ; [CPU_ALU] |692| 
    2160 0000032e 1EA7          MOVL      XAR7,ACC              ; [CPU_ALU] |692| 
    2161 0000032f 92C7          MOV       AL,*+XAR7[0]          ; [CPU_ALU] |692| 
    2162 00000330 9647          MOV       *-SP[7],AL            ; [CPU_ALU] |692| 
    2163 00000331       $C$L53:    
    2164                      .dwpsn  file "C:/ti/Workspace/PLC_certificate/Software/uCOS-II/Source/os_task.c",line 694,column 5,is
    2165 00000331 2901          CLRC      SXM                   ; [CPU_ALU] 
    2166 00000332 8F00!         MOVL      XAR4,#_OSTCBPrioTbl   ; [CPU_ARAU] |694| 
         00000333 0000 
    2167 00000334 5603          MOV       ACC,*-SP[7] << 1      ; [CPU_ALU] |694| 
         00000335 0147 
    2168 00000336 5601          ADDL      XAR4,ACC              ; [CPU_ALU] |694| 
         00000337 00A4 
    2169 00000338 06C4          MOVL      ACC,*+XAR4[0]         ; [CPU_ALU] |694| 
    2170 00000339 1E46          MOVL      *-SP[6],ACC           ; [CPU_ALU] |694| 
    2171                      .dwpsn  file "C:/ti/Workspace/PLC_certificate/Software/uCOS-II/Source/os_task.c",line 695,column 5,is
    2172 0000033a 0646          MOVL      ACC,*-SP[6]           ; [CPU_ALU] |695| 
    2173 0000033b 6009          B         $C$L54,NEQ            ; [CPU_ALU] |695| 
    2174                      ; branchcc occurs ; [] |695| 
    2175                      .dwpsn  file "C:/ti/Workspace/PLC_certificate/Software/uCOS-II/Source/os_task.c",line 696,column 9,is
    2176 0000033c 9249          MOV       AL,*-SP[9]            ; [CPU_ALU] |696| 
    2177              $C$DW$162       .dwtag  DW_TAG_TI_branch
    2178                      .dwattr $C$DW$162, DW_AT_low_pc(0x00)
    2179                      .dwattr $C$DW$162, DW_AT_name("_OS_CPU_SR_Restore")
    2180                      .dwattr $C$DW$162, DW_AT_TI_call
    2181              
    2182 0000033d 7640!         LCR       #_OS_CPU_SR_Restore   ; [CPU_ALU] |696| 
         0000033e 0000 
    2183                      ; call occurs [#_OS_CPU_SR_Restore] ; [] |696| 
    2184                      .dwpsn  file "C:/ti/Workspace/PLC_certificate/Software/uCOS-II/Source/os_task.c",line 697,column 9,is
TMS320C2000 Assembler PC v20.2.1 Mon Feb  8 19:02:48 2021

Copyright (c) 1996-2018 Texas Instruments Incorporated
os_task.asm                                                          PAGE   43

    2185 0000033f 8A44          MOVL      XAR4,*-SP[4]          ; [CPU_ALU] |697| 
    2186 00000340 56BF          MOVB      *+XAR4[0],#67,UNC     ; [CPU_ALU] |697| 
         00000341 43C4 
    2187                      .dwpsn  file "C:/ti/Workspace/PLC_certificate/Software/uCOS-II/Source/os_task.c",line 698,column 9,is
    2188 00000342 9A00          MOVB      AL,#0                 ; [CPU_ALU] |698| 
    2189 00000343 6F1D          B         $C$L56,UNC            ; [CPU_ALU] |698| 
    2190                      ; branch occurs ; [] |698| 
    2191 00000344       $C$L54:    
    2192                      .dwpsn  file "C:/ti/Workspace/PLC_certificate/Software/uCOS-II/Source/os_task.c",line 700,column 5,is
    2193 00000344 0201          MOVB      ACC,#1                ; [CPU_ALU] |700| 
    2194 00000345 0F46          CMPL      ACC,*-SP[6]           ; [CPU_ALU] |700| 
    2195 00000346 6009          B         $C$L55,NEQ            ; [CPU_ALU] |700| 
    2196                      ; branchcc occurs ; [] |700| 
    2197                      .dwpsn  file "C:/ti/Workspace/PLC_certificate/Software/uCOS-II/Source/os_task.c",line 701,column 9,is
    2198 00000347 9249          MOV       AL,*-SP[9]            ; [CPU_ALU] |701| 
    2199              $C$DW$163       .dwtag  DW_TAG_TI_branch
    2200                      .dwattr $C$DW$163, DW_AT_low_pc(0x00)
    2201                      .dwattr $C$DW$163, DW_AT_name("_OS_CPU_SR_Restore")
    2202                      .dwattr $C$DW$163, DW_AT_TI_call
    2203              
    2204 00000348 7640!         LCR       #_OS_CPU_SR_Restore   ; [CPU_ALU] |701| 
         00000349 0000 
    2205                      ; call occurs [#_OS_CPU_SR_Restore] ; [] |701| 
    2206                      .dwpsn  file "C:/ti/Workspace/PLC_certificate/Software/uCOS-II/Source/os_task.c",line 702,column 9,is
    2207 0000034a 8A44          MOVL      XAR4,*-SP[4]          ; [CPU_ALU] |702| 
    2208 0000034b 56BF          MOVB      *+XAR4[0],#67,UNC     ; [CPU_ALU] |702| 
         0000034c 43C4 
    2209                      .dwpsn  file "C:/ti/Workspace/PLC_certificate/Software/uCOS-II/Source/os_task.c",line 703,column 9,is
    2210 0000034d 9A00          MOVB      AL,#0                 ; [CPU_ALU] |703| 
    2211 0000034e 6F12          B         $C$L56,UNC            ; [CPU_ALU] |703| 
    2212                      ; branch occurs ; [] |703| 
    2213 0000034f       $C$L55:    
    2214                      .dwpsn  file "C:/ti/Workspace/PLC_certificate/Software/uCOS-II/Source/os_task.c",line 705,column 5,is
    2215 0000034f 022C          MOVB      ACC,#44               ; [CPU_ALU] |705| 
    2216 00000350 0746          ADDL      ACC,*-SP[6]           ; [CPU_ALU] |705| 
    2217 00000351 8AA9          MOVL      XAR4,ACC              ; [CPU_ALU] |705| 
    2218 00000352 06C4          MOVL      ACC,*+XAR4[0]         ; [CPU_ALU] |705| 
    2219 00000353 8A42          MOVL      XAR4,*-SP[2]          ; [CPU_ALU] |705| 
    2220 00000354 1EC4          MOVL      *+XAR4[0],ACC         ; [CPU_ALU] |705| 
    2221                      .dwpsn  file "C:/ti/Workspace/PLC_certificate/Software/uCOS-II/Source/os_task.c",line 706,column 5,is
    2222 00000355 8A42          MOVL      XAR4,*-SP[2]          ; [CPU_ALU] |706| 
    2223 00000356 8AC4          MOVL      XAR4,*+XAR4[0]        ; [CPU_ALU] |706| 
    2224              $C$DW$164       .dwtag  DW_TAG_TI_branch
    2225                      .dwattr $C$DW$164, DW_AT_low_pc(0x00)
    2226                      .dwattr $C$DW$164, DW_AT_name("_OS_StrLen")
    2227                      .dwattr $C$DW$164, DW_AT_TI_call
    2228              
    2229 00000357 7640!         LCR       #_OS_StrLen           ; [CPU_ALU] |706| 
         00000358 0000 
    2230                      ; call occurs [#_OS_StrLen] ; [] |706| 
    2231 00000359 9648          MOV       *-SP[8],AL            ; [CPU_ALU] |706| 
    2232                      .dwpsn  file "C:/ti/Workspace/PLC_certificate/Software/uCOS-II/Source/os_task.c",line 707,column 5,is
    2233 0000035a 9249          MOV       AL,*-SP[9]            ; [CPU_ALU] |707| 
    2234              $C$DW$165       .dwtag  DW_TAG_TI_branch
    2235                      .dwattr $C$DW$165, DW_AT_low_pc(0x00)
TMS320C2000 Assembler PC v20.2.1 Mon Feb  8 19:02:48 2021

Copyright (c) 1996-2018 Texas Instruments Incorporated
os_task.asm                                                          PAGE   44

    2236                      .dwattr $C$DW$165, DW_AT_name("_OS_CPU_SR_Restore")
    2237                      .dwattr $C$DW$165, DW_AT_TI_call
    2238              
    2239 0000035b 7640!         LCR       #_OS_CPU_SR_Restore   ; [CPU_ALU] |707| 
         0000035c 0000 
    2240                      ; call occurs [#_OS_CPU_SR_Restore] ; [] |707| 
    2241                      .dwpsn  file "C:/ti/Workspace/PLC_certificate/Software/uCOS-II/Source/os_task.c",line 708,column 5,is
    2242 0000035d 8A44          MOVL      XAR4,*-SP[4]          ; [CPU_ALU] |708| 
    2243 0000035e 2BC4          MOV       *+XAR4[0],#0          ; [CPU_ALU] |708| 
    2244                      .dwpsn  file "C:/ti/Workspace/PLC_certificate/Software/uCOS-II/Source/os_task.c",line 709,column 5,is
    2245 0000035f 9248          MOV       AL,*-SP[8]            ; [CPU_ALU] |709| 
    2246 00000360       $C$L56:    
    2247                      .dwpsn  file "C:/ti/Workspace/PLC_certificate/Software/uCOS-II/Source/os_task.c",line 710,column 1,is
    2248 00000360 FE8A          SUBB      SP,#10                ; [CPU_ARAU] 
    2249                      .dwcfi  cfa_offset, -2
    2250              $C$DW$166       .dwtag  DW_TAG_TI_branch
    2251                      .dwattr $C$DW$166, DW_AT_low_pc(0x00)
    2252                      .dwattr $C$DW$166, DW_AT_TI_return
    2253              
    2254 00000361 0006          LRETR     ; [CPU_ALU] 
    2255                      ; return occurs ; [] 
    2256                      .dwattr $C$DW$151, DW_AT_TI_end_file("C:/ti/Workspace/PLC_certificate/Software/uCOS-II/Source/os_task
    2257                      .dwattr $C$DW$151, DW_AT_TI_end_line(0x2c6)
    2258                      .dwattr $C$DW$151, DW_AT_TI_end_column(0x01)
    2259                      .dwendentry
    2260                      .dwendtag $C$DW$151
    2261              
    2262 00000362               .sect   ".text"
    2263                      .clink
    2264                      .global _OSTaskNameSet
    2265              
    2266              $C$DW$167       .dwtag  DW_TAG_subprogram
    2267                      .dwattr $C$DW$167, DW_AT_name("OSTaskNameSet")
    2268                      .dwattr $C$DW$167, DW_AT_low_pc(_OSTaskNameSet)
    2269                      .dwattr $C$DW$167, DW_AT_high_pc(0x00)
    2270                      .dwattr $C$DW$167, DW_AT_TI_symbol_name("_OSTaskNameSet")
    2271                      .dwattr $C$DW$167, DW_AT_external
    2272                      .dwattr $C$DW$167, DW_AT_TI_begin_file("C:/ti/Workspace/PLC_certificate/Software/uCOS-II/Source/os_ta
    2273                      .dwattr $C$DW$167, DW_AT_TI_begin_line(0x2e1)
    2274                      .dwattr $C$DW$167, DW_AT_TI_begin_column(0x07)
    2275                      .dwattr $C$DW$167, DW_AT_TI_max_frame_size(-10)
    2276                      .dwpsn  file "C:/ti/Workspace/PLC_certificate/Software/uCOS-II/Source/os_task.c",line 740,column 1,is
    2277              
    2278                      .dwfde $C$DW$CIE, _OSTaskNameSet
    2279              $C$DW$168       .dwtag  DW_TAG_formal_parameter
    2280                      .dwattr $C$DW$168, DW_AT_name("prio")
    2281                      .dwattr $C$DW$168, DW_AT_TI_symbol_name("_prio")
    2282                      .dwattr $C$DW$168, DW_AT_type(*$C$DW$T$19)
    2283                      .dwattr $C$DW$168, DW_AT_location[DW_OP_reg0]
    2284              
    2285              $C$DW$169       .dwtag  DW_TAG_formal_parameter
    2286                      .dwattr $C$DW$169, DW_AT_name("pname")
    2287                      .dwattr $C$DW$169, DW_AT_TI_symbol_name("_pname")
    2288                      .dwattr $C$DW$169, DW_AT_type(*$C$DW$T$23)
    2289                      .dwattr $C$DW$169, DW_AT_location[DW_OP_reg12]
TMS320C2000 Assembler PC v20.2.1 Mon Feb  8 19:02:48 2021

Copyright (c) 1996-2018 Texas Instruments Incorporated
os_task.asm                                                          PAGE   45

    2290              
    2291              $C$DW$170       .dwtag  DW_TAG_formal_parameter
    2292                      .dwattr $C$DW$170, DW_AT_name("perr")
    2293                      .dwattr $C$DW$170, DW_AT_TI_symbol_name("_perr")
    2294                      .dwattr $C$DW$170, DW_AT_type(*$C$DW$T$23)
    2295                      .dwattr $C$DW$170, DW_AT_location[DW_OP_reg14]
    2296              
    2297              
    2298              ;***************************************************************
    2299              ;* FNAME: _OSTaskNameSet                FR SIZE:   8           *
    2300              ;*                                                             *
    2301              ;* FUNCTION ENVIRONMENT                                        *
    2302              ;*                                                             *
    2303              ;* FUNCTION PROPERTIES                                         *
    2304              ;*                            0 Parameter,  8 Auto,  0 SOE     *
    2305              ;***************************************************************
    2306              
    2307 00000362       _OSTaskNameSet:
    2308                      .dwcfi  cfa_offset, -2
    2309                      .dwcfi  save_reg_to_mem, 26, 0
    2310 00000362 FE08          ADDB      SP,#8                 ; [CPU_ARAU] 
    2311                      .dwcfi  cfa_offset, -10
    2312              $C$DW$171       .dwtag  DW_TAG_variable
    2313                      .dwattr $C$DW$171, DW_AT_name("pname")
    2314                      .dwattr $C$DW$171, DW_AT_TI_symbol_name("_pname")
    2315                      .dwattr $C$DW$171, DW_AT_type(*$C$DW$T$23)
    2316                      .dwattr $C$DW$171, DW_AT_location[DW_OP_breg20 -2]
    2317              
    2318              $C$DW$172       .dwtag  DW_TAG_variable
    2319                      .dwattr $C$DW$172, DW_AT_name("perr")
    2320                      .dwattr $C$DW$172, DW_AT_TI_symbol_name("_perr")
    2321                      .dwattr $C$DW$172, DW_AT_type(*$C$DW$T$23)
    2322                      .dwattr $C$DW$172, DW_AT_location[DW_OP_breg20 -4]
    2323              
    2324              $C$DW$173       .dwtag  DW_TAG_variable
    2325                      .dwattr $C$DW$173, DW_AT_name("ptcb")
    2326                      .dwattr $C$DW$173, DW_AT_TI_symbol_name("_ptcb")
    2327                      .dwattr $C$DW$173, DW_AT_type(*$C$DW$T$45)
    2328                      .dwattr $C$DW$173, DW_AT_location[DW_OP_breg20 -6]
    2329              
    2330              $C$DW$174       .dwtag  DW_TAG_variable
    2331                      .dwattr $C$DW$174, DW_AT_name("prio")
    2332                      .dwattr $C$DW$174, DW_AT_TI_symbol_name("_prio")
    2333                      .dwattr $C$DW$174, DW_AT_type(*$C$DW$T$19)
    2334                      .dwattr $C$DW$174, DW_AT_location[DW_OP_breg20 -7]
    2335              
    2336              $C$DW$175       .dwtag  DW_TAG_variable
    2337                      .dwattr $C$DW$175, DW_AT_name("cpu_sr")
    2338                      .dwattr $C$DW$175, DW_AT_TI_symbol_name("_cpu_sr")
    2339                      .dwattr $C$DW$175, DW_AT_type(*$C$DW$T$39)
    2340                      .dwattr $C$DW$175, DW_AT_location[DW_OP_breg20 -8]
    2341              
    2342 00000363 A044          MOVL      *-SP[4],XAR5          ; [CPU_ALU] |740| 
    2343 00000364 A842          MOVL      *-SP[2],XAR4          ; [CPU_ALU] |740| 
    2344 00000365 9647          MOV       *-SP[7],AL            ; [CPU_ALU] |740| 
TMS320C2000 Assembler PC v20.2.1 Mon Feb  8 19:02:48 2021

Copyright (c) 1996-2018 Texas Instruments Incorporated
os_task.asm                                                          PAGE   46

    2345                      .dwpsn  file "C:/ti/Workspace/PLC_certificate/Software/uCOS-II/Source/os_task.c",line 743,column 23,i
    2346 00000366 2B48          MOV       *-SP[8],#0            ; [CPU_ALU] |743| 
    2347                      .dwpsn  file "C:/ti/Workspace/PLC_certificate/Software/uCOS-II/Source/os_task.c",line 756,column 5,is
    2348 00000367 523F          CMPB      AL,#63                ; [CPU_ALU] |756| 
    2349 00000368 6907          B         $C$L57,LOS            ; [CPU_ALU] |756| 
    2350                      ; branchcc occurs ; [] |756| 
    2351                      .dwpsn  file "C:/ti/Workspace/PLC_certificate/Software/uCOS-II/Source/os_task.c",line 757,column 9,is
    2352 00000369 52FF          CMPB      AL,#255               ; [CPU_ALU] |757| 
    2353 0000036a 6105          B         $C$L57,EQ             ; [CPU_ALU] |757| 
    2354                      ; branchcc occurs ; [] |757| 
    2355                      .dwpsn  file "C:/ti/Workspace/PLC_certificate/Software/uCOS-II/Source/os_task.c",line 758,column 13,i
    2356 0000036b 8A44          MOVL      XAR4,*-SP[4]          ; [CPU_ALU] |758| 
    2357 0000036c 56BF          MOVB      *+XAR4[0],#42,UNC     ; [CPU_ALU] |758| 
         0000036d 2AC4 
    2358                      .dwpsn  file "C:/ti/Workspace/PLC_certificate/Software/uCOS-II/Source/os_task.c",line 759,column 13,i
    2359 0000036e 6F42          B         $C$L63,UNC            ; [CPU_ALU] |759| 
    2360                      ; branch occurs ; [] |759| 
    2361 0000036f       $C$L57:    
    2362                      .dwpsn  file "C:/ti/Workspace/PLC_certificate/Software/uCOS-II/Source/os_task.c",line 762,column 5,is
    2363 0000036f 0642          MOVL      ACC,*-SP[2]           ; [CPU_ALU] |762| 
    2364 00000370 6005          B         $C$L58,NEQ            ; [CPU_ALU] |762| 
    2365                      ; branchcc occurs ; [] |762| 
    2366                      .dwpsn  file "C:/ti/Workspace/PLC_certificate/Software/uCOS-II/Source/os_task.c",line 763,column 9,is
    2367 00000371 8A44          MOVL      XAR4,*-SP[4]          ; [CPU_ALU] |763| 
    2368 00000372 56BF          MOVB      *+XAR4[0],#12,UNC     ; [CPU_ALU] |763| 
         00000373 0CC4 
    2369                      .dwpsn  file "C:/ti/Workspace/PLC_certificate/Software/uCOS-II/Source/os_task.c",line 764,column 9,is
    2370 00000374 6F3C          B         $C$L63,UNC            ; [CPU_ALU] |764| 
    2371                      ; branch occurs ; [] |764| 
    2372 00000375       $C$L58:    
    2373                      .dwpsn  file "C:/ti/Workspace/PLC_certificate/Software/uCOS-II/Source/os_task.c",line 767,column 5,is
    2374 00000375 761F!         MOVW      DP,#_OSIntNesting     ; [CPU_ARAU] 
         00000376 0000 
    2375 00000377 9200!         MOV       AL,@_OSIntNesting     ; [CPU_ALU] |767| 
    2376 00000378 6105          B         $C$L59,EQ             ; [CPU_ALU] |767| 
    2377                      ; branchcc occurs ; [] |767| 
    2378                      .dwpsn  file "C:/ti/Workspace/PLC_certificate/Software/uCOS-II/Source/os_task.c",line 768,column 9,is
    2379 00000379 8A44          MOVL      XAR4,*-SP[4]          ; [CPU_ALU] |768| 
    2380 0000037a 56BF          MOVB      *+XAR4[0],#18,UNC     ; [CPU_ALU] |768| 
         0000037b 12C4 
    2381                      .dwpsn  file "C:/ti/Workspace/PLC_certificate/Software/uCOS-II/Source/os_task.c",line 769,column 9,is
    2382 0000037c 6F34          B         $C$L63,UNC            ; [CPU_ALU] |769| 
    2383                      ; branch occurs ; [] |769| 
    2384 0000037d       $C$L59:    
    2385                      .dwpsn  file "C:/ti/Workspace/PLC_certificate/Software/uCOS-II/Source/os_task.c",line 771,column 5,is
    2386              $C$DW$176       .dwtag  DW_TAG_TI_branch
    2387                      .dwattr $C$DW$176, DW_AT_low_pc(0x00)
    2388                      .dwattr $C$DW$176, DW_AT_name("_OS_CPU_SR_Save")
    2389                      .dwattr $C$DW$176, DW_AT_TI_call
    2390              
    2391 0000037d 7640!         LCR       #_OS_CPU_SR_Save      ; [CPU_ALU] |771| 
         0000037e 0000 
    2392                      ; call occurs [#_OS_CPU_SR_Save] ; [] |771| 
    2393 0000037f 9648          MOV       *-SP[8],AL            ; [CPU_ALU] |771| 
    2394                      .dwpsn  file "C:/ti/Workspace/PLC_certificate/Software/uCOS-II/Source/os_task.c",line 772,column 5,is
TMS320C2000 Assembler PC v20.2.1 Mon Feb  8 19:02:48 2021

Copyright (c) 1996-2018 Texas Instruments Incorporated
os_task.asm                                                          PAGE   47

    2395 00000380 9247          MOV       AL,*-SP[7]            ; [CPU_ALU] |772| 
    2396 00000381 52FF          CMPB      AL,#255               ; [CPU_ALU] |772| 
    2397 00000382 6008          B         $C$L60,NEQ            ; [CPU_ALU] |772| 
    2398                      ; branchcc occurs ; [] |772| 
    2399                      .dwpsn  file "C:/ti/Workspace/PLC_certificate/Software/uCOS-II/Source/os_task.c",line 773,column 9,is
    2400 00000383 021C          MOVB      ACC,#28               ; [CPU_ALU] |773| 
    2401 00000384 761F!         MOVW      DP,#_OSTCBCur         ; [CPU_ARAU] 
         00000385 0000 
    2402 00000386 0700!         ADDL      ACC,@_OSTCBCur        ; [CPU_ALU] |773| 
    2403 00000387 1EA7          MOVL      XAR7,ACC              ; [CPU_ALU] |773| 
    2404 00000388 92C7          MOV       AL,*+XAR7[0]          ; [CPU_ALU] |773| 
    2405 00000389 9647          MOV       *-SP[7],AL            ; [CPU_ALU] |773| 
    2406 0000038a       $C$L60:    
    2407                      .dwpsn  file "C:/ti/Workspace/PLC_certificate/Software/uCOS-II/Source/os_task.c",line 775,column 5,is
    2408 0000038a 2901          CLRC      SXM                   ; [CPU_ALU] 
    2409 0000038b 8F00!         MOVL      XAR4,#_OSTCBPrioTbl   ; [CPU_ARAU] |775| 
         0000038c 0000 
    2410 0000038d 5603          MOV       ACC,*-SP[7] << 1      ; [CPU_ALU] |775| 
         0000038e 0147 
    2411 0000038f 5601          ADDL      XAR4,ACC              ; [CPU_ALU] |775| 
         00000390 00A4 
    2412 00000391 06C4          MOVL      ACC,*+XAR4[0]         ; [CPU_ALU] |775| 
    2413 00000392 1E46          MOVL      *-SP[6],ACC           ; [CPU_ALU] |775| 
    2414                      .dwpsn  file "C:/ti/Workspace/PLC_certificate/Software/uCOS-II/Source/os_task.c",line 776,column 5,is
    2415 00000393 0646          MOVL      ACC,*-SP[6]           ; [CPU_ALU] |776| 
    2416 00000394 6008          B         $C$L61,NEQ            ; [CPU_ALU] |776| 
    2417                      ; branchcc occurs ; [] |776| 
    2418                      .dwpsn  file "C:/ti/Workspace/PLC_certificate/Software/uCOS-II/Source/os_task.c",line 777,column 9,is
    2419 00000395 9248          MOV       AL,*-SP[8]            ; [CPU_ALU] |777| 
    2420              $C$DW$177       .dwtag  DW_TAG_TI_branch
    2421                      .dwattr $C$DW$177, DW_AT_low_pc(0x00)
    2422                      .dwattr $C$DW$177, DW_AT_name("_OS_CPU_SR_Restore")
    2423                      .dwattr $C$DW$177, DW_AT_TI_call
    2424              
    2425 00000396 7640!         LCR       #_OS_CPU_SR_Restore   ; [CPU_ALU] |777| 
         00000397 0000 
    2426                      ; call occurs [#_OS_CPU_SR_Restore] ; [] |777| 
    2427                      .dwpsn  file "C:/ti/Workspace/PLC_certificate/Software/uCOS-II/Source/os_task.c",line 778,column 9,is
    2428 00000398 8A44          MOVL      XAR4,*-SP[4]          ; [CPU_ALU] |778| 
    2429 00000399 56BF          MOVB      *+XAR4[0],#67,UNC     ; [CPU_ALU] |778| 
         0000039a 43C4 
    2430                      .dwpsn  file "C:/ti/Workspace/PLC_certificate/Software/uCOS-II/Source/os_task.c",line 779,column 9,is
    2431 0000039b 6F15          B         $C$L63,UNC            ; [CPU_ALU] |779| 
    2432                      ; branch occurs ; [] |779| 
    2433 0000039c       $C$L61:    
    2434                      .dwpsn  file "C:/ti/Workspace/PLC_certificate/Software/uCOS-II/Source/os_task.c",line 781,column 5,is
    2435 0000039c 0201          MOVB      ACC,#1                ; [CPU_ALU] |781| 
    2436 0000039d 0F46          CMPL      ACC,*-SP[6]           ; [CPU_ALU] |781| 
    2437 0000039e 6008          B         $C$L62,NEQ            ; [CPU_ALU] |781| 
    2438                      ; branchcc occurs ; [] |781| 
    2439                      .dwpsn  file "C:/ti/Workspace/PLC_certificate/Software/uCOS-II/Source/os_task.c",line 782,column 9,is
    2440 0000039f 9248          MOV       AL,*-SP[8]            ; [CPU_ALU] |782| 
    2441              $C$DW$178       .dwtag  DW_TAG_TI_branch
    2442                      .dwattr $C$DW$178, DW_AT_low_pc(0x00)
    2443                      .dwattr $C$DW$178, DW_AT_name("_OS_CPU_SR_Restore")
TMS320C2000 Assembler PC v20.2.1 Mon Feb  8 19:02:48 2021

Copyright (c) 1996-2018 Texas Instruments Incorporated
os_task.asm                                                          PAGE   48

    2444                      .dwattr $C$DW$178, DW_AT_TI_call
    2445              
    2446 000003a0 7640!         LCR       #_OS_CPU_SR_Restore   ; [CPU_ALU] |782| 
         000003a1 0000 
    2447                      ; call occurs [#_OS_CPU_SR_Restore] ; [] |782| 
    2448                      .dwpsn  file "C:/ti/Workspace/PLC_certificate/Software/uCOS-II/Source/os_task.c",line 783,column 9,is
    2449 000003a2 8A44          MOVL      XAR4,*-SP[4]          ; [CPU_ALU] |783| 
    2450 000003a3 56BF          MOVB      *+XAR4[0],#67,UNC     ; [CPU_ALU] |783| 
         000003a4 43C4 
    2451                      .dwpsn  file "C:/ti/Workspace/PLC_certificate/Software/uCOS-II/Source/os_task.c",line 784,column 9,is
    2452 000003a5 6F0B          B         $C$L63,UNC            ; [CPU_ALU] |784| 
    2453                      ; branch occurs ; [] |784| 
    2454 000003a6       $C$L62:    
    2455                      .dwpsn  file "C:/ti/Workspace/PLC_certificate/Software/uCOS-II/Source/os_task.c",line 786,column 5,is
    2456 000003a6 C442          MOVL      XAR6,*-SP[2]          ; [CPU_ALU] |786| 
    2457 000003a7 022C          MOVB      ACC,#44               ; [CPU_ALU] |786| 
    2458 000003a8 0746          ADDL      ACC,*-SP[6]           ; [CPU_ALU] |786| 
    2459 000003a9 8AA9          MOVL      XAR4,ACC              ; [CPU_ALU] |786| 
    2460 000003aa C2C4          MOVL      *+XAR4[0],XAR6        ; [CPU_ALU] |786| 
    2461                      .dwpsn  file "C:/ti/Workspace/PLC_certificate/Software/uCOS-II/Source/os_task.c",line 787,column 5,is
    2462 000003ab 9248          MOV       AL,*-SP[8]            ; [CPU_ALU] |787| 
    2463              $C$DW$179       .dwtag  DW_TAG_TI_branch
    2464                      .dwattr $C$DW$179, DW_AT_low_pc(0x00)
    2465                      .dwattr $C$DW$179, DW_AT_name("_OS_CPU_SR_Restore")
    2466                      .dwattr $C$DW$179, DW_AT_TI_call
    2467              
    2468 000003ac 7640!         LCR       #_OS_CPU_SR_Restore   ; [CPU_ALU] |787| 
         000003ad 0000 
    2469                      ; call occurs [#_OS_CPU_SR_Restore] ; [] |787| 
    2470                      .dwpsn  file "C:/ti/Workspace/PLC_certificate/Software/uCOS-II/Source/os_task.c",line 788,column 5,is
    2471 000003ae 8A44          MOVL      XAR4,*-SP[4]          ; [CPU_ALU] |788| 
    2472 000003af 2BC4          MOV       *+XAR4[0],#0          ; [CPU_ALU] |788| 
    2473                      .dwpsn  file "C:/ti/Workspace/PLC_certificate/Software/uCOS-II/Source/os_task.c",line 789,column 1,is
    2474 000003b0       $C$L63:    
    2475 000003b0 FE88          SUBB      SP,#8                 ; [CPU_ARAU] 
    2476                      .dwcfi  cfa_offset, -2
    2477              $C$DW$180       .dwtag  DW_TAG_TI_branch
    2478                      .dwattr $C$DW$180, DW_AT_low_pc(0x00)
    2479                      .dwattr $C$DW$180, DW_AT_TI_return
    2480              
    2481 000003b1 0006          LRETR     ; [CPU_ALU] 
    2482                      ; return occurs ; [] 
    2483                      .dwattr $C$DW$167, DW_AT_TI_end_file("C:/ti/Workspace/PLC_certificate/Software/uCOS-II/Source/os_task
    2484                      .dwattr $C$DW$167, DW_AT_TI_end_line(0x315)
    2485                      .dwattr $C$DW$167, DW_AT_TI_end_column(0x01)
    2486                      .dwendentry
    2487                      .dwendtag $C$DW$167
    2488              
    2489 000003b2               .sect   ".text"
    2490                      .clink
    2491                      .global _OSTaskResume
    2492              
    2493              $C$DW$181       .dwtag  DW_TAG_subprogram
    2494                      .dwattr $C$DW$181, DW_AT_name("OSTaskResume")
    2495                      .dwattr $C$DW$181, DW_AT_low_pc(_OSTaskResume)
TMS320C2000 Assembler PC v20.2.1 Mon Feb  8 19:02:48 2021

Copyright (c) 1996-2018 Texas Instruments Incorporated
os_task.asm                                                          PAGE   49

    2496                      .dwattr $C$DW$181, DW_AT_high_pc(0x00)
    2497                      .dwattr $C$DW$181, DW_AT_TI_symbol_name("_OSTaskResume")
    2498                      .dwattr $C$DW$181, DW_AT_external
    2499                      .dwattr $C$DW$181, DW_AT_type(*$C$DW$T$19)
    2500                      .dwattr $C$DW$181, DW_AT_TI_begin_file("C:/ti/Workspace/PLC_certificate/Software/uCOS-II/Source/os_ta
    2501                      .dwattr $C$DW$181, DW_AT_TI_begin_line(0x32c)
    2502                      .dwattr $C$DW$181, DW_AT_TI_begin_column(0x08)
    2503                      .dwattr $C$DW$181, DW_AT_TI_max_frame_size(-6)
    2504                      .dwpsn  file "C:/ti/Workspace/PLC_certificate/Software/uCOS-II/Source/os_task.c",line 813,column 1,is
    2505              
    2506                      .dwfde $C$DW$CIE, _OSTaskResume
    2507              $C$DW$182       .dwtag  DW_TAG_formal_parameter
    2508                      .dwattr $C$DW$182, DW_AT_name("prio")
    2509                      .dwattr $C$DW$182, DW_AT_TI_symbol_name("_prio")
    2510                      .dwattr $C$DW$182, DW_AT_type(*$C$DW$T$19)
    2511                      .dwattr $C$DW$182, DW_AT_location[DW_OP_reg0]
    2512              
    2513              
    2514              ;***************************************************************
    2515              ;* FNAME: _OSTaskResume                 FR SIZE:   4           *
    2516              ;*                                                             *
    2517              ;* FUNCTION ENVIRONMENT                                        *
    2518              ;*                                                             *
    2519              ;* FUNCTION PROPERTIES                                         *
    2520              ;*                            0 Parameter,  4 Auto,  0 SOE     *
    2521              ;***************************************************************
    2522              
    2523 000003b2       _OSTaskResume:
    2524                      .dwcfi  cfa_offset, -2
    2525                      .dwcfi  save_reg_to_mem, 26, 0
    2526 000003b2 FE04          ADDB      SP,#4                 ; [CPU_ARAU] 
    2527                      .dwcfi  cfa_offset, -6
    2528              $C$DW$183       .dwtag  DW_TAG_variable
    2529                      .dwattr $C$DW$183, DW_AT_name("ptcb")
    2530                      .dwattr $C$DW$183, DW_AT_TI_symbol_name("_ptcb")
    2531                      .dwattr $C$DW$183, DW_AT_type(*$C$DW$T$45)
    2532                      .dwattr $C$DW$183, DW_AT_location[DW_OP_breg20 -2]
    2533              
    2534              $C$DW$184       .dwtag  DW_TAG_variable
    2535                      .dwattr $C$DW$184, DW_AT_name("prio")
    2536                      .dwattr $C$DW$184, DW_AT_TI_symbol_name("_prio")
    2537                      .dwattr $C$DW$184, DW_AT_type(*$C$DW$T$19)
    2538                      .dwattr $C$DW$184, DW_AT_location[DW_OP_breg20 -3]
    2539              
    2540              $C$DW$185       .dwtag  DW_TAG_variable
    2541                      .dwattr $C$DW$185, DW_AT_name("cpu_sr")
    2542                      .dwattr $C$DW$185, DW_AT_TI_symbol_name("_cpu_sr")
    2543                      .dwattr $C$DW$185, DW_AT_type(*$C$DW$T$39)
    2544                      .dwattr $C$DW$185, DW_AT_location[DW_OP_breg20 -4]
    2545              
    2546 000003b3 9643          MOV       *-SP[3],AL            ; [CPU_ALU] |813| 
    2547                      .dwpsn  file "C:/ti/Workspace/PLC_certificate/Software/uCOS-II/Source/os_task.c",line 816,column 23,i
    2548 000003b4 2B44          MOV       *-SP[4],#0            ; [CPU_ALU] |816| 
    2549                      .dwpsn  file "C:/ti/Workspace/PLC_certificate/Software/uCOS-II/Source/os_task.c",line 822,column 5,is
    2550 000003b5 523F          CMPB      AL,#63                ; [CPU_ALU] |822| 
TMS320C2000 Assembler PC v20.2.1 Mon Feb  8 19:02:48 2021

Copyright (c) 1996-2018 Texas Instruments Incorporated
os_task.asm                                                          PAGE   50

    2551 000003b6 6803          B         $C$L64,LO             ; [CPU_ALU] |822| 
    2552                      ; branchcc occurs ; [] |822| 
    2553                      .dwpsn  file "C:/ti/Workspace/PLC_certificate/Software/uCOS-II/Source/os_task.c",line 823,column 9,is
    2554 000003b7 9A2A          MOVB      AL,#42                ; [CPU_ALU] |823| 
    2555 000003b8 6F5D          B         $C$L71,UNC            ; [CPU_ALU] |823| 
    2556                      ; branch occurs ; [] |823| 
    2557 000003b9       $C$L64:    
    2558                      .dwpsn  file "C:/ti/Workspace/PLC_certificate/Software/uCOS-II/Source/os_task.c",line 826,column 5,is
    2559              $C$DW$186       .dwtag  DW_TAG_TI_branch
    2560                      .dwattr $C$DW$186, DW_AT_low_pc(0x00)
    2561                      .dwattr $C$DW$186, DW_AT_name("_OS_CPU_SR_Save")
    2562                      .dwattr $C$DW$186, DW_AT_TI_call
    2563              
    2564 000003b9 7640!         LCR       #_OS_CPU_SR_Save      ; [CPU_ALU] |826| 
         000003ba 0000 
    2565                      ; call occurs [#_OS_CPU_SR_Save] ; [] |826| 
    2566 000003bb 9644          MOV       *-SP[4],AL            ; [CPU_ALU] |826| 
    2567                      .dwpsn  file "C:/ti/Workspace/PLC_certificate/Software/uCOS-II/Source/os_task.c",line 827,column 5,is
    2568 000003bc 2901          CLRC      SXM                   ; [CPU_ALU] 
    2569 000003bd 8F00!         MOVL      XAR4,#_OSTCBPrioTbl   ; [CPU_ARAU] |827| 
         000003be 0000 
    2570 000003bf 5603          MOV       ACC,*-SP[3] << 1      ; [CPU_ALU] |827| 
         000003c0 0143 
    2571 000003c1 5601          ADDL      XAR4,ACC              ; [CPU_ALU] |827| 
         000003c2 00A4 
    2572 000003c3 06C4          MOVL      ACC,*+XAR4[0]         ; [CPU_ALU] |827| 
    2573 000003c4 1E42          MOVL      *-SP[2],ACC           ; [CPU_ALU] |827| 
    2574                      .dwpsn  file "C:/ti/Workspace/PLC_certificate/Software/uCOS-II/Source/os_task.c",line 828,column 5,is
    2575 000003c5 0642          MOVL      ACC,*-SP[2]           ; [CPU_ALU] |828| 
    2576 000003c6 6006          B         $C$L65,NEQ            ; [CPU_ALU] |828| 
    2577                      ; branchcc occurs ; [] |828| 
    2578                      .dwpsn  file "C:/ti/Workspace/PLC_certificate/Software/uCOS-II/Source/os_task.c",line 829,column 9,is
    2579 000003c7 9244          MOV       AL,*-SP[4]            ; [CPU_ALU] |829| 
    2580              $C$DW$187       .dwtag  DW_TAG_TI_branch
    2581                      .dwattr $C$DW$187, DW_AT_low_pc(0x00)
    2582                      .dwattr $C$DW$187, DW_AT_name("_OS_CPU_SR_Restore")
    2583                      .dwattr $C$DW$187, DW_AT_TI_call
    2584              
    2585 000003c8 7640!         LCR       #_OS_CPU_SR_Restore   ; [CPU_ALU] |829| 
         000003c9 0000 
    2586                      ; call occurs [#_OS_CPU_SR_Restore] ; [] |829| 
    2587                      .dwpsn  file "C:/ti/Workspace/PLC_certificate/Software/uCOS-II/Source/os_task.c",line 830,column 9,is
    2588 000003ca 9A46          MOVB      AL,#70                ; [CPU_ALU] |830| 
    2589 000003cb 6F4A          B         $C$L71,UNC            ; [CPU_ALU] |830| 
    2590                      ; branch occurs ; [] |830| 
    2591 000003cc       $C$L65:    
    2592                      .dwpsn  file "C:/ti/Workspace/PLC_certificate/Software/uCOS-II/Source/os_task.c",line 832,column 5,is
    2593 000003cc 0201          MOVB      ACC,#1                ; [CPU_ALU] |832| 
    2594 000003cd 0F42          CMPL      ACC,*-SP[2]           ; [CPU_ALU] |832| 
    2595 000003ce 6006          B         $C$L66,NEQ            ; [CPU_ALU] |832| 
    2596                      ; branchcc occurs ; [] |832| 
    2597                      .dwpsn  file "C:/ti/Workspace/PLC_certificate/Software/uCOS-II/Source/os_task.c",line 833,column 9,is
    2598 000003cf 9244          MOV       AL,*-SP[4]            ; [CPU_ALU] |833| 
    2599              $C$DW$188       .dwtag  DW_TAG_TI_branch
    2600                      .dwattr $C$DW$188, DW_AT_low_pc(0x00)
TMS320C2000 Assembler PC v20.2.1 Mon Feb  8 19:02:48 2021

Copyright (c) 1996-2018 Texas Instruments Incorporated
os_task.asm                                                          PAGE   51

    2601                      .dwattr $C$DW$188, DW_AT_name("_OS_CPU_SR_Restore")
    2602                      .dwattr $C$DW$188, DW_AT_TI_call
    2603              
    2604 000003d0 7640!         LCR       #_OS_CPU_SR_Restore   ; [CPU_ALU] |833| 
         000003d1 0000 
    2605                      ; call occurs [#_OS_CPU_SR_Restore] ; [] |833| 
    2606                      .dwpsn  file "C:/ti/Workspace/PLC_certificate/Software/uCOS-II/Source/os_task.c",line 834,column 9,is
    2607 000003d2 9A43          MOVB      AL,#67                ; [CPU_ALU] |834| 
    2608 000003d3 6F42          B         $C$L71,UNC            ; [CPU_ALU] |834| 
    2609                      ; branch occurs ; [] |834| 
    2610 000003d4       $C$L66:    
    2611                      .dwpsn  file "C:/ti/Workspace/PLC_certificate/Software/uCOS-II/Source/os_task.c",line 836,column 5,is
    2612 000003d4 021A          MOVB      ACC,#26               ; [CPU_ALU] |836| 
    2613 000003d5 0742          ADDL      ACC,*-SP[2]           ; [CPU_ALU] |836| 
    2614 000003d6 8AA9          MOVL      XAR4,ACC              ; [CPU_ALU] |836| 
    2615 000003d7 43C4          TBIT      *+XAR4[0],#3          ; [CPU_ALU] |836| 
    2616 000003d8 6C39          B         $C$L70,NTC            ; [CPU_ALU] |836| 
    2617                      ; branchcc occurs ; [] |836| 
    2618                      .dwpsn  file "C:/ti/Workspace/PLC_certificate/Software/uCOS-II/Source/os_task.c",line 837,column 9,is
    2619 000003d9 021A          MOVB      ACC,#26               ; [CPU_ALU] |837| 
    2620 000003da 0742          ADDL      ACC,*-SP[2]           ; [CPU_ALU] |837| 
    2621 000003db 8AA9          MOVL      XAR4,ACC              ; [CPU_ALU] |837| 
    2622 000003dc 18C4          AND       *+XAR4[0],#0xfff7     ; [CPU_ALU] |837| 
         000003dd FFF7 
    2623                      .dwpsn  file "C:/ti/Workspace/PLC_certificate/Software/uCOS-II/Source/os_task.c",line 838,column 9,is
    2624 000003de 021A          MOVB      ACC,#26               ; [CPU_ALU] |838| 
    2625 000003df 0742          ADDL      ACC,*-SP[2]           ; [CPU_ALU] |838| 
    2626 000003e0 8AA9          MOVL      XAR4,ACC              ; [CPU_ALU] |838| 
    2627 000003e1 92C4          MOV       AL,*+XAR4[0]          ; [CPU_ALU] |838| 
    2628 000003e2 9037          ANDB      AL,#0x37              ; [CPU_ALU] |838| 
    2629 000003e3 6029          B         $C$L68,NEQ            ; [CPU_ALU] |838| 
    2630                      ; branchcc occurs ; [] |838| 
    2631                      .dwpsn  file "C:/ti/Workspace/PLC_certificate/Software/uCOS-II/Source/os_task.c",line 839,column 13,i
    2632 000003e4 0218          MOVB      ACC,#24               ; [CPU_ALU] |839| 
    2633 000003e5 0742          ADDL      ACC,*-SP[2]           ; [CPU_ALU] |839| 
    2634 000003e6 8AA9          MOVL      XAR4,ACC              ; [CPU_ALU] |839| 
    2635 000003e7 06C4          MOVL      ACC,*+XAR4[0]         ; [CPU_ALU] |839| 
    2636 000003e8 6020          B         $C$L67,NEQ            ; [CPU_ALU] |839| 
    2637                      ; branchcc occurs ; [] |839| 
    2638                      .dwpsn  file "C:/ti/Workspace/PLC_certificate/Software/uCOS-II/Source/os_task.c",line 840,column 17,i
    2639 000003e9 0220          MOVB      ACC,#32               ; [CPU_ALU] |840| 
    2640 000003ea 0742          ADDL      ACC,*-SP[2]           ; [CPU_ALU] |840| 
    2641 000003eb 8AA9          MOVL      XAR4,ACC              ; [CPU_ALU] |840| 
    2642 000003ec 761F!         MOVW      DP,#_OSRdyGrp         ; [CPU_ARAU] 
         000003ed 0000 
    2643 000003ee 92C4          MOV       AL,*+XAR4[0]          ; [CPU_ALU] |840| 
    2644 000003ef 9800!         OR        @_OSRdyGrp,AL         ; [CPU_ALU] |840| 
    2645                      .dwpsn  file "C:/ti/Workspace/PLC_certificate/Software/uCOS-II/Source/os_task.c",line 841,column 17,i
    2646 000003f0 021E          MOVB      ACC,#30               ; [CPU_ALU] |841| 
    2647 000003f1 0742          ADDL      ACC,*-SP[2]           ; [CPU_ALU] |841| 
    2648 000003f2 1EA6          MOVL      XAR6,ACC              ; [CPU_ALU] |841| 
    2649 000003f3 8F00!         MOVL      XAR4,#_OSRdyTbl       ; [CPU_ARAU] |841| 
         000003f4 0000 
    2650 000003f5 A8A9          MOVL      ACC,XAR4              ; [CPU_ALU] |841| 
    2651 000003f6 0DC6          ADDU      ACC,*+XAR6[0]         ; [CPU_ALU] |841| 
TMS320C2000 Assembler PC v20.2.1 Mon Feb  8 19:02:48 2021

Copyright (c) 1996-2018 Texas Instruments Incorporated
os_task.asm                                                          PAGE   52

    2652 000003f7 83A9          MOVL      XAR5,ACC              ; [CPU_ALU] |841| 
    2653 000003f8 021F          MOVB      ACC,#31               ; [CPU_ALU] |841| 
    2654 000003f9 0742          ADDL      ACC,*-SP[2]           ; [CPU_ALU] |841| 
    2655 000003fa 8AA9          MOVL      XAR4,ACC              ; [CPU_ALU] |841| 
    2656 000003fb 92C4          MOV       AL,*+XAR4[0]          ; [CPU_ALU] |841| 
    2657 000003fc 98C5          OR        *+XAR5[0],AL          ; [CPU_ALU] |841| 
    2658                      .dwpsn  file "C:/ti/Workspace/PLC_certificate/Software/uCOS-II/Source/os_task.c",line 842,column 17,i
    2659 000003fd 9244          MOV       AL,*-SP[4]            ; [CPU_ALU] |842| 
    2660              $C$DW$189       .dwtag  DW_TAG_TI_branch
    2661                      .dwattr $C$DW$189, DW_AT_low_pc(0x00)
    2662                      .dwattr $C$DW$189, DW_AT_name("_OS_CPU_SR_Restore")
    2663                      .dwattr $C$DW$189, DW_AT_TI_call
    2664              
    2665 000003fe 7640!         LCR       #_OS_CPU_SR_Restore   ; [CPU_ALU] |842| 
         000003ff 0000 
    2666                      ; call occurs [#_OS_CPU_SR_Restore] ; [] |842| 
    2667                      .dwpsn  file "C:/ti/Workspace/PLC_certificate/Software/uCOS-II/Source/os_task.c",line 843,column 17,i
    2668 00000400 761F!         MOVW      DP,#_OSRunning        ; [CPU_ARAU] 
         00000401 0000 
    2669 00000402 9200!         MOV       AL,@_OSRunning        ; [CPU_ALU] |843| 
    2670 00000403 5201          CMPB      AL,#1                 ; [CPU_ALU] |843| 
    2671 00000404 600B          B         $C$L69,NEQ            ; [CPU_ALU] |843| 
    2672                      ; branchcc occurs ; [] |843| 
    2673                      .dwpsn  file "C:/ti/Workspace/PLC_certificate/Software/uCOS-II/Source/os_task.c",line 844,column 21,i
    2674              $C$DW$190       .dwtag  DW_TAG_TI_branch
    2675                      .dwattr $C$DW$190, DW_AT_low_pc(0x00)
    2676                      .dwattr $C$DW$190, DW_AT_name("_OS_Sched")
    2677                      .dwattr $C$DW$190, DW_AT_TI_call
    2678              
    2679 00000405 7640!         LCR       #_OS_Sched            ; [CPU_ALU] |844| 
         00000406 0000 
    2680                      ; call occurs [#_OS_Sched] ; [] |844| 
    2681 00000407 6F08          B         $C$L69,UNC            ; [CPU_ALU] 
    2682                      ; branch occurs ; [] 
    2683 00000408       $C$L67:    
    2684                      .dwpsn  file "C:/ti/Workspace/PLC_certificate/Software/uCOS-II/Source/os_task.c",line 847,column 17,i
    2685 00000408 9244          MOV       AL,*-SP[4]            ; [CPU_ALU] |847| 
    2686              $C$DW$191       .dwtag  DW_TAG_TI_branch
    2687                      .dwattr $C$DW$191, DW_AT_low_pc(0x00)
    2688                      .dwattr $C$DW$191, DW_AT_name("_OS_CPU_SR_Restore")
    2689                      .dwattr $C$DW$191, DW_AT_TI_call
    2690              
    2691 00000409 7640!         LCR       #_OS_CPU_SR_Restore   ; [CPU_ALU] |847| 
         0000040a 0000 
    2692                      ; call occurs [#_OS_CPU_SR_Restore] ; [] |847| 
    2693 0000040b 6F04          B         $C$L69,UNC            ; [CPU_ALU] 
    2694                      ; branch occurs ; [] 
    2695 0000040c       $C$L68:    
    2696                      .dwpsn  file "C:/ti/Workspace/PLC_certificate/Software/uCOS-II/Source/os_task.c",line 850,column 13,i
    2697 0000040c 9244          MOV       AL,*-SP[4]            ; [CPU_ALU] |850| 
    2698              $C$DW$192       .dwtag  DW_TAG_TI_branch
    2699                      .dwattr $C$DW$192, DW_AT_low_pc(0x00)
    2700                      .dwattr $C$DW$192, DW_AT_name("_OS_CPU_SR_Restore")
    2701                      .dwattr $C$DW$192, DW_AT_TI_call
    2702              
TMS320C2000 Assembler PC v20.2.1 Mon Feb  8 19:02:48 2021

Copyright (c) 1996-2018 Texas Instruments Incorporated
os_task.asm                                                          PAGE   53

    2703 0000040d 7640!         LCR       #_OS_CPU_SR_Restore   ; [CPU_ALU] |850| 
         0000040e 0000 
    2704                      ; call occurs [#_OS_CPU_SR_Restore] ; [] |850| 
    2705 0000040f       $C$L69:    
    2706                      .dwpsn  file "C:/ti/Workspace/PLC_certificate/Software/uCOS-II/Source/os_task.c",line 852,column 9,is
    2707 0000040f 9A00          MOVB      AL,#0                 ; [CPU_ALU] |852| 
    2708 00000410 6F05          B         $C$L71,UNC            ; [CPU_ALU] |852| 
    2709                      ; branch occurs ; [] |852| 
    2710 00000411       $C$L70:    
    2711                      .dwpsn  file "C:/ti/Workspace/PLC_certificate/Software/uCOS-II/Source/os_task.c",line 854,column 5,is
    2712 00000411 9244          MOV       AL,*-SP[4]            ; [CPU_ALU] |854| 
    2713              $C$DW$193       .dwtag  DW_TAG_TI_branch
    2714                      .dwattr $C$DW$193, DW_AT_low_pc(0x00)
    2715                      .dwattr $C$DW$193, DW_AT_name("_OS_CPU_SR_Restore")
    2716                      .dwattr $C$DW$193, DW_AT_TI_call
    2717              
    2718 00000412 7640!         LCR       #_OS_CPU_SR_Restore   ; [CPU_ALU] |854| 
         00000413 0000 
    2719                      ; call occurs [#_OS_CPU_SR_Restore] ; [] |854| 
    2720                      .dwpsn  file "C:/ti/Workspace/PLC_certificate/Software/uCOS-II/Source/os_task.c",line 855,column 5,is
    2721 00000414 9A44          MOVB      AL,#68                ; [CPU_ALU] |855| 
    2722 00000415       $C$L71:    
    2723                      .dwpsn  file "C:/ti/Workspace/PLC_certificate/Software/uCOS-II/Source/os_task.c",line 856,column 1,is
    2724 00000415 FE84          SUBB      SP,#4                 ; [CPU_ARAU] 
    2725                      .dwcfi  cfa_offset, -2
    2726              $C$DW$194       .dwtag  DW_TAG_TI_branch
    2727                      .dwattr $C$DW$194, DW_AT_low_pc(0x00)
    2728                      .dwattr $C$DW$194, DW_AT_TI_return
    2729              
    2730 00000416 0006          LRETR     ; [CPU_ALU] 
    2731                      ; return occurs ; [] 
    2732                      .dwattr $C$DW$181, DW_AT_TI_end_file("C:/ti/Workspace/PLC_certificate/Software/uCOS-II/Source/os_task
    2733                      .dwattr $C$DW$181, DW_AT_TI_end_line(0x358)
    2734                      .dwattr $C$DW$181, DW_AT_TI_end_column(0x01)
    2735                      .dwendentry
    2736                      .dwendtag $C$DW$181
    2737              
    2738 00000417               .sect   ".text"
    2739                      .clink
    2740                      .global _OSTaskStkChk
    2741              
    2742              $C$DW$195       .dwtag  DW_TAG_subprogram
    2743                      .dwattr $C$DW$195, DW_AT_name("OSTaskStkChk")
    2744                      .dwattr $C$DW$195, DW_AT_low_pc(_OSTaskStkChk)
    2745                      .dwattr $C$DW$195, DW_AT_high_pc(0x00)
    2746                      .dwattr $C$DW$195, DW_AT_TI_symbol_name("_OSTaskStkChk")
    2747                      .dwattr $C$DW$195, DW_AT_external
    2748                      .dwattr $C$DW$195, DW_AT_type(*$C$DW$T$19)
    2749                      .dwattr $C$DW$195, DW_AT_TI_begin_file("C:/ti/Workspace/PLC_certificate/Software/uCOS-II/Source/os_ta
    2750                      .dwattr $C$DW$195, DW_AT_TI_begin_line(0x36f)
    2751                      .dwattr $C$DW$195, DW_AT_TI_begin_column(0x08)
    2752                      .dwattr $C$DW$195, DW_AT_TI_max_frame_size(-14)
    2753                      .dwpsn  file "C:/ti/Workspace/PLC_certificate/Software/uCOS-II/Source/os_task.c",line 881,column 1,is
    2754              
    2755                      .dwfde $C$DW$CIE, _OSTaskStkChk
TMS320C2000 Assembler PC v20.2.1 Mon Feb  8 19:02:48 2021

Copyright (c) 1996-2018 Texas Instruments Incorporated
os_task.asm                                                          PAGE   54

    2756              $C$DW$196       .dwtag  DW_TAG_formal_parameter
    2757                      .dwattr $C$DW$196, DW_AT_name("prio")
    2758                      .dwattr $C$DW$196, DW_AT_TI_symbol_name("_prio")
    2759                      .dwattr $C$DW$196, DW_AT_type(*$C$DW$T$19)
    2760                      .dwattr $C$DW$196, DW_AT_location[DW_OP_reg0]
    2761              
    2762              $C$DW$197       .dwtag  DW_TAG_formal_parameter
    2763                      .dwattr $C$DW$197, DW_AT_name("p_stk_data")
    2764                      .dwattr $C$DW$197, DW_AT_TI_symbol_name("_p_stk_data")
    2765                      .dwattr $C$DW$197, DW_AT_type(*$C$DW$T$76)
    2766                      .dwattr $C$DW$197, DW_AT_location[DW_OP_reg12]
    2767              
    2768              
    2769              ;***************************************************************
    2770              ;* FNAME: _OSTaskStkChk                 FR SIZE:  12           *
    2771              ;*                                                             *
    2772              ;* FUNCTION ENVIRONMENT                                        *
    2773              ;*                                                             *
    2774              ;* FUNCTION PROPERTIES                                         *
    2775              ;*                            0 Parameter, 12 Auto,  0 SOE     *
    2776              ;***************************************************************
    2777              
    2778 00000417       _OSTaskStkChk:
    2779                      .dwcfi  cfa_offset, -2
    2780                      .dwcfi  save_reg_to_mem, 26, 0
    2781 00000417 FE0C          ADDB      SP,#12                ; [CPU_ARAU] 
    2782                      .dwcfi  cfa_offset, -14
    2783              $C$DW$198       .dwtag  DW_TAG_variable
    2784                      .dwattr $C$DW$198, DW_AT_name("p_stk_data")
    2785                      .dwattr $C$DW$198, DW_AT_TI_symbol_name("_p_stk_data")
    2786                      .dwattr $C$DW$198, DW_AT_type(*$C$DW$T$76)
    2787                      .dwattr $C$DW$198, DW_AT_location[DW_OP_breg20 -2]
    2788              
    2789              $C$DW$199       .dwtag  DW_TAG_variable
    2790                      .dwattr $C$DW$199, DW_AT_name("ptcb")
    2791                      .dwattr $C$DW$199, DW_AT_TI_symbol_name("_ptcb")
    2792                      .dwattr $C$DW$199, DW_AT_type(*$C$DW$T$45)
    2793                      .dwattr $C$DW$199, DW_AT_location[DW_OP_breg20 -4]
    2794              
    2795              $C$DW$200       .dwtag  DW_TAG_variable
    2796                      .dwattr $C$DW$200, DW_AT_name("pchk")
    2797                      .dwattr $C$DW$200, DW_AT_TI_symbol_name("_pchk")
    2798                      .dwattr $C$DW$200, DW_AT_type(*$C$DW$T$30)
    2799                      .dwattr $C$DW$200, DW_AT_location[DW_OP_breg20 -6]
    2800              
    2801              $C$DW$201       .dwtag  DW_TAG_variable
    2802                      .dwattr $C$DW$201, DW_AT_name("nfree")
    2803                      .dwattr $C$DW$201, DW_AT_TI_symbol_name("_nfree")
    2804                      .dwattr $C$DW$201, DW_AT_type(*$C$DW$T$27)
    2805                      .dwattr $C$DW$201, DW_AT_location[DW_OP_breg20 -8]
    2806              
    2807              $C$DW$202       .dwtag  DW_TAG_variable
    2808                      .dwattr $C$DW$202, DW_AT_name("size")
    2809                      .dwattr $C$DW$202, DW_AT_TI_symbol_name("_size")
    2810                      .dwattr $C$DW$202, DW_AT_type(*$C$DW$T$27)
TMS320C2000 Assembler PC v20.2.1 Mon Feb  8 19:02:48 2021

Copyright (c) 1996-2018 Texas Instruments Incorporated
os_task.asm                                                          PAGE   55

    2811                      .dwattr $C$DW$202, DW_AT_location[DW_OP_breg20 -10]
    2812              
    2813              $C$DW$203       .dwtag  DW_TAG_variable
    2814                      .dwattr $C$DW$203, DW_AT_name("prio")
    2815                      .dwattr $C$DW$203, DW_AT_TI_symbol_name("_prio")
    2816                      .dwattr $C$DW$203, DW_AT_type(*$C$DW$T$19)
    2817                      .dwattr $C$DW$203, DW_AT_location[DW_OP_breg20 -11]
    2818              
    2819              $C$DW$204       .dwtag  DW_TAG_variable
    2820                      .dwattr $C$DW$204, DW_AT_name("cpu_sr")
    2821                      .dwattr $C$DW$204, DW_AT_TI_symbol_name("_cpu_sr")
    2822                      .dwattr $C$DW$204, DW_AT_type(*$C$DW$T$39)
    2823                      .dwattr $C$DW$204, DW_AT_location[DW_OP_breg20 -12]
    2824              
    2825 00000418 A842          MOVL      *-SP[2],XAR4          ; [CPU_ALU] |881| 
    2826 00000419 964B          MOV       *-SP[11],AL           ; [CPU_ALU] |881| 
    2827                      .dwpsn  file "C:/ti/Workspace/PLC_certificate/Software/uCOS-II/Source/os_task.c",line 887,column 23,i
    2828 0000041a 2B4C          MOV       *-SP[12],#0           ; [CPU_ALU] |887| 
    2829                      .dwpsn  file "C:/ti/Workspace/PLC_certificate/Software/uCOS-II/Source/os_task.c",line 893,column 5,is
    2830 0000041b 523F          CMPB      AL,#63                ; [CPU_ALU] |893| 
    2831 0000041c 6905          B         $C$L72,LOS            ; [CPU_ALU] |893| 
    2832                      ; branchcc occurs ; [] |893| 
    2833                      .dwpsn  file "C:/ti/Workspace/PLC_certificate/Software/uCOS-II/Source/os_task.c",line 894,column 9,is
    2834 0000041d 52FF          CMPB      AL,#255               ; [CPU_ALU] |894| 
    2835 0000041e 6103          B         $C$L72,EQ             ; [CPU_ALU] |894| 
    2836                      ; branchcc occurs ; [] |894| 
    2837                      .dwpsn  file "C:/ti/Workspace/PLC_certificate/Software/uCOS-II/Source/os_task.c",line 895,column 13,i
    2838 0000041f 9A2A          MOVB      AL,#42                ; [CPU_ALU] |895| 
    2839 00000420 6F54          B         $C$L80,UNC            ; [CPU_ALU] |895| 
    2840                      ; branch occurs ; [] |895| 
    2841 00000421       $C$L72:    
    2842                      .dwpsn  file "C:/ti/Workspace/PLC_certificate/Software/uCOS-II/Source/os_task.c",line 898,column 5,is
    2843 00000421 0642          MOVL      ACC,*-SP[2]           ; [CPU_ALU] |898| 
    2844 00000422 6003          B         $C$L73,NEQ            ; [CPU_ALU] |898| 
    2845                      ; branchcc occurs ; [] |898| 
    2846                      .dwpsn  file "C:/ti/Workspace/PLC_certificate/Software/uCOS-II/Source/os_task.c",line 899,column 9,is
    2847 00000423 9A09          MOVB      AL,#9                 ; [CPU_ALU] |899| 
    2848 00000424 6F50          B         $C$L80,UNC            ; [CPU_ALU] |899| 
    2849                      ; branch occurs ; [] |899| 
    2850 00000425       $C$L73:    
    2851                      .dwpsn  file "C:/ti/Workspace/PLC_certificate/Software/uCOS-II/Source/os_task.c",line 902,column 5,is
    2852 00000425 0200          MOVB      ACC,#0                ; [CPU_ALU] |902| 
    2853 00000426 1EC4          MOVL      *+XAR4[0],ACC         ; [CPU_ALU] |902| 
    2854                      .dwpsn  file "C:/ti/Workspace/PLC_certificate/Software/uCOS-II/Source/os_task.c",line 903,column 5,is
    2855 00000427 8A42          MOVL      XAR4,*-SP[2]          ; [CPU_ALU] |903| 
    2856 00000428 1ED4          MOVL      *+XAR4[2],ACC         ; [CPU_ALU] |903| 
    2857                      .dwpsn  file "C:/ti/Workspace/PLC_certificate/Software/uCOS-II/Source/os_task.c",line 904,column 5,is
    2858              $C$DW$205       .dwtag  DW_TAG_TI_branch
    2859                      .dwattr $C$DW$205, DW_AT_low_pc(0x00)
    2860                      .dwattr $C$DW$205, DW_AT_name("_OS_CPU_SR_Save")
    2861                      .dwattr $C$DW$205, DW_AT_TI_call
    2862              
    2863 00000429 7640!         LCR       #_OS_CPU_SR_Save      ; [CPU_ALU] |904| 
         0000042a 0000 
    2864                      ; call occurs [#_OS_CPU_SR_Save] ; [] |904| 
TMS320C2000 Assembler PC v20.2.1 Mon Feb  8 19:02:48 2021

Copyright (c) 1996-2018 Texas Instruments Incorporated
os_task.asm                                                          PAGE   56

    2865 0000042b 964C          MOV       *-SP[12],AL           ; [CPU_ALU] |904| 
    2866                      .dwpsn  file "C:/ti/Workspace/PLC_certificate/Software/uCOS-II/Source/os_task.c",line 905,column 5,is
    2867 0000042c 924B          MOV       AL,*-SP[11]           ; [CPU_ALU] |905| 
    2868 0000042d 52FF          CMPB      AL,#255               ; [CPU_ALU] |905| 
    2869 0000042e 6008          B         $C$L74,NEQ            ; [CPU_ALU] |905| 
    2870                      ; branchcc occurs ; [] |905| 
    2871                      .dwpsn  file "C:/ti/Workspace/PLC_certificate/Software/uCOS-II/Source/os_task.c",line 906,column 9,is
    2872 0000042f 021C          MOVB      ACC,#28               ; [CPU_ALU] |906| 
    2873 00000430 761F!         MOVW      DP,#_OSTCBCur         ; [CPU_ARAU] 
         00000431 0000 
    2874 00000432 0700!         ADDL      ACC,@_OSTCBCur        ; [CPU_ALU] |906| 
    2875 00000433 1EA7          MOVL      XAR7,ACC              ; [CPU_ALU] |906| 
    2876 00000434 92C7          MOV       AL,*+XAR7[0]          ; [CPU_ALU] |906| 
    2877 00000435 964B          MOV       *-SP[11],AL           ; [CPU_ALU] |906| 
    2878 00000436       $C$L74:    
    2879                      .dwpsn  file "C:/ti/Workspace/PLC_certificate/Software/uCOS-II/Source/os_task.c",line 908,column 5,is
    2880 00000436 2901          CLRC      SXM                   ; [CPU_ALU] 
    2881 00000437 8F00!         MOVL      XAR4,#_OSTCBPrioTbl   ; [CPU_ARAU] |908| 
         00000438 0000 
    2882 00000439 5603          MOV       ACC,*-SP[11] << 1     ; [CPU_ALU] |908| 
         0000043a 014B 
    2883 0000043b 5601          ADDL      XAR4,ACC              ; [CPU_ALU] |908| 
         0000043c 00A4 
    2884 0000043d 06C4          MOVL      ACC,*+XAR4[0]         ; [CPU_ALU] |908| 
    2885 0000043e 1E44          MOVL      *-SP[4],ACC           ; [CPU_ALU] |908| 
    2886                      .dwpsn  file "C:/ti/Workspace/PLC_certificate/Software/uCOS-II/Source/os_task.c",line 909,column 5,is
    2887 0000043f 0644          MOVL      ACC,*-SP[4]           ; [CPU_ALU] |909| 
    2888 00000440 6006          B         $C$L75,NEQ            ; [CPU_ALU] |909| 
    2889                      ; branchcc occurs ; [] |909| 
    2890                      .dwpsn  file "C:/ti/Workspace/PLC_certificate/Software/uCOS-II/Source/os_task.c",line 910,column 9,is
    2891 00000441 924C          MOV       AL,*-SP[12]           ; [CPU_ALU] |910| 
    2892              $C$DW$206       .dwtag  DW_TAG_TI_branch
    2893                      .dwattr $C$DW$206, DW_AT_low_pc(0x00)
    2894                      .dwattr $C$DW$206, DW_AT_name("_OS_CPU_SR_Restore")
    2895                      .dwattr $C$DW$206, DW_AT_TI_call
    2896              
    2897 00000442 7640!         LCR       #_OS_CPU_SR_Restore   ; [CPU_ALU] |910| 
         00000443 0000 
    2898                      ; call occurs [#_OS_CPU_SR_Restore] ; [] |910| 
    2899                      .dwpsn  file "C:/ti/Workspace/PLC_certificate/Software/uCOS-II/Source/os_task.c",line 911,column 9,is
    2900 00000444 9A43          MOVB      AL,#67                ; [CPU_ALU] |911| 
    2901 00000445 6F2F          B         $C$L80,UNC            ; [CPU_ALU] |911| 
    2902                      ; branch occurs ; [] |911| 
    2903 00000446       $C$L75:    
    2904                      .dwpsn  file "C:/ti/Workspace/PLC_certificate/Software/uCOS-II/Source/os_task.c",line 913,column 5,is
    2905 00000446 0201          MOVB      ACC,#1                ; [CPU_ALU] |913| 
    2906 00000447 0F44          CMPL      ACC,*-SP[4]           ; [CPU_ALU] |913| 
    2907 00000448 6006          B         $C$L76,NEQ            ; [CPU_ALU] |913| 
    2908                      ; branchcc occurs ; [] |913| 
    2909                      .dwpsn  file "C:/ti/Workspace/PLC_certificate/Software/uCOS-II/Source/os_task.c",line 914,column 9,is
    2910 00000449 924C          MOV       AL,*-SP[12]           ; [CPU_ALU] |914| 
    2911              $C$DW$207       .dwtag  DW_TAG_TI_branch
    2912                      .dwattr $C$DW$207, DW_AT_low_pc(0x00)
    2913                      .dwattr $C$DW$207, DW_AT_name("_OS_CPU_SR_Restore")
    2914                      .dwattr $C$DW$207, DW_AT_TI_call
TMS320C2000 Assembler PC v20.2.1 Mon Feb  8 19:02:48 2021

Copyright (c) 1996-2018 Texas Instruments Incorporated
os_task.asm                                                          PAGE   57

    2915              
    2916 0000044a 7640!         LCR       #_OS_CPU_SR_Restore   ; [CPU_ALU] |914| 
         0000044b 0000 
    2917                      ; call occurs [#_OS_CPU_SR_Restore] ; [] |914| 
    2918                      .dwpsn  file "C:/ti/Workspace/PLC_certificate/Software/uCOS-II/Source/os_task.c",line 915,column 9,is
    2919 0000044c 9A43          MOVB      AL,#67                ; [CPU_ALU] |915| 
    2920 0000044d 6F27          B         $C$L80,UNC            ; [CPU_ALU] |915| 
    2921                      ; branch occurs ; [] |915| 
    2922 0000044e       $C$L76:    
    2923                      .dwpsn  file "C:/ti/Workspace/PLC_certificate/Software/uCOS-II/Source/os_task.c",line 917,column 5,is
    2924 0000044e 0208          MOVB      ACC,#8                ; [CPU_ALU] |917| 
    2925 0000044f 0744          ADDL      ACC,*-SP[4]           ; [CPU_ALU] |917| 
    2926 00000450 8AA9          MOVL      XAR4,ACC              ; [CPU_ALU] |917| 
    2927 00000451 40C4          TBIT      *+XAR4[0],#0          ; [CPU_ALU] |917| 
    2928 00000452 6D06          B         $C$L77,TC             ; [CPU_ALU] |917| 
    2929                      ; branchcc occurs ; [] |917| 
    2930                      .dwpsn  file "C:/ti/Workspace/PLC_certificate/Software/uCOS-II/Source/os_task.c",line 918,column 9,is
    2931 00000453 924C          MOV       AL,*-SP[12]           ; [CPU_ALU] |918| 
    2932              $C$DW$208       .dwtag  DW_TAG_TI_branch
    2933                      .dwattr $C$DW$208, DW_AT_low_pc(0x00)
    2934                      .dwattr $C$DW$208, DW_AT_name("_OS_CPU_SR_Restore")
    2935                      .dwattr $C$DW$208, DW_AT_TI_call
    2936              
    2937 00000454 7640!         LCR       #_OS_CPU_SR_Restore   ; [CPU_ALU] |918| 
         00000455 0000 
    2938                      ; call occurs [#_OS_CPU_SR_Restore] ; [] |918| 
    2939                      .dwpsn  file "C:/ti/Workspace/PLC_certificate/Software/uCOS-II/Source/os_task.c",line 919,column 9,is
    2940 00000456 9A45          MOVB      AL,#69                ; [CPU_ALU] |919| 
    2941 00000457 6F1D          B         $C$L80,UNC            ; [CPU_ALU] |919| 
    2942                      ; branch occurs ; [] |919| 
    2943 00000458       $C$L77:    
    2944                      .dwpsn  file "C:/ti/Workspace/PLC_certificate/Software/uCOS-II/Source/os_task.c",line 921,column 5,is
    2945 00000458 0200          MOVB      ACC,#0                ; [CPU_ALU] |921| 
    2946 00000459 1E48          MOVL      *-SP[8],ACC           ; [CPU_ALU] |921| 
    2947                      .dwpsn  file "C:/ti/Workspace/PLC_certificate/Software/uCOS-II/Source/os_task.c",line 922,column 5,is
    2948 0000045a 8A44          MOVL      XAR4,*-SP[4]          ; [CPU_ALU] |922| 
    2949 0000045b 06F4          MOVL      ACC,*+XAR4[6]         ; [CPU_ALU] |922| 
    2950 0000045c 1E4A          MOVL      *-SP[10],ACC          ; [CPU_ALU] |922| 
    2951                      .dwpsn  file "C:/ti/Workspace/PLC_certificate/Software/uCOS-II/Source/os_task.c",line 923,column 5,is
    2952 0000045d 06E4          MOVL      ACC,*+XAR4[4]         ; [CPU_ALU] |923| 
    2953 0000045e 1E46          MOVL      *-SP[6],ACC           ; [CPU_ALU] |923| 
    2954                      .dwpsn  file "C:/ti/Workspace/PLC_certificate/Software/uCOS-II/Source/os_task.c",line 924,column 5,is
    2955 0000045f 924C          MOV       AL,*-SP[12]           ; [CPU_ALU] |924| 
    2956              $C$DW$209       .dwtag  DW_TAG_TI_branch
    2957                      .dwattr $C$DW$209, DW_AT_low_pc(0x00)
    2958                      .dwattr $C$DW$209, DW_AT_name("_OS_CPU_SR_Restore")
    2959                      .dwattr $C$DW$209, DW_AT_TI_call
    2960              
    2961 00000460 7640!         LCR       #_OS_CPU_SR_Restore   ; [CPU_ALU] |924| 
         00000461 0000 
    2962                      ; call occurs [#_OS_CPU_SR_Restore] ; [] |924| 
    2963                      .dwpsn  file "C:/ti/Workspace/PLC_certificate/Software/uCOS-II/Source/os_task.c",line 930,column 5,is
    2964 00000462 6F04          B         $C$L79,UNC            ; [CPU_ALU] |930| 
    2965                      ; branch occurs ; [] |930| 
    2966 00000463       $C$L78:    
TMS320C2000 Assembler PC v20.2.1 Mon Feb  8 19:02:48 2021

Copyright (c) 1996-2018 Texas Instruments Incorporated
os_task.asm                                                          PAGE   58

    2967                      .dwpsn  file "C:/ti/Workspace/PLC_certificate/Software/uCOS-II/Source/os_task.c",line 931,column 9,is
    2968 00000463 0201          MOVB      ACC,#1                ; [CPU_ALU] |931| 
    2969 00000464 0748          ADDL      ACC,*-SP[8]           ; [CPU_ALU] |931| 
    2970 00000465 1E48          MOVL      *-SP[8],ACC           ; [CPU_ALU] |931| 
    2971 00000466       $C$L79:    
    2972                      .dwpsn  file "C:/ti/Workspace/PLC_certificate/Software/uCOS-II/Source/os_task.c",line 930,column 12,i
    2973 00000466 8A46          MOVL      XAR4,*-SP[6]          ; [CPU_ALU] |930| 
    2974 00000467 A8A9          MOVL      ACC,XAR4              ; [CPU_ALU] |930| 
    2975 00000468 1901          SUBB      ACC,#1                ; [CPU_ALU] |930| 
    2976 00000469 1E46          MOVL      *-SP[6],ACC           ; [CPU_ALU] |930| 
    2977 0000046a 92C4          MOV       AL,*+XAR4[0]          ; [CPU_ALU] |930| 
    2978 0000046b 61F8          B         $C$L78,EQ             ; [CPU_ALU] |930| 
    2979                      ; branchcc occurs ; [] |930| 
    2980                      .dwpsn  file "C:/ti/Workspace/PLC_certificate/Software/uCOS-II/Source/os_task.c",line 934,column 5,is
    2981 0000046c 8A42          MOVL      XAR4,*-SP[2]          ; [CPU_ALU] |934| 
    2982 0000046d 0648          MOVL      ACC,*-SP[8]           ; [CPU_ALU] |934| 
    2983 0000046e 1EC4          MOVL      *+XAR4[0],ACC         ; [CPU_ALU] |934| 
    2984                      .dwpsn  file "C:/ti/Workspace/PLC_certificate/Software/uCOS-II/Source/os_task.c",line 935,column 5,is
    2985 0000046f 8A42          MOVL      XAR4,*-SP[2]          ; [CPU_ALU] |935| 
    2986 00000470 064A          MOVL      ACC,*-SP[10]          ; [CPU_ALU] |935| 
    2987 00000471 0348          SUBL      ACC,*-SP[8]           ; [CPU_ALU] |935| 
    2988 00000472 1ED4          MOVL      *+XAR4[2],ACC         ; [CPU_ALU] |935| 
    2989                      .dwpsn  file "C:/ti/Workspace/PLC_certificate/Software/uCOS-II/Source/os_task.c",line 936,column 5,is
    2990 00000473 9A00          MOVB      AL,#0                 ; [CPU_ALU] |936| 
    2991 00000474       $C$L80:    
    2992                      .dwpsn  file "C:/ti/Workspace/PLC_certificate/Software/uCOS-II/Source/os_task.c",line 937,column 1,is
    2993 00000474 FE8C          SUBB      SP,#12                ; [CPU_ARAU] 
    2994                      .dwcfi  cfa_offset, -2
    2995              $C$DW$210       .dwtag  DW_TAG_TI_branch
    2996                      .dwattr $C$DW$210, DW_AT_low_pc(0x00)
    2997                      .dwattr $C$DW$210, DW_AT_TI_return
    2998              
    2999 00000475 0006          LRETR     ; [CPU_ALU] 
    3000                      ; return occurs ; [] 
    3001                      .dwattr $C$DW$195, DW_AT_TI_end_file("C:/ti/Workspace/PLC_certificate/Software/uCOS-II/Source/os_task
    3002                      .dwattr $C$DW$195, DW_AT_TI_end_line(0x3a9)
    3003                      .dwattr $C$DW$195, DW_AT_TI_end_column(0x01)
    3004                      .dwendentry
    3005                      .dwendtag $C$DW$195
    3006              
    3007 00000476               .sect   ".text"
    3008                      .clink
    3009                      .global _OSTaskSuspend
    3010              
    3011              $C$DW$211       .dwtag  DW_TAG_subprogram
    3012                      .dwattr $C$DW$211, DW_AT_name("OSTaskSuspend")
    3013                      .dwattr $C$DW$211, DW_AT_low_pc(_OSTaskSuspend)
    3014                      .dwattr $C$DW$211, DW_AT_high_pc(0x00)
    3015                      .dwattr $C$DW$211, DW_AT_TI_symbol_name("_OSTaskSuspend")
    3016                      .dwattr $C$DW$211, DW_AT_external
    3017                      .dwattr $C$DW$211, DW_AT_type(*$C$DW$T$19)
    3018                      .dwattr $C$DW$211, DW_AT_TI_begin_file("C:/ti/Workspace/PLC_certificate/Software/uCOS-II/Source/os_ta
    3019                      .dwattr $C$DW$211, DW_AT_TI_begin_line(0x3c4)
    3020                      .dwattr $C$DW$211, DW_AT_TI_begin_column(0x08)
    3021                      .dwattr $C$DW$211, DW_AT_TI_max_frame_size(-8)
TMS320C2000 Assembler PC v20.2.1 Mon Feb  8 19:02:48 2021

Copyright (c) 1996-2018 Texas Instruments Incorporated
os_task.asm                                                          PAGE   59

    3022                      .dwpsn  file "C:/ti/Workspace/PLC_certificate/Software/uCOS-II/Source/os_task.c",line 965,column 1,is
    3023              
    3024                      .dwfde $C$DW$CIE, _OSTaskSuspend
    3025              $C$DW$212       .dwtag  DW_TAG_formal_parameter
    3026                      .dwattr $C$DW$212, DW_AT_name("prio")
    3027                      .dwattr $C$DW$212, DW_AT_TI_symbol_name("_prio")
    3028                      .dwattr $C$DW$212, DW_AT_type(*$C$DW$T$19)
    3029                      .dwattr $C$DW$212, DW_AT_location[DW_OP_reg0]
    3030              
    3031              
    3032              ;***************************************************************
    3033              ;* FNAME: _OSTaskSuspend                FR SIZE:   6           *
    3034              ;*                                                             *
    3035              ;* FUNCTION ENVIRONMENT                                        *
    3036              ;*                                                             *
    3037              ;* FUNCTION PROPERTIES                                         *
    3038              ;*                            0 Parameter,  6 Auto,  0 SOE     *
    3039              ;***************************************************************
    3040              
    3041 00000476       _OSTaskSuspend:
    3042                      .dwcfi  cfa_offset, -2
    3043                      .dwcfi  save_reg_to_mem, 26, 0
    3044 00000476 FE06          ADDB      SP,#6                 ; [CPU_ARAU] 
    3045                      .dwcfi  cfa_offset, -8
    3046              $C$DW$213       .dwtag  DW_TAG_variable
    3047                      .dwattr $C$DW$213, DW_AT_name("ptcb")
    3048                      .dwattr $C$DW$213, DW_AT_TI_symbol_name("_ptcb")
    3049                      .dwattr $C$DW$213, DW_AT_type(*$C$DW$T$45)
    3050                      .dwattr $C$DW$213, DW_AT_location[DW_OP_breg20 -2]
    3051              
    3052              $C$DW$214       .dwtag  DW_TAG_variable
    3053                      .dwattr $C$DW$214, DW_AT_name("prio")
    3054                      .dwattr $C$DW$214, DW_AT_TI_symbol_name("_prio")
    3055                      .dwattr $C$DW$214, DW_AT_type(*$C$DW$T$19)
    3056                      .dwattr $C$DW$214, DW_AT_location[DW_OP_breg20 -3]
    3057              
    3058              $C$DW$215       .dwtag  DW_TAG_variable
    3059                      .dwattr $C$DW$215, DW_AT_name("self")
    3060                      .dwattr $C$DW$215, DW_AT_TI_symbol_name("_self")
    3061                      .dwattr $C$DW$215, DW_AT_type(*$C$DW$T$62)
    3062                      .dwattr $C$DW$215, DW_AT_location[DW_OP_breg20 -4]
    3063              
    3064              $C$DW$216       .dwtag  DW_TAG_variable
    3065                      .dwattr $C$DW$216, DW_AT_name("y")
    3066                      .dwattr $C$DW$216, DW_AT_TI_symbol_name("_y")
    3067                      .dwattr $C$DW$216, DW_AT_type(*$C$DW$T$19)
    3068                      .dwattr $C$DW$216, DW_AT_location[DW_OP_breg20 -5]
    3069              
    3070              $C$DW$217       .dwtag  DW_TAG_variable
    3071                      .dwattr $C$DW$217, DW_AT_name("cpu_sr")
    3072                      .dwattr $C$DW$217, DW_AT_TI_symbol_name("_cpu_sr")
    3073                      .dwattr $C$DW$217, DW_AT_type(*$C$DW$T$39)
    3074                      .dwattr $C$DW$217, DW_AT_location[DW_OP_breg20 -6]
    3075              
    3076 00000477 9643          MOV       *-SP[3],AL            ; [CPU_ALU] |965| 
TMS320C2000 Assembler PC v20.2.1 Mon Feb  8 19:02:48 2021

Copyright (c) 1996-2018 Texas Instruments Incorporated
os_task.asm                                                          PAGE   60

    3077                      .dwpsn  file "C:/ti/Workspace/PLC_certificate/Software/uCOS-II/Source/os_task.c",line 970,column 23,i
    3078 00000478 2B46          MOV       *-SP[6],#0            ; [CPU_ALU] |970| 
    3079                      .dwpsn  file "C:/ti/Workspace/PLC_certificate/Software/uCOS-II/Source/os_task.c",line 976,column 5,is
    3080 00000479 523F          CMPB      AL,#63                ; [CPU_ALU] |976| 
    3081 0000047a 6003          B         $C$L81,NEQ            ; [CPU_ALU] |976| 
    3082                      ; branchcc occurs ; [] |976| 
    3083                      .dwpsn  file "C:/ti/Workspace/PLC_certificate/Software/uCOS-II/Source/os_task.c",line 977,column 9,is
    3084 0000047b 9A47          MOVB      AL,#71                ; [CPU_ALU] |977| 
    3085 0000047c 6F67          B         $C$L90,UNC            ; [CPU_ALU] |977| 
    3086                      ; branch occurs ; [] |977| 
    3087 0000047d       $C$L81:    
    3088                      .dwpsn  file "C:/ti/Workspace/PLC_certificate/Software/uCOS-II/Source/os_task.c",line 979,column 5,is
    3089 0000047d 523F          CMPB      AL,#63                ; [CPU_ALU] |979| 
    3090 0000047e 6805          B         $C$L82,LO             ; [CPU_ALU] |979| 
    3091                      ; branchcc occurs ; [] |979| 
    3092                      .dwpsn  file "C:/ti/Workspace/PLC_certificate/Software/uCOS-II/Source/os_task.c",line 980,column 9,is
    3093 0000047f 52FF          CMPB      AL,#255               ; [CPU_ALU] |980| 
    3094 00000480 6103          B         $C$L82,EQ             ; [CPU_ALU] |980| 
    3095                      ; branchcc occurs ; [] |980| 
    3096                      .dwpsn  file "C:/ti/Workspace/PLC_certificate/Software/uCOS-II/Source/os_task.c",line 981,column 13,i
    3097 00000481 9A2A          MOVB      AL,#42                ; [CPU_ALU] |981| 
    3098 00000482 6F61          B         $C$L90,UNC            ; [CPU_ALU] |981| 
    3099                      ; branch occurs ; [] |981| 
    3100 00000483       $C$L82:    
    3101                      .dwpsn  file "C:/ti/Workspace/PLC_certificate/Software/uCOS-II/Source/os_task.c",line 985,column 5,is
    3102              $C$DW$218       .dwtag  DW_TAG_TI_branch
    3103                      .dwattr $C$DW$218, DW_AT_low_pc(0x00)
    3104                      .dwattr $C$DW$218, DW_AT_name("_OS_CPU_SR_Save")
    3105                      .dwattr $C$DW$218, DW_AT_TI_call
    3106              
    3107 00000483 7640!         LCR       #_OS_CPU_SR_Save      ; [CPU_ALU] |985| 
         00000484 0000 
    3108                      ; call occurs [#_OS_CPU_SR_Save] ; [] |985| 
    3109 00000485 9646          MOV       *-SP[6],AL            ; [CPU_ALU] |985| 
    3110                      .dwpsn  file "C:/ti/Workspace/PLC_certificate/Software/uCOS-II/Source/os_task.c",line 986,column 5,is
    3111 00000486 9243          MOV       AL,*-SP[3]            ; [CPU_ALU] |986| 
    3112 00000487 52FF          CMPB      AL,#255               ; [CPU_ALU] |986| 
    3113 00000488 600B          B         $C$L83,NEQ            ; [CPU_ALU] |986| 
    3114                      ; branchcc occurs ; [] |986| 
    3115                      .dwpsn  file "C:/ti/Workspace/PLC_certificate/Software/uCOS-II/Source/os_task.c",line 987,column 9,is
    3116 00000489 021C          MOVB      ACC,#28               ; [CPU_ALU] |987| 
    3117 0000048a 761F!         MOVW      DP,#_OSTCBCur         ; [CPU_ARAU] 
         0000048b 0000 
    3118 0000048c 0700!         ADDL      ACC,@_OSTCBCur        ; [CPU_ALU] |987| 
    3119 0000048d 1EA7          MOVL      XAR7,ACC              ; [CPU_ALU] |987| 
    3120 0000048e 92C7          MOV       AL,*+XAR7[0]          ; [CPU_ALU] |987| 
    3121 0000048f 9643          MOV       *-SP[3],AL            ; [CPU_ALU] |987| 
    3122                      .dwpsn  file "C:/ti/Workspace/PLC_certificate/Software/uCOS-II/Source/os_task.c",line 988,column 9,is
    3123 00000490 56BF          MOVB      *-SP[4],#1,UNC        ; [CPU_ALU] |988| 
         00000491 0144 
    3124 00000492 6F0E          B         $C$L85,UNC            ; [CPU_ALU] 
    3125                      ; branch occurs ; [] 
    3126 00000493       $C$L83:    
    3127                      .dwpsn  file "C:/ti/Workspace/PLC_certificate/Software/uCOS-II/Source/os_task.c",line 989,column 12,i
    3128 00000493 021C          MOVB      ACC,#28               ; [CPU_ALU] |989| 
TMS320C2000 Assembler PC v20.2.1 Mon Feb  8 19:02:48 2021

Copyright (c) 1996-2018 Texas Instruments Incorporated
os_task.asm                                                          PAGE   61

    3129 00000494 761F!         MOVW      DP,#_OSTCBCur         ; [CPU_ARAU] 
         00000495 0000 
    3130 00000496 0700!         ADDL      ACC,@_OSTCBCur        ; [CPU_ALU] |989| 
    3131 00000497 8AA9          MOVL      XAR4,ACC              ; [CPU_ALU] |989| 
    3132 00000498 8843          MOVZ      AR6,*-SP[3]           ; [CPU_ALU] |989| 
    3133 00000499 0EC4          MOVU      ACC,*+XAR4[0]         ; [CPU_ALU] |989| 
    3134 0000049a 0FA6          CMPL      ACC,XAR6              ; [CPU_ALU] |989| 
    3135 0000049b 6004          B         $C$L84,NEQ            ; [CPU_ALU] |989| 
    3136                      ; branchcc occurs ; [] |989| 
    3137                      .dwpsn  file "C:/ti/Workspace/PLC_certificate/Software/uCOS-II/Source/os_task.c",line 990,column 9,is
    3138 0000049c 56BF          MOVB      *-SP[4],#1,UNC        ; [CPU_ALU] |990| 
         0000049d 0144 
    3139 0000049e 6F02          B         $C$L85,UNC            ; [CPU_ALU] 
    3140                      ; branch occurs ; [] 
    3141 0000049f       $C$L84:    
    3142                      .dwpsn  file "C:/ti/Workspace/PLC_certificate/Software/uCOS-II/Source/os_task.c",line 992,column 9,is
    3143 0000049f 2B44          MOV       *-SP[4],#0            ; [CPU_ALU] |992| 
    3144 000004a0       $C$L85:    
    3145                      .dwpsn  file "C:/ti/Workspace/PLC_certificate/Software/uCOS-II/Source/os_task.c",line 994,column 5,is
    3146 000004a0 2901          CLRC      SXM                   ; [CPU_ALU] 
    3147 000004a1 8F00!         MOVL      XAR4,#_OSTCBPrioTbl   ; [CPU_ARAU] |994| 
         000004a2 0000 
    3148 000004a3 5603          MOV       ACC,*-SP[3] << 1      ; [CPU_ALU] |994| 
         000004a4 0143 
    3149 000004a5 5601          ADDL      XAR4,ACC              ; [CPU_ALU] |994| 
         000004a6 00A4 
    3150 000004a7 06C4          MOVL      ACC,*+XAR4[0]         ; [CPU_ALU] |994| 
    3151 000004a8 1E42          MOVL      *-SP[2],ACC           ; [CPU_ALU] |994| 
    3152                      .dwpsn  file "C:/ti/Workspace/PLC_certificate/Software/uCOS-II/Source/os_task.c",line 995,column 5,is
    3153 000004a9 0642          MOVL      ACC,*-SP[2]           ; [CPU_ALU] |995| 
    3154 000004aa 6006          B         $C$L86,NEQ            ; [CPU_ALU] |995| 
    3155                      ; branchcc occurs ; [] |995| 
    3156                      .dwpsn  file "C:/ti/Workspace/PLC_certificate/Software/uCOS-II/Source/os_task.c",line 996,column 9,is
    3157 000004ab 9246          MOV       AL,*-SP[6]            ; [CPU_ALU] |996| 
    3158              $C$DW$219       .dwtag  DW_TAG_TI_branch
    3159                      .dwattr $C$DW$219, DW_AT_low_pc(0x00)
    3160                      .dwattr $C$DW$219, DW_AT_name("_OS_CPU_SR_Restore")
    3161                      .dwattr $C$DW$219, DW_AT_TI_call
    3162              
    3163 000004ac 7640!         LCR       #_OS_CPU_SR_Restore   ; [CPU_ALU] |996| 
         000004ad 0000 
    3164                      ; call occurs [#_OS_CPU_SR_Restore] ; [] |996| 
    3165                      .dwpsn  file "C:/ti/Workspace/PLC_certificate/Software/uCOS-II/Source/os_task.c",line 997,column 9,is
    3166 000004ae 9A48          MOVB      AL,#72                ; [CPU_ALU] |997| 
    3167 000004af 6F34          B         $C$L90,UNC            ; [CPU_ALU] |997| 
    3168                      ; branch occurs ; [] |997| 
    3169 000004b0       $C$L86:    
    3170                      .dwpsn  file "C:/ti/Workspace/PLC_certificate/Software/uCOS-II/Source/os_task.c",line 999,column 5,is
    3171 000004b0 0201          MOVB      ACC,#1                ; [CPU_ALU] |999| 
    3172 000004b1 0F42          CMPL      ACC,*-SP[2]           ; [CPU_ALU] |999| 
    3173 000004b2 6006          B         $C$L87,NEQ            ; [CPU_ALU] |999| 
    3174                      ; branchcc occurs ; [] |999| 
    3175                      .dwpsn  file "C:/ti/Workspace/PLC_certificate/Software/uCOS-II/Source/os_task.c",line 1000,column 9,i
    3176 000004b3 9246          MOV       AL,*-SP[6]            ; [CPU_ALU] |1000| 
    3177              $C$DW$220       .dwtag  DW_TAG_TI_branch
TMS320C2000 Assembler PC v20.2.1 Mon Feb  8 19:02:48 2021

Copyright (c) 1996-2018 Texas Instruments Incorporated
os_task.asm                                                          PAGE   62

    3178                      .dwattr $C$DW$220, DW_AT_low_pc(0x00)
    3179                      .dwattr $C$DW$220, DW_AT_name("_OS_CPU_SR_Restore")
    3180                      .dwattr $C$DW$220, DW_AT_TI_call
    3181              
    3182 000004b4 7640!         LCR       #_OS_CPU_SR_Restore   ; [CPU_ALU] |1000| 
         000004b5 0000 
    3183                      ; call occurs [#_OS_CPU_SR_Restore] ; [] |1000| 
    3184                      .dwpsn  file "C:/ti/Workspace/PLC_certificate/Software/uCOS-II/Source/os_task.c",line 1001,column 9,i
    3185 000004b6 9A43          MOVB      AL,#67                ; [CPU_ALU] |1001| 
    3186 000004b7 6F2C          B         $C$L90,UNC            ; [CPU_ALU] |1001| 
    3187                      ; branch occurs ; [] |1001| 
    3188 000004b8       $C$L87:    
    3189                      .dwpsn  file "C:/ti/Workspace/PLC_certificate/Software/uCOS-II/Source/os_task.c",line 1003,column 5,i
    3190 000004b8 021E          MOVB      ACC,#30               ; [CPU_ALU] |1003| 
    3191 000004b9 0742          ADDL      ACC,*-SP[2]           ; [CPU_ALU] |1003| 
    3192 000004ba 1EA7          MOVL      XAR7,ACC              ; [CPU_ALU] |1003| 
    3193 000004bb 92C7          MOV       AL,*+XAR7[0]          ; [CPU_ALU] |1003| 
    3194 000004bc 9645          MOV       *-SP[5],AL            ; [CPU_ALU] |1003| 
    3195                      .dwpsn  file "C:/ti/Workspace/PLC_certificate/Software/uCOS-II/Source/os_task.c",line 1004,column 5,i
    3196 000004bd 8F00!         MOVL      XAR4,#_OSRdyTbl       ; [CPU_ARAU] |1004| 
         000004be 0000 
    3197 000004bf A8A9          MOVL      ACC,XAR4              ; [CPU_ALU] |1004| 
    3198 000004c0 0D45          ADDU      ACC,*-SP[5]           ; [CPU_ALU] |1004| 
    3199 000004c1 83A9          MOVL      XAR5,ACC              ; [CPU_ALU] |1004| 
    3200 000004c2 021F          MOVB      ACC,#31               ; [CPU_ALU] |1004| 
    3201 000004c3 0742          ADDL      ACC,*-SP[2]           ; [CPU_ALU] |1004| 
    3202 000004c4 8AA9          MOVL      XAR4,ACC              ; [CPU_ALU] |1004| 
    3203 000004c5 92C4          MOV       AL,*+XAR4[0]          ; [CPU_ALU] |1004| 
    3204 000004c6 FF5E          NOT       AL                    ; [CPU_ALU] |1004| 
    3205 000004c7 C0C5          AND       *+XAR5[0],AL          ; [CPU_ALU] |1004| 
    3206                      .dwpsn  file "C:/ti/Workspace/PLC_certificate/Software/uCOS-II/Source/os_task.c",line 1005,column 5,i
    3207 000004c8 5845          MOVZ      AR0,*-SP[5]           ; [CPU_ALU] |1005| 
    3208 000004c9 8F00!         MOVL      XAR4,#_OSRdyTbl       ; [CPU_ARAU] |1005| 
         000004ca 0000 
    3209 000004cb 9294          MOV       AL,*+XAR4[AR0]        ; [CPU_ALU] |1005| 
    3210 000004cc 6009          B         $C$L88,NEQ            ; [CPU_ALU] |1005| 
    3211                      ; branchcc occurs ; [] |1005| 
    3212                      .dwpsn  file "C:/ti/Workspace/PLC_certificate/Software/uCOS-II/Source/os_task.c",line 1006,column 9,i
    3213 000004cd 0220          MOVB      ACC,#32               ; [CPU_ALU] |1006| 
    3214 000004ce 0742          ADDL      ACC,*-SP[2]           ; [CPU_ALU] |1006| 
    3215 000004cf 8AA9          MOVL      XAR4,ACC              ; [CPU_ALU] |1006| 
    3216 000004d0 761F!         MOVW      DP,#_OSRdyGrp         ; [CPU_ARAU] 
         000004d1 0000 
    3217 000004d2 92C4          MOV       AL,*+XAR4[0]          ; [CPU_ALU] |1006| 
    3218 000004d3 FF5E          NOT       AL                    ; [CPU_ALU] |1006| 
    3219 000004d4 C000!         AND       @_OSRdyGrp,AL         ; [CPU_ALU] |1006| 
    3220 000004d5       $C$L88:    
    3221                      .dwpsn  file "C:/ti/Workspace/PLC_certificate/Software/uCOS-II/Source/os_task.c",line 1008,column 5,i
    3222 000004d5 021A          MOVB      ACC,#26               ; [CPU_ALU] |1008| 
    3223 000004d6 0742          ADDL      ACC,*-SP[2]           ; [CPU_ALU] |1008| 
    3224 000004d7 8AA9          MOVL      XAR4,ACC              ; [CPU_ALU] |1008| 
    3225 000004d8 1AC4          OR        *+XAR4[0],#0x0008     ; [CPU_ALU] |1008| 
         000004d9 0008 
    3226                      .dwpsn  file "C:/ti/Workspace/PLC_certificate/Software/uCOS-II/Source/os_task.c",line 1009,column 5,i
    3227 000004da 9246          MOV       AL,*-SP[6]            ; [CPU_ALU] |1009| 
TMS320C2000 Assembler PC v20.2.1 Mon Feb  8 19:02:48 2021

Copyright (c) 1996-2018 Texas Instruments Incorporated
os_task.asm                                                          PAGE   63

    3228              $C$DW$221       .dwtag  DW_TAG_TI_branch
    3229                      .dwattr $C$DW$221, DW_AT_low_pc(0x00)
    3230                      .dwattr $C$DW$221, DW_AT_name("_OS_CPU_SR_Restore")
    3231                      .dwattr $C$DW$221, DW_AT_TI_call
    3232              
    3233 000004db 7640!         LCR       #_OS_CPU_SR_Restore   ; [CPU_ALU] |1009| 
         000004dc 0000 
    3234                      ; call occurs [#_OS_CPU_SR_Restore] ; [] |1009| 
    3235                      .dwpsn  file "C:/ti/Workspace/PLC_certificate/Software/uCOS-II/Source/os_task.c",line 1010,column 5,i
    3236 000004dd 9244          MOV       AL,*-SP[4]            ; [CPU_ALU] |1010| 
    3237 000004de 5201          CMPB      AL,#1                 ; [CPU_ALU] |1010| 
    3238 000004df 6003          B         $C$L89,NEQ            ; [CPU_ALU] |1010| 
    3239                      ; branchcc occurs ; [] |1010| 
    3240                      .dwpsn  file "C:/ti/Workspace/PLC_certificate/Software/uCOS-II/Source/os_task.c",line 1011,column 9,i
    3241              $C$DW$222       .dwtag  DW_TAG_TI_branch
    3242                      .dwattr $C$DW$222, DW_AT_low_pc(0x00)
    3243                      .dwattr $C$DW$222, DW_AT_name("_OS_Sched")
    3244                      .dwattr $C$DW$222, DW_AT_TI_call
    3245              
    3246 000004e0 7640!         LCR       #_OS_Sched            ; [CPU_ALU] |1011| 
         000004e1 0000 
    3247                      ; call occurs [#_OS_Sched] ; [] |1011| 
    3248 000004e2       $C$L89:    
    3249                      .dwpsn  file "C:/ti/Workspace/PLC_certificate/Software/uCOS-II/Source/os_task.c",line 1013,column 5,i
    3250 000004e2 9A00          MOVB      AL,#0                 ; [CPU_ALU] |1013| 
    3251 000004e3       $C$L90:    
    3252                      .dwpsn  file "C:/ti/Workspace/PLC_certificate/Software/uCOS-II/Source/os_task.c",line 1014,column 1,i
    3253 000004e3 FE86          SUBB      SP,#6                 ; [CPU_ARAU] 
    3254                      .dwcfi  cfa_offset, -2
    3255              $C$DW$223       .dwtag  DW_TAG_TI_branch
    3256                      .dwattr $C$DW$223, DW_AT_low_pc(0x00)
    3257                      .dwattr $C$DW$223, DW_AT_TI_return
    3258              
    3259 000004e4 0006          LRETR     ; [CPU_ALU] 
    3260                      ; return occurs ; [] 
    3261                      .dwattr $C$DW$211, DW_AT_TI_end_file("C:/ti/Workspace/PLC_certificate/Software/uCOS-II/Source/os_task
    3262                      .dwattr $C$DW$211, DW_AT_TI_end_line(0x3f6)
    3263                      .dwattr $C$DW$211, DW_AT_TI_end_column(0x01)
    3264                      .dwendentry
    3265                      .dwendtag $C$DW$211
    3266              
    3267 000004e5               .sect   ".text"
    3268                      .clink
    3269                      .global _OSTaskQuery
    3270              
    3271              $C$DW$224       .dwtag  DW_TAG_subprogram
    3272                      .dwattr $C$DW$224, DW_AT_name("OSTaskQuery")
    3273                      .dwattr $C$DW$224, DW_AT_low_pc(_OSTaskQuery)
    3274                      .dwattr $C$DW$224, DW_AT_high_pc(0x00)
    3275                      .dwattr $C$DW$224, DW_AT_TI_symbol_name("_OSTaskQuery")
    3276                      .dwattr $C$DW$224, DW_AT_external
    3277                      .dwattr $C$DW$224, DW_AT_type(*$C$DW$T$19)
    3278                      .dwattr $C$DW$224, DW_AT_TI_begin_file("C:/ti/Workspace/PLC_certificate/Software/uCOS-II/Source/os_ta
    3279                      .dwattr $C$DW$224, DW_AT_TI_begin_line(0x40d)
    3280                      .dwattr $C$DW$224, DW_AT_TI_begin_column(0x08)
TMS320C2000 Assembler PC v20.2.1 Mon Feb  8 19:02:48 2021

Copyright (c) 1996-2018 Texas Instruments Incorporated
os_task.asm                                                          PAGE   64

    3281                      .dwattr $C$DW$224, DW_AT_TI_max_frame_size(-8)
    3282                      .dwpsn  file "C:/ti/Workspace/PLC_certificate/Software/uCOS-II/Source/os_task.c",line 1039,column 1,i
    3283              
    3284                      .dwfde $C$DW$CIE, _OSTaskQuery
    3285              $C$DW$225       .dwtag  DW_TAG_formal_parameter
    3286                      .dwattr $C$DW$225, DW_AT_name("prio")
    3287                      .dwattr $C$DW$225, DW_AT_TI_symbol_name("_prio")
    3288                      .dwattr $C$DW$225, DW_AT_type(*$C$DW$T$19)
    3289                      .dwattr $C$DW$225, DW_AT_location[DW_OP_reg0]
    3290              
    3291              $C$DW$226       .dwtag  DW_TAG_formal_parameter
    3292                      .dwattr $C$DW$226, DW_AT_name("p_task_data")
    3293                      .dwattr $C$DW$226, DW_AT_TI_symbol_name("_p_task_data")
    3294                      .dwattr $C$DW$226, DW_AT_type(*$C$DW$T$45)
    3295                      .dwattr $C$DW$226, DW_AT_location[DW_OP_reg12]
    3296              
    3297              
    3298              ;***************************************************************
    3299              ;* FNAME: _OSTaskQuery                  FR SIZE:   6           *
    3300              ;*                                                             *
    3301              ;* FUNCTION ENVIRONMENT                                        *
    3302              ;*                                                             *
    3303              ;* FUNCTION PROPERTIES                                         *
    3304              ;*                            0 Parameter,  6 Auto,  0 SOE     *
    3305              ;***************************************************************
    3306              
    3307 000004e5       _OSTaskQuery:
    3308                      .dwcfi  cfa_offset, -2
    3309                      .dwcfi  save_reg_to_mem, 26, 0
    3310 000004e5 FE06          ADDB      SP,#6                 ; [CPU_ARAU] 
    3311                      .dwcfi  cfa_offset, -8
    3312              $C$DW$227       .dwtag  DW_TAG_variable
    3313                      .dwattr $C$DW$227, DW_AT_name("p_task_data")
    3314                      .dwattr $C$DW$227, DW_AT_TI_symbol_name("_p_task_data")
    3315                      .dwattr $C$DW$227, DW_AT_type(*$C$DW$T$45)
    3316                      .dwattr $C$DW$227, DW_AT_location[DW_OP_breg20 -2]
    3317              
    3318              $C$DW$228       .dwtag  DW_TAG_variable
    3319                      .dwattr $C$DW$228, DW_AT_name("ptcb")
    3320                      .dwattr $C$DW$228, DW_AT_TI_symbol_name("_ptcb")
    3321                      .dwattr $C$DW$228, DW_AT_type(*$C$DW$T$45)
    3322                      .dwattr $C$DW$228, DW_AT_location[DW_OP_breg20 -4]
    3323              
    3324              $C$DW$229       .dwtag  DW_TAG_variable
    3325                      .dwattr $C$DW$229, DW_AT_name("prio")
    3326                      .dwattr $C$DW$229, DW_AT_TI_symbol_name("_prio")
    3327                      .dwattr $C$DW$229, DW_AT_type(*$C$DW$T$19)
    3328                      .dwattr $C$DW$229, DW_AT_location[DW_OP_breg20 -5]
    3329              
    3330              $C$DW$230       .dwtag  DW_TAG_variable
    3331                      .dwattr $C$DW$230, DW_AT_name("cpu_sr")
    3332                      .dwattr $C$DW$230, DW_AT_TI_symbol_name("_cpu_sr")
    3333                      .dwattr $C$DW$230, DW_AT_type(*$C$DW$T$39)
    3334                      .dwattr $C$DW$230, DW_AT_location[DW_OP_breg20 -6]
    3335              
TMS320C2000 Assembler PC v20.2.1 Mon Feb  8 19:02:48 2021

Copyright (c) 1996-2018 Texas Instruments Incorporated
os_task.asm                                                          PAGE   65

    3336 000004e6 A842          MOVL      *-SP[2],XAR4          ; [CPU_ALU] |1039| 
    3337 000004e7 9645          MOV       *-SP[5],AL            ; [CPU_ALU] |1039| 
    3338                      .dwpsn  file "C:/ti/Workspace/PLC_certificate/Software/uCOS-II/Source/os_task.c",line 1042,column 23,
    3339 000004e8 2B46          MOV       *-SP[6],#0            ; [CPU_ALU] |1042| 
    3340                      .dwpsn  file "C:/ti/Workspace/PLC_certificate/Software/uCOS-II/Source/os_task.c",line 1048,column 5,i
    3341 000004e9 523F          CMPB      AL,#63                ; [CPU_ALU] |1048| 
    3342 000004ea 6905          B         $C$L91,LOS            ; [CPU_ALU] |1048| 
    3343                      ; branchcc occurs ; [] |1048| 
    3344                      .dwpsn  file "C:/ti/Workspace/PLC_certificate/Software/uCOS-II/Source/os_task.c",line 1049,column 9,i
    3345 000004eb 52FF          CMPB      AL,#255               ; [CPU_ALU] |1049| 
    3346 000004ec 6103          B         $C$L91,EQ             ; [CPU_ALU] |1049| 
    3347                      ; branchcc occurs ; [] |1049| 
    3348                      .dwpsn  file "C:/ti/Workspace/PLC_certificate/Software/uCOS-II/Source/os_task.c",line 1050,column 13,
    3349 000004ed 9A2A          MOVB      AL,#42                ; [CPU_ALU] |1050| 
    3350 000004ee 6F33          B         $C$L96,UNC            ; [CPU_ALU] |1050| 
    3351                      ; branch occurs ; [] |1050| 
    3352 000004ef       $C$L91:    
    3353                      .dwpsn  file "C:/ti/Workspace/PLC_certificate/Software/uCOS-II/Source/os_task.c",line 1053,column 5,i
    3354 000004ef 0642          MOVL      ACC,*-SP[2]           ; [CPU_ALU] |1053| 
    3355 000004f0 6003          B         $C$L92,NEQ            ; [CPU_ALU] |1053| 
    3356                      ; branchcc occurs ; [] |1053| 
    3357                      .dwpsn  file "C:/ti/Workspace/PLC_certificate/Software/uCOS-II/Source/os_task.c",line 1054,column 9,i
    3358 000004f1 9A09          MOVB      AL,#9                 ; [CPU_ALU] |1054| 
    3359 000004f2 6F2F          B         $C$L96,UNC            ; [CPU_ALU] |1054| 
    3360                      ; branch occurs ; [] |1054| 
    3361 000004f3       $C$L92:    
    3362                      .dwpsn  file "C:/ti/Workspace/PLC_certificate/Software/uCOS-II/Source/os_task.c",line 1057,column 5,i
    3363              $C$DW$231       .dwtag  DW_TAG_TI_branch
    3364                      .dwattr $C$DW$231, DW_AT_low_pc(0x00)
    3365                      .dwattr $C$DW$231, DW_AT_name("_OS_CPU_SR_Save")
    3366                      .dwattr $C$DW$231, DW_AT_TI_call
    3367              
    3368 000004f3 7640!         LCR       #_OS_CPU_SR_Save      ; [CPU_ALU] |1057| 
         000004f4 0000 
    3369                      ; call occurs [#_OS_CPU_SR_Save] ; [] |1057| 
    3370 000004f5 9646          MOV       *-SP[6],AL            ; [CPU_ALU] |1057| 
    3371                      .dwpsn  file "C:/ti/Workspace/PLC_certificate/Software/uCOS-II/Source/os_task.c",line 1058,column 5,i
    3372 000004f6 9245          MOV       AL,*-SP[5]            ; [CPU_ALU] |1058| 
    3373 000004f7 52FF          CMPB      AL,#255               ; [CPU_ALU] |1058| 
    3374 000004f8 6008          B         $C$L93,NEQ            ; [CPU_ALU] |1058| 
    3375                      ; branchcc occurs ; [] |1058| 
    3376                      .dwpsn  file "C:/ti/Workspace/PLC_certificate/Software/uCOS-II/Source/os_task.c",line 1059,column 9,i
    3377 000004f9 021C          MOVB      ACC,#28               ; [CPU_ALU] |1059| 
    3378 000004fa 761F!         MOVW      DP,#_OSTCBCur         ; [CPU_ARAU] 
         000004fb 0000 
    3379 000004fc 0700!         ADDL      ACC,@_OSTCBCur        ; [CPU_ALU] |1059| 
    3380 000004fd 1EA7          MOVL      XAR7,ACC              ; [CPU_ALU] |1059| 
    3381 000004fe 92C7          MOV       AL,*+XAR7[0]          ; [CPU_ALU] |1059| 
    3382 000004ff 9645          MOV       *-SP[5],AL            ; [CPU_ALU] |1059| 
    3383 00000500       $C$L93:    
    3384                      .dwpsn  file "C:/ti/Workspace/PLC_certificate/Software/uCOS-II/Source/os_task.c",line 1061,column 5,i
    3385 00000500 2901          CLRC      SXM                   ; [CPU_ALU] 
    3386 00000501 8F00!         MOVL      XAR4,#_OSTCBPrioTbl   ; [CPU_ARAU] |1061| 
         00000502 0000 
    3387 00000503 5603          MOV       ACC,*-SP[5] << 1      ; [CPU_ALU] |1061| 
TMS320C2000 Assembler PC v20.2.1 Mon Feb  8 19:02:48 2021

Copyright (c) 1996-2018 Texas Instruments Incorporated
os_task.asm                                                          PAGE   66

         00000504 0145 
    3388 00000505 5601          ADDL      XAR4,ACC              ; [CPU_ALU] |1061| 
         00000506 00A4 
    3389 00000507 06C4          MOVL      ACC,*+XAR4[0]         ; [CPU_ALU] |1061| 
    3390 00000508 1E44          MOVL      *-SP[4],ACC           ; [CPU_ALU] |1061| 
    3391                      .dwpsn  file "C:/ti/Workspace/PLC_certificate/Software/uCOS-II/Source/os_task.c",line 1062,column 5,i
    3392 00000509 0644          MOVL      ACC,*-SP[4]           ; [CPU_ALU] |1062| 
    3393 0000050a 6006          B         $C$L94,NEQ            ; [CPU_ALU] |1062| 
    3394                      ; branchcc occurs ; [] |1062| 
    3395                      .dwpsn  file "C:/ti/Workspace/PLC_certificate/Software/uCOS-II/Source/os_task.c",line 1063,column 9,i
    3396 0000050b 9246          MOV       AL,*-SP[6]            ; [CPU_ALU] |1063| 
    3397              $C$DW$232       .dwtag  DW_TAG_TI_branch
    3398                      .dwattr $C$DW$232, DW_AT_low_pc(0x00)
    3399                      .dwattr $C$DW$232, DW_AT_name("_OS_CPU_SR_Restore")
    3400                      .dwattr $C$DW$232, DW_AT_TI_call
    3401              
    3402 0000050c 7640!         LCR       #_OS_CPU_SR_Restore   ; [CPU_ALU] |1063| 
         0000050d 0000 
    3403                      ; call occurs [#_OS_CPU_SR_Restore] ; [] |1063| 
    3404                      .dwpsn  file "C:/ti/Workspace/PLC_certificate/Software/uCOS-II/Source/os_task.c",line 1064,column 9,i
    3405 0000050e 9A29          MOVB      AL,#41                ; [CPU_ALU] |1064| 
    3406 0000050f 6F12          B         $C$L96,UNC            ; [CPU_ALU] |1064| 
    3407                      ; branch occurs ; [] |1064| 
    3408 00000510       $C$L94:    
    3409                      .dwpsn  file "C:/ti/Workspace/PLC_certificate/Software/uCOS-II/Source/os_task.c",line 1066,column 5,i
    3410 00000510 0201          MOVB      ACC,#1                ; [CPU_ALU] |1066| 
    3411 00000511 0F44          CMPL      ACC,*-SP[4]           ; [CPU_ALU] |1066| 
    3412 00000512 6006          B         $C$L95,NEQ            ; [CPU_ALU] |1066| 
    3413                      ; branchcc occurs ; [] |1066| 
    3414                      .dwpsn  file "C:/ti/Workspace/PLC_certificate/Software/uCOS-II/Source/os_task.c",line 1067,column 9,i
    3415 00000513 9246          MOV       AL,*-SP[6]            ; [CPU_ALU] |1067| 
    3416              $C$DW$233       .dwtag  DW_TAG_TI_branch
    3417                      .dwattr $C$DW$233, DW_AT_low_pc(0x00)
    3418                      .dwattr $C$DW$233, DW_AT_name("_OS_CPU_SR_Restore")
    3419                      .dwattr $C$DW$233, DW_AT_TI_call
    3420              
    3421 00000514 7640!         LCR       #_OS_CPU_SR_Restore   ; [CPU_ALU] |1067| 
         00000515 0000 
    3422                      ; call occurs [#_OS_CPU_SR_Restore] ; [] |1067| 
    3423                      .dwpsn  file "C:/ti/Workspace/PLC_certificate/Software/uCOS-II/Source/os_task.c",line 1068,column 9,i
    3424 00000516 9A43          MOVB      AL,#67                ; [CPU_ALU] |1068| 
    3425 00000517 6F0A          B         $C$L96,UNC            ; [CPU_ALU] |1068| 
    3426                      ; branch occurs ; [] |1068| 
    3427 00000518       $C$L95:    
    3428                      .dwpsn  file "C:/ti/Workspace/PLC_certificate/Software/uCOS-II/Source/os_task.c",line 1071,column 5,i
    3429 00000518 8A42          MOVL      XAR4,*-SP[2]          ; [CPU_ALU] |1071| 
    3430 00000519 8344          MOVL      XAR5,*-SP[4]          ; [CPU_ALU] |1071| 
    3431 0000051a 9A30          MOVB      AL,#48                ; [CPU_ALU] |1071| 
    3432              $C$DW$234       .dwtag  DW_TAG_TI_branch
    3433                      .dwattr $C$DW$234, DW_AT_low_pc(0x00)
    3434                      .dwattr $C$DW$234, DW_AT_name("_OS_MemCopy")
    3435                      .dwattr $C$DW$234, DW_AT_TI_call
    3436              
    3437 0000051b 7640!         LCR       #_OS_MemCopy          ; [CPU_ALU] |1071| 
         0000051c 0000 
TMS320C2000 Assembler PC v20.2.1 Mon Feb  8 19:02:48 2021

Copyright (c) 1996-2018 Texas Instruments Incorporated
os_task.asm                                                          PAGE   67

    3438                      ; call occurs [#_OS_MemCopy] ; [] |1071| 
    3439                      .dwpsn  file "C:/ti/Workspace/PLC_certificate/Software/uCOS-II/Source/os_task.c",line 1072,column 5,i
    3440 0000051d 9246          MOV       AL,*-SP[6]            ; [CPU_ALU] |1072| 
    3441              $C$DW$235       .dwtag  DW_TAG_TI_branch
    3442                      .dwattr $C$DW$235, DW_AT_low_pc(0x00)
    3443                      .dwattr $C$DW$235, DW_AT_name("_OS_CPU_SR_Restore")
    3444                      .dwattr $C$DW$235, DW_AT_TI_call
    3445              
    3446 0000051e 7640!         LCR       #_OS_CPU_SR_Restore   ; [CPU_ALU] |1072| 
         0000051f 0000 
    3447                      ; call occurs [#_OS_CPU_SR_Restore] ; [] |1072| 
    3448                      .dwpsn  file "C:/ti/Workspace/PLC_certificate/Software/uCOS-II/Source/os_task.c",line 1073,column 5,i
    3449 00000520 9A00          MOVB      AL,#0                 ; [CPU_ALU] |1073| 
    3450 00000521       $C$L96:    
    3451                      .dwpsn  file "C:/ti/Workspace/PLC_certificate/Software/uCOS-II/Source/os_task.c",line 1074,column 1,i
    3452 00000521 FE86          SUBB      SP,#6                 ; [CPU_ARAU] 
    3453                      .dwcfi  cfa_offset, -2
    3454              $C$DW$236       .dwtag  DW_TAG_TI_branch
    3455                      .dwattr $C$DW$236, DW_AT_low_pc(0x00)
    3456                      .dwattr $C$DW$236, DW_AT_TI_return
    3457              
    3458 00000522 0006          LRETR     ; [CPU_ALU] 
    3459                      ; return occurs ; [] 
    3460                      .dwattr $C$DW$224, DW_AT_TI_end_file("C:/ti/Workspace/PLC_certificate/Software/uCOS-II/Source/os_task
    3461                      .dwattr $C$DW$224, DW_AT_TI_end_line(0x432)
    3462                      .dwattr $C$DW$224, DW_AT_TI_end_column(0x01)
    3463                      .dwendentry
    3464                      .dwendtag $C$DW$224
    3465              
    3466 00000523               .sect   ".text"
    3467                      .clink
    3468                      .global _OSTaskRegGet
    3469              
    3470              $C$DW$237       .dwtag  DW_TAG_subprogram
    3471                      .dwattr $C$DW$237, DW_AT_name("OSTaskRegGet")
    3472                      .dwattr $C$DW$237, DW_AT_low_pc(_OSTaskRegGet)
    3473                      .dwattr $C$DW$237, DW_AT_high_pc(0x00)
    3474                      .dwattr $C$DW$237, DW_AT_TI_symbol_name("_OSTaskRegGet")
    3475                      .dwattr $C$DW$237, DW_AT_external
    3476                      .dwattr $C$DW$237, DW_AT_type(*$C$DW$T$27)
    3477                      .dwattr $C$DW$237, DW_AT_TI_begin_file("C:/ti/Workspace/PLC_certificate/Software/uCOS-II/Source/os_ta
    3478                      .dwattr $C$DW$237, DW_AT_TI_begin_line(0x450)
    3479                      .dwattr $C$DW$237, DW_AT_TI_begin_column(0x09)
    3480                      .dwattr $C$DW$237, DW_AT_TI_max_frame_size(-12)
    3481                      .dwpsn  file "C:/ti/Workspace/PLC_certificate/Software/uCOS-II/Source/os_task.c",line 1107,column 1,i
    3482              
    3483                      .dwfde $C$DW$CIE, _OSTaskRegGet
    3484              $C$DW$238       .dwtag  DW_TAG_formal_parameter
    3485                      .dwattr $C$DW$238, DW_AT_name("prio")
    3486                      .dwattr $C$DW$238, DW_AT_TI_symbol_name("_prio")
    3487                      .dwattr $C$DW$238, DW_AT_type(*$C$DW$T$19)
    3488                      .dwattr $C$DW$238, DW_AT_location[DW_OP_reg0]
    3489              
    3490              $C$DW$239       .dwtag  DW_TAG_formal_parameter
    3491                      .dwattr $C$DW$239, DW_AT_name("id")
TMS320C2000 Assembler PC v20.2.1 Mon Feb  8 19:02:48 2021

Copyright (c) 1996-2018 Texas Instruments Incorporated
os_task.asm                                                          PAGE   68

    3492                      .dwattr $C$DW$239, DW_AT_TI_symbol_name("_id")
    3493                      .dwattr $C$DW$239, DW_AT_type(*$C$DW$T$19)
    3494                      .dwattr $C$DW$239, DW_AT_location[DW_OP_reg1]
    3495              
    3496              $C$DW$240       .dwtag  DW_TAG_formal_parameter
    3497                      .dwattr $C$DW$240, DW_AT_name("perr")
    3498                      .dwattr $C$DW$240, DW_AT_TI_symbol_name("_perr")
    3499                      .dwattr $C$DW$240, DW_AT_type(*$C$DW$T$23)
    3500                      .dwattr $C$DW$240, DW_AT_location[DW_OP_reg12]
    3501              
    3502              
    3503              ;***************************************************************
    3504              ;* FNAME: _OSTaskRegGet                 FR SIZE:  10           *
    3505              ;*                                                             *
    3506              ;* FUNCTION ENVIRONMENT                                        *
    3507              ;*                                                             *
    3508              ;* FUNCTION PROPERTIES                                         *
    3509              ;*                            0 Parameter,  9 Auto,  0 SOE     *
    3510              ;***************************************************************
    3511              
    3512 00000523       _OSTaskRegGet:
    3513                      .dwcfi  cfa_offset, -2
    3514                      .dwcfi  save_reg_to_mem, 26, 0
    3515 00000523 FE0A          ADDB      SP,#10                ; [CPU_ARAU] 
    3516                      .dwcfi  cfa_offset, -12
    3517              $C$DW$241       .dwtag  DW_TAG_variable
    3518                      .dwattr $C$DW$241, DW_AT_name("perr")
    3519                      .dwattr $C$DW$241, DW_AT_TI_symbol_name("_perr")
    3520                      .dwattr $C$DW$241, DW_AT_type(*$C$DW$T$23)
    3521                      .dwattr $C$DW$241, DW_AT_location[DW_OP_breg20 -2]
    3522              
    3523              $C$DW$242       .dwtag  DW_TAG_variable
    3524                      .dwattr $C$DW$242, DW_AT_name("value")
    3525                      .dwattr $C$DW$242, DW_AT_TI_symbol_name("_value")
    3526                      .dwattr $C$DW$242, DW_AT_type(*$C$DW$T$27)
    3527                      .dwattr $C$DW$242, DW_AT_location[DW_OP_breg20 -4]
    3528              
    3529              $C$DW$243       .dwtag  DW_TAG_variable
    3530                      .dwattr $C$DW$243, DW_AT_name("ptcb")
    3531                      .dwattr $C$DW$243, DW_AT_TI_symbol_name("_ptcb")
    3532                      .dwattr $C$DW$243, DW_AT_type(*$C$DW$T$45)
    3533                      .dwattr $C$DW$243, DW_AT_location[DW_OP_breg20 -6]
    3534              
    3535              $C$DW$244       .dwtag  DW_TAG_variable
    3536                      .dwattr $C$DW$244, DW_AT_name("prio")
    3537                      .dwattr $C$DW$244, DW_AT_TI_symbol_name("_prio")
    3538                      .dwattr $C$DW$244, DW_AT_type(*$C$DW$T$19)
    3539                      .dwattr $C$DW$244, DW_AT_location[DW_OP_breg20 -7]
    3540              
    3541              $C$DW$245       .dwtag  DW_TAG_variable
    3542                      .dwattr $C$DW$245, DW_AT_name("id")
    3543                      .dwattr $C$DW$245, DW_AT_TI_symbol_name("_id")
    3544                      .dwattr $C$DW$245, DW_AT_type(*$C$DW$T$19)
    3545                      .dwattr $C$DW$245, DW_AT_location[DW_OP_breg20 -8]
    3546              
TMS320C2000 Assembler PC v20.2.1 Mon Feb  8 19:02:48 2021

Copyright (c) 1996-2018 Texas Instruments Incorporated
os_task.asm                                                          PAGE   69

    3547              $C$DW$246       .dwtag  DW_TAG_variable
    3548                      .dwattr $C$DW$246, DW_AT_name("cpu_sr")
    3549                      .dwattr $C$DW$246, DW_AT_TI_symbol_name("_cpu_sr")
    3550                      .dwattr $C$DW$246, DW_AT_type(*$C$DW$T$39)
    3551                      .dwattr $C$DW$246, DW_AT_location[DW_OP_breg20 -9]
    3552              
    3553 00000524 A842          MOVL      *-SP[2],XAR4          ; [CPU_ALU] |1107| 
    3554 00000525 9748          MOV       *-SP[8],AH            ; [CPU_ALU] |1107| 
    3555 00000526 9647          MOV       *-SP[7],AL            ; [CPU_ALU] |1107| 
    3556                      .dwpsn  file "C:/ti/Workspace/PLC_certificate/Software/uCOS-II/Source/os_task.c",line 1109,column 23,
    3557 00000527 2B49          MOV       *-SP[9],#0            ; [CPU_ALU] |1109| 
    3558                      .dwpsn  file "C:/ti/Workspace/PLC_certificate/Software/uCOS-II/Source/os_task.c",line 1124,column 5,i
    3559 00000528 523F          CMPB      AL,#63                ; [CPU_ALU] |1124| 
    3560 00000529 6807          B         $C$L97,LO             ; [CPU_ALU] |1124| 
    3561                      ; branchcc occurs ; [] |1124| 
    3562                      .dwpsn  file "C:/ti/Workspace/PLC_certificate/Software/uCOS-II/Source/os_task.c",line 1125,column 9,i
    3563 0000052a 52FF          CMPB      AL,#255               ; [CPU_ALU] |1125| 
    3564 0000052b 6105          B         $C$L97,EQ             ; [CPU_ALU] |1125| 
    3565                      ; branchcc occurs ; [] |1125| 
    3566                      .dwpsn  file "C:/ti/Workspace/PLC_certificate/Software/uCOS-II/Source/os_task.c",line 1126,column 13,
    3567 0000052c 56BF          MOVB      *+XAR4[0],#42,UNC     ; [CPU_ALU] |1126| 
         0000052d 2AC4 
    3568                      .dwpsn  file "C:/ti/Workspace/PLC_certificate/Software/uCOS-II/Source/os_task.c",line 1127,column 13,
    3569 0000052e 0200          MOVB      ACC,#0                ; [CPU_ALU] |1127| 
    3570 0000052f 6F29          B         $C$L101,UNC           ; [CPU_ALU] |1127| 
    3571                      ; branch occurs ; [] |1127| 
    3572 00000530       $C$L97:    
    3573                      .dwpsn  file "C:/ti/Workspace/PLC_certificate/Software/uCOS-II/Source/os_task.c",line 1130,column 5,i
    3574 00000530 9248          MOV       AL,*-SP[8]            ; [CPU_ALU] |1130| 
    3575 00000531 6105          B         $C$L98,EQ             ; [CPU_ALU] |1130| 
    3576                      ; branchcc occurs ; [] |1130| 
    3577                      .dwpsn  file "C:/ti/Workspace/PLC_certificate/Software/uCOS-II/Source/os_task.c",line 1131,column 9,i
    3578 00000532 56BF          MOVB      *+XAR4[0],#8,UNC      ; [CPU_ALU] |1131| 
         00000533 08C4 
    3579                      .dwpsn  file "C:/ti/Workspace/PLC_certificate/Software/uCOS-II/Source/os_task.c",line 1132,column 9,i
    3580 00000534 0200          MOVB      ACC,#0                ; [CPU_ALU] |1132| 
    3581 00000535 6F23          B         $C$L101,UNC           ; [CPU_ALU] |1132| 
    3582                      ; branch occurs ; [] |1132| 
    3583 00000536       $C$L98:    
    3584                      .dwpsn  file "C:/ti/Workspace/PLC_certificate/Software/uCOS-II/Source/os_task.c",line 1135,column 5,i
    3585              $C$DW$247       .dwtag  DW_TAG_TI_branch
    3586                      .dwattr $C$DW$247, DW_AT_low_pc(0x00)
    3587                      .dwattr $C$DW$247, DW_AT_name("_OS_CPU_SR_Save")
    3588                      .dwattr $C$DW$247, DW_AT_TI_call
    3589              
    3590 00000536 7640!         LCR       #_OS_CPU_SR_Save      ; [CPU_ALU] |1135| 
         00000537 0000 
    3591                      ; call occurs [#_OS_CPU_SR_Save] ; [] |1135| 
    3592 00000538 9649          MOV       *-SP[9],AL            ; [CPU_ALU] |1135| 
    3593                      .dwpsn  file "C:/ti/Workspace/PLC_certificate/Software/uCOS-II/Source/os_task.c",line 1136,column 5,i
    3594 00000539 9247          MOV       AL,*-SP[7]            ; [CPU_ALU] |1136| 
    3595 0000053a 52FF          CMPB      AL,#255               ; [CPU_ALU] |1136| 
    3596 0000053b 6006          B         $C$L99,NEQ            ; [CPU_ALU] |1136| 
    3597                      ; branchcc occurs ; [] |1136| 
    3598                      .dwpsn  file "C:/ti/Workspace/PLC_certificate/Software/uCOS-II/Source/os_task.c",line 1137,column 9,i
TMS320C2000 Assembler PC v20.2.1 Mon Feb  8 19:02:48 2021

Copyright (c) 1996-2018 Texas Instruments Incorporated
os_task.asm                                                          PAGE   70

    3599 0000053c 761F!         MOVW      DP,#_OSTCBCur         ; [CPU_ARAU] 
         0000053d 0000 
    3600 0000053e 0600!         MOVL      ACC,@_OSTCBCur        ; [CPU_ALU] |1137| 
    3601 0000053f 1E46          MOVL      *-SP[6],ACC           ; [CPU_ALU] |1137| 
    3602 00000540 6F0A          B         $C$L100,UNC           ; [CPU_ALU] 
    3603                      ; branch occurs ; [] 
    3604 00000541       $C$L99:    
    3605                      .dwpsn  file "C:/ti/Workspace/PLC_certificate/Software/uCOS-II/Source/os_task.c",line 1139,column 9,i
    3606 00000541 2901          CLRC      SXM                   ; [CPU_ALU] 
    3607 00000542 8F00!         MOVL      XAR4,#_OSTCBPrioTbl   ; [CPU_ARAU] |1139| 
         00000543 0000 
    3608 00000544 5603          MOV       ACC,*-SP[7] << 1      ; [CPU_ALU] |1139| 
         00000545 0147 
    3609 00000546 5601          ADDL      XAR4,ACC              ; [CPU_ALU] |1139| 
         00000547 00A4 
    3610 00000548 06C4          MOVL      ACC,*+XAR4[0]         ; [CPU_ALU] |1139| 
    3611 00000549 1E46          MOVL      *-SP[6],ACC           ; [CPU_ALU] |1139| 
    3612 0000054a       $C$L100:    
    3613                      .dwpsn  file "C:/ti/Workspace/PLC_certificate/Software/uCOS-II/Source/os_task.c",line 1141,column 5,i
    3614 0000054a 2901          CLRC      SXM                   ; [CPU_ALU] 
    3615 0000054b 5603          MOV       ACC,*-SP[8] << 1      ; [CPU_ALU] |1141| 
         0000054c 0148 
    3616 0000054d 0746          ADDL      ACC,*-SP[6]           ; [CPU_ALU] |1141| 
    3617 0000054e 8AA9          MOVL      XAR4,ACC              ; [CPU_ALU] |1141| 
    3618 0000054f D02E          MOVB      XAR0,#46              ; [CPU_ALU] |1141| 
    3619 00000550 0694          MOVL      ACC,*+XAR4[AR0]       ; [CPU_ALU] |1141| 
    3620 00000551 1E44          MOVL      *-SP[4],ACC           ; [CPU_ALU] |1141| 
    3621                      .dwpsn  file "C:/ti/Workspace/PLC_certificate/Software/uCOS-II/Source/os_task.c",line 1142,column 5,i
    3622 00000552 9249          MOV       AL,*-SP[9]            ; [CPU_ALU] |1142| 
    3623              $C$DW$248       .dwtag  DW_TAG_TI_branch
    3624                      .dwattr $C$DW$248, DW_AT_low_pc(0x00)
    3625                      .dwattr $C$DW$248, DW_AT_name("_OS_CPU_SR_Restore")
    3626                      .dwattr $C$DW$248, DW_AT_TI_call
    3627              
    3628 00000553 7640!         LCR       #_OS_CPU_SR_Restore   ; [CPU_ALU] |1142| 
         00000554 0000 
    3629                      ; call occurs [#_OS_CPU_SR_Restore] ; [] |1142| 
    3630                      .dwpsn  file "C:/ti/Workspace/PLC_certificate/Software/uCOS-II/Source/os_task.c",line 1143,column 5,i
    3631 00000555 8A42          MOVL      XAR4,*-SP[2]          ; [CPU_ALU] |1143| 
    3632 00000556 2BC4          MOV       *+XAR4[0],#0          ; [CPU_ALU] |1143| 
    3633                      .dwpsn  file "C:/ti/Workspace/PLC_certificate/Software/uCOS-II/Source/os_task.c",line 1144,column 5,i
    3634 00000557 0644          MOVL      ACC,*-SP[4]           ; [CPU_ALU] |1144| 
    3635 00000558       $C$L101:    
    3636                      .dwpsn  file "C:/ti/Workspace/PLC_certificate/Software/uCOS-II/Source/os_task.c",line 1145,column 1,i
    3637 00000558 FE8A          SUBB      SP,#10                ; [CPU_ARAU] 
    3638                      .dwcfi  cfa_offset, -2
    3639              $C$DW$249       .dwtag  DW_TAG_TI_branch
    3640                      .dwattr $C$DW$249, DW_AT_low_pc(0x00)
    3641                      .dwattr $C$DW$249, DW_AT_TI_return
    3642              
    3643 00000559 0006          LRETR     ; [CPU_ALU] 
    3644                      ; return occurs ; [] 
    3645                      .dwattr $C$DW$237, DW_AT_TI_end_file("C:/ti/Workspace/PLC_certificate/Software/uCOS-II/Source/os_task
    3646                      .dwattr $C$DW$237, DW_AT_TI_end_line(0x479)
    3647                      .dwattr $C$DW$237, DW_AT_TI_end_column(0x01)
TMS320C2000 Assembler PC v20.2.1 Mon Feb  8 19:02:48 2021

Copyright (c) 1996-2018 Texas Instruments Incorporated
os_task.asm                                                          PAGE   71

    3648                      .dwendentry
    3649                      .dwendtag $C$DW$237
    3650              
    3651 0000055a               .sect   ".text"
    3652                      .clink
    3653                      .global _OSTaskRegGetID
    3654              
    3655              $C$DW$250       .dwtag  DW_TAG_subprogram
    3656                      .dwattr $C$DW$250, DW_AT_name("OSTaskRegGetID")
    3657                      .dwattr $C$DW$250, DW_AT_low_pc(_OSTaskRegGetID)
    3658                      .dwattr $C$DW$250, DW_AT_high_pc(0x00)
    3659                      .dwattr $C$DW$250, DW_AT_TI_symbol_name("_OSTaskRegGetID")
    3660                      .dwattr $C$DW$250, DW_AT_external
    3661                      .dwattr $C$DW$250, DW_AT_type(*$C$DW$T$19)
    3662                      .dwattr $C$DW$250, DW_AT_TI_begin_file("C:/ti/Workspace/PLC_certificate/Software/uCOS-II/Source/os_ta
    3663                      .dwattr $C$DW$250, DW_AT_TI_begin_line(0x48f)
    3664                      .dwattr $C$DW$250, DW_AT_TI_begin_column(0x08)
    3665                      .dwattr $C$DW$250, DW_AT_TI_max_frame_size(-6)
    3666                      .dwpsn  file "C:/ti/Workspace/PLC_certificate/Software/uCOS-II/Source/os_task.c",line 1168,column 1,i
    3667              
    3668                      .dwfde $C$DW$CIE, _OSTaskRegGetID
    3669              $C$DW$251       .dwtag  DW_TAG_formal_parameter
    3670                      .dwattr $C$DW$251, DW_AT_name("perr")
    3671                      .dwattr $C$DW$251, DW_AT_TI_symbol_name("_perr")
    3672                      .dwattr $C$DW$251, DW_AT_type(*$C$DW$T$23)
    3673                      .dwattr $C$DW$251, DW_AT_location[DW_OP_reg12]
    3674              
    3675              
    3676              ;***************************************************************
    3677              ;* FNAME: _OSTaskRegGetID               FR SIZE:   4           *
    3678              ;*                                                             *
    3679              ;* FUNCTION ENVIRONMENT                                        *
    3680              ;*                                                             *
    3681              ;* FUNCTION PROPERTIES                                         *
    3682              ;*                            0 Parameter,  4 Auto,  0 SOE     *
    3683              ;***************************************************************
    3684              
    3685 0000055a       _OSTaskRegGetID:
    3686                      .dwcfi  cfa_offset, -2
    3687                      .dwcfi  save_reg_to_mem, 26, 0
    3688 0000055a FE04          ADDB      SP,#4                 ; [CPU_ARAU] 
    3689                      .dwcfi  cfa_offset, -6
    3690              $C$DW$252       .dwtag  DW_TAG_variable
    3691                      .dwattr $C$DW$252, DW_AT_name("perr")
    3692                      .dwattr $C$DW$252, DW_AT_TI_symbol_name("_perr")
    3693                      .dwattr $C$DW$252, DW_AT_type(*$C$DW$T$23)
    3694                      .dwattr $C$DW$252, DW_AT_location[DW_OP_breg20 -2]
    3695              
    3696              $C$DW$253       .dwtag  DW_TAG_variable
    3697                      .dwattr $C$DW$253, DW_AT_name("cpu_sr")
    3698                      .dwattr $C$DW$253, DW_AT_TI_symbol_name("_cpu_sr")
    3699                      .dwattr $C$DW$253, DW_AT_type(*$C$DW$T$39)
    3700                      .dwattr $C$DW$253, DW_AT_location[DW_OP_breg20 -3]
    3701              
    3702              $C$DW$254       .dwtag  DW_TAG_variable
TMS320C2000 Assembler PC v20.2.1 Mon Feb  8 19:02:48 2021

Copyright (c) 1996-2018 Texas Instruments Incorporated
os_task.asm                                                          PAGE   72

    3703                      .dwattr $C$DW$254, DW_AT_name("id")
    3704                      .dwattr $C$DW$254, DW_AT_TI_symbol_name("_id")
    3705                      .dwattr $C$DW$254, DW_AT_type(*$C$DW$T$19)
    3706                      .dwattr $C$DW$254, DW_AT_location[DW_OP_breg20 -4]
    3707              
    3708 0000055b A842          MOVL      *-SP[2],XAR4          ; [CPU_ALU] |1168| 
    3709                      .dwpsn  file "C:/ti/Workspace/PLC_certificate/Software/uCOS-II/Source/os_task.c",line 1170,column 23,
    3710 0000055c 2B43          MOV       *-SP[3],#0            ; [CPU_ALU] |1170| 
    3711                      .dwpsn  file "C:/ti/Workspace/PLC_certificate/Software/uCOS-II/Source/os_task.c",line 1182,column 5,i
    3712              $C$DW$255       .dwtag  DW_TAG_TI_branch
    3713                      .dwattr $C$DW$255, DW_AT_low_pc(0x00)
    3714                      .dwattr $C$DW$255, DW_AT_name("_OS_CPU_SR_Save")
    3715                      .dwattr $C$DW$255, DW_AT_TI_call
    3716              
    3717 0000055d 7640!         LCR       #_OS_CPU_SR_Save      ; [CPU_ALU] |1182| 
         0000055e 0000 
    3718                      ; call occurs [#_OS_CPU_SR_Save] ; [] |1182| 
    3719 0000055f 9643          MOV       *-SP[3],AL            ; [CPU_ALU] |1182| 
    3720                      .dwpsn  file "C:/ti/Workspace/PLC_certificate/Software/uCOS-II/Source/os_task.c",line 1183,column 5,i
    3721 00000560 761F!         MOVW      DP,#_OSTaskRegNextAvailID ; [CPU_ARAU] 
         00000561 0000 
    3722 00000562 9200!         MOV       AL,@_OSTaskRegNextAvailID ; [CPU_ALU] |1183| 
    3723 00000563 6109          B         $C$L102,EQ            ; [CPU_ALU] |1183| 
    3724                      ; branchcc occurs ; [] |1183| 
    3725                      .dwpsn  file "C:/ti/Workspace/PLC_certificate/Software/uCOS-II/Source/os_task.c",line 1184,column 8,i
    3726 00000564 8A42          MOVL      XAR4,*-SP[2]          ; [CPU_ALU] |1184| 
    3727 00000565 56BF          MOVB      *+XAR4[0],#150,UNC    ; [CPU_ALU] |1184| 
         00000566 96C4 
    3728                      .dwpsn  file "C:/ti/Workspace/PLC_certificate/Software/uCOS-II/Source/os_task.c",line 1185,column 9,i
    3729 00000567 9243          MOV       AL,*-SP[3]            ; [CPU_ALU] |1185| 
    3730              $C$DW$256       .dwtag  DW_TAG_TI_branch
    3731                      .dwattr $C$DW$256, DW_AT_low_pc(0x00)
    3732                      .dwattr $C$DW$256, DW_AT_name("_OS_CPU_SR_Restore")
    3733                      .dwattr $C$DW$256, DW_AT_TI_call
    3734              
    3735 00000568 7640!         LCR       #_OS_CPU_SR_Restore   ; [CPU_ALU] |1185| 
         00000569 0000 
    3736                      ; call occurs [#_OS_CPU_SR_Restore] ; [] |1185| 
    3737                      .dwpsn  file "C:/ti/Workspace/PLC_certificate/Software/uCOS-II/Source/os_task.c",line 1186,column 9,i
    3738 0000056a 9A01          MOVB      AL,#1                 ; [CPU_ALU] |1186| 
    3739 0000056b 6F09          B         $C$L103,UNC           ; [CPU_ALU] |1186| 
    3740                      ; branch occurs ; [] |1186| 
    3741 0000056c       $C$L102:    
    3742                      .dwpsn  file "C:/ti/Workspace/PLC_certificate/Software/uCOS-II/Source/os_task.c",line 1189,column 5,i
    3743 0000056c 9644          MOV       *-SP[4],AL            ; [CPU_ALU] |1189| 
    3744                      .dwpsn  file "C:/ti/Workspace/PLC_certificate/Software/uCOS-II/Source/os_task.c",line 1190,column 5,i
    3745 0000056d 0A00!         INC       @_OSTaskRegNextAvailID ; [CPU_ALU] |1190| 
    3746                      .dwpsn  file "C:/ti/Workspace/PLC_certificate/Software/uCOS-II/Source/os_task.c",line 1191,column 5,i
    3747 0000056e 9243          MOV       AL,*-SP[3]            ; [CPU_ALU] |1191| 
    3748              $C$DW$257       .dwtag  DW_TAG_TI_branch
    3749                      .dwattr $C$DW$257, DW_AT_low_pc(0x00)
    3750                      .dwattr $C$DW$257, DW_AT_name("_OS_CPU_SR_Restore")
    3751                      .dwattr $C$DW$257, DW_AT_TI_call
    3752              
    3753 0000056f 7640!         LCR       #_OS_CPU_SR_Restore   ; [CPU_ALU] |1191| 
TMS320C2000 Assembler PC v20.2.1 Mon Feb  8 19:02:48 2021

Copyright (c) 1996-2018 Texas Instruments Incorporated
os_task.asm                                                          PAGE   73

         00000570 0000 
    3754                      ; call occurs [#_OS_CPU_SR_Restore] ; [] |1191| 
    3755                      .dwpsn  file "C:/ti/Workspace/PLC_certificate/Software/uCOS-II/Source/os_task.c",line 1192,column 4,i
    3756 00000571 8A42          MOVL      XAR4,*-SP[2]          ; [CPU_ALU] |1192| 
    3757 00000572 2BC4          MOV       *+XAR4[0],#0          ; [CPU_ALU] |1192| 
    3758                      .dwpsn  file "C:/ti/Workspace/PLC_certificate/Software/uCOS-II/Source/os_task.c",line 1193,column 5,i
    3759 00000573 9244          MOV       AL,*-SP[4]            ; [CPU_ALU] |1193| 
    3760 00000574       $C$L103:    
    3761                      .dwpsn  file "C:/ti/Workspace/PLC_certificate/Software/uCOS-II/Source/os_task.c",line 1194,column 1,i
    3762 00000574 FE84          SUBB      SP,#4                 ; [CPU_ARAU] 
    3763                      .dwcfi  cfa_offset, -2
    3764              $C$DW$258       .dwtag  DW_TAG_TI_branch
    3765                      .dwattr $C$DW$258, DW_AT_low_pc(0x00)
    3766                      .dwattr $C$DW$258, DW_AT_TI_return
    3767              
    3768 00000575 0006          LRETR     ; [CPU_ALU] 
    3769                      ; return occurs ; [] 
    3770                      .dwattr $C$DW$250, DW_AT_TI_end_file("C:/ti/Workspace/PLC_certificate/Software/uCOS-II/Source/os_task
    3771                      .dwattr $C$DW$250, DW_AT_TI_end_line(0x4aa)
    3772                      .dwattr $C$DW$250, DW_AT_TI_end_column(0x01)
    3773                      .dwendentry
    3774                      .dwendtag $C$DW$250
    3775              
    3776 00000576               .sect   ".text"
    3777                      .clink
    3778                      .global _OSTaskRegSet
    3779              
    3780              $C$DW$259       .dwtag  DW_TAG_subprogram
    3781                      .dwattr $C$DW$259, DW_AT_name("OSTaskRegSet")
    3782                      .dwattr $C$DW$259, DW_AT_low_pc(_OSTaskRegSet)
    3783                      .dwattr $C$DW$259, DW_AT_high_pc(0x00)
    3784                      .dwattr $C$DW$259, DW_AT_TI_symbol_name("_OSTaskRegSet")
    3785                      .dwattr $C$DW$259, DW_AT_external
    3786                      .dwattr $C$DW$259, DW_AT_TI_begin_file("C:/ti/Workspace/PLC_certificate/Software/uCOS-II/Source/os_ta
    3787                      .dwattr $C$DW$259, DW_AT_TI_begin_line(0x4cb)
    3788                      .dwattr $C$DW$259, DW_AT_TI_begin_column(0x07)
    3789                      .dwattr $C$DW$259, DW_AT_TI_max_frame_size(-10)
    3790                      .dwpsn  file "C:/ti/Workspace/PLC_certificate/Software/uCOS-II/Source/os_task.c",line 1231,column 1,i
    3791              
    3792                      .dwfde $C$DW$CIE, _OSTaskRegSet
    3793              $C$DW$260       .dwtag  DW_TAG_formal_parameter
    3794                      .dwattr $C$DW$260, DW_AT_name("prio")
    3795                      .dwattr $C$DW$260, DW_AT_TI_symbol_name("_prio")
    3796                      .dwattr $C$DW$260, DW_AT_type(*$C$DW$T$19)
    3797                      .dwattr $C$DW$260, DW_AT_location[DW_OP_reg14]
    3798              
    3799              $C$DW$261       .dwtag  DW_TAG_formal_parameter
    3800                      .dwattr $C$DW$261, DW_AT_name("id")
    3801                      .dwattr $C$DW$261, DW_AT_TI_symbol_name("_id")
    3802                      .dwattr $C$DW$261, DW_AT_type(*$C$DW$T$19)
    3803                      .dwattr $C$DW$261, DW_AT_location[DW_OP_breg20 -11]
    3804              
    3805              $C$DW$262       .dwtag  DW_TAG_formal_parameter
    3806                      .dwattr $C$DW$262, DW_AT_name("value")
    3807                      .dwattr $C$DW$262, DW_AT_TI_symbol_name("_value")
TMS320C2000 Assembler PC v20.2.1 Mon Feb  8 19:02:48 2021

Copyright (c) 1996-2018 Texas Instruments Incorporated
os_task.asm                                                          PAGE   74

    3808                      .dwattr $C$DW$262, DW_AT_type(*$C$DW$T$27)
    3809                      .dwattr $C$DW$262, DW_AT_location[DW_OP_reg0]
    3810              
    3811              $C$DW$263       .dwtag  DW_TAG_formal_parameter
    3812                      .dwattr $C$DW$263, DW_AT_name("perr")
    3813                      .dwattr $C$DW$263, DW_AT_TI_symbol_name("_perr")
    3814                      .dwattr $C$DW$263, DW_AT_type(*$C$DW$T$23)
    3815                      .dwattr $C$DW$263, DW_AT_location[DW_OP_reg12]
    3816              
    3817              
    3818              ;***************************************************************
    3819              ;* FNAME: _OSTaskRegSet                 FR SIZE:   8           *
    3820              ;*                                                             *
    3821              ;* FUNCTION ENVIRONMENT                                        *
    3822              ;*                                                             *
    3823              ;* FUNCTION PROPERTIES                                         *
    3824              ;*                            0 Parameter,  8 Auto,  0 SOE     *
    3825              ;***************************************************************
    3826              
    3827 00000576       _OSTaskRegSet:
    3828                      .dwcfi  cfa_offset, -2
    3829                      .dwcfi  save_reg_to_mem, 26, 0
    3830 00000576 FE08          ADDB      SP,#8                 ; [CPU_ARAU] 
    3831                      .dwcfi  cfa_offset, -10
    3832              $C$DW$264       .dwtag  DW_TAG_variable
    3833                      .dwattr $C$DW$264, DW_AT_name("value")
    3834                      .dwattr $C$DW$264, DW_AT_TI_symbol_name("_value")
    3835                      .dwattr $C$DW$264, DW_AT_type(*$C$DW$T$27)
    3836                      .dwattr $C$DW$264, DW_AT_location[DW_OP_breg20 -2]
    3837              
    3838              $C$DW$265       .dwtag  DW_TAG_variable
    3839                      .dwattr $C$DW$265, DW_AT_name("perr")
    3840                      .dwattr $C$DW$265, DW_AT_TI_symbol_name("_perr")
    3841                      .dwattr $C$DW$265, DW_AT_type(*$C$DW$T$23)
    3842                      .dwattr $C$DW$265, DW_AT_location[DW_OP_breg20 -4]
    3843              
    3844              $C$DW$266       .dwtag  DW_TAG_variable
    3845                      .dwattr $C$DW$266, DW_AT_name("ptcb")
    3846                      .dwattr $C$DW$266, DW_AT_TI_symbol_name("_ptcb")
    3847                      .dwattr $C$DW$266, DW_AT_type(*$C$DW$T$45)
    3848                      .dwattr $C$DW$266, DW_AT_location[DW_OP_breg20 -6]
    3849              
    3850              $C$DW$267       .dwtag  DW_TAG_variable
    3851                      .dwattr $C$DW$267, DW_AT_name("prio")
    3852                      .dwattr $C$DW$267, DW_AT_TI_symbol_name("_prio")
    3853                      .dwattr $C$DW$267, DW_AT_type(*$C$DW$T$19)
    3854                      .dwattr $C$DW$267, DW_AT_location[DW_OP_breg20 -7]
    3855              
    3856              $C$DW$268       .dwtag  DW_TAG_variable
    3857                      .dwattr $C$DW$268, DW_AT_name("cpu_sr")
    3858                      .dwattr $C$DW$268, DW_AT_TI_symbol_name("_cpu_sr")
    3859                      .dwattr $C$DW$268, DW_AT_type(*$C$DW$T$39)
    3860                      .dwattr $C$DW$268, DW_AT_location[DW_OP_breg20 -8]
    3861              
    3862 00000577 A844          MOVL      *-SP[4],XAR4          ; [CPU_ALU] |1231| 
TMS320C2000 Assembler PC v20.2.1 Mon Feb  8 19:02:48 2021

Copyright (c) 1996-2018 Texas Instruments Incorporated
os_task.asm                                                          PAGE   75

    3863 00000578 1E42          MOVL      *-SP[2],ACC           ; [CPU_ALU] |1231| 
    3864 00000579 7D47          MOV       *-SP[7],AR5           ; [CPU_ALU] |1231| 
    3865                      .dwpsn  file "C:/ti/Workspace/PLC_certificate/Software/uCOS-II/Source/os_task.c",line 1233,column 23,
    3866 0000057a 2B48          MOV       *-SP[8],#0            ; [CPU_ALU] |1233| 
    3867                      .dwpsn  file "C:/ti/Workspace/PLC_certificate/Software/uCOS-II/Source/os_task.c",line 1246,column 5,i
    3868 0000057b 9247          MOV       AL,*-SP[7]            ; [CPU_ALU] |1246| 
    3869 0000057c 523F          CMPB      AL,#63                ; [CPU_ALU] |1246| 
    3870 0000057d 6806          B         $C$L104,LO            ; [CPU_ALU] |1246| 
    3871                      ; branchcc occurs ; [] |1246| 
    3872                      .dwpsn  file "C:/ti/Workspace/PLC_certificate/Software/uCOS-II/Source/os_task.c",line 1247,column 9,i
    3873 0000057e 52FF          CMPB      AL,#255               ; [CPU_ALU] |1247| 
    3874 0000057f 6104          B         $C$L104,EQ            ; [CPU_ALU] |1247| 
    3875                      ; branchcc occurs ; [] |1247| 
    3876                      .dwpsn  file "C:/ti/Workspace/PLC_certificate/Software/uCOS-II/Source/os_task.c",line 1248,column 13,
    3877 00000580 56BF          MOVB      *+XAR4[0],#42,UNC     ; [CPU_ALU] |1248| 
         00000581 2AC4 
    3878                      .dwpsn  file "C:/ti/Workspace/PLC_certificate/Software/uCOS-II/Source/os_task.c",line 1249,column 13,
    3879 00000582 6F27          B         $C$L108,UNC           ; [CPU_ALU] |1249| 
    3880                      ; branch occurs ; [] |1249| 
    3881 00000583       $C$L104:    
    3882                      .dwpsn  file "C:/ti/Workspace/PLC_certificate/Software/uCOS-II/Source/os_task.c",line 1252,column 5,i
    3883 00000583 924B          MOV       AL,*-SP[11]           ; [CPU_ALU] |1252| 
    3884 00000584 6104          B         $C$L105,EQ            ; [CPU_ALU] |1252| 
    3885                      ; branchcc occurs ; [] |1252| 
    3886                      .dwpsn  file "C:/ti/Workspace/PLC_certificate/Software/uCOS-II/Source/os_task.c",line 1253,column 9,i
    3887 00000585 56BF          MOVB      *+XAR4[0],#8,UNC      ; [CPU_ALU] |1253| 
         00000586 08C4 
    3888                      .dwpsn  file "C:/ti/Workspace/PLC_certificate/Software/uCOS-II/Source/os_task.c",line 1254,column 9,i
    3889 00000587 6F22          B         $C$L108,UNC           ; [CPU_ALU] |1254| 
    3890                      ; branch occurs ; [] |1254| 
    3891 00000588       $C$L105:    
    3892                      .dwpsn  file "C:/ti/Workspace/PLC_certificate/Software/uCOS-II/Source/os_task.c",line 1257,column 5,i
    3893              $C$DW$269       .dwtag  DW_TAG_TI_branch
    3894                      .dwattr $C$DW$269, DW_AT_low_pc(0x00)
    3895                      .dwattr $C$DW$269, DW_AT_name("_OS_CPU_SR_Save")
    3896                      .dwattr $C$DW$269, DW_AT_TI_call
    3897              
    3898 00000588 7640!         LCR       #_OS_CPU_SR_Save      ; [CPU_ALU] |1257| 
         00000589 0000 
    3899                      ; call occurs [#_OS_CPU_SR_Save] ; [] |1257| 
    3900 0000058a 9648          MOV       *-SP[8],AL            ; [CPU_ALU] |1257| 
    3901                      .dwpsn  file "C:/ti/Workspace/PLC_certificate/Software/uCOS-II/Source/os_task.c",line 1258,column 5,i
    3902 0000058b 9247          MOV       AL,*-SP[7]            ; [CPU_ALU] |1258| 
    3903 0000058c 52FF          CMPB      AL,#255               ; [CPU_ALU] |1258| 
    3904 0000058d 6006          B         $C$L106,NEQ           ; [CPU_ALU] |1258| 
    3905                      ; branchcc occurs ; [] |1258| 
    3906                      .dwpsn  file "C:/ti/Workspace/PLC_certificate/Software/uCOS-II/Source/os_task.c",line 1259,column 9,i
    3907 0000058e 761F!         MOVW      DP,#_OSTCBCur         ; [CPU_ARAU] 
         0000058f 0000 
    3908 00000590 0600!         MOVL      ACC,@_OSTCBCur        ; [CPU_ALU] |1259| 
    3909 00000591 1E46          MOVL      *-SP[6],ACC           ; [CPU_ALU] |1259| 
    3910 00000592 6F0A          B         $C$L107,UNC           ; [CPU_ALU] 
    3911                      ; branch occurs ; [] 
    3912 00000593       $C$L106:    
    3913                      .dwpsn  file "C:/ti/Workspace/PLC_certificate/Software/uCOS-II/Source/os_task.c",line 1261,column 9,i
TMS320C2000 Assembler PC v20.2.1 Mon Feb  8 19:02:48 2021

Copyright (c) 1996-2018 Texas Instruments Incorporated
os_task.asm                                                          PAGE   76

    3914 00000593 2901          CLRC      SXM                   ; [CPU_ALU] 
    3915 00000594 8F00!         MOVL      XAR4,#_OSTCBPrioTbl   ; [CPU_ARAU] |1261| 
         00000595 0000 
    3916 00000596 5603          MOV       ACC,*-SP[7] << 1      ; [CPU_ALU] |1261| 
         00000597 0147 
    3917 00000598 5601          ADDL      XAR4,ACC              ; [CPU_ALU] |1261| 
         00000599 00A4 
    3918 0000059a 06C4          MOVL      ACC,*+XAR4[0]         ; [CPU_ALU] |1261| 
    3919 0000059b 1E46          MOVL      *-SP[6],ACC           ; [CPU_ALU] |1261| 
    3920 0000059c       $C$L107:    
    3921                      .dwpsn  file "C:/ti/Workspace/PLC_certificate/Software/uCOS-II/Source/os_task.c",line 1263,column 5,i
    3922 0000059c 2901          CLRC      SXM                   ; [CPU_ALU] 
    3923 0000059d 5603          MOV       ACC,*-SP[11] << 1     ; [CPU_ALU] |1263| 
         0000059e 014B 
    3924 0000059f C442          MOVL      XAR6,*-SP[2]          ; [CPU_ALU] |1263| 
    3925 000005a0 0746          ADDL      ACC,*-SP[6]           ; [CPU_ALU] |1263| 
    3926 000005a1 8AA9          MOVL      XAR4,ACC              ; [CPU_ALU] |1263| 
    3927 000005a2 D02E          MOVB      XAR0,#46              ; [CPU_ALU] |1263| 
    3928 000005a3 C294          MOVL      *+XAR4[AR0],XAR6      ; [CPU_ALU] |1263| 
    3929                      .dwpsn  file "C:/ti/Workspace/PLC_certificate/Software/uCOS-II/Source/os_task.c",line 1264,column 5,i
    3930 000005a4 9248          MOV       AL,*-SP[8]            ; [CPU_ALU] |1264| 
    3931              $C$DW$270       .dwtag  DW_TAG_TI_branch
    3932                      .dwattr $C$DW$270, DW_AT_low_pc(0x00)
    3933                      .dwattr $C$DW$270, DW_AT_name("_OS_CPU_SR_Restore")
    3934                      .dwattr $C$DW$270, DW_AT_TI_call
    3935              
    3936 000005a5 7640!         LCR       #_OS_CPU_SR_Restore   ; [CPU_ALU] |1264| 
         000005a6 0000 
    3937                      ; call occurs [#_OS_CPU_SR_Restore] ; [] |1264| 
    3938                      .dwpsn  file "C:/ti/Workspace/PLC_certificate/Software/uCOS-II/Source/os_task.c",line 1265,column 5,i
    3939 000005a7 8A44          MOVL      XAR4,*-SP[4]          ; [CPU_ALU] |1265| 
    3940 000005a8 2BC4          MOV       *+XAR4[0],#0          ; [CPU_ALU] |1265| 
    3941                      .dwpsn  file "C:/ti/Workspace/PLC_certificate/Software/uCOS-II/Source/os_task.c",line 1266,column 1,i
    3942 000005a9       $C$L108:    
    3943 000005a9 FE88          SUBB      SP,#8                 ; [CPU_ARAU] 
    3944                      .dwcfi  cfa_offset, -2
    3945              $C$DW$271       .dwtag  DW_TAG_TI_branch
    3946                      .dwattr $C$DW$271, DW_AT_low_pc(0x00)
    3947                      .dwattr $C$DW$271, DW_AT_TI_return
    3948              
    3949 000005aa 0006          LRETR     ; [CPU_ALU] 
    3950                      ; return occurs ; [] 
    3951                      .dwattr $C$DW$259, DW_AT_TI_end_file("C:/ti/Workspace/PLC_certificate/Software/uCOS-II/Source/os_task
    3952                      .dwattr $C$DW$259, DW_AT_TI_end_line(0x4f2)
    3953                      .dwattr $C$DW$259, DW_AT_TI_end_column(0x01)
    3954                      .dwendentry
    3955                      .dwendtag $C$DW$259
    3956              
    3957 000005ab               .sect   ".text"
    3958                      .clink
    3959                      .global _OS_TaskReturn
    3960              
    3961              $C$DW$272       .dwtag  DW_TAG_subprogram
    3962                      .dwattr $C$DW$272, DW_AT_name("OS_TaskReturn")
    3963                      .dwattr $C$DW$272, DW_AT_low_pc(_OS_TaskReturn)
TMS320C2000 Assembler PC v20.2.1 Mon Feb  8 19:02:48 2021

Copyright (c) 1996-2018 Texas Instruments Incorporated
os_task.asm                                                          PAGE   77

    3964                      .dwattr $C$DW$272, DW_AT_high_pc(0x00)
    3965                      .dwattr $C$DW$272, DW_AT_TI_symbol_name("_OS_TaskReturn")
    3966                      .dwattr $C$DW$272, DW_AT_external
    3967                      .dwattr $C$DW$272, DW_AT_TI_begin_file("C:/ti/Workspace/PLC_certificate/Software/uCOS-II/Source/os_ta
    3968                      .dwattr $C$DW$272, DW_AT_TI_begin_line(0x505)
    3969                      .dwattr $C$DW$272, DW_AT_TI_begin_column(0x07)
    3970                      .dwattr $C$DW$272, DW_AT_TI_max_frame_size(-2)
    3971                      .dwpsn  file "C:/ti/Workspace/PLC_certificate/Software/uCOS-II/Source/os_task.c",line 1286,column 1,i
    3972              
    3973                      .dwfde $C$DW$CIE, _OS_TaskReturn
    3974              
    3975              ;***************************************************************
    3976              ;* FNAME: _OS_TaskReturn                FR SIZE:   0           *
    3977              ;*                                                             *
    3978              ;* FUNCTION ENVIRONMENT                                        *
    3979              ;*                                                             *
    3980              ;* FUNCTION PROPERTIES                                         *
    3981              ;*                            0 Parameter,  0 Auto,  0 SOE     *
    3982              ;***************************************************************
    3983              
    3984 000005ab       _OS_TaskReturn:
    3985                      .dwcfi  cfa_offset, -2
    3986                      .dwcfi  save_reg_to_mem, 26, 0
    3987                      .dwpsn  file "C:/ti/Workspace/PLC_certificate/Software/uCOS-II/Source/os_task.c",line 1287,column 5,i
    3988 000005ab 761F!         MOVW      DP,#_OSTCBCur         ; [CPU_ARAU] 
         000005ac 0000 
    3989 000005ad 8A00!         MOVL      XAR4,@_OSTCBCur       ; [CPU_ALU] |1287| 
    3990              $C$DW$273       .dwtag  DW_TAG_TI_branch
    3991                      .dwattr $C$DW$273, DW_AT_low_pc(0x00)
    3992                      .dwattr $C$DW$273, DW_AT_name("_OSTaskReturnHook")
    3993                      .dwattr $C$DW$273, DW_AT_TI_call
    3994              
    3995 000005ae 7640!         LCR       #_OSTaskReturnHook    ; [CPU_ALU] |1287| 
         000005af 0000 
    3996                      ; call occurs [#_OSTaskReturnHook] ; [] |1287| 
    3997                      .dwpsn  file "C:/ti/Workspace/PLC_certificate/Software/uCOS-II/Source/os_task.c",line 1290,column 5,i
    3998 000005b0 9AFF          MOVB      AL,#255               ; [CPU_ALU] |1290| 
    3999              $C$DW$274       .dwtag  DW_TAG_TI_branch
    4000                      .dwattr $C$DW$274, DW_AT_low_pc(0x00)
    4001                      .dwattr $C$DW$274, DW_AT_name("_OSTaskDel")
    4002                      .dwattr $C$DW$274, DW_AT_TI_call
    4003              
    4004 000005b1 7640'         LCR       #_OSTaskDel           ; [CPU_ALU] |1290| 
         000005b2 01CC 
    4005                      ; call occurs [#_OSTaskDel] ; [] |1290| 
    4006                      .dwpsn  file "C:/ti/Workspace/PLC_certificate/Software/uCOS-II/Source/os_task.c",line 1296,column 1,i
    4007              $C$DW$275       .dwtag  DW_TAG_TI_branch
    4008                      .dwattr $C$DW$275, DW_AT_low_pc(0x00)
    4009                      .dwattr $C$DW$275, DW_AT_TI_return
    4010              
    4011 000005b3 0006          LRETR     ; [CPU_ALU] 
    4012                      ; return occurs ; [] 
    4013                      .dwattr $C$DW$272, DW_AT_TI_end_file("C:/ti/Workspace/PLC_certificate/Software/uCOS-II/Source/os_task
    4014                      .dwattr $C$DW$272, DW_AT_TI_end_line(0x510)
    4015                      .dwattr $C$DW$272, DW_AT_TI_end_column(0x01)
TMS320C2000 Assembler PC v20.2.1 Mon Feb  8 19:02:48 2021

Copyright (c) 1996-2018 Texas Instruments Incorporated
os_task.asm                                                          PAGE   78

    4016                      .dwendentry
    4017                      .dwendtag $C$DW$272
    4018              
    4019 000005b4               .sect   ".text"
    4020                      .clink
    4021                      .global _OS_TaskStkClr
    4022              
    4023              $C$DW$276       .dwtag  DW_TAG_subprogram
    4024                      .dwattr $C$DW$276, DW_AT_name("OS_TaskStkClr")
    4025                      .dwattr $C$DW$276, DW_AT_low_pc(_OS_TaskStkClr)
    4026                      .dwattr $C$DW$276, DW_AT_high_pc(0x00)
    4027                      .dwattr $C$DW$276, DW_AT_TI_symbol_name("_OS_TaskStkClr")
    4028                      .dwattr $C$DW$276, DW_AT_external
    4029                      .dwattr $C$DW$276, DW_AT_TI_begin_file("C:/ti/Workspace/PLC_certificate/Software/uCOS-II/Source/os_ta
    4030                      .dwattr $C$DW$276, DW_AT_TI_begin_line(0x52a)
    4031                      .dwattr $C$DW$276, DW_AT_TI_begin_column(0x07)
    4032                      .dwattr $C$DW$276, DW_AT_TI_max_frame_size(-8)
    4033                      .dwpsn  file "C:/ti/Workspace/PLC_certificate/Software/uCOS-II/Source/os_task.c",line 1325,column 1,i
    4034              
    4035                      .dwfde $C$DW$CIE, _OS_TaskStkClr
    4036              $C$DW$277       .dwtag  DW_TAG_formal_parameter
    4037                      .dwattr $C$DW$277, DW_AT_name("pbos")
    4038                      .dwattr $C$DW$277, DW_AT_TI_symbol_name("_pbos")
    4039                      .dwattr $C$DW$277, DW_AT_type(*$C$DW$T$30)
    4040                      .dwattr $C$DW$277, DW_AT_location[DW_OP_reg12]
    4041              
    4042              $C$DW$278       .dwtag  DW_TAG_formal_parameter
    4043                      .dwattr $C$DW$278, DW_AT_name("size")
    4044                      .dwattr $C$DW$278, DW_AT_TI_symbol_name("_size")
    4045                      .dwattr $C$DW$278, DW_AT_type(*$C$DW$T$27)
    4046                      .dwattr $C$DW$278, DW_AT_location[DW_OP_reg0]
    4047              
    4048              $C$DW$279       .dwtag  DW_TAG_formal_parameter
    4049                      .dwattr $C$DW$279, DW_AT_name("opt")
    4050                      .dwattr $C$DW$279, DW_AT_TI_symbol_name("_opt")
    4051                      .dwattr $C$DW$279, DW_AT_type(*$C$DW$T$20)
    4052                      .dwattr $C$DW$279, DW_AT_location[DW_OP_reg14]
    4053              
    4054              
    4055              ;***************************************************************
    4056              ;* FNAME: _OS_TaskStkClr                FR SIZE:   6           *
    4057              ;*                                                             *
    4058              ;* FUNCTION ENVIRONMENT                                        *
    4059              ;*                                                             *
    4060              ;* FUNCTION PROPERTIES                                         *
    4061              ;*                            0 Parameter,  5 Auto,  0 SOE     *
    4062              ;***************************************************************
    4063              
    4064 000005b4       _OS_TaskStkClr:
    4065                      .dwcfi  cfa_offset, -2
    4066                      .dwcfi  save_reg_to_mem, 26, 0
    4067 000005b4 FE06          ADDB      SP,#6                 ; [CPU_ARAU] 
    4068                      .dwcfi  cfa_offset, -8
    4069              $C$DW$280       .dwtag  DW_TAG_variable
    4070                      .dwattr $C$DW$280, DW_AT_name("pbos")
TMS320C2000 Assembler PC v20.2.1 Mon Feb  8 19:02:48 2021

Copyright (c) 1996-2018 Texas Instruments Incorporated
os_task.asm                                                          PAGE   79

    4071                      .dwattr $C$DW$280, DW_AT_TI_symbol_name("_pbos")
    4072                      .dwattr $C$DW$280, DW_AT_type(*$C$DW$T$30)
    4073                      .dwattr $C$DW$280, DW_AT_location[DW_OP_breg20 -2]
    4074              
    4075              $C$DW$281       .dwtag  DW_TAG_variable
    4076                      .dwattr $C$DW$281, DW_AT_name("size")
    4077                      .dwattr $C$DW$281, DW_AT_TI_symbol_name("_size")
    4078                      .dwattr $C$DW$281, DW_AT_type(*$C$DW$T$27)
    4079                      .dwattr $C$DW$281, DW_AT_location[DW_OP_breg20 -4]
    4080              
    4081              $C$DW$282       .dwtag  DW_TAG_variable
    4082                      .dwattr $C$DW$282, DW_AT_name("opt")
    4083                      .dwattr $C$DW$282, DW_AT_TI_symbol_name("_opt")
    4084                      .dwattr $C$DW$282, DW_AT_type(*$C$DW$T$20)
    4085                      .dwattr $C$DW$282, DW_AT_location[DW_OP_breg20 -5]
    4086              
    4087 000005b5 7D45          MOV       *-SP[5],AR5           ; [CPU_ALU] |1325| 
    4088 000005b6 1E44          MOVL      *-SP[4],ACC           ; [CPU_ALU] |1325| 
    4089 000005b7 A842          MOVL      *-SP[2],XAR4          ; [CPU_ALU] |1325| 
    4090                      .dwpsn  file "C:/ti/Workspace/PLC_certificate/Software/uCOS-II/Source/os_task.c",line 1326,column 5,i
    4091 000005b8 4045          TBIT      *-SP[5],#0            ; [CPU_ALU] |1326| 
    4092 000005b9 6C0F          B         $C$L110,NTC           ; [CPU_ALU] |1326| 
    4093                      ; branchcc occurs ; [] |1326| 
    4094                      .dwpsn  file "C:/ti/Workspace/PLC_certificate/Software/uCOS-II/Source/os_task.c",line 1327,column 9,i
    4095 000005ba 4145          TBIT      *-SP[5],#1            ; [CPU_ALU] |1327| 
    4096 000005bb 6C0D          B         $C$L110,NTC           ; [CPU_ALU] |1327| 
    4097                      ; branchcc occurs ; [] |1327| 
    4098                      .dwpsn  file "C:/ti/Workspace/PLC_certificate/Software/uCOS-II/Source/os_task.c",line 1334,column 20,
    4099 000005bc 0644          MOVL      ACC,*-SP[4]           ; [CPU_ALU] |1334| 
    4100 000005bd 610B          B         $C$L110,EQ            ; [CPU_ALU] |1334| 
    4101                      ; branchcc occurs ; [] |1334| 
    4102 000005be       $C$L109:    
    4103                      .dwpsn  file "C:/ti/Workspace/PLC_certificate/Software/uCOS-II/Source/os_task.c",line 1335,column 17,
    4104 000005be 0201          MOVB      ACC,#1                ; [CPU_ALU] |1335| 
    4105 000005bf 5641          SUBL      *-SP[4],ACC           ; [CPU_ALU] |1335| 
         000005c0 0044 
    4106                      .dwpsn  file "C:/ti/Workspace/PLC_certificate/Software/uCOS-II/Source/os_task.c",line 1336,column 17,
    4107 000005c1 8A42          MOVL      XAR4,*-SP[2]          ; [CPU_ALU] |1336| 
    4108 000005c2 A8A9          MOVL      ACC,XAR4              ; [CPU_ALU] |1336| 
    4109 000005c3 1901          SUBB      ACC,#1                ; [CPU_ALU] |1336| 
    4110 000005c4 1E42          MOVL      *-SP[2],ACC           ; [CPU_ALU] |1336| 
    4111 000005c5 2BC4          MOV       *+XAR4[0],#0          ; [CPU_ALU] |1336| 
    4112                      .dwpsn  file "C:/ti/Workspace/PLC_certificate/Software/uCOS-II/Source/os_task.c",line 1334,column 20,
    4113 000005c6 0644          MOVL      ACC,*-SP[4]           ; [CPU_ALU] |1334| 
    4114 000005c7 60F7          B         $C$L109,NEQ           ; [CPU_ALU] |1334| 
    4115                      ; branchcc occurs ; [] |1334| 
    4116                      .dwpsn  file "C:/ti/Workspace/PLC_certificate/Software/uCOS-II/Source/os_task.c",line 1341,column 1,i
    4117 000005c8       $C$L110:    
    4118 000005c8 FE86          SUBB      SP,#6                 ; [CPU_ARAU] 
    4119                      .dwcfi  cfa_offset, -2
    4120              $C$DW$283       .dwtag  DW_TAG_TI_branch
    4121                      .dwattr $C$DW$283, DW_AT_low_pc(0x00)
    4122                      .dwattr $C$DW$283, DW_AT_TI_return
    4123              
    4124 000005c9 0006          LRETR     ; [CPU_ALU] 
TMS320C2000 Assembler PC v20.2.1 Mon Feb  8 19:02:48 2021

Copyright (c) 1996-2018 Texas Instruments Incorporated
os_task.asm                                                          PAGE   80

    4125                      ; return occurs ; [] 
    4126                      .dwattr $C$DW$276, DW_AT_TI_end_file("C:/ti/Workspace/PLC_certificate/Software/uCOS-II/Source/os_task
    4127                      .dwattr $C$DW$276, DW_AT_TI_end_line(0x53d)
    4128                      .dwattr $C$DW$276, DW_AT_TI_end_column(0x01)
    4129                      .dwendentry
    4130                      .dwendtag $C$DW$276
    4131              
    4132              ;***************************************************************
    4133              ;* FAR STRINGS                                                 *
    4134              ;***************************************************************
    4135 00000000               .sect   ".econst:.string"
    4136                      .align  2
    4137 00000000 003F  $C$FSL1:        .string "?",0
         00000001 0000 
    4138              ;**************************************************************
    4139              ;* UNDEFINED EXTERNAL REFERENCES                              *
    4140              ;**************************************************************
    4141                      .global _OS_CPU_SR_Restore
    4142                      .global _OS_Sched
    4143                      .global _OS_EventTaskRemove
    4144                      .global _OS_EventTaskRemoveMulti
    4145                      .global _OS_FlagUnlink
    4146                      .global _OS_Dummy
    4147                      .global _OSTaskDelHook
    4148                      .global _OS_MemCopy
    4149                      .global _OSTaskReturnHook
    4150                      .global _OSIntNesting
    4151                      .global _OSLockNesting
    4152                      .global _OSRdyGrp
    4153                      .global _OSRunning
    4154                      .global _OSTaskCtr
    4155                      .global _OSTaskRegNextAvailID
    4156                      .global _OS_CPU_SR_Save
    4157                      .global _OS_TCBInit
    4158                      .global _OS_StrLen
    4159                      .global _OSTCBCur
    4160                      .global _OSTCBFreeList
    4161                      .global _OSTCBList
    4162                      .global _OSTaskStkInit
    4163                      .global _OSRdyTbl
    4164                      .global _OSTCBPrioTbl
    4165              
    4166              ;***************************************************************
    4167              ;* TYPE INFORMATION                                            *
    4168              ;***************************************************************
    4169              $C$DW$T$2       .dwtag  DW_TAG_unspecified_type
    4170                      .dwattr $C$DW$T$2, DW_AT_name("void")
    4171              
    4172              $C$DW$T$3       .dwtag  DW_TAG_pointer_type
    4173                      .dwattr $C$DW$T$3, DW_AT_type(*$C$DW$T$2)
    4174                      .dwattr $C$DW$T$3, DW_AT_address_class(0x20)
    4175              
    4176              
    4177              $C$DW$T$56      .dwtag  DW_TAG_subroutine_type
    4178                      .dwattr $C$DW$T$56, DW_AT_language(DW_LANG_C)
TMS320C2000 Assembler PC v20.2.1 Mon Feb  8 19:02:48 2021

Copyright (c) 1996-2018 Texas Instruments Incorporated
os_task.asm                                                          PAGE   81

    4179              $C$DW$284       .dwtag  DW_TAG_formal_parameter
    4180                      .dwattr $C$DW$284, DW_AT_type(*$C$DW$T$3)
    4181              
    4182                      .dwendtag $C$DW$T$56
    4183              
    4184              $C$DW$T$57      .dwtag  DW_TAG_pointer_type
    4185                      .dwattr $C$DW$T$57, DW_AT_type(*$C$DW$T$56)
    4186                      .dwattr $C$DW$T$57, DW_AT_address_class(0x20)
    4187              
    4188              $C$DW$T$4       .dwtag  DW_TAG_base_type
    4189                      .dwattr $C$DW$T$4, DW_AT_encoding(DW_ATE_boolean)
    4190                      .dwattr $C$DW$T$4, DW_AT_name("bool")
    4191                      .dwattr $C$DW$T$4, DW_AT_byte_size(0x01)
    4192              
    4193              $C$DW$T$5       .dwtag  DW_TAG_base_type
    4194                      .dwattr $C$DW$T$5, DW_AT_encoding(DW_ATE_signed_char)
    4195                      .dwattr $C$DW$T$5, DW_AT_name("signed char")
    4196                      .dwattr $C$DW$T$5, DW_AT_byte_size(0x01)
    4197              
    4198              $C$DW$T$6       .dwtag  DW_TAG_base_type
    4199                      .dwattr $C$DW$T$6, DW_AT_encoding(DW_ATE_unsigned_char)
    4200                      .dwattr $C$DW$T$6, DW_AT_name("unsigned char")
    4201                      .dwattr $C$DW$T$6, DW_AT_byte_size(0x01)
    4202              
    4203              $C$DW$T$62      .dwtag  DW_TAG_typedef
    4204                      .dwattr $C$DW$T$62, DW_AT_name("BOOLEAN")
    4205                      .dwattr $C$DW$T$62, DW_AT_type(*$C$DW$T$6)
    4206                      .dwattr $C$DW$T$62, DW_AT_language(DW_LANG_C)
    4207              
    4208              $C$DW$T$19      .dwtag  DW_TAG_typedef
    4209                      .dwattr $C$DW$T$19, DW_AT_name("INT8U")
    4210                      .dwattr $C$DW$T$19, DW_AT_type(*$C$DW$T$6)
    4211                      .dwattr $C$DW$T$19, DW_AT_language(DW_LANG_C)
    4212              
    4213              $C$DW$T$21      .dwtag  DW_TAG_typedef
    4214                      .dwattr $C$DW$T$21, DW_AT_name("OS_PRIO")
    4215                      .dwattr $C$DW$T$21, DW_AT_type(*$C$DW$T$19)
    4216                      .dwattr $C$DW$T$21, DW_AT_language(DW_LANG_C)
    4217              
    4218              
    4219              $C$DW$T$22      .dwtag  DW_TAG_array_type
    4220                      .dwattr $C$DW$T$22, DW_AT_type(*$C$DW$T$21)
    4221                      .dwattr $C$DW$T$22, DW_AT_language(DW_LANG_C)
    4222                      .dwattr $C$DW$T$22, DW_AT_byte_size(0x08)
    4223              $C$DW$285       .dwtag  DW_TAG_subrange_type
    4224                      .dwattr $C$DW$285, DW_AT_upper_bound(0x07)
    4225              
    4226                      .dwendtag $C$DW$T$22
    4227              
    4228              $C$DW$T$23      .dwtag  DW_TAG_pointer_type
    4229                      .dwattr $C$DW$T$23, DW_AT_type(*$C$DW$T$19)
    4230                      .dwattr $C$DW$T$23, DW_AT_address_class(0x20)
    4231              
    4232              $C$DW$T$64      .dwtag  DW_TAG_pointer_type
    4233                      .dwattr $C$DW$T$64, DW_AT_type(*$C$DW$T$23)
TMS320C2000 Assembler PC v20.2.1 Mon Feb  8 19:02:48 2021

Copyright (c) 1996-2018 Texas Instruments Incorporated
os_task.asm                                                          PAGE   82

    4234                      .dwattr $C$DW$T$64, DW_AT_address_class(0x20)
    4235              
    4236              $C$DW$T$7       .dwtag  DW_TAG_base_type
    4237                      .dwattr $C$DW$T$7, DW_AT_encoding(DW_ATE_signed_char)
    4238                      .dwattr $C$DW$T$7, DW_AT_name("wchar_t")
    4239                      .dwattr $C$DW$T$7, DW_AT_byte_size(0x01)
    4240              
    4241              $C$DW$T$8       .dwtag  DW_TAG_base_type
    4242                      .dwattr $C$DW$T$8, DW_AT_encoding(DW_ATE_signed)
    4243                      .dwattr $C$DW$T$8, DW_AT_name("short")
    4244                      .dwattr $C$DW$T$8, DW_AT_byte_size(0x01)
    4245              
    4246              $C$DW$T$9       .dwtag  DW_TAG_base_type
    4247                      .dwattr $C$DW$T$9, DW_AT_encoding(DW_ATE_unsigned)
    4248                      .dwattr $C$DW$T$9, DW_AT_name("unsigned short")
    4249                      .dwattr $C$DW$T$9, DW_AT_byte_size(0x01)
    4250              
    4251              $C$DW$T$20      .dwtag  DW_TAG_typedef
    4252                      .dwattr $C$DW$T$20, DW_AT_name("INT16U")
    4253                      .dwattr $C$DW$T$20, DW_AT_type(*$C$DW$T$9)
    4254                      .dwattr $C$DW$T$20, DW_AT_language(DW_LANG_C)
    4255              
    4256              $C$DW$T$25      .dwtag  DW_TAG_typedef
    4257                      .dwattr $C$DW$T$25, DW_AT_name("OS_FLAGS")
    4258                      .dwattr $C$DW$T$25, DW_AT_type(*$C$DW$T$20)
    4259                      .dwattr $C$DW$T$25, DW_AT_language(DW_LANG_C)
    4260              
    4261              $C$DW$T$39      .dwtag  DW_TAG_typedef
    4262                      .dwattr $C$DW$T$39, DW_AT_name("OS_CPU_SR")
    4263                      .dwattr $C$DW$T$39, DW_AT_type(*$C$DW$T$9)
    4264                      .dwattr $C$DW$T$39, DW_AT_language(DW_LANG_C)
    4265              
    4266              $C$DW$T$29      .dwtag  DW_TAG_typedef
    4267                      .dwattr $C$DW$T$29, DW_AT_name("OS_STK")
    4268                      .dwattr $C$DW$T$29, DW_AT_type(*$C$DW$T$9)
    4269                      .dwattr $C$DW$T$29, DW_AT_language(DW_LANG_C)
    4270              
    4271              $C$DW$T$30      .dwtag  DW_TAG_pointer_type
    4272                      .dwattr $C$DW$T$30, DW_AT_type(*$C$DW$T$29)
    4273                      .dwattr $C$DW$T$30, DW_AT_address_class(0x20)
    4274              
    4275              $C$DW$T$10      .dwtag  DW_TAG_base_type
    4276                      .dwattr $C$DW$T$10, DW_AT_encoding(DW_ATE_signed)
    4277                      .dwattr $C$DW$T$10, DW_AT_name("int")
    4278                      .dwattr $C$DW$T$10, DW_AT_byte_size(0x01)
    4279              
    4280              $C$DW$T$11      .dwtag  DW_TAG_base_type
    4281                      .dwattr $C$DW$T$11, DW_AT_encoding(DW_ATE_unsigned)
    4282                      .dwattr $C$DW$T$11, DW_AT_name("unsigned int")
    4283                      .dwattr $C$DW$T$11, DW_AT_byte_size(0x01)
    4284              
    4285              $C$DW$T$12      .dwtag  DW_TAG_base_type
    4286                      .dwattr $C$DW$T$12, DW_AT_encoding(DW_ATE_signed)
    4287                      .dwattr $C$DW$T$12, DW_AT_name("long")
    4288                      .dwattr $C$DW$T$12, DW_AT_byte_size(0x02)
TMS320C2000 Assembler PC v20.2.1 Mon Feb  8 19:02:48 2021

Copyright (c) 1996-2018 Texas Instruments Incorporated
os_task.asm                                                          PAGE   83

    4289              
    4290              $C$DW$T$13      .dwtag  DW_TAG_base_type
    4291                      .dwattr $C$DW$T$13, DW_AT_encoding(DW_ATE_unsigned)
    4292                      .dwattr $C$DW$T$13, DW_AT_name("unsigned long")
    4293                      .dwattr $C$DW$T$13, DW_AT_byte_size(0x02)
    4294              
    4295              $C$DW$T$27      .dwtag  DW_TAG_typedef
    4296                      .dwattr $C$DW$T$27, DW_AT_name("INT32U")
    4297                      .dwattr $C$DW$T$27, DW_AT_type(*$C$DW$T$13)
    4298                      .dwattr $C$DW$T$27, DW_AT_language(DW_LANG_C)
    4299              
    4300              
    4301              $C$DW$T$37      .dwtag  DW_TAG_array_type
    4302                      .dwattr $C$DW$T$37, DW_AT_type(*$C$DW$T$27)
    4303                      .dwattr $C$DW$T$37, DW_AT_language(DW_LANG_C)
    4304                      .dwattr $C$DW$T$37, DW_AT_byte_size(0x02)
    4305              $C$DW$286       .dwtag  DW_TAG_subrange_type
    4306                      .dwattr $C$DW$286, DW_AT_upper_bound(0x00)
    4307              
    4308                      .dwendtag $C$DW$T$37
    4309              
    4310              $C$DW$T$14      .dwtag  DW_TAG_base_type
    4311                      .dwattr $C$DW$T$14, DW_AT_encoding(DW_ATE_signed)
    4312                      .dwattr $C$DW$T$14, DW_AT_name("long long")
    4313                      .dwattr $C$DW$T$14, DW_AT_byte_size(0x04)
    4314              
    4315              $C$DW$T$15      .dwtag  DW_TAG_base_type
    4316                      .dwattr $C$DW$T$15, DW_AT_encoding(DW_ATE_unsigned)
    4317                      .dwattr $C$DW$T$15, DW_AT_name("unsigned long long")
    4318                      .dwattr $C$DW$T$15, DW_AT_byte_size(0x04)
    4319              
    4320              $C$DW$T$16      .dwtag  DW_TAG_base_type
    4321                      .dwattr $C$DW$T$16, DW_AT_encoding(DW_ATE_float)
    4322                      .dwattr $C$DW$T$16, DW_AT_name("float")
    4323                      .dwattr $C$DW$T$16, DW_AT_byte_size(0x02)
    4324              
    4325              $C$DW$T$17      .dwtag  DW_TAG_base_type
    4326                      .dwattr $C$DW$T$17, DW_AT_encoding(DW_ATE_float)
    4327                      .dwattr $C$DW$T$17, DW_AT_name("double")
    4328                      .dwattr $C$DW$T$17, DW_AT_byte_size(0x02)
    4329              
    4330              $C$DW$T$18      .dwtag  DW_TAG_base_type
    4331                      .dwattr $C$DW$T$18, DW_AT_encoding(DW_ATE_float)
    4332                      .dwattr $C$DW$T$18, DW_AT_name("long double")
    4333                      .dwattr $C$DW$T$18, DW_AT_byte_size(0x04)
    4334              
    4335              
    4336              $C$DW$T$24      .dwtag  DW_TAG_structure_type
    4337                      .dwattr $C$DW$T$24, DW_AT_name("os_event")
    4338                      .dwattr $C$DW$T$24, DW_AT_byte_size(0x10)
    4339              $C$DW$287       .dwtag  DW_TAG_member
    4340                      .dwattr $C$DW$287, DW_AT_type(*$C$DW$T$19)
    4341                      .dwattr $C$DW$287, DW_AT_name("OSEventType")
    4342                      .dwattr $C$DW$287, DW_AT_TI_symbol_name("_OSEventType")
    4343                      .dwattr $C$DW$287, DW_AT_data_member_location[DW_OP_plus_uconst 0x0]
TMS320C2000 Assembler PC v20.2.1 Mon Feb  8 19:02:48 2021

Copyright (c) 1996-2018 Texas Instruments Incorporated
os_task.asm                                                          PAGE   84

    4344                      .dwattr $C$DW$287, DW_AT_accessibility(DW_ACCESS_public)
    4345              
    4346              $C$DW$288       .dwtag  DW_TAG_member
    4347                      .dwattr $C$DW$288, DW_AT_type(*$C$DW$T$3)
    4348                      .dwattr $C$DW$288, DW_AT_name("OSEventPtr")
    4349                      .dwattr $C$DW$288, DW_AT_TI_symbol_name("_OSEventPtr")
    4350                      .dwattr $C$DW$288, DW_AT_data_member_location[DW_OP_plus_uconst 0x2]
    4351                      .dwattr $C$DW$288, DW_AT_accessibility(DW_ACCESS_public)
    4352              
    4353              $C$DW$289       .dwtag  DW_TAG_member
    4354                      .dwattr $C$DW$289, DW_AT_type(*$C$DW$T$20)
    4355                      .dwattr $C$DW$289, DW_AT_name("OSEventCnt")
    4356                      .dwattr $C$DW$289, DW_AT_TI_symbol_name("_OSEventCnt")
    4357                      .dwattr $C$DW$289, DW_AT_data_member_location[DW_OP_plus_uconst 0x4]
    4358                      .dwattr $C$DW$289, DW_AT_accessibility(DW_ACCESS_public)
    4359              
    4360              $C$DW$290       .dwtag  DW_TAG_member
    4361                      .dwattr $C$DW$290, DW_AT_type(*$C$DW$T$21)
    4362                      .dwattr $C$DW$290, DW_AT_name("OSEventGrp")
    4363                      .dwattr $C$DW$290, DW_AT_TI_symbol_name("_OSEventGrp")
    4364                      .dwattr $C$DW$290, DW_AT_data_member_location[DW_OP_plus_uconst 0x5]
    4365                      .dwattr $C$DW$290, DW_AT_accessibility(DW_ACCESS_public)
    4366              
    4367              $C$DW$291       .dwtag  DW_TAG_member
    4368                      .dwattr $C$DW$291, DW_AT_type(*$C$DW$T$22)
    4369                      .dwattr $C$DW$291, DW_AT_name("OSEventTbl")
    4370                      .dwattr $C$DW$291, DW_AT_TI_symbol_name("_OSEventTbl")
    4371                      .dwattr $C$DW$291, DW_AT_data_member_location[DW_OP_plus_uconst 0x6]
    4372                      .dwattr $C$DW$291, DW_AT_accessibility(DW_ACCESS_public)
    4373              
    4374              $C$DW$292       .dwtag  DW_TAG_member
    4375                      .dwattr $C$DW$292, DW_AT_type(*$C$DW$T$23)
    4376                      .dwattr $C$DW$292, DW_AT_name("OSEventName")
    4377                      .dwattr $C$DW$292, DW_AT_TI_symbol_name("_OSEventName")
    4378                      .dwattr $C$DW$292, DW_AT_data_member_location[DW_OP_plus_uconst 0xe]
    4379                      .dwattr $C$DW$292, DW_AT_accessibility(DW_ACCESS_public)
    4380              
    4381                      .dwendtag $C$DW$T$24
    4382              
    4383              $C$DW$T$32      .dwtag  DW_TAG_typedef
    4384                      .dwattr $C$DW$T$32, DW_AT_name("OS_EVENT")
    4385                      .dwattr $C$DW$T$32, DW_AT_type(*$C$DW$T$24)
    4386                      .dwattr $C$DW$T$32, DW_AT_language(DW_LANG_C)
    4387              
    4388              $C$DW$T$33      .dwtag  DW_TAG_pointer_type
    4389                      .dwattr $C$DW$T$33, DW_AT_type(*$C$DW$T$32)
    4390                      .dwattr $C$DW$T$33, DW_AT_address_class(0x20)
    4391              
    4392              $C$DW$T$34      .dwtag  DW_TAG_pointer_type
    4393                      .dwattr $C$DW$T$34, DW_AT_type(*$C$DW$T$33)
    4394                      .dwattr $C$DW$T$34, DW_AT_address_class(0x20)
    4395              
    4396              
    4397              $C$DW$T$26      .dwtag  DW_TAG_structure_type
    4398                      .dwattr $C$DW$T$26, DW_AT_name("os_flag_node")
TMS320C2000 Assembler PC v20.2.1 Mon Feb  8 19:02:48 2021

Copyright (c) 1996-2018 Texas Instruments Incorporated
os_task.asm                                                          PAGE   85

    4399                      .dwattr $C$DW$T$26, DW_AT_byte_size(0x0a)
    4400              $C$DW$293       .dwtag  DW_TAG_member
    4401                      .dwattr $C$DW$293, DW_AT_type(*$C$DW$T$3)
    4402                      .dwattr $C$DW$293, DW_AT_name("OSFlagNodeNext")
    4403                      .dwattr $C$DW$293, DW_AT_TI_symbol_name("_OSFlagNodeNext")
    4404                      .dwattr $C$DW$293, DW_AT_data_member_location[DW_OP_plus_uconst 0x0]
    4405                      .dwattr $C$DW$293, DW_AT_accessibility(DW_ACCESS_public)
    4406              
    4407              $C$DW$294       .dwtag  DW_TAG_member
    4408                      .dwattr $C$DW$294, DW_AT_type(*$C$DW$T$3)
    4409                      .dwattr $C$DW$294, DW_AT_name("OSFlagNodePrev")
    4410                      .dwattr $C$DW$294, DW_AT_TI_symbol_name("_OSFlagNodePrev")
    4411                      .dwattr $C$DW$294, DW_AT_data_member_location[DW_OP_plus_uconst 0x2]
    4412                      .dwattr $C$DW$294, DW_AT_accessibility(DW_ACCESS_public)
    4413              
    4414              $C$DW$295       .dwtag  DW_TAG_member
    4415                      .dwattr $C$DW$295, DW_AT_type(*$C$DW$T$3)
    4416                      .dwattr $C$DW$295, DW_AT_name("OSFlagNodeTCB")
    4417                      .dwattr $C$DW$295, DW_AT_TI_symbol_name("_OSFlagNodeTCB")
    4418                      .dwattr $C$DW$295, DW_AT_data_member_location[DW_OP_plus_uconst 0x4]
    4419                      .dwattr $C$DW$295, DW_AT_accessibility(DW_ACCESS_public)
    4420              
    4421              $C$DW$296       .dwtag  DW_TAG_member
    4422                      .dwattr $C$DW$296, DW_AT_type(*$C$DW$T$3)
    4423                      .dwattr $C$DW$296, DW_AT_name("OSFlagNodeFlagGrp")
    4424                      .dwattr $C$DW$296, DW_AT_TI_symbol_name("_OSFlagNodeFlagGrp")
    4425                      .dwattr $C$DW$296, DW_AT_data_member_location[DW_OP_plus_uconst 0x6]
    4426                      .dwattr $C$DW$296, DW_AT_accessibility(DW_ACCESS_public)
    4427              
    4428              $C$DW$297       .dwtag  DW_TAG_member
    4429                      .dwattr $C$DW$297, DW_AT_type(*$C$DW$T$25)
    4430                      .dwattr $C$DW$297, DW_AT_name("OSFlagNodeFlags")
    4431                      .dwattr $C$DW$297, DW_AT_TI_symbol_name("_OSFlagNodeFlags")
    4432                      .dwattr $C$DW$297, DW_AT_data_member_location[DW_OP_plus_uconst 0x8]
    4433                      .dwattr $C$DW$297, DW_AT_accessibility(DW_ACCESS_public)
    4434              
    4435              $C$DW$298       .dwtag  DW_TAG_member
    4436                      .dwattr $C$DW$298, DW_AT_type(*$C$DW$T$19)
    4437                      .dwattr $C$DW$298, DW_AT_name("OSFlagNodeWaitType")
    4438                      .dwattr $C$DW$298, DW_AT_TI_symbol_name("_OSFlagNodeWaitType")
    4439                      .dwattr $C$DW$298, DW_AT_data_member_location[DW_OP_plus_uconst 0x9]
    4440                      .dwattr $C$DW$298, DW_AT_accessibility(DW_ACCESS_public)
    4441              
    4442                      .dwendtag $C$DW$T$26
    4443              
    4444              $C$DW$T$35      .dwtag  DW_TAG_typedef
    4445                      .dwattr $C$DW$T$35, DW_AT_name("OS_FLAG_NODE")
    4446                      .dwattr $C$DW$T$35, DW_AT_type(*$C$DW$T$26)
    4447                      .dwattr $C$DW$T$35, DW_AT_language(DW_LANG_C)
    4448              
    4449              $C$DW$T$36      .dwtag  DW_TAG_pointer_type
    4450                      .dwattr $C$DW$T$36, DW_AT_type(*$C$DW$T$35)
    4451                      .dwattr $C$DW$T$36, DW_AT_address_class(0x20)
    4452              
    4453              
TMS320C2000 Assembler PC v20.2.1 Mon Feb  8 19:02:48 2021

Copyright (c) 1996-2018 Texas Instruments Incorporated
os_task.asm                                                          PAGE   86

    4454              $C$DW$T$28      .dwtag  DW_TAG_structure_type
    4455                      .dwattr $C$DW$T$28, DW_AT_name("os_stk_data")
    4456                      .dwattr $C$DW$T$28, DW_AT_byte_size(0x04)
    4457              $C$DW$299       .dwtag  DW_TAG_member
    4458                      .dwattr $C$DW$299, DW_AT_type(*$C$DW$T$27)
    4459                      .dwattr $C$DW$299, DW_AT_name("OSFree")
    4460                      .dwattr $C$DW$299, DW_AT_TI_symbol_name("_OSFree")
    4461                      .dwattr $C$DW$299, DW_AT_data_member_location[DW_OP_plus_uconst 0x0]
    4462                      .dwattr $C$DW$299, DW_AT_accessibility(DW_ACCESS_public)
    4463              
    4464              $C$DW$300       .dwtag  DW_TAG_member
    4465                      .dwattr $C$DW$300, DW_AT_type(*$C$DW$T$27)
    4466                      .dwattr $C$DW$300, DW_AT_name("OSUsed")
    4467                      .dwattr $C$DW$300, DW_AT_TI_symbol_name("_OSUsed")
    4468                      .dwattr $C$DW$300, DW_AT_data_member_location[DW_OP_plus_uconst 0x2]
    4469                      .dwattr $C$DW$300, DW_AT_accessibility(DW_ACCESS_public)
    4470              
    4471                      .dwendtag $C$DW$T$28
    4472              
    4473              $C$DW$T$75      .dwtag  DW_TAG_typedef
    4474                      .dwattr $C$DW$T$75, DW_AT_name("OS_STK_DATA")
    4475                      .dwattr $C$DW$T$75, DW_AT_type(*$C$DW$T$28)
    4476                      .dwattr $C$DW$T$75, DW_AT_language(DW_LANG_C)
    4477              
    4478              $C$DW$T$76      .dwtag  DW_TAG_pointer_type
    4479                      .dwattr $C$DW$T$76, DW_AT_type(*$C$DW$T$75)
    4480                      .dwattr $C$DW$T$76, DW_AT_address_class(0x20)
    4481              
    4482              
    4483              $C$DW$T$38      .dwtag  DW_TAG_structure_type
    4484                      .dwattr $C$DW$T$38, DW_AT_name("os_tcb")
    4485                      .dwattr $C$DW$T$38, DW_AT_byte_size(0x30)
    4486              $C$DW$301       .dwtag  DW_TAG_member
    4487                      .dwattr $C$DW$301, DW_AT_type(*$C$DW$T$30)
    4488                      .dwattr $C$DW$301, DW_AT_name("OSTCBStkPtr")
    4489                      .dwattr $C$DW$301, DW_AT_TI_symbol_name("_OSTCBStkPtr")
    4490                      .dwattr $C$DW$301, DW_AT_data_member_location[DW_OP_plus_uconst 0x0]
    4491                      .dwattr $C$DW$301, DW_AT_accessibility(DW_ACCESS_public)
    4492              
    4493              $C$DW$302       .dwtag  DW_TAG_member
    4494                      .dwattr $C$DW$302, DW_AT_type(*$C$DW$T$3)
    4495                      .dwattr $C$DW$302, DW_AT_name("OSTCBExtPtr")
    4496                      .dwattr $C$DW$302, DW_AT_TI_symbol_name("_OSTCBExtPtr")
    4497                      .dwattr $C$DW$302, DW_AT_data_member_location[DW_OP_plus_uconst 0x2]
    4498                      .dwattr $C$DW$302, DW_AT_accessibility(DW_ACCESS_public)
    4499              
    4500              $C$DW$303       .dwtag  DW_TAG_member
    4501                      .dwattr $C$DW$303, DW_AT_type(*$C$DW$T$30)
    4502                      .dwattr $C$DW$303, DW_AT_name("OSTCBStkBottom")
    4503                      .dwattr $C$DW$303, DW_AT_TI_symbol_name("_OSTCBStkBottom")
    4504                      .dwattr $C$DW$303, DW_AT_data_member_location[DW_OP_plus_uconst 0x4]
    4505                      .dwattr $C$DW$303, DW_AT_accessibility(DW_ACCESS_public)
    4506              
    4507              $C$DW$304       .dwtag  DW_TAG_member
    4508                      .dwattr $C$DW$304, DW_AT_type(*$C$DW$T$27)
TMS320C2000 Assembler PC v20.2.1 Mon Feb  8 19:02:48 2021

Copyright (c) 1996-2018 Texas Instruments Incorporated
os_task.asm                                                          PAGE   87

    4509                      .dwattr $C$DW$304, DW_AT_name("OSTCBStkSize")
    4510                      .dwattr $C$DW$304, DW_AT_TI_symbol_name("_OSTCBStkSize")
    4511                      .dwattr $C$DW$304, DW_AT_data_member_location[DW_OP_plus_uconst 0x6]
    4512                      .dwattr $C$DW$304, DW_AT_accessibility(DW_ACCESS_public)
    4513              
    4514              $C$DW$305       .dwtag  DW_TAG_member
    4515                      .dwattr $C$DW$305, DW_AT_type(*$C$DW$T$20)
    4516                      .dwattr $C$DW$305, DW_AT_name("OSTCBOpt")
    4517                      .dwattr $C$DW$305, DW_AT_TI_symbol_name("_OSTCBOpt")
    4518                      .dwattr $C$DW$305, DW_AT_data_member_location[DW_OP_plus_uconst 0x8]
    4519                      .dwattr $C$DW$305, DW_AT_accessibility(DW_ACCESS_public)
    4520              
    4521              $C$DW$306       .dwtag  DW_TAG_member
    4522                      .dwattr $C$DW$306, DW_AT_type(*$C$DW$T$20)
    4523                      .dwattr $C$DW$306, DW_AT_name("OSTCBId")
    4524                      .dwattr $C$DW$306, DW_AT_TI_symbol_name("_OSTCBId")
    4525                      .dwattr $C$DW$306, DW_AT_data_member_location[DW_OP_plus_uconst 0x9]
    4526                      .dwattr $C$DW$306, DW_AT_accessibility(DW_ACCESS_public)
    4527              
    4528              $C$DW$307       .dwtag  DW_TAG_member
    4529                      .dwattr $C$DW$307, DW_AT_type(*$C$DW$T$31)
    4530                      .dwattr $C$DW$307, DW_AT_name("OSTCBNext")
    4531                      .dwattr $C$DW$307, DW_AT_TI_symbol_name("_OSTCBNext")
    4532                      .dwattr $C$DW$307, DW_AT_data_member_location[DW_OP_plus_uconst 0xa]
    4533                      .dwattr $C$DW$307, DW_AT_accessibility(DW_ACCESS_public)
    4534              
    4535              $C$DW$308       .dwtag  DW_TAG_member
    4536                      .dwattr $C$DW$308, DW_AT_type(*$C$DW$T$31)
    4537                      .dwattr $C$DW$308, DW_AT_name("OSTCBPrev")
    4538                      .dwattr $C$DW$308, DW_AT_TI_symbol_name("_OSTCBPrev")
    4539                      .dwattr $C$DW$308, DW_AT_data_member_location[DW_OP_plus_uconst 0xc]
    4540                      .dwattr $C$DW$308, DW_AT_accessibility(DW_ACCESS_public)
    4541              
    4542              $C$DW$309       .dwtag  DW_TAG_member
    4543                      .dwattr $C$DW$309, DW_AT_type(*$C$DW$T$33)
    4544                      .dwattr $C$DW$309, DW_AT_name("OSTCBEventPtr")
    4545                      .dwattr $C$DW$309, DW_AT_TI_symbol_name("_OSTCBEventPtr")
    4546                      .dwattr $C$DW$309, DW_AT_data_member_location[DW_OP_plus_uconst 0xe]
    4547                      .dwattr $C$DW$309, DW_AT_accessibility(DW_ACCESS_public)
    4548              
    4549              $C$DW$310       .dwtag  DW_TAG_member
    4550                      .dwattr $C$DW$310, DW_AT_type(*$C$DW$T$34)
    4551                      .dwattr $C$DW$310, DW_AT_name("OSTCBEventMultiPtr")
    4552                      .dwattr $C$DW$310, DW_AT_TI_symbol_name("_OSTCBEventMultiPtr")
    4553                      .dwattr $C$DW$310, DW_AT_data_member_location[DW_OP_plus_uconst 0x10]
    4554                      .dwattr $C$DW$310, DW_AT_accessibility(DW_ACCESS_public)
    4555              
    4556              $C$DW$311       .dwtag  DW_TAG_member
    4557                      .dwattr $C$DW$311, DW_AT_type(*$C$DW$T$3)
    4558                      .dwattr $C$DW$311, DW_AT_name("OSTCBMsg")
    4559                      .dwattr $C$DW$311, DW_AT_TI_symbol_name("_OSTCBMsg")
    4560                      .dwattr $C$DW$311, DW_AT_data_member_location[DW_OP_plus_uconst 0x12]
    4561                      .dwattr $C$DW$311, DW_AT_accessibility(DW_ACCESS_public)
    4562              
    4563              $C$DW$312       .dwtag  DW_TAG_member
TMS320C2000 Assembler PC v20.2.1 Mon Feb  8 19:02:48 2021

Copyright (c) 1996-2018 Texas Instruments Incorporated
os_task.asm                                                          PAGE   88

    4564                      .dwattr $C$DW$312, DW_AT_type(*$C$DW$T$36)
    4565                      .dwattr $C$DW$312, DW_AT_name("OSTCBFlagNode")
    4566                      .dwattr $C$DW$312, DW_AT_TI_symbol_name("_OSTCBFlagNode")
    4567                      .dwattr $C$DW$312, DW_AT_data_member_location[DW_OP_plus_uconst 0x14]
    4568                      .dwattr $C$DW$312, DW_AT_accessibility(DW_ACCESS_public)
    4569              
    4570              $C$DW$313       .dwtag  DW_TAG_member
    4571                      .dwattr $C$DW$313, DW_AT_type(*$C$DW$T$25)
    4572                      .dwattr $C$DW$313, DW_AT_name("OSTCBFlagsRdy")
    4573                      .dwattr $C$DW$313, DW_AT_TI_symbol_name("_OSTCBFlagsRdy")
    4574                      .dwattr $C$DW$313, DW_AT_data_member_location[DW_OP_plus_uconst 0x16]
    4575                      .dwattr $C$DW$313, DW_AT_accessibility(DW_ACCESS_public)
    4576              
    4577              $C$DW$314       .dwtag  DW_TAG_member
    4578                      .dwattr $C$DW$314, DW_AT_type(*$C$DW$T$27)
    4579                      .dwattr $C$DW$314, DW_AT_name("OSTCBDly")
    4580                      .dwattr $C$DW$314, DW_AT_TI_symbol_name("_OSTCBDly")
    4581                      .dwattr $C$DW$314, DW_AT_data_member_location[DW_OP_plus_uconst 0x18]
    4582                      .dwattr $C$DW$314, DW_AT_accessibility(DW_ACCESS_public)
    4583              
    4584              $C$DW$315       .dwtag  DW_TAG_member
    4585                      .dwattr $C$DW$315, DW_AT_type(*$C$DW$T$19)
    4586                      .dwattr $C$DW$315, DW_AT_name("OSTCBStat")
    4587                      .dwattr $C$DW$315, DW_AT_TI_symbol_name("_OSTCBStat")
    4588                      .dwattr $C$DW$315, DW_AT_data_member_location[DW_OP_plus_uconst 0x1a]
    4589                      .dwattr $C$DW$315, DW_AT_accessibility(DW_ACCESS_public)
    4590              
    4591              $C$DW$316       .dwtag  DW_TAG_member
    4592                      .dwattr $C$DW$316, DW_AT_type(*$C$DW$T$19)
    4593                      .dwattr $C$DW$316, DW_AT_name("OSTCBStatPend")
    4594                      .dwattr $C$DW$316, DW_AT_TI_symbol_name("_OSTCBStatPend")
    4595                      .dwattr $C$DW$316, DW_AT_data_member_location[DW_OP_plus_uconst 0x1b]
    4596                      .dwattr $C$DW$316, DW_AT_accessibility(DW_ACCESS_public)
    4597              
    4598              $C$DW$317       .dwtag  DW_TAG_member
    4599                      .dwattr $C$DW$317, DW_AT_type(*$C$DW$T$19)
    4600                      .dwattr $C$DW$317, DW_AT_name("OSTCBPrio")
    4601                      .dwattr $C$DW$317, DW_AT_TI_symbol_name("_OSTCBPrio")
    4602                      .dwattr $C$DW$317, DW_AT_data_member_location[DW_OP_plus_uconst 0x1c]
    4603                      .dwattr $C$DW$317, DW_AT_accessibility(DW_ACCESS_public)
    4604              
    4605              $C$DW$318       .dwtag  DW_TAG_member
    4606                      .dwattr $C$DW$318, DW_AT_type(*$C$DW$T$19)
    4607                      .dwattr $C$DW$318, DW_AT_name("OSTCBX")
    4608                      .dwattr $C$DW$318, DW_AT_TI_symbol_name("_OSTCBX")
    4609                      .dwattr $C$DW$318, DW_AT_data_member_location[DW_OP_plus_uconst 0x1d]
    4610                      .dwattr $C$DW$318, DW_AT_accessibility(DW_ACCESS_public)
    4611              
    4612              $C$DW$319       .dwtag  DW_TAG_member
    4613                      .dwattr $C$DW$319, DW_AT_type(*$C$DW$T$19)
    4614                      .dwattr $C$DW$319, DW_AT_name("OSTCBY")
    4615                      .dwattr $C$DW$319, DW_AT_TI_symbol_name("_OSTCBY")
    4616                      .dwattr $C$DW$319, DW_AT_data_member_location[DW_OP_plus_uconst 0x1e]
    4617                      .dwattr $C$DW$319, DW_AT_accessibility(DW_ACCESS_public)
    4618              
TMS320C2000 Assembler PC v20.2.1 Mon Feb  8 19:02:48 2021

Copyright (c) 1996-2018 Texas Instruments Incorporated
os_task.asm                                                          PAGE   89

    4619              $C$DW$320       .dwtag  DW_TAG_member
    4620                      .dwattr $C$DW$320, DW_AT_type(*$C$DW$T$21)
    4621                      .dwattr $C$DW$320, DW_AT_name("OSTCBBitX")
    4622                      .dwattr $C$DW$320, DW_AT_TI_symbol_name("_OSTCBBitX")
    4623                      .dwattr $C$DW$320, DW_AT_data_member_location[DW_OP_plus_uconst 0x1f]
    4624                      .dwattr $C$DW$320, DW_AT_accessibility(DW_ACCESS_public)
    4625              
    4626              $C$DW$321       .dwtag  DW_TAG_member
    4627                      .dwattr $C$DW$321, DW_AT_type(*$C$DW$T$21)
    4628                      .dwattr $C$DW$321, DW_AT_name("OSTCBBitY")
    4629                      .dwattr $C$DW$321, DW_AT_TI_symbol_name("_OSTCBBitY")
    4630                      .dwattr $C$DW$321, DW_AT_data_member_location[DW_OP_plus_uconst 0x20]
    4631                      .dwattr $C$DW$321, DW_AT_accessibility(DW_ACCESS_public)
    4632              
    4633              $C$DW$322       .dwtag  DW_TAG_member
    4634                      .dwattr $C$DW$322, DW_AT_type(*$C$DW$T$19)
    4635                      .dwattr $C$DW$322, DW_AT_name("OSTCBDelReq")
    4636                      .dwattr $C$DW$322, DW_AT_TI_symbol_name("_OSTCBDelReq")
    4637                      .dwattr $C$DW$322, DW_AT_data_member_location[DW_OP_plus_uconst 0x21]
    4638                      .dwattr $C$DW$322, DW_AT_accessibility(DW_ACCESS_public)
    4639              
    4640              $C$DW$323       .dwtag  DW_TAG_member
    4641                      .dwattr $C$DW$323, DW_AT_type(*$C$DW$T$27)
    4642                      .dwattr $C$DW$323, DW_AT_name("OSTCBCtxSwCtr")
    4643                      .dwattr $C$DW$323, DW_AT_TI_symbol_name("_OSTCBCtxSwCtr")
    4644                      .dwattr $C$DW$323, DW_AT_data_member_location[DW_OP_plus_uconst 0x22]
    4645                      .dwattr $C$DW$323, DW_AT_accessibility(DW_ACCESS_public)
    4646              
    4647              $C$DW$324       .dwtag  DW_TAG_member
    4648                      .dwattr $C$DW$324, DW_AT_type(*$C$DW$T$27)
    4649                      .dwattr $C$DW$324, DW_AT_name("OSTCBCyclesTot")
    4650                      .dwattr $C$DW$324, DW_AT_TI_symbol_name("_OSTCBCyclesTot")
    4651                      .dwattr $C$DW$324, DW_AT_data_member_location[DW_OP_plus_uconst 0x24]
    4652                      .dwattr $C$DW$324, DW_AT_accessibility(DW_ACCESS_public)
    4653              
    4654              $C$DW$325       .dwtag  DW_TAG_member
    4655                      .dwattr $C$DW$325, DW_AT_type(*$C$DW$T$27)
    4656                      .dwattr $C$DW$325, DW_AT_name("OSTCBCyclesStart")
    4657                      .dwattr $C$DW$325, DW_AT_TI_symbol_name("_OSTCBCyclesStart")
    4658                      .dwattr $C$DW$325, DW_AT_data_member_location[DW_OP_plus_uconst 0x26]
    4659                      .dwattr $C$DW$325, DW_AT_accessibility(DW_ACCESS_public)
    4660              
    4661              $C$DW$326       .dwtag  DW_TAG_member
    4662                      .dwattr $C$DW$326, DW_AT_type(*$C$DW$T$30)
    4663                      .dwattr $C$DW$326, DW_AT_name("OSTCBStkBase")
    4664                      .dwattr $C$DW$326, DW_AT_TI_symbol_name("_OSTCBStkBase")
    4665                      .dwattr $C$DW$326, DW_AT_data_member_location[DW_OP_plus_uconst 0x28]
    4666                      .dwattr $C$DW$326, DW_AT_accessibility(DW_ACCESS_public)
    4667              
    4668              $C$DW$327       .dwtag  DW_TAG_member
    4669                      .dwattr $C$DW$327, DW_AT_type(*$C$DW$T$27)
    4670                      .dwattr $C$DW$327, DW_AT_name("OSTCBStkUsed")
    4671                      .dwattr $C$DW$327, DW_AT_TI_symbol_name("_OSTCBStkUsed")
    4672                      .dwattr $C$DW$327, DW_AT_data_member_location[DW_OP_plus_uconst 0x2a]
    4673                      .dwattr $C$DW$327, DW_AT_accessibility(DW_ACCESS_public)
TMS320C2000 Assembler PC v20.2.1 Mon Feb  8 19:02:48 2021

Copyright (c) 1996-2018 Texas Instruments Incorporated
os_task.asm                                                          PAGE   90

    4674              
    4675              $C$DW$328       .dwtag  DW_TAG_member
    4676                      .dwattr $C$DW$328, DW_AT_type(*$C$DW$T$23)
    4677                      .dwattr $C$DW$328, DW_AT_name("OSTCBTaskName")
    4678                      .dwattr $C$DW$328, DW_AT_TI_symbol_name("_OSTCBTaskName")
    4679                      .dwattr $C$DW$328, DW_AT_data_member_location[DW_OP_plus_uconst 0x2c]
    4680                      .dwattr $C$DW$328, DW_AT_accessibility(DW_ACCESS_public)
    4681              
    4682              $C$DW$329       .dwtag  DW_TAG_member
    4683                      .dwattr $C$DW$329, DW_AT_type(*$C$DW$T$37)
    4684                      .dwattr $C$DW$329, DW_AT_name("OSTCBRegTbl")
    4685                      .dwattr $C$DW$329, DW_AT_TI_symbol_name("_OSTCBRegTbl")
    4686                      .dwattr $C$DW$329, DW_AT_data_member_location[DW_OP_plus_uconst 0x2e]
    4687                      .dwattr $C$DW$329, DW_AT_accessibility(DW_ACCESS_public)
    4688              
    4689                      .dwendtag $C$DW$T$38
    4690              
    4691              $C$DW$T$44      .dwtag  DW_TAG_typedef
    4692                      .dwattr $C$DW$T$44, DW_AT_name("OS_TCB")
    4693                      .dwattr $C$DW$T$44, DW_AT_type(*$C$DW$T$38)
    4694                      .dwattr $C$DW$T$44, DW_AT_language(DW_LANG_C)
    4695              
    4696              $C$DW$T$45      .dwtag  DW_TAG_pointer_type
    4697                      .dwattr $C$DW$T$45, DW_AT_type(*$C$DW$T$44)
    4698                      .dwattr $C$DW$T$45, DW_AT_address_class(0x20)
    4699              
    4700              
    4701              $C$DW$T$87      .dwtag  DW_TAG_array_type
    4702                      .dwattr $C$DW$T$87, DW_AT_type(*$C$DW$T$45)
    4703                      .dwattr $C$DW$T$87, DW_AT_language(DW_LANG_C)
    4704                      .dwattr $C$DW$T$87, DW_AT_byte_size(0x80)
    4705              $C$DW$330       .dwtag  DW_TAG_subrange_type
    4706                      .dwattr $C$DW$330, DW_AT_upper_bound(0x3f)
    4707              
    4708                      .dwendtag $C$DW$T$87
    4709              
    4710              $C$DW$T$31      .dwtag  DW_TAG_pointer_type
    4711                      .dwattr $C$DW$T$31, DW_AT_type(*$C$DW$T$38)
    4712                      .dwattr $C$DW$T$31, DW_AT_address_class(0x20)
    4713              
    4714                      .dwattr $C$DW$CU, DW_AT_language(DW_LANG_C)
    4715              
    4716              ;***************************************************************
    4717              ;* DWARF CIE ENTRIES                                           *
    4718              ;***************************************************************
    4719              
    4720              $C$DW$CIE       .dwcie 26
    4721                      .dwcfi  cfa_register, 20
    4722                      .dwcfi  cfa_offset, 0
    4723                      .dwcfi  same_value, 28
    4724                      .dwcfi  same_value, 6
    4725                      .dwcfi  same_value, 7
    4726                      .dwcfi  same_value, 8
    4727                      .dwcfi  same_value, 9
    4728                      .dwcfi  same_value, 10
TMS320C2000 Assembler PC v20.2.1 Mon Feb  8 19:02:48 2021

Copyright (c) 1996-2018 Texas Instruments Incorporated
os_task.asm                                                          PAGE   91

    4729                      .dwcfi  same_value, 11
    4730                      .dwendentry
    4731              
    4732              ;***************************************************************
    4733              ;* DWARF REGISTER MAP                                          *
    4734              ;***************************************************************
    4735              
    4736              $C$DW$331       .dwtag  DW_TAG_TI_assign_register
    4737                      .dwattr $C$DW$331, DW_AT_name("AL")
    4738                      .dwattr $C$DW$331, DW_AT_location[DW_OP_reg0]
    4739              
    4740              $C$DW$332       .dwtag  DW_TAG_TI_assign_register
    4741                      .dwattr $C$DW$332, DW_AT_name("AH")
    4742                      .dwattr $C$DW$332, DW_AT_location[DW_OP_reg1]
    4743              
    4744              $C$DW$333       .dwtag  DW_TAG_TI_assign_register
    4745                      .dwattr $C$DW$333, DW_AT_name("PL")
    4746                      .dwattr $C$DW$333, DW_AT_location[DW_OP_reg2]
    4747              
    4748              $C$DW$334       .dwtag  DW_TAG_TI_assign_register
    4749                      .dwattr $C$DW$334, DW_AT_name("PH")
    4750                      .dwattr $C$DW$334, DW_AT_location[DW_OP_reg3]
    4751              
    4752              $C$DW$335       .dwtag  DW_TAG_TI_assign_register
    4753                      .dwattr $C$DW$335, DW_AT_name("SP")
    4754                      .dwattr $C$DW$335, DW_AT_location[DW_OP_reg20]
    4755              
    4756              $C$DW$336       .dwtag  DW_TAG_TI_assign_register
    4757                      .dwattr $C$DW$336, DW_AT_name("XT")
    4758                      .dwattr $C$DW$336, DW_AT_location[DW_OP_reg21]
    4759              
    4760              $C$DW$337       .dwtag  DW_TAG_TI_assign_register
    4761                      .dwattr $C$DW$337, DW_AT_name("T")
    4762                      .dwattr $C$DW$337, DW_AT_location[DW_OP_reg22]
    4763              
    4764              $C$DW$338       .dwtag  DW_TAG_TI_assign_register
    4765                      .dwattr $C$DW$338, DW_AT_name("ST0")
    4766                      .dwattr $C$DW$338, DW_AT_location[DW_OP_reg23]
    4767              
    4768              $C$DW$339       .dwtag  DW_TAG_TI_assign_register
    4769                      .dwattr $C$DW$339, DW_AT_name("ST1")
    4770                      .dwattr $C$DW$339, DW_AT_location[DW_OP_reg24]
    4771              
    4772              $C$DW$340       .dwtag  DW_TAG_TI_assign_register
    4773                      .dwattr $C$DW$340, DW_AT_name("PC")
    4774                      .dwattr $C$DW$340, DW_AT_location[DW_OP_reg25]
    4775              
    4776              $C$DW$341       .dwtag  DW_TAG_TI_assign_register
    4777                      .dwattr $C$DW$341, DW_AT_name("RPC")
    4778                      .dwattr $C$DW$341, DW_AT_location[DW_OP_reg26]
    4779              
    4780              $C$DW$342       .dwtag  DW_TAG_TI_assign_register
    4781                      .dwattr $C$DW$342, DW_AT_name("FP")
    4782                      .dwattr $C$DW$342, DW_AT_location[DW_OP_reg28]
    4783              
TMS320C2000 Assembler PC v20.2.1 Mon Feb  8 19:02:48 2021

Copyright (c) 1996-2018 Texas Instruments Incorporated
os_task.asm                                                          PAGE   92

    4784              $C$DW$343       .dwtag  DW_TAG_TI_assign_register
    4785                      .dwattr $C$DW$343, DW_AT_name("DP")
    4786                      .dwattr $C$DW$343, DW_AT_location[DW_OP_reg29]
    4787              
    4788              $C$DW$344       .dwtag  DW_TAG_TI_assign_register
    4789                      .dwattr $C$DW$344, DW_AT_name("SXM")
    4790                      .dwattr $C$DW$344, DW_AT_location[DW_OP_reg30]
    4791              
    4792              $C$DW$345       .dwtag  DW_TAG_TI_assign_register
    4793                      .dwattr $C$DW$345, DW_AT_name("PM")
    4794                      .dwattr $C$DW$345, DW_AT_location[DW_OP_reg31]
    4795              
    4796              $C$DW$346       .dwtag  DW_TAG_TI_assign_register
    4797                      .dwattr $C$DW$346, DW_AT_name("OVM")
    4798                      .dwattr $C$DW$346, DW_AT_location[DW_OP_regx 0x20]
    4799              
    4800              $C$DW$347       .dwtag  DW_TAG_TI_assign_register
    4801                      .dwattr $C$DW$347, DW_AT_name("PAGE0")
    4802                      .dwattr $C$DW$347, DW_AT_location[DW_OP_regx 0x21]
    4803              
    4804              $C$DW$348       .dwtag  DW_TAG_TI_assign_register
    4805                      .dwattr $C$DW$348, DW_AT_name("AMODE")
    4806                      .dwattr $C$DW$348, DW_AT_location[DW_OP_regx 0x22]
    4807              
    4808              $C$DW$349       .dwtag  DW_TAG_TI_assign_register
    4809                      .dwattr $C$DW$349, DW_AT_name("EALLOW")
    4810                      .dwattr $C$DW$349, DW_AT_location[DW_OP_regx 0x4e]
    4811              
    4812              $C$DW$350       .dwtag  DW_TAG_TI_assign_register
    4813                      .dwattr $C$DW$350, DW_AT_name("INTM")
    4814                      .dwattr $C$DW$350, DW_AT_location[DW_OP_regx 0x23]
    4815              
    4816              $C$DW$351       .dwtag  DW_TAG_TI_assign_register
    4817                      .dwattr $C$DW$351, DW_AT_name("IFR")
    4818                      .dwattr $C$DW$351, DW_AT_location[DW_OP_regx 0x24]
    4819              
    4820              $C$DW$352       .dwtag  DW_TAG_TI_assign_register
    4821                      .dwattr $C$DW$352, DW_AT_name("IER")
    4822                      .dwattr $C$DW$352, DW_AT_location[DW_OP_regx 0x25]
    4823              
    4824              $C$DW$353       .dwtag  DW_TAG_TI_assign_register
    4825                      .dwattr $C$DW$353, DW_AT_name("V")
    4826                      .dwattr $C$DW$353, DW_AT_location[DW_OP_regx 0x26]
    4827              
    4828              $C$DW$354       .dwtag  DW_TAG_TI_assign_register
    4829                      .dwattr $C$DW$354, DW_AT_name("PSEUDOH")
    4830                      .dwattr $C$DW$354, DW_AT_location[DW_OP_regx 0x4c]
    4831              
    4832              $C$DW$355       .dwtag  DW_TAG_TI_assign_register
    4833                      .dwattr $C$DW$355, DW_AT_name("VOL")
    4834                      .dwattr $C$DW$355, DW_AT_location[DW_OP_regx 0x4d]
    4835              
    4836              $C$DW$356       .dwtag  DW_TAG_TI_assign_register
    4837                      .dwattr $C$DW$356, DW_AT_name("AR0")
    4838                      .dwattr $C$DW$356, DW_AT_location[DW_OP_reg4]
TMS320C2000 Assembler PC v20.2.1 Mon Feb  8 19:02:48 2021

Copyright (c) 1996-2018 Texas Instruments Incorporated
os_task.asm                                                          PAGE   93

    4839              
    4840              $C$DW$357       .dwtag  DW_TAG_TI_assign_register
    4841                      .dwattr $C$DW$357, DW_AT_name("XAR0")
    4842                      .dwattr $C$DW$357, DW_AT_location[DW_OP_reg5]
    4843              
    4844              $C$DW$358       .dwtag  DW_TAG_TI_assign_register
    4845                      .dwattr $C$DW$358, DW_AT_name("AR1")
    4846                      .dwattr $C$DW$358, DW_AT_location[DW_OP_reg6]
    4847              
    4848              $C$DW$359       .dwtag  DW_TAG_TI_assign_register
    4849                      .dwattr $C$DW$359, DW_AT_name("XAR1")
    4850                      .dwattr $C$DW$359, DW_AT_location[DW_OP_reg7]
    4851              
    4852              $C$DW$360       .dwtag  DW_TAG_TI_assign_register
    4853                      .dwattr $C$DW$360, DW_AT_name("AR2")
    4854                      .dwattr $C$DW$360, DW_AT_location[DW_OP_reg8]
    4855              
    4856              $C$DW$361       .dwtag  DW_TAG_TI_assign_register
    4857                      .dwattr $C$DW$361, DW_AT_name("XAR2")
    4858                      .dwattr $C$DW$361, DW_AT_location[DW_OP_reg9]
    4859              
    4860              $C$DW$362       .dwtag  DW_TAG_TI_assign_register
    4861                      .dwattr $C$DW$362, DW_AT_name("AR3")
    4862                      .dwattr $C$DW$362, DW_AT_location[DW_OP_reg10]
    4863              
    4864              $C$DW$363       .dwtag  DW_TAG_TI_assign_register
    4865                      .dwattr $C$DW$363, DW_AT_name("XAR3")
    4866                      .dwattr $C$DW$363, DW_AT_location[DW_OP_reg11]
    4867              
    4868              $C$DW$364       .dwtag  DW_TAG_TI_assign_register
    4869                      .dwattr $C$DW$364, DW_AT_name("AR4")
    4870                      .dwattr $C$DW$364, DW_AT_location[DW_OP_reg12]
    4871              
    4872              $C$DW$365       .dwtag  DW_TAG_TI_assign_register
    4873                      .dwattr $C$DW$365, DW_AT_name("XAR4")
    4874                      .dwattr $C$DW$365, DW_AT_location[DW_OP_reg13]
    4875              
    4876              $C$DW$366       .dwtag  DW_TAG_TI_assign_register
    4877                      .dwattr $C$DW$366, DW_AT_name("AR5")
    4878                      .dwattr $C$DW$366, DW_AT_location[DW_OP_reg14]
    4879              
    4880              $C$DW$367       .dwtag  DW_TAG_TI_assign_register
    4881                      .dwattr $C$DW$367, DW_AT_name("XAR5")
    4882                      .dwattr $C$DW$367, DW_AT_location[DW_OP_reg15]
    4883              
    4884              $C$DW$368       .dwtag  DW_TAG_TI_assign_register
    4885                      .dwattr $C$DW$368, DW_AT_name("AR6")
    4886                      .dwattr $C$DW$368, DW_AT_location[DW_OP_reg16]
    4887              
    4888              $C$DW$369       .dwtag  DW_TAG_TI_assign_register
    4889                      .dwattr $C$DW$369, DW_AT_name("XAR6")
    4890                      .dwattr $C$DW$369, DW_AT_location[DW_OP_reg17]
    4891              
    4892              $C$DW$370       .dwtag  DW_TAG_TI_assign_register
    4893                      .dwattr $C$DW$370, DW_AT_name("AR7")
TMS320C2000 Assembler PC v20.2.1 Mon Feb  8 19:02:48 2021

Copyright (c) 1996-2018 Texas Instruments Incorporated
os_task.asm                                                          PAGE   94

    4894                      .dwattr $C$DW$370, DW_AT_location[DW_OP_reg18]
    4895              
    4896              $C$DW$371       .dwtag  DW_TAG_TI_assign_register
    4897                      .dwattr $C$DW$371, DW_AT_name("XAR7")
    4898                      .dwattr $C$DW$371, DW_AT_location[DW_OP_reg19]
    4899              
    4900                      .dwendtag $C$DW$CU
    4901              

No Assembly Errors, No Assembly Warnings
