TMS320C2000 Assembler PC v20.2.1 Tue Jan 12 14:30:43 2021

Copyright (c) 1996-2018 Texas Instruments Incorporated
bsp_os.asm                                                           PAGE    1

       1              ;***************************************************************
       2              ;* TMS320C2000 G3 C/C++ Codegen                               PC v20.2.1.LTS *
       3              ;* Date/Time created: Tue Jan 12 14:30:43 2021                 *
       4              ;***************************************************************
       5                      .compiler_opts --abi=coffabi --diag_wrap=off --float_support=softlib --hll_source=on --mem_model:code
       6                      .asg    XAR2, FP
       7              
       8              $C$DW$CU        .dwtag  DW_TAG_compile_unit
       9                      .dwattr $C$DW$CU, DW_AT_name("C:/ti/Workspace/PLC_certificate/Examples/TI/TMDSDOCK28335/BSP/OS/uCOS-I
      10                      .dwattr $C$DW$CU, DW_AT_producer("TI TMS320C2000 G3 C/C++ Codegen PC v20.2.1.LTS Copyright (c) 1996-2
      11                      .dwattr $C$DW$CU, DW_AT_TI_version(0x01)
      12                      .dwattr $C$DW$CU, DW_AT_comp_dir("C:\ti\Workspace\PLC_certificate\Examples\TI\TMDSDOCK28335\OS2\CCS\D
      13              ;**************************************************************
      14              ;* CINIT RECORDS                                              *
      15              ;**************************************************************
      16 00000000               .sect   ".cinit:_scirxBuf"
      17                      .clink
      18                      .align  1
      19 00000000 FFFF          .field          -$C$IR_1,16
      20 00000001 0000-         .field          _scirxBuf+0,32
         00000002 0000 
      21 00000003 0000          .bits           0,16
      22                                      ; _scirxBuf[0] @ 0
      23        0001  $C$IR_1:        .set    1
      24              
      25              
      26              $C$DW$1 .dwtag  DW_TAG_subprogram
      27                      .dwattr $C$DW$1, DW_AT_name("BSP_IntEn")
      28                      .dwattr $C$DW$1, DW_AT_TI_symbol_name("_BSP_IntEn")
      29                      .dwattr $C$DW$1, DW_AT_declaration
      30                      .dwattr $C$DW$1, DW_AT_external
      31              $C$DW$2 .dwtag  DW_TAG_formal_parameter
      32                      .dwattr $C$DW$2, DW_AT_type(*$C$DW$T$23)
      33              
      34                      .dwendtag $C$DW$1
      35              
      36              
      37              $C$DW$3 .dwtag  DW_TAG_subprogram
      38                      .dwattr $C$DW$3, DW_AT_name("OSIntEnter")
      39                      .dwattr $C$DW$3, DW_AT_TI_symbol_name("_OSIntEnter")
      40                      .dwattr $C$DW$3, DW_AT_declaration
      41                      .dwattr $C$DW$3, DW_AT_external
      42                      .dwendtag $C$DW$3
      43              
      44              
      45              $C$DW$4 .dwtag  DW_TAG_subprogram
      46                      .dwattr $C$DW$4, DW_AT_name("CPU_SR_Restore")
      47                      .dwattr $C$DW$4, DW_AT_TI_symbol_name("_CPU_SR_Restore")
      48                      .dwattr $C$DW$4, DW_AT_declaration
      49                      .dwattr $C$DW$4, DW_AT_external
      50              $C$DW$5 .dwtag  DW_TAG_formal_parameter
      51                      .dwattr $C$DW$5, DW_AT_type(*$C$DW$T$20)
      52              
      53                      .dwendtag $C$DW$4
      54              
TMS320C2000 Assembler PC v20.2.1 Tue Jan 12 14:30:43 2021

Copyright (c) 1996-2018 Texas Instruments Incorporated
bsp_os.asm                                                           PAGE    2

      55              
      56              $C$DW$6 .dwtag  DW_TAG_subprogram
      57                      .dwattr $C$DW$6, DW_AT_name("OSTimeTick")
      58                      .dwattr $C$DW$6, DW_AT_TI_symbol_name("_OSTimeTick")
      59                      .dwattr $C$DW$6, DW_AT_declaration
      60                      .dwattr $C$DW$6, DW_AT_external
      61                      .dwendtag $C$DW$6
      62              
      63              
      64              $C$DW$7 .dwtag  DW_TAG_subprogram
      65                      .dwattr $C$DW$7, DW_AT_name("OSIntExit")
      66                      .dwattr $C$DW$7, DW_AT_TI_symbol_name("_OSIntExit")
      67                      .dwattr $C$DW$7, DW_AT_declaration
      68                      .dwattr $C$DW$7, DW_AT_external
      69                      .dwendtag $C$DW$7
      70              
      71              $C$DW$8 .dwtag  DW_TAG_variable
      72                      .dwattr $C$DW$8, DW_AT_name("certification_flag1")
      73                      .dwattr $C$DW$8, DW_AT_TI_symbol_name("_certification_flag1")
      74                      .dwattr $C$DW$8, DW_AT_type(*$C$DW$T$33)
      75                      .dwattr $C$DW$8, DW_AT_declaration
      76                      .dwattr $C$DW$8, DW_AT_external
      77              
      78              $C$DW$9 .dwtag  DW_TAG_variable
      79                      .dwattr $C$DW$9, DW_AT_name("certification_flag2")
      80                      .dwattr $C$DW$9, DW_AT_TI_symbol_name("_certification_flag2")
      81                      .dwattr $C$DW$9, DW_AT_type(*$C$DW$T$33)
      82                      .dwattr $C$DW$9, DW_AT_declaration
      83                      .dwattr $C$DW$9, DW_AT_external
      84              
      85              $C$DW$10        .dwtag  DW_TAG_variable
      86                      .dwattr $C$DW$10, DW_AT_name("psh_flag")
      87                      .dwattr $C$DW$10, DW_AT_TI_symbol_name("_psh_flag")
      88                      .dwattr $C$DW$10, DW_AT_type(*$C$DW$T$33)
      89                      .dwattr $C$DW$10, DW_AT_declaration
      90                      .dwattr $C$DW$10, DW_AT_external
      91              
      92              
      93              $C$DW$11        .dwtag  DW_TAG_subprogram
      94                      .dwattr $C$DW$11, DW_AT_name("CPU_SR_Save")
      95                      .dwattr $C$DW$11, DW_AT_TI_symbol_name("_CPU_SR_Save")
      96                      .dwattr $C$DW$11, DW_AT_type(*$C$DW$T$20)
      97                      .dwattr $C$DW$11, DW_AT_declaration
      98                      .dwattr $C$DW$11, DW_AT_external
      99                      .dwendtag $C$DW$11
     100              
     101                      .global _scirxBuf
     102 00000000       _scirxBuf:      .usect  ".ebss:_scirxBuf",16,1,0
     103                      .clink ".ebss:_scirxBuf"
     104              $C$DW$12        .dwtag  DW_TAG_variable
     105                      .dwattr $C$DW$12, DW_AT_name("scirxBuf")
     106                      .dwattr $C$DW$12, DW_AT_TI_symbol_name("_scirxBuf")
     107                      .dwattr $C$DW$12, DW_AT_location[DW_OP_addr _scirxBuf]
     108                      .dwattr $C$DW$12, DW_AT_type(*$C$DW$T$34)
     109                      .dwattr $C$DW$12, DW_AT_external
TMS320C2000 Assembler PC v20.2.1 Tue Jan 12 14:30:43 2021

Copyright (c) 1996-2018 Texas Instruments Incorporated
bsp_os.asm                                                           PAGE    3

     110              
     111              $C$DW$13        .dwtag  DW_TAG_variable
     112                      .dwattr $C$DW$13, DW_AT_name("Timer_flag")
     113                      .dwattr $C$DW$13, DW_AT_TI_symbol_name("_Timer_flag")
     114                      .dwattr $C$DW$13, DW_AT_type(*$C$DW$T$31)
     115                      .dwattr $C$DW$13, DW_AT_declaration
     116                      .dwattr $C$DW$13, DW_AT_external
     117              
     118              $C$DW$14        .dwtag  DW_TAG_variable
     119                      .dwattr $C$DW$14, DW_AT_name("Reply_flag")
     120                      .dwattr $C$DW$14, DW_AT_TI_symbol_name("_Reply_flag")
     121                      .dwattr $C$DW$14, DW_AT_type(*$C$DW$T$34)
     122                      .dwattr $C$DW$14, DW_AT_declaration
     123                      .dwattr $C$DW$14, DW_AT_external
     124              
     125                      .sblock ".ebss:_scirxBuf"
     126              ;       C:\ti\ccs1011\ccs\tools\compiler\ti-cgt-c2000_20.2.1.LTS\bin\ac2000.exe -@C:\\Users\\LEEKEO~1\\AppDat
     127 00000000               .sect   ".text"
     128                      .clink
     129                      .global _BSP_OS_TIMER2_TickInit
     130              
     131              $C$DW$15        .dwtag  DW_TAG_subprogram
     132                      .dwattr $C$DW$15, DW_AT_name("BSP_OS_TIMER2_TickInit")
     133                      .dwattr $C$DW$15, DW_AT_low_pc(_BSP_OS_TIMER2_TickInit)
     134                      .dwattr $C$DW$15, DW_AT_high_pc(0x00)
     135                      .dwattr $C$DW$15, DW_AT_TI_symbol_name("_BSP_OS_TIMER2_TickInit")
     136                      .dwattr $C$DW$15, DW_AT_external
     137                      .dwattr $C$DW$15, DW_AT_TI_begin_file("C:/ti/Workspace/PLC_certificate/Examples/TI/TMDSDOCK28335/BSP/
     138                      .dwattr $C$DW$15, DW_AT_TI_begin_line(0x66)
     139                      .dwattr $C$DW$15, DW_AT_TI_begin_column(0x06)
     140                      .dwattr $C$DW$15, DW_AT_TI_max_frame_size(-4)
     141                      .dwpsn  file "C:/ti/Workspace/PLC_certificate/Examples/TI/TMDSDOCK28335/BSP/OS/uCOS-II/bsp_os.c",line
     142              
     143                      .dwfde $C$DW$CIE, _BSP_OS_TIMER2_TickInit
     144              $C$DW$16        .dwtag  DW_TAG_formal_parameter
     145                      .dwattr $C$DW$16, DW_AT_name("cnts")
     146                      .dwattr $C$DW$16, DW_AT_TI_symbol_name("_cnts")
     147                      .dwattr $C$DW$16, DW_AT_type(*$C$DW$T$28)
     148                      .dwattr $C$DW$16, DW_AT_location[DW_OP_reg0]
     149              
     150              
     151              ;***************************************************************
     152              ;* FNAME: _BSP_OS_TIMER2_TickInit       FR SIZE:   2           *
     153              ;*                                                             *
     154              ;* FUNCTION ENVIRONMENT                                        *
     155              ;*                                                             *
     156              ;* FUNCTION PROPERTIES                                         *
     157              ;*                            0 Parameter,  2 Auto,  0 SOE     *
     158              ;***************************************************************
     159              
     160 00000000       _BSP_OS_TIMER2_TickInit:
     161                      .dwcfi  cfa_offset, -2
     162                      .dwcfi  save_reg_to_mem, 26, 0
     163 00000000 FE02          ADDB      SP,#2                 ; [CPU_ARAU] 
     164                      .dwcfi  cfa_offset, -4
TMS320C2000 Assembler PC v20.2.1 Tue Jan 12 14:30:43 2021

Copyright (c) 1996-2018 Texas Instruments Incorporated
bsp_os.asm                                                           PAGE    4

     165              $C$DW$17        .dwtag  DW_TAG_variable
     166                      .dwattr $C$DW$17, DW_AT_name("cnts")
     167                      .dwattr $C$DW$17, DW_AT_TI_symbol_name("_cnts")
     168                      .dwattr $C$DW$17, DW_AT_type(*$C$DW$T$28)
     169                      .dwattr $C$DW$17, DW_AT_location[DW_OP_breg20 -2]
     170              
     171 00000001 1E42          MOVL      *-SP[2],ACC           ; [CPU_ALU] |103| 
     172                      .dwpsn  file "C:/ti/Workspace/PLC_certificate/Examples/TI/TMDSDOCK28335/BSP/OS/uCOS-II/bsp_os.c",line
     173 00000002 F5A9          MOV       AL,*(0:0x0c14)        ; [CPU_ALU] |105| 
         00000003 0C14 
     174 00000004 5010          ORB       AL,#0x10              ; [CPU_ALU] |105| 
     175 00000005 F4A9          MOV       *(0:0x0c14),AL        ; [CPU_ALU] |105| 
         00000006 0C14 
     176                      .dwpsn  file "C:/ti/Workspace/PLC_certificate/Examples/TI/TMDSDOCK28335/BSP/OS/uCOS-II/bsp_os.c",line
     177 00000007 F5A9          MOV       AL,*(0:0x0c16)        ; [CPU_ALU] |107| 
         00000008 0C16 
     178 00000009 90FF          ANDB      AL,#0xff              ; [CPU_ALU] |107| 
     179 0000000a F4A9          MOV       *(0:0x0c16),AL        ; [CPU_ALU] |107| 
         0000000b 0C16 
     180                      .dwpsn  file "C:/ti/Workspace/PLC_certificate/Examples/TI/TMDSDOCK28335/BSP/OS/uCOS-II/bsp_os.c",line
     181 0000000c F5A9          MOV       AL,*(0:0x0c17)        ; [CPU_ALU] |108| 
         0000000d 0C17 
     182 0000000e 90FF          ANDB      AL,#0xff              ; [CPU_ALU] |108| 
     183 0000000f F4A9          MOV       *(0:0x0c17),AL        ; [CPU_ALU] |108| 
         00000010 0C17 
     184                      .dwpsn  file "C:/ti/Workspace/PLC_certificate/Examples/TI/TMDSDOCK28335/BSP/OS/uCOS-II/bsp_os.c",line
     185 00000011 8F00          MOVL      XAR4,#3090            ; [CPU_ARAU] |110| 
         00000012 0C12 
     186 00000013 0642          MOVL      ACC,*-SP[2]           ; [CPU_ALU] |110| 
     187 00000014 1EC4          MOVL      *+XAR4[0],ACC         ; [CPU_ALU] |110| 
     188                      .dwpsn  file "C:/ti/Workspace/PLC_certificate/Examples/TI/TMDSDOCK28335/BSP/OS/uCOS-II/bsp_os.c",line
     189 00000015 F5A9          MOV       AL,*(0:0x0c14)        ; [CPU_ALU] |112| 
         00000016 0C14 
     190 00000017 18A9          AND       AL,#0xf3ff            ; [CPU_ALU] |112| 
         00000018 F3FF 
     191 00000019 F4A9          MOV       *(0:0x0c14),AL        ; [CPU_ALU] |112| 
         0000001a 0C14 
     192                      .dwpsn  file "C:/ti/Workspace/PLC_certificate/Examples/TI/TMDSDOCK28335/BSP/OS/uCOS-II/bsp_os.c",line
     193 0000001b F5A9          MOV       AL,*(0:0x0c14)        ; [CPU_ALU] |114| 
         0000001c 0C14 
     194 0000001d 5020          ORB       AL,#0x20              ; [CPU_ALU] |114| 
     195 0000001e F4A9          MOV       *(0:0x0c14),AL        ; [CPU_ALU] |114| 
         0000001f 0C14 
     196                      .dwpsn  file "C:/ti/Workspace/PLC_certificate/Examples/TI/TMDSDOCK28335/BSP/OS/uCOS-II/bsp_os.c",line
     197 00000020 F5A9          MOV       AL,*(0:0x0c14)        ; [CPU_ALU] |116| 
         00000021 0C14 
     198 00000022 1AA9          OR        AL,#0x4000            ; [CPU_ALU] |116| 
         00000023 4000 
     199 00000024 F4A9          MOV       *(0:0x0c14),AL        ; [CPU_ALU] |116| 
         00000025 0C14 
     200                      .dwpsn  file "C:/ti/Workspace/PLC_certificate/Examples/TI/TMDSDOCK28335/BSP/OS/uCOS-II/bsp_os.c",line
     201 00000026 9A0E          MOVB      AL,#14                ; [CPU_ALU] |118| 
     202              $C$DW$18        .dwtag  DW_TAG_TI_branch
     203                      .dwattr $C$DW$18, DW_AT_low_pc(0x00)
     204                      .dwattr $C$DW$18, DW_AT_name("_BSP_IntEn")
TMS320C2000 Assembler PC v20.2.1 Tue Jan 12 14:30:43 2021

Copyright (c) 1996-2018 Texas Instruments Incorporated
bsp_os.asm                                                           PAGE    5

     205                      .dwattr $C$DW$18, DW_AT_TI_call
     206              
     207 00000027 7640!         LCR       #_BSP_IntEn           ; [CPU_ALU] |118| 
         00000028 0000 
     208                      ; call occurs [#_BSP_IntEn] ; [] |118| 
     209                      .dwpsn  file "C:/ti/Workspace/PLC_certificate/Examples/TI/TMDSDOCK28335/BSP/OS/uCOS-II/bsp_os.c",line
     210 00000029 F5A9          MOV       AL,*(0:0x0c14)        ; [CPU_ALU] |120| 
         0000002a 0C14 
     211 0000002b 18A9          AND       AL,#0xffef            ; [CPU_ALU] |120| 
         0000002c FFEF 
     212 0000002d F4A9          MOV       *(0:0x0c14),AL        ; [CPU_ALU] |120| 
         0000002e 0C14 
     213                      .dwpsn  file "C:/ti/Workspace/PLC_certificate/Examples/TI/TMDSDOCK28335/BSP/OS/uCOS-II/bsp_os.c",line
     214 0000002f FE82          SUBB      SP,#2                 ; [CPU_ARAU] 
     215                      .dwcfi  cfa_offset, -2
     216              $C$DW$19        .dwtag  DW_TAG_TI_branch
     217                      .dwattr $C$DW$19, DW_AT_low_pc(0x00)
     218                      .dwattr $C$DW$19, DW_AT_TI_return
     219              
     220 00000030 0006          LRETR     ; [CPU_ALU] 
     221                      ; return occurs ; [] 
     222                      .dwattr $C$DW$15, DW_AT_TI_end_file("C:/ti/Workspace/PLC_certificate/Examples/TI/TMDSDOCK28335/BSP/OS
     223                      .dwattr $C$DW$15, DW_AT_TI_end_line(0x79)
     224                      .dwattr $C$DW$15, DW_AT_TI_end_column(0x01)
     225                      .dwendentry
     226                      .dwendtag $C$DW$15
     227              
     228 00000000               .sect   ".text:retain"
     229                      .retain
     230                      .retainrefs
     231                      .global _BSP_OS_TIMER2_TickHandler
     232              
     233              $C$DW$20        .dwtag  DW_TAG_subprogram
     234                      .dwattr $C$DW$20, DW_AT_name("BSP_OS_TIMER2_TickHandler")
     235                      .dwattr $C$DW$20, DW_AT_low_pc(_BSP_OS_TIMER2_TickHandler)
     236                      .dwattr $C$DW$20, DW_AT_high_pc(0x00)
     237                      .dwattr $C$DW$20, DW_AT_TI_symbol_name("_BSP_OS_TIMER2_TickHandler")
     238                      .dwattr $C$DW$20, DW_AT_external
     239                      .dwattr $C$DW$20, DW_AT_TI_begin_file("C:/ti/Workspace/PLC_certificate/Examples/TI/TMDSDOCK28335/BSP/
     240                      .dwattr $C$DW$20, DW_AT_TI_begin_line(0x8b)
     241                      .dwattr $C$DW$20, DW_AT_TI_begin_column(0x10)
     242                      .dwattr $C$DW$20, DW_AT_TI_interrupt
     243                      .dwattr $C$DW$20, DW_AT_TI_max_frame_size(-16)
     244                      .dwpsn  file "C:/ti/Workspace/PLC_certificate/Examples/TI/TMDSDOCK28335/BSP/OS/uCOS-II/bsp_os.c",line
     245              
     246                      .dwfde $C$DW$CIE, _BSP_OS_TIMER2_TickHandler
     247              
     248              ;***************************************************************
     249              ;* FNAME: _BSP_OS_TIMER2_TickHandler    FR SIZE:  14           *
     250              ;*                                                             *
     251              ;* FUNCTION ENVIRONMENT                                        *
     252              ;*                                                             *
     253              ;* FUNCTION PROPERTIES                                         *
     254              ;*                            0 Parameter,  1 Auto, 12 SOE     *
     255              ;***************************************************************
TMS320C2000 Assembler PC v20.2.1 Tue Jan 12 14:30:43 2021

Copyright (c) 1996-2018 Texas Instruments Incorporated
bsp_os.asm                                                           PAGE    6

     256              
     257 00000000       _BSP_OS_TIMER2_TickHandler:
     258                      .dwcfi  cfa_offset, -2
     259                      .dwcfi  save_reg_to_mem, 26, 0
     260 00000000 761B          ASP       ; [CPU_ALU] 
     261 00000001 0005          PUSH      AR1H:AR0H             ; [CPU_ALU] 
     262                      .dwcfi  save_reg_to_mem, 5, 2
     263                      .dwcfi  save_reg_to_mem, 7, 3
     264                      .dwcfi  cfa_offset, -4
     265 00000002 ABBD          MOVL      *SP++,XT              ; [CPU_ALU] 
     266                      .dwcfi  save_reg_to_mem, 21, 4
     267                      .dwcfi  save_reg_to_mem, 22, 5
     268                      .dwcfi  cfa_offset, -6
     269 00000003 A8BD          MOVL      *SP++,XAR4            ; [CPU_ALU] 
     270                      .dwcfi  save_reg_to_mem, 12, 6
     271                      .dwcfi  save_reg_to_mem, 13, 7
     272                      .dwcfi  cfa_offset, -8
     273 00000004 A0BD          MOVL      *SP++,XAR5            ; [CPU_ALU] 
     274                      .dwcfi  save_reg_to_mem, 14, 8
     275                      .dwcfi  save_reg_to_mem, 15, 9
     276                      .dwcfi  cfa_offset, -10
     277 00000005 C2BD          MOVL      *SP++,XAR6            ; [CPU_ALU] 
     278                      .dwcfi  save_reg_to_mem, 16, 10
     279                      .dwcfi  save_reg_to_mem, 17, 11
     280                      .dwcfi  cfa_offset, -12
     281 00000006 C3BD          MOVL      *SP++,XAR7            ; [CPU_ALU] 
     282                      .dwcfi  save_reg_to_mem, 18, 12
     283                      .dwcfi  save_reg_to_mem, 19, 13
     284                      .dwcfi  cfa_offset, -14
     285 00000007 FE02          ADDB      SP,#2                 ; [CPU_ARAU] 
     286                      .dwcfi  cfa_offset, -16
     287 00000008 FF69          SPM       0                     ; [CPU_ALU] 
     288 00000009 2942          CLRC      PAGE0,OVM             ; [CPU_ALU] 
     289 0000000a 5616          CLRC      AMODE                 ; [CPU_ALU] 
     290              $C$DW$21        .dwtag  DW_TAG_variable
     291                      .dwattr $C$DW$21, DW_AT_name("cpu_sr")
     292                      .dwattr $C$DW$21, DW_AT_TI_symbol_name("_cpu_sr")
     293                      .dwattr $C$DW$21, DW_AT_type(*$C$DW$T$20)
     294                      .dwattr $C$DW$21, DW_AT_location[DW_OP_breg20 -1]
     295              
     296                      .dwpsn  file "C:/ti/Workspace/PLC_certificate/Examples/TI/TMDSDOCK28335/BSP/OS/uCOS-II/bsp_os.c",line
     297 0000000b 2B41          MOV       *-SP[1],#0            ; [CPU_ALU] |141| 
     298                      .dwpsn  file "C:/ti/Workspace/PLC_certificate/Examples/TI/TMDSDOCK28335/BSP/OS/uCOS-II/bsp_os.c",line
     299              $C$DW$22        .dwtag  DW_TAG_TI_branch
     300                      .dwattr $C$DW$22, DW_AT_low_pc(0x00)
     301                      .dwattr $C$DW$22, DW_AT_name("_CPU_SR_Save")
     302                      .dwattr $C$DW$22, DW_AT_TI_call
     303              
     304 0000000c 7640!         LCR       #_CPU_SR_Save         ; [CPU_ALU] |143| 
         0000000d 0000 
     305                      ; call occurs [#_CPU_SR_Save] ; [] |143| 
     306 0000000e 9641          MOV       *-SP[1],AL            ; [CPU_ALU] |143| 
     307                      .dwpsn  file "C:/ti/Workspace/PLC_certificate/Examples/TI/TMDSDOCK28335/BSP/OS/uCOS-II/bsp_os.c",line
     308              $C$DW$23        .dwtag  DW_TAG_TI_branch
     309                      .dwattr $C$DW$23, DW_AT_low_pc(0x00)
TMS320C2000 Assembler PC v20.2.1 Tue Jan 12 14:30:43 2021

Copyright (c) 1996-2018 Texas Instruments Incorporated
bsp_os.asm                                                           PAGE    7

     310                      .dwattr $C$DW$23, DW_AT_name("_OSIntEnter")
     311                      .dwattr $C$DW$23, DW_AT_TI_call
     312              
     313 0000000f 7640!         LCR       #_OSIntEnter          ; [CPU_ALU] |144| 
         00000010 0000 
     314                      ; call occurs [#_OSIntEnter] ; [] |144| 
     315                      .dwpsn  file "C:/ti/Workspace/PLC_certificate/Examples/TI/TMDSDOCK28335/BSP/OS/uCOS-II/bsp_os.c",line
     316 00000011 F5A9          MOV       AL,*(0:0x0c14)        ; [CPU_ALU] |145| 
         00000012 0C14 
     317 00000013 1AA9          OR        AL,#0x8000            ; [CPU_ALU] |145| 
         00000014 8000 
     318 00000015 F4A9          MOV       *(0:0x0c14),AL        ; [CPU_ALU] |145| 
         00000016 0C14 
     319                      .dwpsn  file "C:/ti/Workspace/PLC_certificate/Examples/TI/TMDSDOCK28335/BSP/OS/uCOS-II/bsp_os.c",line
     320 00000017 9241          MOV       AL,*-SP[1]            ; [CPU_ALU] |146| 
     321              $C$DW$24        .dwtag  DW_TAG_TI_branch
     322                      .dwattr $C$DW$24, DW_AT_low_pc(0x00)
     323                      .dwattr $C$DW$24, DW_AT_name("_CPU_SR_Restore")
     324                      .dwattr $C$DW$24, DW_AT_TI_call
     325              
     326 00000018 7640!         LCR       #_CPU_SR_Restore      ; [CPU_ALU] |146| 
         00000019 0000 
     327                      ; call occurs [#_CPU_SR_Restore] ; [] |146| 
     328                      .dwpsn  file "C:/ti/Workspace/PLC_certificate/Examples/TI/TMDSDOCK28335/BSP/OS/uCOS-II/bsp_os.c",line
     329              $C$DW$25        .dwtag  DW_TAG_TI_branch
     330                      .dwattr $C$DW$25, DW_AT_low_pc(0x00)
     331                      .dwattr $C$DW$25, DW_AT_name("_OSTimeTick")
     332                      .dwattr $C$DW$25, DW_AT_TI_call
     333              
     334 0000001a 7640!         LCR       #_OSTimeTick          ; [CPU_ALU] |148| 
         0000001b 0000 
     335                      ; call occurs [#_OSTimeTick] ; [] |148| 
     336                      .dwpsn  file "C:/ti/Workspace/PLC_certificate/Examples/TI/TMDSDOCK28335/BSP/OS/uCOS-II/bsp_os.c",line
     337 0000001c 9A0E          MOVB      AL,#14                ; [CPU_ALU] |151| 
     338              $C$DW$26        .dwtag  DW_TAG_TI_branch
     339                      .dwattr $C$DW$26, DW_AT_low_pc(0x00)
     340                      .dwattr $C$DW$26, DW_AT_name("_BSP_IntEn")
     341                      .dwattr $C$DW$26, DW_AT_TI_call
     342              
     343 0000001d 7640!         LCR       #_BSP_IntEn           ; [CPU_ALU] |151| 
         0000001e 0000 
     344                      ; call occurs [#_BSP_IntEn] ; [] |151| 
     345                      .dwpsn  file "C:/ti/Workspace/PLC_certificate/Examples/TI/TMDSDOCK28335/BSP/OS/uCOS-II/bsp_os.c",line
     346              $C$DW$27        .dwtag  DW_TAG_TI_branch
     347                      .dwattr $C$DW$27, DW_AT_low_pc(0x00)
     348                      .dwattr $C$DW$27, DW_AT_name("_OSIntExit")
     349                      .dwattr $C$DW$27, DW_AT_TI_call
     350              
     351 0000001f 7640!         LCR       #_OSIntExit           ; [CPU_ALU] |152| 
         00000020 0000 
     352                      ; call occurs [#_OSIntExit] ; [] |152| 
     353                      .dwpsn  file "C:/ti/Workspace/PLC_certificate/Examples/TI/TMDSDOCK28335/BSP/OS/uCOS-II/bsp_os.c",line
     354 00000021 FE82          SUBB      SP,#2                 ; [CPU_ARAU] 
     355                      .dwcfi  cfa_offset, -14
     356 00000022 C5BE          MOVL      XAR7,*--SP            ; [CPU_ALU] 
TMS320C2000 Assembler PC v20.2.1 Tue Jan 12 14:30:43 2021

Copyright (c) 1996-2018 Texas Instruments Incorporated
bsp_os.asm                                                           PAGE    8

     357                      .dwcfi  cfa_offset, -12
     358                      .dwcfi  restore_reg, 18
     359 00000023 C4BE          MOVL      XAR6,*--SP            ; [CPU_ALU] 
     360                      .dwcfi  cfa_offset, -10
     361                      .dwcfi  restore_reg, 16
     362 00000024 83BE          MOVL      XAR5,*--SP            ; [CPU_ALU] 
     363                      .dwcfi  cfa_offset, -8
     364                      .dwcfi  restore_reg, 14
     365 00000025 8ABE          MOVL      XAR4,*--SP            ; [CPU_ALU] 
     366                      .dwcfi  cfa_offset, -6
     367                      .dwcfi  restore_reg, 12
     368 00000026 87BE          MOVL      XT,*--SP              ; [CPU_ALU] 
     369                      .dwcfi  cfa_offset, -4
     370                      .dwcfi  restore_reg, 22
     371                      .dwcfi  restore_reg, 21
     372 00000027 0003          POP       AR1H:AR0H             ; [CPU_ALU] 
     373                      .dwcfi  cfa_offset, -2
     374                      .dwcfi  restore_reg, 5
     375                      .dwcfi  restore_reg, 7
     376 00000028 7617          NASP      ; [CPU_ALU] 
     377              $C$DW$28        .dwtag  DW_TAG_TI_branch
     378                      .dwattr $C$DW$28, DW_AT_low_pc(0x00)
     379                      .dwattr $C$DW$28, DW_AT_TI_return
     380              
     381 00000029 7602          IRET      ; [CPU_ALU] 
     382                      ; return occurs ; [] 
     383                      .dwattr $C$DW$20, DW_AT_TI_end_file("C:/ti/Workspace/PLC_certificate/Examples/TI/TMDSDOCK28335/BSP/OS
     384                      .dwattr $C$DW$20, DW_AT_TI_end_line(0x99)
     385                      .dwattr $C$DW$20, DW_AT_TI_end_column(0x01)
     386                      .dwendentry
     387                      .dwendtag $C$DW$20
     388              
     389 0000002a               .sect   ".text:retain"
     390                      .retain
     391                      .retainrefs
     392                      .global _BSP_SCIA_RX
     393              
     394              $C$DW$29        .dwtag  DW_TAG_subprogram
     395                      .dwattr $C$DW$29, DW_AT_name("BSP_SCIA_RX")
     396                      .dwattr $C$DW$29, DW_AT_low_pc(_BSP_SCIA_RX)
     397                      .dwattr $C$DW$29, DW_AT_high_pc(0x00)
     398                      .dwattr $C$DW$29, DW_AT_TI_symbol_name("_BSP_SCIA_RX")
     399                      .dwattr $C$DW$29, DW_AT_external
     400                      .dwattr $C$DW$29, DW_AT_TI_begin_file("C:/ti/Workspace/PLC_certificate/Examples/TI/TMDSDOCK28335/BSP/
     401                      .dwattr $C$DW$29, DW_AT_TI_begin_line(0xa6)
     402                      .dwattr $C$DW$29, DW_AT_TI_begin_column(0x10)
     403                      .dwattr $C$DW$29, DW_AT_TI_interrupt
     404                      .dwattr $C$DW$29, DW_AT_TI_max_frame_size(-8)
     405                      .dwpsn  file "C:/ti/Workspace/PLC_certificate/Examples/TI/TMDSDOCK28335/BSP/OS/uCOS-II/bsp_os.c",line
     406              
     407                      .dwfde $C$DW$CIE, _BSP_SCIA_RX
     408              
     409              ;***************************************************************
     410              ;* FNAME: _BSP_SCIA_RX                  FR SIZE:   6           *
     411              ;*                                                             *
TMS320C2000 Assembler PC v20.2.1 Tue Jan 12 14:30:43 2021

Copyright (c) 1996-2018 Texas Instruments Incorporated
bsp_os.asm                                                           PAGE    9

     412              ;* FUNCTION ENVIRONMENT                                        *
     413              ;*                                                             *
     414              ;* FUNCTION PROPERTIES                                         *
     415              ;*                            0 Parameter,  1 Auto,  4 SOE     *
     416              ;***************************************************************
     417              
     418 0000002a       _BSP_SCIA_RX:
     419                      .dwcfi  cfa_offset, -2
     420                      .dwcfi  save_reg_to_mem, 26, 0
     421 0000002a 761B          ASP       ; [CPU_ALU] 
     422 0000002b 0005          PUSH      AR1H:AR0H             ; [CPU_ALU] 
     423                      .dwcfi  save_reg_to_mem, 5, 2
     424                      .dwcfi  save_reg_to_mem, 7, 3
     425                      .dwcfi  cfa_offset, -4
     426 0000002c A8BD          MOVL      *SP++,XAR4            ; [CPU_ALU] 
     427                      .dwcfi  save_reg_to_mem, 12, 4
     428                      .dwcfi  save_reg_to_mem, 13, 5
     429                      .dwcfi  cfa_offset, -6
     430 0000002d FE02          ADDB      SP,#2                 ; [CPU_ARAU] 
     431                      .dwcfi  cfa_offset, -8
     432 0000002e 2942          CLRC      PAGE0,OVM             ; [CPU_ALU] 
     433 0000002f 5616          CLRC      AMODE                 ; [CPU_ALU] 
     434              $C$DW$30        .dwtag  DW_TAG_variable
     435                      .dwattr $C$DW$30, DW_AT_name("i")
     436                      .dwattr $C$DW$30, DW_AT_TI_symbol_name("_i")
     437                      .dwattr $C$DW$30, DW_AT_type(*$C$DW$T$33)
     438                      .dwattr $C$DW$30, DW_AT_location[DW_OP_breg20 -1]
     439              
     440                      .dwpsn  file "C:/ti/Workspace/PLC_certificate/Examples/TI/TMDSDOCK28335/BSP/OS/uCOS-II/bsp_os.c",line
     441 00000030 2B41          MOV       *-SP[1],#0            ; [CPU_ALU] |170| 
     442                      .dwpsn  file "C:/ti/Workspace/PLC_certificate/Examples/TI/TMDSDOCK28335/BSP/OS/uCOS-II/bsp_os.c",line
     443 00000031 9241          MOV       AL,*-SP[1]            ; [CPU_ALU] |170| 
     444 00000032 5210          CMPB      AL,#16                ; [CPU_ALU] |170| 
     445 00000033 670A          B         $C$L2,HIS             ; [CPU_ALU] |170| 
     446                      ; branchcc occurs ; [] |170| 
     447 00000034 8F00-         MOVL      XAR4,#_scirxBuf       ; [CPU_ARAU] |171| 
         00000035 0000 
     448 00000036       $C$L1:    
     449                      .dwpsn  file "C:/ti/Workspace/PLC_certificate/Examples/TI/TMDSDOCK28335/BSP/OS/uCOS-II/bsp_os.c",line
     450 00000036 5841          MOVZ      AR0,*-SP[1]           ; [CPU_ALU] |171| 
     451 00000037 F594          MOV       *+XAR4[AR0],*(0:0x7057) ; [CPU_ALU] |171| 
         00000038 7057 
     452                      .dwpsn  file "C:/ti/Workspace/PLC_certificate/Examples/TI/TMDSDOCK28335/BSP/OS/uCOS-II/bsp_os.c",line
     453 00000039 0A41          INC       *-SP[1]               ; [CPU_ALU] |170| 
     454                      .dwpsn  file "C:/ti/Workspace/PLC_certificate/Examples/TI/TMDSDOCK28335/BSP/OS/uCOS-II/bsp_os.c",line
     455 0000003a 9241          MOV       AL,*-SP[1]            ; [CPU_ALU] |170| 
     456 0000003b 5210          CMPB      AL,#16                ; [CPU_ALU] |170| 
     457 0000003c 68FA          B         $C$L1,LO              ; [CPU_ALU] |170| 
     458                      ; branchcc occurs ; [] |170| 
     459 0000003d       $C$L2:    
     460                      .dwpsn  file "C:/ti/Workspace/PLC_certificate/Examples/TI/TMDSDOCK28335/BSP/OS/uCOS-II/bsp_os.c",line
     461 0000003d 28A9          MOV       AL,#8208              ; [CPU_ALU] |174| 
         0000003e 2010 
     462 0000003f F4A9          MOV       *(0:0x705b),AL        ; [CPU_ALU] |174| 
         00000040 705B 
TMS320C2000 Assembler PC v20.2.1 Tue Jan 12 14:30:43 2021

Copyright (c) 1996-2018 Texas Instruments Incorporated
bsp_os.asm                                                           PAGE   10

     463                      .dwpsn  file "C:/ti/Workspace/PLC_certificate/Examples/TI/TMDSDOCK28335/BSP/OS/uCOS-II/bsp_os.c",line
     464 00000041 F5A9          MOV       AL,*(0:0x0cf3)        ; [CPU_ALU] |175| 
         00000042 0CF3 
     465 00000043 18A9          AND       AL,#0xfffe            ; [CPU_ALU] |175| 
         00000044 FFFE 
     466 00000045 F4A9          MOV       *(0:0x0cf3),AL        ; [CPU_ALU] |175| 
         00000046 0CF3 
     467                      .dwpsn  file "C:/ti/Workspace/PLC_certificate/Examples/TI/TMDSDOCK28335/BSP/OS/uCOS-II/bsp_os.c",line
     468 00000047 F5A9          MOV       AL,*(0:0x0ce1)        ; [CPU_ALU] |176| 
         00000048 0CE1 
     469 00000049 1AA9          OR        AL,#0x0100            ; [CPU_ALU] |176| 
         0000004a 0100 
     470 0000004b F4A9          MOV       *(0:0x0ce1),AL        ; [CPU_ALU] |176| 
         0000004c 0CE1 
     471                      .dwpsn  file "C:/ti/Workspace/PLC_certificate/Examples/TI/TMDSDOCK28335/BSP/OS/uCOS-II/bsp_os.c",line
     472 0000004d FE82          SUBB      SP,#2                 ; [CPU_ARAU] 
     473                      .dwcfi  cfa_offset, -6
     474 0000004e 8ABE          MOVL      XAR4,*--SP            ; [CPU_ALU] 
     475                      .dwcfi  cfa_offset, -4
     476                      .dwcfi  restore_reg, 12
     477 0000004f 0003          POP       AR1H:AR0H             ; [CPU_ALU] 
     478                      .dwcfi  cfa_offset, -2
     479                      .dwcfi  restore_reg, 5
     480                      .dwcfi  restore_reg, 7
     481 00000050 7617          NASP      ; [CPU_ALU] 
     482              $C$DW$31        .dwtag  DW_TAG_TI_branch
     483                      .dwattr $C$DW$31, DW_AT_low_pc(0x00)
     484                      .dwattr $C$DW$31, DW_AT_TI_return
     485              
     486 00000051 7602          IRET      ; [CPU_ALU] 
     487                      ; return occurs ; [] 
     488                      .dwattr $C$DW$29, DW_AT_TI_end_file("C:/ti/Workspace/PLC_certificate/Examples/TI/TMDSDOCK28335/BSP/OS
     489                      .dwattr $C$DW$29, DW_AT_TI_end_line(0xb1)
     490                      .dwattr $C$DW$29, DW_AT_TI_end_column(0x01)
     491                      .dwendentry
     492                      .dwendtag $C$DW$29
     493              
     494 00000052               .sect   ".text:retain"
     495                      .retain
     496                      .retainrefs
     497                      .global _BSP_SCIA_TX
     498              
     499              $C$DW$32        .dwtag  DW_TAG_subprogram
     500                      .dwattr $C$DW$32, DW_AT_name("BSP_SCIA_TX")
     501                      .dwattr $C$DW$32, DW_AT_low_pc(_BSP_SCIA_TX)
     502                      .dwattr $C$DW$32, DW_AT_high_pc(0x00)
     503                      .dwattr $C$DW$32, DW_AT_TI_symbol_name("_BSP_SCIA_TX")
     504                      .dwattr $C$DW$32, DW_AT_external
     505                      .dwattr $C$DW$32, DW_AT_TI_begin_file("C:/ti/Workspace/PLC_certificate/Examples/TI/TMDSDOCK28335/BSP/
     506                      .dwattr $C$DW$32, DW_AT_TI_begin_line(0xb3)
     507                      .dwattr $C$DW$32, DW_AT_TI_begin_column(0x10)
     508                      .dwattr $C$DW$32, DW_AT_TI_interrupt
     509                      .dwattr $C$DW$32, DW_AT_TI_max_frame_size(-8)
     510                      .dwpsn  file "C:/ti/Workspace/PLC_certificate/Examples/TI/TMDSDOCK28335/BSP/OS/uCOS-II/bsp_os.c",line
     511              
TMS320C2000 Assembler PC v20.2.1 Tue Jan 12 14:30:43 2021

Copyright (c) 1996-2018 Texas Instruments Incorporated
bsp_os.asm                                                           PAGE   11

     512                      .dwfde $C$DW$CIE, _BSP_SCIA_TX
     513              
     514              ;***************************************************************
     515              ;* FNAME: _BSP_SCIA_TX                  FR SIZE:   6           *
     516              ;*                                                             *
     517              ;* FUNCTION ENVIRONMENT                                        *
     518              ;*                                                             *
     519              ;* FUNCTION PROPERTIES                                         *
     520              ;*                            0 Parameter,  1 Auto,  4 SOE     *
     521              ;***************************************************************
     522              
     523 00000052       _BSP_SCIA_TX:
     524                      .dwcfi  cfa_offset, -2
     525                      .dwcfi  save_reg_to_mem, 26, 0
     526 00000052 761B          ASP       ; [CPU_ALU] 
     527 00000053 0005          PUSH      AR1H:AR0H             ; [CPU_ALU] 
     528                      .dwcfi  save_reg_to_mem, 5, 2
     529                      .dwcfi  save_reg_to_mem, 7, 3
     530                      .dwcfi  cfa_offset, -4
     531 00000054 A8BD          MOVL      *SP++,XAR4            ; [CPU_ALU] 
     532                      .dwcfi  save_reg_to_mem, 12, 4
     533                      .dwcfi  save_reg_to_mem, 13, 5
     534                      .dwcfi  cfa_offset, -6
     535 00000055 FE02          ADDB      SP,#2                 ; [CPU_ARAU] 
     536                      .dwcfi  cfa_offset, -8
     537 00000056 2942          CLRC      PAGE0,OVM             ; [CPU_ALU] 
     538 00000057 5616          CLRC      AMODE                 ; [CPU_ALU] 
     539              $C$DW$33        .dwtag  DW_TAG_variable
     540                      .dwattr $C$DW$33, DW_AT_name("i")
     541                      .dwattr $C$DW$33, DW_AT_TI_symbol_name("_i")
     542                      .dwattr $C$DW$33, DW_AT_type(*$C$DW$T$33)
     543                      .dwattr $C$DW$33, DW_AT_location[DW_OP_breg20 -1]
     544              
     545                      .dwpsn  file "C:/ti/Workspace/PLC_certificate/Examples/TI/TMDSDOCK28335/BSP/OS/uCOS-II/bsp_os.c",line
     546 00000058 761F!         MOVW      DP,#_certification_flag1 ; [CPU_ARAU] 
         00000059 0000 
     547 0000005a 9200!         MOV       AL,@_certification_flag1 ; [CPU_ALU] |184| 
     548 0000005b 5201          CMPB      AL,#1                 ; [CPU_ALU] |184| 
     549 0000005c 6012          B         $C$L5,NEQ             ; [CPU_ALU] |184| 
     550                      ; branchcc occurs ; [] |184| 
     551                      .dwpsn  file "C:/ti/Workspace/PLC_certificate/Examples/TI/TMDSDOCK28335/BSP/OS/uCOS-II/bsp_os.c",line
     552 0000005d 2B41          MOV       *-SP[1],#0            ; [CPU_ALU] |186| 
     553                      .dwpsn  file "C:/ti/Workspace/PLC_certificate/Examples/TI/TMDSDOCK28335/BSP/OS/uCOS-II/bsp_os.c",line
     554 0000005e 9241          MOV       AL,*-SP[1]            ; [CPU_ALU] |186| 
     555 0000005f 5210          CMPB      AL,#16                ; [CPU_ALU] |186| 
     556 00000060 670A          B         $C$L4,HIS             ; [CPU_ALU] |186| 
     557                      ; branchcc occurs ; [] |186| 
     558 00000061 8F00!         MOVL      XAR4,#_Timer_flag     ; [CPU_ARAU] |187| 
         00000062 0000 
     559 00000063       $C$L3:    
     560                      .dwpsn  file "C:/ti/Workspace/PLC_certificate/Examples/TI/TMDSDOCK28335/BSP/OS/uCOS-II/bsp_os.c",line
     561 00000063 5841          MOVZ      AR0,*-SP[1]           ; [CPU_ALU] |187| 
     562 00000064 F494          MOV       *(0:0x7059),*+XAR4[AR0] ; [CPU_ALU] |187| 
         00000065 7059 
     563                      .dwpsn  file "C:/ti/Workspace/PLC_certificate/Examples/TI/TMDSDOCK28335/BSP/OS/uCOS-II/bsp_os.c",line
TMS320C2000 Assembler PC v20.2.1 Tue Jan 12 14:30:43 2021

Copyright (c) 1996-2018 Texas Instruments Incorporated
bsp_os.asm                                                           PAGE   12

     564 00000066 0A41          INC       *-SP[1]               ; [CPU_ALU] |186| 
     565                      .dwpsn  file "C:/ti/Workspace/PLC_certificate/Examples/TI/TMDSDOCK28335/BSP/OS/uCOS-II/bsp_os.c",line
     566 00000067 9241          MOV       AL,*-SP[1]            ; [CPU_ALU] |186| 
     567 00000068 5210          CMPB      AL,#16                ; [CPU_ALU] |186| 
     568 00000069 68FA          B         $C$L3,LO              ; [CPU_ALU] |186| 
     569                      ; branchcc occurs ; [] |186| 
     570 0000006a       $C$L4:    
     571                      .dwpsn  file "C:/ti/Workspace/PLC_certificate/Examples/TI/TMDSDOCK28335/BSP/OS/uCOS-II/bsp_os.c",line
     572 0000006a 761F!         MOVW      DP,#_certification_flag1 ; [CPU_ARAU] 
         0000006b 0000 
     573 0000006c 2B00!         MOV       @_certification_flag1,#0 ; [CPU_ALU] |188| 
     574 0000006d 6F19          B         $C$L8,UNC             ; [CPU_ALU] 
     575                      ; branch occurs ; [] 
     576 0000006e       $C$L5:    
     577                      .dwpsn  file "C:/ti/Workspace/PLC_certificate/Examples/TI/TMDSDOCK28335/BSP/OS/uCOS-II/bsp_os.c",line
     578 0000006e 761F!         MOVW      DP,#_certification_flag2 ; [CPU_ARAU] 
         0000006f 0000 
     579 00000070 9200!         MOV       AL,@_certification_flag2 ; [CPU_ALU] |190| 
     580 00000071 5201          CMPB      AL,#1                 ; [CPU_ALU] |190| 
     581 00000072 6014          B         $C$L8,NEQ             ; [CPU_ALU] |190| 
     582                      ; branchcc occurs ; [] |190| 
     583                      .dwpsn  file "C:/ti/Workspace/PLC_certificate/Examples/TI/TMDSDOCK28335/BSP/OS/uCOS-II/bsp_os.c",line
     584 00000073 2B41          MOV       *-SP[1],#0            ; [CPU_ALU] |192| 
     585                      .dwpsn  file "C:/ti/Workspace/PLC_certificate/Examples/TI/TMDSDOCK28335/BSP/OS/uCOS-II/bsp_os.c",line
     586 00000074 9241          MOV       AL,*-SP[1]            ; [CPU_ALU] |192| 
     587 00000075 5210          CMPB      AL,#16                ; [CPU_ALU] |192| 
     588 00000076 670A          B         $C$L7,HIS             ; [CPU_ALU] |192| 
     589                      ; branchcc occurs ; [] |192| 
     590 00000077 8F00!         MOVL      XAR4,#_Reply_flag     ; [CPU_ARAU] |193| 
         00000078 0000 
     591 00000079       $C$L6:    
     592                      .dwpsn  file "C:/ti/Workspace/PLC_certificate/Examples/TI/TMDSDOCK28335/BSP/OS/uCOS-II/bsp_os.c",line
     593 00000079 5841          MOVZ      AR0,*-SP[1]           ; [CPU_ALU] |193| 
     594 0000007a F494          MOV       *(0:0x7059),*+XAR4[AR0] ; [CPU_ALU] |193| 
         0000007b 7059 
     595                      .dwpsn  file "C:/ti/Workspace/PLC_certificate/Examples/TI/TMDSDOCK28335/BSP/OS/uCOS-II/bsp_os.c",line
     596 0000007c 0A41          INC       *-SP[1]               ; [CPU_ALU] |192| 
     597                      .dwpsn  file "C:/ti/Workspace/PLC_certificate/Examples/TI/TMDSDOCK28335/BSP/OS/uCOS-II/bsp_os.c",line
     598 0000007d 9241          MOV       AL,*-SP[1]            ; [CPU_ALU] |192| 
     599 0000007e 5210          CMPB      AL,#16                ; [CPU_ALU] |192| 
     600 0000007f 68FA          B         $C$L6,LO              ; [CPU_ALU] |192| 
     601                      ; branchcc occurs ; [] |192| 
     602 00000080       $C$L7:    
     603                      .dwpsn  file "C:/ti/Workspace/PLC_certificate/Examples/TI/TMDSDOCK28335/BSP/OS/uCOS-II/bsp_os.c",line
     604 00000080 761F!         MOVW      DP,#_certification_flag2 ; [CPU_ARAU] 
         00000081 0000 
     605 00000082 2B00!         MOV       @_certification_flag2,#0 ; [CPU_ALU] |194| 
     606                      .dwpsn  file "C:/ti/Workspace/PLC_certificate/Examples/TI/TMDSDOCK28335/BSP/OS/uCOS-II/bsp_os.c",line
     607 00000083 761F!         MOVW      DP,#_psh_flag         ; [CPU_ARAU] 
         00000084 0000 
     608 00000085 2B00!         MOV       @_psh_flag,#0         ; [CPU_ALU] |195| 
     609 00000086       $C$L8:    
     610                      .dwpsn  file "C:/ti/Workspace/PLC_certificate/Examples/TI/TMDSDOCK28335/BSP/OS/uCOS-II/bsp_os.c",line
     611 00000086 F5A9          MOV       AL,*(0:0x705a)        ; [CPU_ALU] |198| 
         00000087 705A 
TMS320C2000 Assembler PC v20.2.1 Tue Jan 12 14:30:43 2021

Copyright (c) 1996-2018 Texas Instruments Incorporated
bsp_os.asm                                                           PAGE   13

     612 00000088 1AA9          OR        AL,#0x2040            ; [CPU_ALU] |198| 
         00000089 2040 
     613 0000008a F4A9          MOV       *(0:0x705a),AL        ; [CPU_ALU] |198| 
         0000008b 705A 
     614                      .dwpsn  file "C:/ti/Workspace/PLC_certificate/Examples/TI/TMDSDOCK28335/BSP/OS/uCOS-II/bsp_os.c",line
     615 0000008c F5A9          MOV       AL,*(0:0x0cf3)        ; [CPU_ALU] |199| 
         0000008d 0CF3 
     616 0000008e 18A9          AND       AL,#0xfffe            ; [CPU_ALU] |199| 
         0000008f FFFE 
     617 00000090 F4A9          MOV       *(0:0x0cf3),AL        ; [CPU_ALU] |199| 
         00000091 0CF3 
     618                      .dwpsn  file "C:/ti/Workspace/PLC_certificate/Examples/TI/TMDSDOCK28335/BSP/OS/uCOS-II/bsp_os.c",line
     619 00000092 F5A9          MOV       AL,*(0:0x0ce1)        ; [CPU_ALU] |200| 
         00000093 0CE1 
     620 00000094 1AA9          OR        AL,#0x0100            ; [CPU_ALU] |200| 
         00000095 0100 
     621 00000096 F4A9          MOV       *(0:0x0ce1),AL        ; [CPU_ALU] |200| 
         00000097 0CE1 
     622                      .dwpsn  file "C:/ti/Workspace/PLC_certificate/Examples/TI/TMDSDOCK28335/BSP/OS/uCOS-II/bsp_os.c",line
     623 00000098 FE82          SUBB      SP,#2                 ; [CPU_ARAU] 
     624                      .dwcfi  cfa_offset, -6
     625 00000099 8ABE          MOVL      XAR4,*--SP            ; [CPU_ALU] 
     626                      .dwcfi  cfa_offset, -4
     627                      .dwcfi  restore_reg, 12
     628 0000009a 0003          POP       AR1H:AR0H             ; [CPU_ALU] 
     629                      .dwcfi  cfa_offset, -2
     630                      .dwcfi  restore_reg, 5
     631                      .dwcfi  restore_reg, 7
     632 0000009b 7617          NASP      ; [CPU_ALU] 
     633              $C$DW$34        .dwtag  DW_TAG_TI_branch
     634                      .dwattr $C$DW$34, DW_AT_low_pc(0x00)
     635                      .dwattr $C$DW$34, DW_AT_TI_return
     636              
     637 0000009c 7602          IRET      ; [CPU_ALU] 
     638                      ; return occurs ; [] 
     639                      .dwattr $C$DW$32, DW_AT_TI_end_file("C:/ti/Workspace/PLC_certificate/Examples/TI/TMDSDOCK28335/BSP/OS
     640                      .dwattr $C$DW$32, DW_AT_TI_end_line(0xcb)
     641                      .dwattr $C$DW$32, DW_AT_TI_end_column(0x01)
     642                      .dwendentry
     643                      .dwendtag $C$DW$32
     644              
     645              ;**************************************************************
     646              ;* UNDEFINED EXTERNAL REFERENCES                              *
     647              ;**************************************************************
     648                      .global _BSP_IntEn
     649                      .global _OSIntEnter
     650                      .global _CPU_SR_Restore
     651                      .global _OSTimeTick
     652                      .global _OSIntExit
     653                      .global _certification_flag1
     654                      .global _certification_flag2
     655                      .global _psh_flag
     656                      .global _CPU_SR_Save
     657                      .global _Timer_flag
     658                      .global _Reply_flag
TMS320C2000 Assembler PC v20.2.1 Tue Jan 12 14:30:43 2021

Copyright (c) 1996-2018 Texas Instruments Incorporated
bsp_os.asm                                                           PAGE   14

     659              
     660              ;***************************************************************
     661              ;* TYPE INFORMATION                                            *
     662              ;***************************************************************
     663              $C$DW$T$2       .dwtag  DW_TAG_unspecified_type
     664                      .dwattr $C$DW$T$2, DW_AT_name("void")
     665              
     666              $C$DW$T$4       .dwtag  DW_TAG_base_type
     667                      .dwattr $C$DW$T$4, DW_AT_encoding(DW_ATE_boolean)
     668                      .dwattr $C$DW$T$4, DW_AT_name("bool")
     669                      .dwattr $C$DW$T$4, DW_AT_byte_size(0x01)
     670              
     671              $C$DW$T$5       .dwtag  DW_TAG_base_type
     672                      .dwattr $C$DW$T$5, DW_AT_encoding(DW_ATE_signed_char)
     673                      .dwattr $C$DW$T$5, DW_AT_name("signed char")
     674                      .dwattr $C$DW$T$5, DW_AT_byte_size(0x01)
     675              
     676              $C$DW$T$30      .dwtag  DW_TAG_typedef
     677                      .dwattr $C$DW$T$30, DW_AT_name("INT8S")
     678                      .dwattr $C$DW$T$30, DW_AT_type(*$C$DW$T$5)
     679                      .dwattr $C$DW$T$30, DW_AT_language(DW_LANG_C)
     680              
     681              
     682              $C$DW$T$31      .dwtag  DW_TAG_array_type
     683                      .dwattr $C$DW$T$31, DW_AT_type(*$C$DW$T$30)
     684                      .dwattr $C$DW$T$31, DW_AT_language(DW_LANG_C)
     685                      .dwattr $C$DW$T$31, DW_AT_byte_size(0x10)
     686              $C$DW$35        .dwtag  DW_TAG_subrange_type
     687                      .dwattr $C$DW$35, DW_AT_upper_bound(0x0f)
     688              
     689                      .dwendtag $C$DW$T$31
     690              
     691              $C$DW$T$6       .dwtag  DW_TAG_base_type
     692                      .dwattr $C$DW$T$6, DW_AT_encoding(DW_ATE_unsigned_char)
     693                      .dwattr $C$DW$T$6, DW_AT_name("unsigned char")
     694                      .dwattr $C$DW$T$6, DW_AT_byte_size(0x01)
     695              
     696              $C$DW$T$33      .dwtag  DW_TAG_typedef
     697                      .dwattr $C$DW$T$33, DW_AT_name("INT8U")
     698                      .dwattr $C$DW$T$33, DW_AT_type(*$C$DW$T$6)
     699                      .dwattr $C$DW$T$33, DW_AT_language(DW_LANG_C)
     700              
     701              
     702              $C$DW$T$34      .dwtag  DW_TAG_array_type
     703                      .dwattr $C$DW$T$34, DW_AT_type(*$C$DW$T$33)
     704                      .dwattr $C$DW$T$34, DW_AT_language(DW_LANG_C)
     705                      .dwattr $C$DW$T$34, DW_AT_byte_size(0x10)
     706              $C$DW$36        .dwtag  DW_TAG_subrange_type
     707                      .dwattr $C$DW$36, DW_AT_upper_bound(0x0f)
     708              
     709                      .dwendtag $C$DW$T$34
     710              
     711              $C$DW$T$7       .dwtag  DW_TAG_base_type
     712                      .dwattr $C$DW$T$7, DW_AT_encoding(DW_ATE_signed_char)
     713                      .dwattr $C$DW$T$7, DW_AT_name("wchar_t")
TMS320C2000 Assembler PC v20.2.1 Tue Jan 12 14:30:43 2021

Copyright (c) 1996-2018 Texas Instruments Incorporated
bsp_os.asm                                                           PAGE   15

     714                      .dwattr $C$DW$T$7, DW_AT_byte_size(0x01)
     715              
     716              $C$DW$T$8       .dwtag  DW_TAG_base_type
     717                      .dwattr $C$DW$T$8, DW_AT_encoding(DW_ATE_signed)
     718                      .dwattr $C$DW$T$8, DW_AT_name("short")
     719                      .dwattr $C$DW$T$8, DW_AT_byte_size(0x01)
     720              
     721              $C$DW$T$9       .dwtag  DW_TAG_base_type
     722                      .dwattr $C$DW$T$9, DW_AT_encoding(DW_ATE_unsigned)
     723                      .dwattr $C$DW$T$9, DW_AT_name("unsigned short")
     724                      .dwattr $C$DW$T$9, DW_AT_byte_size(0x01)
     725              
     726              $C$DW$T$19      .dwtag  DW_TAG_typedef
     727                      .dwattr $C$DW$T$19, DW_AT_name("CPU_INT16U")
     728                      .dwattr $C$DW$T$19, DW_AT_type(*$C$DW$T$9)
     729                      .dwattr $C$DW$T$19, DW_AT_language(DW_LANG_C)
     730              
     731              $C$DW$T$23      .dwtag  DW_TAG_typedef
     732                      .dwattr $C$DW$T$23, DW_AT_name("CPU_DATA")
     733                      .dwattr $C$DW$T$23, DW_AT_type(*$C$DW$T$19)
     734                      .dwattr $C$DW$T$23, DW_AT_language(DW_LANG_C)
     735              
     736              $C$DW$T$20      .dwtag  DW_TAG_typedef
     737                      .dwattr $C$DW$T$20, DW_AT_name("CPU_SR")
     738                      .dwattr $C$DW$T$20, DW_AT_type(*$C$DW$T$19)
     739                      .dwattr $C$DW$T$20, DW_AT_language(DW_LANG_C)
     740              
     741              $C$DW$T$10      .dwtag  DW_TAG_base_type
     742                      .dwattr $C$DW$T$10, DW_AT_encoding(DW_ATE_signed)
     743                      .dwattr $C$DW$T$10, DW_AT_name("int")
     744                      .dwattr $C$DW$T$10, DW_AT_byte_size(0x01)
     745              
     746              $C$DW$T$11      .dwtag  DW_TAG_base_type
     747                      .dwattr $C$DW$T$11, DW_AT_encoding(DW_ATE_unsigned)
     748                      .dwattr $C$DW$T$11, DW_AT_name("unsigned int")
     749                      .dwattr $C$DW$T$11, DW_AT_byte_size(0x01)
     750              
     751              $C$DW$T$12      .dwtag  DW_TAG_base_type
     752                      .dwattr $C$DW$T$12, DW_AT_encoding(DW_ATE_signed)
     753                      .dwattr $C$DW$T$12, DW_AT_name("long")
     754                      .dwattr $C$DW$T$12, DW_AT_byte_size(0x02)
     755              
     756              $C$DW$T$13      .dwtag  DW_TAG_base_type
     757                      .dwattr $C$DW$T$13, DW_AT_encoding(DW_ATE_unsigned)
     758                      .dwattr $C$DW$T$13, DW_AT_name("unsigned long")
     759                      .dwattr $C$DW$T$13, DW_AT_byte_size(0x02)
     760              
     761              $C$DW$T$28      .dwtag  DW_TAG_typedef
     762                      .dwattr $C$DW$T$28, DW_AT_name("CPU_INT32U")
     763                      .dwattr $C$DW$T$28, DW_AT_type(*$C$DW$T$13)
     764                      .dwattr $C$DW$T$28, DW_AT_language(DW_LANG_C)
     765              
     766              $C$DW$T$14      .dwtag  DW_TAG_base_type
     767                      .dwattr $C$DW$T$14, DW_AT_encoding(DW_ATE_signed)
     768                      .dwattr $C$DW$T$14, DW_AT_name("long long")
TMS320C2000 Assembler PC v20.2.1 Tue Jan 12 14:30:43 2021

Copyright (c) 1996-2018 Texas Instruments Incorporated
bsp_os.asm                                                           PAGE   16

     769                      .dwattr $C$DW$T$14, DW_AT_byte_size(0x04)
     770              
     771              $C$DW$T$15      .dwtag  DW_TAG_base_type
     772                      .dwattr $C$DW$T$15, DW_AT_encoding(DW_ATE_unsigned)
     773                      .dwattr $C$DW$T$15, DW_AT_name("unsigned long long")
     774                      .dwattr $C$DW$T$15, DW_AT_byte_size(0x04)
     775              
     776              $C$DW$T$16      .dwtag  DW_TAG_base_type
     777                      .dwattr $C$DW$T$16, DW_AT_encoding(DW_ATE_float)
     778                      .dwattr $C$DW$T$16, DW_AT_name("float")
     779                      .dwattr $C$DW$T$16, DW_AT_byte_size(0x02)
     780              
     781              $C$DW$T$17      .dwtag  DW_TAG_base_type
     782                      .dwattr $C$DW$T$17, DW_AT_encoding(DW_ATE_float)
     783                      .dwattr $C$DW$T$17, DW_AT_name("double")
     784                      .dwattr $C$DW$T$17, DW_AT_byte_size(0x02)
     785              
     786              $C$DW$T$18      .dwtag  DW_TAG_base_type
     787                      .dwattr $C$DW$T$18, DW_AT_encoding(DW_ATE_float)
     788                      .dwattr $C$DW$T$18, DW_AT_name("long double")
     789                      .dwattr $C$DW$T$18, DW_AT_byte_size(0x04)
     790              
     791                      .dwattr $C$DW$CU, DW_AT_language(DW_LANG_C)
     792              
     793              ;***************************************************************
     794              ;* DWARF CIE ENTRIES                                           *
     795              ;***************************************************************
     796              
     797              $C$DW$CIE       .dwcie 26
     798                      .dwcfi  cfa_register, 20
     799                      .dwcfi  cfa_offset, 0
     800                      .dwcfi  same_value, 28
     801                      .dwcfi  same_value, 6
     802                      .dwcfi  same_value, 7
     803                      .dwcfi  same_value, 8
     804                      .dwcfi  same_value, 9
     805                      .dwcfi  same_value, 10
     806                      .dwcfi  same_value, 11
     807                      .dwendentry
     808              
     809              ;***************************************************************
     810              ;* DWARF REGISTER MAP                                          *
     811              ;***************************************************************
     812              
     813              $C$DW$37        .dwtag  DW_TAG_TI_assign_register
     814                      .dwattr $C$DW$37, DW_AT_name("AL")
     815                      .dwattr $C$DW$37, DW_AT_location[DW_OP_reg0]
     816              
     817              $C$DW$38        .dwtag  DW_TAG_TI_assign_register
     818                      .dwattr $C$DW$38, DW_AT_name("AH")
     819                      .dwattr $C$DW$38, DW_AT_location[DW_OP_reg1]
     820              
     821              $C$DW$39        .dwtag  DW_TAG_TI_assign_register
     822                      .dwattr $C$DW$39, DW_AT_name("PL")
     823                      .dwattr $C$DW$39, DW_AT_location[DW_OP_reg2]
TMS320C2000 Assembler PC v20.2.1 Tue Jan 12 14:30:43 2021

Copyright (c) 1996-2018 Texas Instruments Incorporated
bsp_os.asm                                                           PAGE   17

     824              
     825              $C$DW$40        .dwtag  DW_TAG_TI_assign_register
     826                      .dwattr $C$DW$40, DW_AT_name("PH")
     827                      .dwattr $C$DW$40, DW_AT_location[DW_OP_reg3]
     828              
     829              $C$DW$41        .dwtag  DW_TAG_TI_assign_register
     830                      .dwattr $C$DW$41, DW_AT_name("SP")
     831                      .dwattr $C$DW$41, DW_AT_location[DW_OP_reg20]
     832              
     833              $C$DW$42        .dwtag  DW_TAG_TI_assign_register
     834                      .dwattr $C$DW$42, DW_AT_name("XT")
     835                      .dwattr $C$DW$42, DW_AT_location[DW_OP_reg21]
     836              
     837              $C$DW$43        .dwtag  DW_TAG_TI_assign_register
     838                      .dwattr $C$DW$43, DW_AT_name("T")
     839                      .dwattr $C$DW$43, DW_AT_location[DW_OP_reg22]
     840              
     841              $C$DW$44        .dwtag  DW_TAG_TI_assign_register
     842                      .dwattr $C$DW$44, DW_AT_name("ST0")
     843                      .dwattr $C$DW$44, DW_AT_location[DW_OP_reg23]
     844              
     845              $C$DW$45        .dwtag  DW_TAG_TI_assign_register
     846                      .dwattr $C$DW$45, DW_AT_name("ST1")
     847                      .dwattr $C$DW$45, DW_AT_location[DW_OP_reg24]
     848              
     849              $C$DW$46        .dwtag  DW_TAG_TI_assign_register
     850                      .dwattr $C$DW$46, DW_AT_name("PC")
     851                      .dwattr $C$DW$46, DW_AT_location[DW_OP_reg25]
     852              
     853              $C$DW$47        .dwtag  DW_TAG_TI_assign_register
     854                      .dwattr $C$DW$47, DW_AT_name("RPC")
     855                      .dwattr $C$DW$47, DW_AT_location[DW_OP_reg26]
     856              
     857              $C$DW$48        .dwtag  DW_TAG_TI_assign_register
     858                      .dwattr $C$DW$48, DW_AT_name("FP")
     859                      .dwattr $C$DW$48, DW_AT_location[DW_OP_reg28]
     860              
     861              $C$DW$49        .dwtag  DW_TAG_TI_assign_register
     862                      .dwattr $C$DW$49, DW_AT_name("DP")
     863                      .dwattr $C$DW$49, DW_AT_location[DW_OP_reg29]
     864              
     865              $C$DW$50        .dwtag  DW_TAG_TI_assign_register
     866                      .dwattr $C$DW$50, DW_AT_name("SXM")
     867                      .dwattr $C$DW$50, DW_AT_location[DW_OP_reg30]
     868              
     869              $C$DW$51        .dwtag  DW_TAG_TI_assign_register
     870                      .dwattr $C$DW$51, DW_AT_name("PM")
     871                      .dwattr $C$DW$51, DW_AT_location[DW_OP_reg31]
     872              
     873              $C$DW$52        .dwtag  DW_TAG_TI_assign_register
     874                      .dwattr $C$DW$52, DW_AT_name("OVM")
     875                      .dwattr $C$DW$52, DW_AT_location[DW_OP_regx 0x20]
     876              
     877              $C$DW$53        .dwtag  DW_TAG_TI_assign_register
     878                      .dwattr $C$DW$53, DW_AT_name("PAGE0")
TMS320C2000 Assembler PC v20.2.1 Tue Jan 12 14:30:43 2021

Copyright (c) 1996-2018 Texas Instruments Incorporated
bsp_os.asm                                                           PAGE   18

     879                      .dwattr $C$DW$53, DW_AT_location[DW_OP_regx 0x21]
     880              
     881              $C$DW$54        .dwtag  DW_TAG_TI_assign_register
     882                      .dwattr $C$DW$54, DW_AT_name("AMODE")
     883                      .dwattr $C$DW$54, DW_AT_location[DW_OP_regx 0x22]
     884              
     885              $C$DW$55        .dwtag  DW_TAG_TI_assign_register
     886                      .dwattr $C$DW$55, DW_AT_name("EALLOW")
     887                      .dwattr $C$DW$55, DW_AT_location[DW_OP_regx 0x4e]
     888              
     889              $C$DW$56        .dwtag  DW_TAG_TI_assign_register
     890                      .dwattr $C$DW$56, DW_AT_name("INTM")
     891                      .dwattr $C$DW$56, DW_AT_location[DW_OP_regx 0x23]
     892              
     893              $C$DW$57        .dwtag  DW_TAG_TI_assign_register
     894                      .dwattr $C$DW$57, DW_AT_name("IFR")
     895                      .dwattr $C$DW$57, DW_AT_location[DW_OP_regx 0x24]
     896              
     897              $C$DW$58        .dwtag  DW_TAG_TI_assign_register
     898                      .dwattr $C$DW$58, DW_AT_name("IER")
     899                      .dwattr $C$DW$58, DW_AT_location[DW_OP_regx 0x25]
     900              
     901              $C$DW$59        .dwtag  DW_TAG_TI_assign_register
     902                      .dwattr $C$DW$59, DW_AT_name("V")
     903                      .dwattr $C$DW$59, DW_AT_location[DW_OP_regx 0x26]
     904              
     905              $C$DW$60        .dwtag  DW_TAG_TI_assign_register
     906                      .dwattr $C$DW$60, DW_AT_name("PSEUDOH")
     907                      .dwattr $C$DW$60, DW_AT_location[DW_OP_regx 0x4c]
     908              
     909              $C$DW$61        .dwtag  DW_TAG_TI_assign_register
     910                      .dwattr $C$DW$61, DW_AT_name("VOL")
     911                      .dwattr $C$DW$61, DW_AT_location[DW_OP_regx 0x4d]
     912              
     913              $C$DW$62        .dwtag  DW_TAG_TI_assign_register
     914                      .dwattr $C$DW$62, DW_AT_name("AR0")
     915                      .dwattr $C$DW$62, DW_AT_location[DW_OP_reg4]
     916              
     917              $C$DW$63        .dwtag  DW_TAG_TI_assign_register
     918                      .dwattr $C$DW$63, DW_AT_name("XAR0")
     919                      .dwattr $C$DW$63, DW_AT_location[DW_OP_reg5]
     920              
     921              $C$DW$64        .dwtag  DW_TAG_TI_assign_register
     922                      .dwattr $C$DW$64, DW_AT_name("AR1")
     923                      .dwattr $C$DW$64, DW_AT_location[DW_OP_reg6]
     924              
     925              $C$DW$65        .dwtag  DW_TAG_TI_assign_register
     926                      .dwattr $C$DW$65, DW_AT_name("XAR1")
     927                      .dwattr $C$DW$65, DW_AT_location[DW_OP_reg7]
     928              
     929              $C$DW$66        .dwtag  DW_TAG_TI_assign_register
     930                      .dwattr $C$DW$66, DW_AT_name("AR2")
     931                      .dwattr $C$DW$66, DW_AT_location[DW_OP_reg8]
     932              
     933              $C$DW$67        .dwtag  DW_TAG_TI_assign_register
TMS320C2000 Assembler PC v20.2.1 Tue Jan 12 14:30:43 2021

Copyright (c) 1996-2018 Texas Instruments Incorporated
bsp_os.asm                                                           PAGE   19

     934                      .dwattr $C$DW$67, DW_AT_name("XAR2")
     935                      .dwattr $C$DW$67, DW_AT_location[DW_OP_reg9]
     936              
     937              $C$DW$68        .dwtag  DW_TAG_TI_assign_register
     938                      .dwattr $C$DW$68, DW_AT_name("AR3")
     939                      .dwattr $C$DW$68, DW_AT_location[DW_OP_reg10]
     940              
     941              $C$DW$69        .dwtag  DW_TAG_TI_assign_register
     942                      .dwattr $C$DW$69, DW_AT_name("XAR3")
     943                      .dwattr $C$DW$69, DW_AT_location[DW_OP_reg11]
     944              
     945              $C$DW$70        .dwtag  DW_TAG_TI_assign_register
     946                      .dwattr $C$DW$70, DW_AT_name("AR4")
     947                      .dwattr $C$DW$70, DW_AT_location[DW_OP_reg12]
     948              
     949              $C$DW$71        .dwtag  DW_TAG_TI_assign_register
     950                      .dwattr $C$DW$71, DW_AT_name("XAR4")
     951                      .dwattr $C$DW$71, DW_AT_location[DW_OP_reg13]
     952              
     953              $C$DW$72        .dwtag  DW_TAG_TI_assign_register
     954                      .dwattr $C$DW$72, DW_AT_name("AR5")
     955                      .dwattr $C$DW$72, DW_AT_location[DW_OP_reg14]
     956              
     957              $C$DW$73        .dwtag  DW_TAG_TI_assign_register
     958                      .dwattr $C$DW$73, DW_AT_name("XAR5")
     959                      .dwattr $C$DW$73, DW_AT_location[DW_OP_reg15]
     960              
     961              $C$DW$74        .dwtag  DW_TAG_TI_assign_register
     962                      .dwattr $C$DW$74, DW_AT_name("AR6")
     963                      .dwattr $C$DW$74, DW_AT_location[DW_OP_reg16]
     964              
     965              $C$DW$75        .dwtag  DW_TAG_TI_assign_register
     966                      .dwattr $C$DW$75, DW_AT_name("XAR6")
     967                      .dwattr $C$DW$75, DW_AT_location[DW_OP_reg17]
     968              
     969              $C$DW$76        .dwtag  DW_TAG_TI_assign_register
     970                      .dwattr $C$DW$76, DW_AT_name("AR7")
     971                      .dwattr $C$DW$76, DW_AT_location[DW_OP_reg18]
     972              
     973              $C$DW$77        .dwtag  DW_TAG_TI_assign_register
     974                      .dwattr $C$DW$77, DW_AT_name("XAR7")
     975                      .dwattr $C$DW$77, DW_AT_location[DW_OP_reg19]
     976              
     977                      .dwendtag $C$DW$CU
     978              

No Assembly Errors, No Assembly Warnings
